ROM:0000             ; +---------------------------------+
ROM:0000             ; | Frogger Disassembly v0.01       |
ROM:0000             ; | - by tcdev (msmcdoug@gmail.com) |
ROM:0000             ; +---------------------------------+
ROM:0000             ;
ROM:0000             ; This disassembly is about 65% complete
ROM:0000             ;
ROM:0000
ROM:0000             ; ***
ROM:0000             ; *** FUN FACTS
ROM:0000             ; ***
ROM:0000             ;
ROM:0000             ; 1. Alligators only appear in 'homes' on even-numbered levels
ROM:0000             ;
ROM:0000
ROM:0000             ; Processor       : z80 []
ROM:0000             ; Target assembler: ASxxxx by Alan R. Baldwin v1.5
ROM:0000                    .area   idaseg (ABS)
ROM:0000                    .hd64 ; this is needed only for HD64180
ROM:0000
ROM:0000             ; ===========================================================================
ROM:0000
ROM:0000             ; Segment type: Pure code
ROM:0000
ROM:0000             RESET:
ROM:0000 3A 00 40                    ld      a, (0x4000)
ROM:0003 FE 55                       cp      #0x55 ; 'U'
ROM:0005 CA 01 40                    jp      Z, 0x4001
ROM:0008 3A 00 88                    ld      a, (watchdog)                           ; kick watchdog
ROM:000B 31 00 88                    ld      sp, #0x8800                             ; end of ram
ROM:000E C3 A3 02                    jp      START
ROM:000E             ; ---------------------------------------------------------------------------
ROM:0011 FF FF FF FF+                .db 0xFF, 0xFF, 0xFF, 0xFF, 0xFF, 0xFF, 0xFF
ROM:0018
ROM:0018             ; =============== S U B R O U T I N E =======================================
ROM:0018
ROM:0018
ROM:0018             add_snd_to_q:                                                   ; ...
ROM:0018 4F                          ld      c, a
ROM:0019 3A FE 83                    ld      a, (f_in_game)                          ; in game?
ROM:001C B7                          or      a
ROM:001D C8                          ret     Z                                       ; no, exit
ROM:001E E5                          push    hl
ROM:001F
ROM:001F             loc_1F:
ROM:001F 21 00 83                    ld      hl, #snd_q_cnt
ROM:0022 34                          inc     (hl)                                    ; inc cnt
ROM:0023 7E                          ld      a, (hl)
ROM:0024 6F                          ld      l, a                                    ; get addr of end of queue
ROM:0025 71                          ld      (hl), c                                 ; store new entry
ROM:0026 E1                          pop     hl
ROM:0027 C9                          ret
ROM:0027             ; End of function add_snd_to_q
ROM:0027
ROM:0028
ROM:0028             ; =============== S U B R O U T I N E =======================================
ROM:0028
ROM:0028
ROM:0028             print_B_chars:                                                  ; ...
ROM:0028 1A                          ld      a, (de)
ROM:0029 77                          ld      (hl), a
ROM:002A 7D                          ld      a, l
ROM:002B D6 20                       sub     #0x20 ; ' '
ROM:002D 6F                          ld      l, a
ROM:002E 30 01                       jr      NC, loc_31
ROM:0030 25                          dec     h
ROM:0031
ROM:0031             loc_31:                                                         ; ...
ROM:0031 13                          inc     de
ROM:0032 10 F4                       djnz    print_B_chars
ROM:0034 C9                          ret
ROM:0034             ; End of function print_B_chars
ROM:0034
ROM:0034             ; ---------------------------------------------------------------------------
ROM:0035 FF FF FF                    .db 0xFF, 0xFF, 0xFF
ROM:0038
ROM:0038             ; =============== S U B R O U T I N E =======================================
ROM:0038
ROM:0038
ROM:0038             clear_vram:                                                     ; ...
ROM:0038 11 10 20                    ld      de, #0x2010                             ; 32 rows, character ' '
ROM:003B 21 00 A8                    ld      hl, #VRAM_START                         ; start of video ram
ROM:003E
ROM:003E             loc_3E:                                                         ; ...
ROM:003E 06 20                       ld      b, #32
ROM:0040
ROM:0040             loc_40:                                                         ; ...
ROM:0040 73                          ld      (hl), e                                 ; 'A'
ROM:0041 23                          inc     hl
ROM:0042 10 FC                       djnz    loc_40
ROM:0044 0E 15                       ld      c, #21
ROM:0046
ROM:0046             loc_46:                                                         ; ...
ROM:0046 10 FE                       djnz    loc_46
ROM:0048 0D                          dec     c
ROM:0049 20 FB                       jr      NZ, loc_46
ROM:004B 15                          dec     d
ROM:004C 20 F0                       jr      NZ, loc_3E
ROM:004E C9                          ret
ROM:004E             ; End of function clear_vram
ROM:004E
ROM:004E             ; ---------------------------------------------------------------------------
ROM:004F FF FF FF FF+                .db 0xFF, 0xFF, 0xFF, 0xFF, 0xFF, 0xFF, 0xFF, 0xFF, 0xFF, 0xFF, 0xFF
ROM:004F FF FF FF FF+                .db 0xFF, 0xFF, 0xFF, 0xFF, 0xFF, 0xFF, 0xFF, 0xFF, 0xFF, 0xFF, 0xFF
ROM:004F FF FF FF FF+                .db 0xFF
ROM:0066             ; ---------------------------------------------------------------------------
ROM:0066
ROM:0066             NMI:
ROM:0066 F5                          push    af
ROM:0067 E5                          push    hl
ROM:0068 D5                          push    de
ROM:0069 C5                          push    bc
ROM:006A DD E5                       push    ix
ROM:006C FD E5                       push    iy
ROM:006E 3A 00 88                    ld      a, (watchdog)                           ; kick watchdog
ROM:0071 AF                          xor     a
ROM:0072 32 08 B8                    ld      (irq_enable_w), a                       ; disable interrupts
ROM:0075 CD F0 2C                    call    handle_coins
ROM:0078             ; UPDATE OBJECT & SPRITE RAM
ROM:0078 21 07 80                    ld      hl, #obj_shadow_plus_7
ROM:007B 11 07 B0                    ld      de, # OBJRAM_START+7                    ; row3, colour
ROM:007E 7E                          ld      a, (hl)
ROM:007F 12                          ld      (de), a
ROM:0080 2C                          inc     l
ROM:0081 1C                          inc     e
ROM:0082 06 1C                       ld      b, #28                                  ; 28 rows to update
ROM:0084
ROM:0084             loc_84:                                                         ; ...
ROM:0084 7E                          ld      a, (hl)                                 ; get scroll value
ROM:0085 0F                          rrca
ROM:0086 0F                          rrca
ROM:0087 0F                          rrca
ROM:0088 0F                          rrca                                            ; swap hi<->lo nybble
ROM:0089 12                          ld      (de), a                                 ; set scroll
ROM:008A 2C                          inc     l
ROM:008B 1C                          inc     e
ROM:008C 7E                          ld      a, (hl)                                 ; get colour base
ROM:008D 12                          ld      (de), a                                 ; set
ROM:008E 2C                          inc     l
ROM:008F 1C                          inc     e
ROM:0090 10 F2                       djnz    loc_84                                  ; loop through objram
ROM:0092 0E 08                       ld      c, #8                                   ; 8 sprites to update
ROM:0094 3A 2F 84                    ld      a, (byte_842F)
ROM:0097 B7                          or      a
ROM:0098 28 05                       jr      Z, loc_9F
ROM:009A 0E 06                       ld      c, #6                                   ; 6 sprites to update
ROM:009C 1E 48                       ld      e, #0x48 ; 'H'                          ; skip sprites 0,1
ROM:009E 6B                          ld      l, e
ROM:009F
ROM:009F             loc_9F:                                                         ; ...
ROM:009F 7E                          ld      a, (hl)                                 ; base0
ROM:00A0 0F                          rrca
ROM:00A1 0F                          rrca
ROM:00A2 0F                          rrca
ROM:00A3 0F                          rrca                                            ; swap hi<->lo nybble
ROM:00A4 12                          ld      (de), a                                 ; store
ROM:00A5 2C                          inc     l
ROM:00A6 1C                          inc     e
ROM:00A7 06 03                       ld      b, #3                                   ; 3 more bytes for this sprite
ROM:00A9
ROM:00A9             loc_A9:                                                         ; ...
ROM:00A9 7E                          ld      a, (hl)                                 ; get byte
ROM:00AA 12                          ld      (de), a                                 ; set register
ROM:00AB 2C                          inc     l
ROM:00AC 1C                          inc     e
ROM:00AD 10 FA                       djnz    loc_A9                                  ; loop through 3 bytes
ROM:00AF 0D                          dec     c                                       ; next sprite
ROM:00B0 20 ED                       jr      NZ, loc_9F                              ; loop through 6/8 sprites
ROM:00B2 21 7F 83                    ld      hl, #coin_debounce_1
ROM:00B5 7E                          ld      a, (hl)
ROM:00B6 B7                          or      a
ROM:00B7 28 07                       jr      Z, loc_C0
ROM:00B9 35                          dec     (hl)
ROM:00BA 20 04                       jr      NZ, loc_C0
ROM:00BC AF                          xor     a
ROM:00BD 32 1C B8                    ld      (__coincnt1), a                         ; coin timer?
ROM:00C0
ROM:00C0             loc_C0:                                                         ; ...
ROM:00C0 21 7E 83                    ld      hl, #coin_debounce_0
ROM:00C3 7E                          ld      a, (hl)
ROM:00C4 B7                          or      a
ROM:00C5 28 07                       jr      Z, loc_CE
ROM:00C7 35                          dec     (hl)
ROM:00C8 20 04                       jr      NZ, loc_CE
ROM:00CA AF                          xor     a
ROM:00CB 32 18 B8                    ld      (__coincnt0), a                         ; coin timer?
ROM:00CE
ROM:00CE             loc_CE:                                                         ; ...
ROM:00CE 3A 04 E0                    ld      a, (ppi8255_0_PC)                       ; IN2
ROM:00D1 E6 08                       and     #8                                      ; upright?
ROM:00D3 CA FC 00                    jp      Z, loc_FC                               ; yes, skip
ROM:00D6             ; adjustments for cocktail
ROM:00D6 3A FE 83                    ld      a, (f_in_game)
ROM:00D9 A7                          and     a                                       ; in game?
ROM:00DA CA FC 00                    jp      Z, loc_FC                               ; no, skip
ROM:00DD 3A FD 83                    ld      a, (curr_player)
ROM:00E0 A7                          and     a                                       ; none?
ROM:00E1 28 19                       jr      Z, loc_FC                               ; yes, skip
ROM:00E3 3D                          dec     a                                       ; player 1?
ROM:00E4 28 16                       jr      Z, loc_FC                               ; yes, skip
ROM:00E6 0E 02                       ld      c, #2
ROM:00E8 21 43 80                    ld      hl, # spr_shadow+3                      ; sprite 0 base3
ROM:00EB 11 43 B0                    ld      de, # SPRAM_START+3
ROM:00EE 7E                          ld      a, (hl)                                 ; get base3
ROM:00EF 81                          add     a, c                                    ; add 2
ROM:00F0 12                          ld      (de), a                                 ; update
ROM:00F1 0E 02                       ld      c, #2
ROM:00F3 21 47 80                    ld      hl, # spr_shadow+7                      ; sprite 1 base 3
ROM:00F6 11 47 B0                    ld      de, # SPRAM_START+7
ROM:00F9 7E                          ld      a, (hl)                                 ; base3
ROM:00FA 81                          add     a, c                                    ; add 2
ROM:00FB 12                          ld      (de), a                                 ; update
ROM:00FC
ROM:00FC             loc_FC:                                                         ; ...
ROM:00FC 3A FE 83                    ld      a, (f_in_game)
ROM:00FF B7                          or      a                                       ; in game?
ROM:0100 CA 22 01                    jp      Z, nmi_in_attract_mode                  ; no, skip
ROM:0103 CD AC 07                    call    process_next_snd_q_entry
ROM:0106 3A EA 83                    ld      a, (byte_83EA)
ROM:0109 B7                          or      a
ROM:010A CA 45 02                    jp      Z, nmi_exit
ROM:010D 2A D2 83                    ld      hl, (word_83D2)
ROM:0110 7C                          ld      a, h
ROM:0111 B5                          or      l
ROM:0112 CA 71 01                    jp      Z, loc_171
ROM:0115 2B                          dec     hl
ROM:0116 22 D2 83                    ld      (word_83D2), hl
ROM:0119 CD B7 14                    call    update_row_scroll
ROM:011C CD 02 18                    call    sub_1802
ROM:011F C3 45 02                    jp      nmi_exit
ROM:0122             ; ---------------------------------------------------------------------------
ROM:0122
ROM:0122             nmi_in_attract_mode:                                            ; ...
ROM:0122 3A D6 83                    ld      a, (attract_mode_part)
ROM:0125 FE 02                       cp      #2                                      ; <=2?
ROM:0127 D2 58 01                    jp      NC, handle_attract_mode_timers          ; no, go
ROM:012A B7                          or      a                                       ; in attract gameplay?
ROM:012B CC 7A 0E                    call    Z, sub_E7A                              ; no, go
ROM:012E CD 41 23                    call    handle_attract_mode_gameplay
ROM:0131 AF                          xor     a
ROM:0132 32 CD 83                    ld      (byte_83CD), a
ROM:0135 32 CF 83                    ld      (f_game_over), a                        ; reset
ROM:0138 32 B5 83                    ld      (byte_83B5), a
ROM:013B 67                          ld      h, a
ROM:013C 6F                          ld      l, a
ROM:013D 22 93 82                    ld      (p1_frogs_home), hl                     ; & p2_frogs_home
ROM:0140 21 5C 82                    ld      hl, #p1_frogs_home_2
ROM:0143 11 5D 82                    ld      de, #p2_frogs_home_2
ROM:0146 01 0B 00                    ld      bc, #11
ROM:0149 70                          ld      (hl), b
ROM:014A ED B0                       ldir                                            ; clear frogs home stats
ROM:014C 21 AF 83                    ld      hl, #unk_83AF
ROM:014F 36 80                       ld      (hl), #0x80 ; '€'
ROM:0151 2C                          inc     l
ROM:0152 77                          ld      (hl), a
ROM:0153 2C                          inc     l
ROM:0154 77                          ld      (hl), a
ROM:0155 C3 45 02                    jp      nmi_exit
ROM:0158             ; ---------------------------------------------------------------------------
ROM:0158
ROM:0158             handle_attract_mode_timers:                                     ; ...
ROM:0158 21 D8 83                    ld      hl, #timer_83d8
ROM:015B 7E                          ld      a, (hl)
ROM:015C B7                          or      a                                       ; inactive?
ROM:015D CA 45 02                    jp      Z, nmi_exit                             ; yes, exit
ROM:0160 35                          dec     (hl)                                    ; dec & update
ROM:0161 C2 45 02                    jp      NZ, nmi_exit                            ; not expired, exit
ROM:0164 2D                          dec     l                                       ; tmp_83d7
ROM:0165 7E                          ld      a, (hl)
ROM:0166 B7                          or      a
ROM:0167 C2 45 02                    jp      NZ, nmi_exit
ROM:016A 21 D6 83                    ld      hl, #attract_mode_part
ROM:016D 35                          dec     (hl)                                    ; dec & update (next part)
ROM:016E C3 45 02                    jp      nmi_exit
ROM:0171             ; ---------------------------------------------------------------------------
ROM:0171
ROM:0171             loc_171:                                                        ; ...
ROM:0171 2A 82 83                    ld      hl, (word_8382)
ROM:0174 7C                          ld      a, h
ROM:0175 B5                          or      l
ROM:0176 28 12                       jr      Z, loc_18A
ROM:0178 2B                          dec     hl
ROM:0179 22 82 83                    ld      (word_8382), hl
ROM:017C 7C                          ld      a, h
ROM:017D B5                          or      l
ROM:017E 20 0A                       jr      NZ, loc_18A
ROM:0180 3E 0F                       ld      a, #15                                  ; snd #15
ROM:0182 DF                          rst     add_snd_to_q
ROM:0183 3E B0                       ld      a, #176
ROM:0185 DF                          rst     add_snd_to_q
ROM:0186 AF                          xor     a
ROM:0187 32 71 83                    ld      (byte_8371), a
ROM:018A
ROM:018A             loc_18A:                                                        ; ...
ROM:018A 3A FD 83                    ld      a, (curr_player)
ROM:018D 3D                          dec     a                                       ; player 1?
ROM:018E C2 74 02                    jp      NZ, loc_274                             ; no, go
ROM:0191 3A 5C 82                    ld      a, (p1_frogs_home_2)
ROM:0194 FE 05                       cp      #5                                      ; all frogs home?
ROM:0196 CA 5E 02                    jp      Z, loc_25E                              ; yes, go
ROM:0199
ROM:0199             loc_199:                                                        ; ...
ROM:0199 3A 98 82                    ld      a, (byte_8298)
ROM:019C A7                          and     a
ROM:019D 28 07                       jr      Z, loc_1A6
ROM:019F 3D                          dec     a
ROM:01A0 32 98 82                    ld      (byte_8298), a
ROM:01A3 C3 E2 01                    jp      loc_1E2
ROM:01A6             ; ---------------------------------------------------------------------------
ROM:01A6
ROM:01A6             loc_1A6:                                                        ; ...
ROM:01A6 3A 97 82                    ld      a, (display_frog_home_timer)
ROM:01A9 A7                          and     a
ROM:01AA C2 57 02                    jp      NZ, loc_257
ROM:01AD 2A 9D 82                    ld      hl, (word_829D)
ROM:01B0 7C                          ld      a, h
ROM:01B1 B5                          or      l
ROM:01B2 20 2E                       jr      NZ, loc_1E2
ROM:01B4 CD 70 08                    call    sub_870
ROM:01B7 CD 55 1A                    call    sub_1A55
ROM:01BA 3A B5 83                    ld      a, (byte_83B5)
ROM:01BD B7                          or      a
ROM:01BE 20 22                       jr      NZ, loc_1E2
ROM:01C0 3C                          inc     a
ROM:01C1 32 B5 83                    ld      (byte_83B5), a
ROM:01C4 3E FF                       ld      a, #0xFF
ROM:01C6 32 84 83                    ld      (byte_8384), a
ROM:01C9 3A 80 83                    ld      a, (byte_8380)
ROM:01CC B7                          or      a
ROM:01CD 28 13                       jr      Z, loc_1E2
ROM:01CF AF                          xor     a
ROM:01D0 32 80 83                    ld      (byte_8380), a
ROM:01D3 21 40 00                    ld      hl, #0x40 ; '@'
ROM:01D6 22 82 83                    ld      (word_8382), hl
ROM:01D9 11 7B 2F                    ld      de, #unk_2F7B                           ; " START "
ROM:01DC 21 51 AA                    ld      hl, # VRAM_START+0x251
ROM:01DF 06 07                       ld      b, #7                                   ; 7 chars
ROM:01E1 EF                          rst     print_B_chars
ROM:01E2
ROM:01E2             loc_1E2:                                                        ; ...
ROM:01E2 3A 84 83                    ld      a, (byte_8384)
ROM:01E5 B7                          or      a
ROM:01E6 28 0A                       jr      Z, loc_1F2
ROM:01E8 3D                          dec     a
ROM:01E9 32 84 83                    ld      (byte_8384), a
ROM:01EC 21 50 A8                    ld      hl, # VRAM_START+0x50
ROM:01EF CC E2 19                    call    Z, draw_purple_footpath
ROM:01F2
ROM:01F2             loc_1F2:                                                        ; ...
ROM:01F2 CD 05 20                    call    handle_diving_turtles
ROM:01F5 CD 02 18                    call    sub_1802
ROM:01F8 3A 07 81                    ld      a, (unk_8107)
ROM:01FB A7                          and     a
ROM:01FC 28 07                       jr      Z, loc_205
ROM:01FE 3A 09 81                    ld      a, (byte_8109)
ROM:0201 3D                          dec     a
ROM:0202 32 09 81                    ld      (byte_8109), a
ROM:0205
ROM:0205             loc_205:                                                        ; ...
ROM:0205 3A 08 81                    ld      a, (unk_8108)
ROM:0208 A7                          and     a
ROM:0209 28 07                       jr      Z, loc_212
ROM:020B 3A 24 81                    ld      a, (byte_8124)
ROM:020E 3D                          dec     a
ROM:020F 32 24 81                    ld      (byte_8124), a
ROM:0212
ROM:0212             loc_212:                                                        ; ...
ROM:0212 CD BF 11                    call    sub_11BF
ROM:0215 3A 07 81                    ld      a, (unk_8107)
ROM:0218 A7                          and     a
ROM:0219 28 07                       jr      Z, loc_222
ROM:021B 3A 09 81                    ld      a, (byte_8109)
ROM:021E 3C                          inc     a
ROM:021F 32 09 81                    ld      (byte_8109), a
ROM:0222
ROM:0222             loc_222:                                                        ; ...
ROM:0222 3A 08 81                    ld      a, (unk_8108)
ROM:0225 A7                          and     a
ROM:0226 28 07                       jr      Z, loc_22F
ROM:0228 3A 24 81                    ld      a, (byte_8124)
ROM:022B 3C                          inc     a
ROM:022C 32 24 81                    ld      (byte_8124), a
ROM:022F
ROM:022F             loc_22F:                                                        ; ...
ROM:022F CD F8 16                    call    sub_16F8
ROM:0232 CD B7 14                    call    update_row_scroll
ROM:0235 CD 70 29                    call    loc_2970
ROM:0238 CD C7 1F                    call    sub_1FC7
ROM:023B CD 92 02                    call    sub_292
ROM:023E 3A 97 82                    ld      a, (display_frog_home_timer)
ROM:0241 A7                          and     a
ROM:0242 C4 A2 06                    call    NZ, display_frog_home
ROM:0245
ROM:0245             nmi_exit:                                                       ; ...
ROM:0245 3A 00 88                    ld      a, (watchdog)                           ; kick watchdog
ROM:0248 FD E1                       pop     iy
ROM:024A DD E1                       pop     ix
ROM:024C C1                          pop     bc
ROM:024D D1                          pop     de
ROM:024E E1                          pop     hl
ROM:024F 3E 01                       ld      a, #1
ROM:0251 32 08 B8                    ld      (irq_enable_w), a
ROM:0254 F1                          pop     af
ROM:0255 ED 45                       retn
ROM:0257             ; ---------------------------------------------------------------------------
ROM:0257
ROM:0257             loc_257:                                                        ; ...
ROM:0257 3D                          dec     a
ROM:0258 32 97 82                    ld      (display_frog_home_timer), a
ROM:025B C3 E2 01                    jp      loc_1E2
ROM:025E             ; ---------------------------------------------------------------------------
ROM:025E
ROM:025E             loc_25E:                                                        ; ...
ROM:025E 21 5E 82                    ld      hl, #p1_frog_home_array
ROM:0261 11 5F 82                    ld      de, # p1_frog_home_array+1
ROM:0264 01 04 00                    ld      bc, #4
ROM:0267 70                          ld      (hl), b
ROM:0268 ED B0                       ldir                                            ; zero frogs at home array
ROM:026A AF                          xor     a
ROM:026B 32 5C 82                    ld      (p1_frogs_home_2), a                    ; reset
ROM:026E CD D3 05                    call    sub_5D3
ROM:0271 C3 45 02                    jp      nmi_exit
ROM:0274             ; ---------------------------------------------------------------------------
ROM:0274
ROM:0274             loc_274:                                                        ; ...
ROM:0274 3A 5D 82                    ld      a, (p2_frogs_home_2)
ROM:0277 FE 05                       cp      #5                                      ; all frogs home?
ROM:0279 C2 99 01                    jp      NZ, loc_199                             ; no, go
ROM:027C 21 63 82                    ld      hl, #p2_frog_home_array
ROM:027F 11 64 82                    ld      de, # p2_frog_home_array+1
ROM:0282 01 04 00                    ld      bc, #4
ROM:0285 70                          ld      (hl), b
ROM:0286 ED B0                       ldir                                            ; zero frogs at home array
ROM:0288 AF                          xor     a
ROM:0289 32 5D 82                    ld      (p2_frogs_home_2), a                    ; reset
ROM:028C CD D3 05                    call    sub_5D3
ROM:028F C3 45 02                    jp      nmi_exit
ROM:0292
ROM:0292             ; =============== S U B R O U T I N E =======================================
ROM:0292
ROM:0292
ROM:0292             sub_292:                                                        ; ...
ROM:0292 2A 9D 82                    ld      hl, (word_829D)
ROM:0295 7C                          ld      a, h
ROM:0296 B5                          or      l
ROM:0297 C8                          ret     Z
ROM:0298 2B                          dec     hl
ROM:0299 22 9D 82                    ld      (word_829D), hl
ROM:029C 7C                          ld      a, h
ROM:029D B5                          or      l
ROM:029E C0                          ret     NZ
ROM:029F 32 AE 83                    ld      (byte_83AE), a
ROM:02A2 C9                          ret
ROM:02A2             ; End of function sub_292
ROM:02A2
ROM:02A3             ; ---------------------------------------------------------------------------
ROM:02A3
ROM:02A3             START:                                                          ; ...
ROM:02A3 AF                          xor     a
ROM:02A4 32 08 B8                    ld      (irq_enable_w), a                       ; disable interrupts
ROM:02A7 32 05 88                    ld      (watchdog+5), a                         ; kick watchdog
ROM:02AA 32 10 B8                    ld      (flip_screen_x_w), a
ROM:02AD 32 0C B8                    ld      (flip_screen_y_w), a
ROM:02B0 21 00 80                    ld      hl, #0x8000                             ; start of RAM
ROM:02B3 11 01 80                    ld      de, #0x8001
ROM:02B6 01 FF 07                    ld      bc, #0x7FF                              ; ram size
ROM:02B9 75                          ld      (hl), l
ROM:02BA ED B0                       ldir                                            ; zero ram
ROM:02BC 21 00 B0                    ld      hl, #0xB000                             ; start of obj/sprite ram
ROM:02BF 01 00 00                    ld      bc, #0
ROM:02C2
ROM:02C2             loc_2C2:                                                        ; ...
ROM:02C2 71                          ld      (hl), c                                 ; zero byte
ROM:02C3 2C                          inc     l
ROM:02C4 10 FC                       djnz    loc_2C2                                 ; zero sprite ram
ROM:02C6 3A 02 E0                    ld      a, (ppi8255_0_PB)                       ; IN1
ROM:02C9 16 2E                       ld      d, #0x2E ; '.'                          ; lives_tbl hi byte
ROM:02CB E6 03                       and     #3                                      ; starting lives
ROM:02CD 5F                          ld      e, a                                    ; lives_tbl lo byte
ROM:02CE 1A                          ld      a, (de)                                 ; get lives entry
ROM:02CF 32 E4 83                    ld      (starting_lives), a
ROM:02D2 3A 04 E0                    ld      a, (ppi8255_0_PC)                       ; IN2
ROM:02D5 67                          ld      h, a
ROM:02D6 CB 5C                       bit     3, h                                    ; cabinet
ROM:02D8 28 05                       jr      Z, loc_2DF                              ; upright? yes, skip
ROM:02DA 3E 01                       ld      a, #1
ROM:02DC 32 C2 83                    ld      (cocktail_cabinet), a
ROM:02DF
ROM:02DF             loc_2DF:                                                        ; ...
ROM:02DF 7C                          ld      a, h
ROM:02E0 E6 06                       and     #6                                      ; coinage
ROM:02E2 32 D4 83                    ld      (coinage), a
ROM:02E5 21 0A 2E                    ld      hl, #high_score_tbl_ROM
ROM:02E8 11 EB 83                    ld      de, #p2_score
ROM:02EB 01 12 00                    ld      bc, #18
ROM:02EE ED B0                       ldir                                            ; copy high score table to RAM
ROM:02F0 CD 48 10                    call    delay
ROM:02F3 3E 01                       ld      a, #1
ROM:02F5 32 70 83                    ld      (num_players), a                        ; 1 player
ROM:02F8 32 08 B8                    ld      (irq_enable_w), a
ROM:02FB FF                          rst     clear_vram
ROM:02FC AF                          xor     a
ROM:02FD 32 01 B0                    ld      (OBJRAM_START+1), a                     ; row0 colour
ROM:0300 3E 06                       ld      a, #6
ROM:0302 32 03 B0                    ld      (OBJRAM_START+3), a                     ; row1 colour
ROM:0305 21 00 01                    ld      hl, #0x100
ROM:0308 22 C7 83                    ld      (word_83C7), hl
ROM:030B 3E 15                       ld      a, #0x15
ROM:030D 32 81 83                    ld      (byte_8381), a
ROM:0310 21 B1 2E                    ld      hl, #byte_2EB1
ROM:0313 11 00 84                    ld      de, #unk_8400
ROM:0316 01 20 00                    ld      bc, #32
ROM:0319 ED B0                       ldir
ROM:031B 21 06 E0                    ld      hl, #ppi8255_0_CTRL
ROM:031E 36 9B                       ld      (hl), #0x9B ; '›'                       ; config PPI0
ROM:0320 21 06 D0                    ld      hl, #ppi8255_1_CTRL
ROM:0323 36 88                       ld      (hl), #0x88 ; 'ˆ'                       ; config PPI1
ROM:0325 3E 18                       ld      a, #0x18
ROM:0327 32 D9 83                    ld      (__soundCrtl_shadow), a
ROM:032A 32 02 D0                    ld      (ppi8255_1_PB), a                       ; konami_sound_control_w
ROM:032D AF                          xor     a                                       ; reset sound
ROM:032E CD 94 07                    call    __send_sound_cmd
ROM:0331 3A D9 83                    ld      a, (__soundCrtl_shadow)
ROM:0334 E6 EF                       and     #0xEF ; 'ï'
ROM:0336 32 D9 83                    ld      (__soundCrtl_shadow), a
ROM:0339 32 02 D0                    ld      (ppi8255_1_PB), a                       ; konami_sound_control_w
ROM:033C 3E FF                       ld      a, #0xFF
ROM:033E CD 94 07                    call    __send_sound_cmd
ROM:0341
ROM:0341             main_attract_loop:                                              ; ...
ROM:0341 3A D6 83                    ld      a, (attract_mode_part)                  ; attract mode part
ROM:0344 FE 02                       cp      #2                                      ; <= 2?
ROM:0346 D4 11 0D                    call    NC, handle_attract_screens              ; no, go
ROM:0349 CD 1F 0B                    call    print_scores
ROM:034C 3A D6 83                    ld      a, (attract_mode_part)                  ; attract mode part
ROM:034F 3D                          dec     a                                       ; == 1?
ROM:0350 C4 67 0B                    call    NZ, check_and_print_credits             ; no, call
ROM:0353 CD 0F 23                    call    init_turn
ROM:0356 3E 02                       ld      a, #2
ROM:0358 21 54 82                    ld      hl, #byte_8254
ROM:035B 77                          ld      (hl), a
ROM:035C 23                          inc     hl
ROM:035D 77                          ld      (hl), a
ROM:035E 3E 09                       ld      a, #9
ROM:0360 23                          inc     hl
ROM:0361 77                          ld      (hl), a
ROM:0362 23                          inc     hl
ROM:0363 77                          ld      (hl), a
ROM:0364 23                          inc     hl
ROM:0365 77                          ld      (hl), a
ROM:0366 23                          inc     hl
ROM:0367 77                          ld      (hl), a
ROM:0368
ROM:0368             main_bg_loop:                                                   ; ...
ROM:0368 2A C7 83                    ld      hl, (word_83C7)
ROM:036B
ROM:036B             loc_36B:                                                        ; ...
ROM:036B 7C                          ld      a, h
ROM:036C B5                          or      l
ROM:036D 2B                          dec     hl
ROM:036E 20 FB                       jr      NZ, loc_36B
ROM:0370 3A FE 83                    ld      a, (f_in_game)
ROM:0373 B7                          or      a                                       ; in game?
ROM:0374 C2 0B 04                    jp      NZ, loc_40B                             ; yes, go
ROM:0377 3A B3 83                    ld      a, (byte_83B3)
ROM:037A B7                          or      a
ROM:037B 20 C4                       jr      NZ, main_attract_loop
ROM:037D 3A 02 E0                    ld      a, (ppi8255_0_PB)                       ; IN1
ROM:0380 07                          rlca                                            ; P1 start?
ROM:0381 30 07                       jr      NC, loc_38A                             ; yes (active low), go
ROM:0383 07                          rlca                                            ; P2 start?
ROM:0384 38 BB                       jr      C, main_attract_loop                    ; no, loop
ROM:0386 0E 02                       ld      c, #2                                   ; 2 players selected
ROM:0388 18 02                       jr      loc_38C
ROM:038A             ; ---------------------------------------------------------------------------
ROM:038A
ROM:038A             loc_38A:                                                        ; ...
ROM:038A 0E 01                       ld      c, #1                                   ; 1 player selected
ROM:038C
ROM:038C             loc_38C:                                                        ; ...
ROM:038C 3A E1 83                    ld      a, (num_credits)
ROM:038F B9                          cp      c                                       ; sufficient credits?
ROM:0390 38 AF                       jr      C, main_attract_loop                    ; no, loop
ROM:0392 91                          sub     c                                       ; dec credits
ROM:0393 27                          daa
ROM:0394 32 E1 83                    ld      (num_credits), a                        ; update credits
ROM:0397             ; *** START NEW GAME
ROM:0397 79                          ld      a, c
ROM:0398 32 70 83                    ld      (num_players), a                        ; save num_players
ROM:039B 21 00 85                    ld      hl, #p2_game_stats
ROM:039E 11 01 85                    ld      de, # p2_game_stats+1
ROM:03A1 01 FF 01                    ld      bc, #511
ROM:03A4 75                          ld      (hl), l
ROM:03A5 ED B0                       ldir                                            ; clear ???
ROM:03A7 32 FE 83                    ld      (f_in_game), a                          ; flag in game
ROM:03AA 3E 01                       ld      a, #1
ROM:03AC 32 FD 83                    ld      (curr_player), a                        ; current player = 1
ROM:03AF 32 B3 83                    ld      (byte_83B3), a
ROM:03B2 67                          ld      h, a
ROM:03B3 6F                          ld      l, a
ROM:03B4 32 B7 83                    ld      (curr_level), a                         ; current player level
ROM:03B7 22 B8 83                    ld      (p1_level), hl                          ; p1 & p2 level
ROM:03BA CD 0A 0B                    call    init_player_stats
ROM:03BD 3E 03                       ld      a, #3
ROM:03BF 32 3D 80                    ld      (obj_shadow_plus_7+0x36), a             ; row30, colour
ROM:03C2 CD D9 07                    call    clear_snd_q
ROM:03C5 AF                          xor     a
ROM:03C6 32 71 80                    ld      (byte_8071), a
ROM:03C9 DF                          rst     add_snd_to_q                            ; reset sounds
ROM:03CA 3E 09                       ld      a, #9                                   ; intro song (voice A)
ROM:03CC DF                          rst     add_snd_to_q
ROM:03CD 3E 0A                       ld      a, #10                                  ; intro song (voice B)
ROM:03CF DF                          rst     add_snd_to_q
ROM:03D0 3E 0B                       ld      a, #11                                  ; intro song (voice C)
ROM:03D2 DF                          rst     add_snd_to_q
ROM:03D3 21 20 00                    ld      hl, #0x20 ; ' '
ROM:03D6 22 9D 82                    ld      (word_829D), hl
ROM:03D9 21 A0 01                    ld      hl, #0x1A0
ROM:03DC 22 82 83                    ld      (word_8382), hl
ROM:03DF 21 00 00                    ld      hl, #0
ROM:03E2 22 D2 83                    ld      (word_83D2), hl
ROM:03E5 CD E6 07                    call    check_and_clear_8420
ROM:03E8 FF                          rst     clear_vram
ROM:03E9 CD 3D 22                    call    update_game_data_for_frogs_home
ROM:03EC AF                          xor     a
ROM:03ED 67                          ld      h, a
ROM:03EE 6F                          ld      l, a
ROM:03EF 32 2F 84                    ld      (byte_842F), a
ROM:03F2 32 2D 84                    ld      (byte_842D), a
ROM:03F5 22 93 82                    ld      (p1_frogs_home), hl                     ; & p2_frogs_home
ROM:03F8 21 40 84                    ld      hl, #p1_something_data
ROM:03FB 11 41 84                    ld      de, #unk_8441
ROM:03FE 01 4F 00                    ld      bc, #79
ROM:0401 70                          ld      (hl), b
ROM:0402 ED B0                       ldir
ROM:0404 32 04 80                    ld      (frog_dead), a                          ; reset
ROM:0407 3C                          inc     a
ROM:0408 32 5A 82                    ld      (byte_825A), a
ROM:040B
ROM:040B             loc_40B:                                                        ; ...
ROM:040B 3A EA 83                    ld      a, (byte_83EA)
ROM:040E B7                          or      a
ROM:040F C2 57 04                    jp      NZ, loc_457
ROM:0412 3A CD 83                    ld      a, (byte_83CD)
ROM:0415 B7                          or      a
ROM:0416 20 0D                       jr      NZ, loc_425
ROM:0418 3A FE 83                    ld      a, (f_in_game)
ROM:041B 3D                          dec     a                                       ; 1 player?
ROM:041C 28 04                       jr      Z, loc_422                              ; yes, go
ROM:041E FF                          rst     clear_vram
ROM:041F CD EE 06                    call    copy_player_stats_to_current
ROM:0422
ROM:0422             loc_422:                                                        ; ...
ROM:0422 CD 1F 0B                    call    print_scores
ROM:0425
ROM:0425             loc_425:                                                        ; ...
ROM:0425 3A 6D 82                    ld      a, (byte_826D)
ROM:0428 A7                          and     a
ROM:0429 C4 F0 05                    call    NZ, handle_frog_home
ROM:042C CD 42 09                    call    sub_942
ROM:042F 32 EA 83                    ld      (byte_83EA), a
ROM:0432 CD 16 0A                    call    display_frogs_left
ROM:0435 21 9E 83                    ld      hl, #unk_839E
ROM:0438 36 20                       ld      (hl), #0x20 ; ' '
ROM:043A 2D                          dec     l
ROM:043B 36 10                       ld      (hl), #0x10
ROM:043D 2D                          dec     l
ROM:043E 36 20                       ld      (hl), #0x20 ; ' '
ROM:0440 3A FE 83                    ld      a, (f_in_game)
ROM:0443 3D                          dec     a                                       ; 1 player?
ROM:0444 C4 C1 07                    call    NZ, sub_7C1                             ; no, go
ROM:0447 AF                          xor     a
ROM:0448 32 6D 82                    ld      (byte_826D), a
ROM:044B 3A CD 83                    ld      a, (byte_83CD)
ROM:044E 32 B6 83                    ld      (byte_83B6), a
ROM:0451 CD 48 0A                    call    display_level_indicators
ROM:0454 C3 68 03                    jp      main_bg_loop                            ; gets here every turn!?!
ROM:0457             ; ---------------------------------------------------------------------------
ROM:0457
ROM:0457             loc_457:                                                        ; ...
ROM:0457 CD 1F 0B                    call    print_scores
ROM:045A 3A CE 83                    ld      a, (byte_83CE)
ROM:045D B7                          or      a
ROM:045E CA 68 03                    jp      Z, main_bg_loop
ROM:0461 CD 04 08                    call    sub_804
ROM:0464 CD E6 07                    call    check_and_clear_8420
ROM:0467 AF                          xor     a
ROM:0468 21 9A 83                    ld      hl, #unk_839A
ROM:046B 77                          ld      (hl), a
ROM:046C 2C                          inc     l
ROM:046D 77                          ld      (hl), a
ROM:046E 32 CC 83                    ld      (byte_83CC), a
ROM:0471 32 EA 83                    ld      (byte_83EA), a
ROM:0474 21 A0 83                    ld      hl, #unk_83A0
ROM:0477 11 A1 83                    ld      de, #unk_83A1
ROM:047A 01 0D 00                    ld      bc, #0xD
ROM:047D 77                          ld      (hl), a
ROM:047E ED B0                       ldir
ROM:0480 3E 80                       ld      a, #0x80 ; '€'
ROM:0482 DF                          rst     add_snd_to_q
ROM:0483 3A CF 83                    ld      a, (f_game_over)
ROM:0486 B7                          or      a                                       ; game over?
ROM:0487 20 06                       jr      NZ, loc_48F                             ; yes, go
ROM:0489 CD 22 08                    call    handle_toggle_player
ROM:048C C3 68 03                    jp      main_bg_loop
ROM:048F             ; ---------------------------------------------------------------------------
ROM:048F
ROM:048F             loc_48F:                                                        ; ...
ROM:048F CD 59 0F                    call    display_game_over
ROM:0492 3E 0C                       ld      a, #12                                  ; snd #12
ROM:0494 DF                          rst     add_snd_to_q
ROM:0495 3E 0D                       ld      a, #13                                  ; snd #13
ROM:0497 DF                          rst     add_snd_to_q
ROM:0498 2A C5 83                    ld      hl, (word_83C5)
ROM:049B
ROM:049B             loc_49B:                                                        ; ...
ROM:049B 2B                          dec     hl
ROM:049C 22 C5 83                    ld      (word_83C5), hl
ROM:049F 7C                          ld      a, h
ROM:04A0 B5                          or      l
ROM:04A1 20 F8                       jr      NZ, loc_49B
ROM:04A3 3A FE 83                    ld      a, (f_in_game)
ROM:04A6 3D                          dec     a                                       ; in game?
ROM:04A7 CA 47 05                    jp      Z, zero_p1_p2_frogs_home_stats_and_more ; yes, go
ROM:04AA 3A FD 83                    ld      a, (curr_player)
ROM:04AD 3D                          dec     a                                       ; player 1?
ROM:04AE C2 F3 04                    jp      NZ, loc_4F3                             ; no, go
ROM:04B1 21 C9 83                    ld      hl, #unk_83C9
ROM:04B4 36 01                       ld      (hl), #1
ROM:04B6 23                          inc     hl
ROM:04B7 7E                          ld      a, (hl)
ROM:04B8 B7                          or      a
ROM:04B9 C2 34 05                    jp      NZ, zero_p1_frogs_home_stats_only_and_more
ROM:04BC FF                          rst     clear_vram
ROM:04BD CD 22 08                    call    handle_toggle_player
ROM:04C0 3E 01                       ld      a, #1
ROM:04C2 32 FE 83                    ld      (f_in_game), a                          ; only 1P now
ROM:04C5 32 5C 82                    ld      (p1_frogs_home_2), a                    ; WTF?
ROM:04C8 21 5E 82                    ld      hl, #p1_frog_home_array
ROM:04CB 11 5F 82                    ld      de, # p1_frog_home_array+1
ROM:04CE 01 04 00                    ld      bc, #4
ROM:04D1 36 00                       ld      (hl), #0
ROM:04D3 ED B0                       ldir                                            ; zero frogs home array
ROM:04D5 21 00 86                    ld      hl, #p1_game_stats
ROM:04D8 11 FF 80                    ld      de, #row_to_scroll
ROM:04DB 01 B7 00                    ld      bc, #183                                ; 183 bytes to copy
ROM:04DE ED B0                       ldir
ROM:04E0 21 C0 85                    ld      hl, #p1_row_register_shadow
ROM:04E3 11 0C 80                    ld      de, # obj_shadow_plus_7+5               ; row6 scroll (top logs)
ROM:04E6 01 2B 00                    ld      bc, #43                                 ; 22 rows to init
ROM:04E9 ED B0                       ldir
ROM:04EB 3E 01                       ld      a, #1
ROM:04ED 32 3F 80                    ld      (obj_shadow_plus_7+0x38), a             ; row31 colour
ROM:04F0 C3 68 03                    jp      main_bg_loop
ROM:04F3             ; ---------------------------------------------------------------------------
ROM:04F3             this is for P2
ROM:04F3
ROM:04F3             loc_4F3:                                                        ; ...
ROM:04F3 21 CA 83                    ld      hl, #unk_83CA
ROM:04F6 36 01                       ld      (hl), #1
ROM:04F8 2B                          dec     hl
ROM:04F9 7E                          ld      a, (hl)
ROM:04FA B7                          or      a
ROM:04FB C2 57 05                    jp      NZ, zero_p2_frogs_home_stats_only_and_more
ROM:04FE FF                          rst     clear_vram
ROM:04FF CD 22 08                    call    handle_toggle_player
ROM:0502 3E 01                       ld      a, #1
ROM:0504 32 FE 83                    ld      (f_in_game), a                          ; only 1P now
ROM:0507 32 5D 82                    ld      (p2_frogs_home_2), a                    ; WTF?
ROM:050A 21 63 82                    ld      hl, #p2_frog_home_array
ROM:050D 11 64 82                    ld      de, # p2_frog_home_array+1
ROM:0510 01 04 00                    ld      bc, #4
ROM:0513 70                          ld      (hl), b
ROM:0514 ED B0                       ldir
ROM:0516 21 C0 86                    ld      hl, #p2_row_register_shadow
ROM:0519 11 0C 80                    ld      de, # obj_shadow_plus_7+5
ROM:051C 01 2B 00                    ld      bc, #43                                 ; 22 rows to init
ROM:051F ED B0                       ldir
ROM:0521 3E 01                       ld      a, #1                                   ; brown
ROM:0523 32 3F 80                    ld      (obj_shadow_plus_7+0x38), a             ; row31 colour
ROM:0526 21 00 85                    ld      hl, #p2_game_stats
ROM:0529 11 FF 80                    ld      de, #row_to_scroll
ROM:052C 01 B7 00                    ld      bc, #183                                ; 183 bytes to copy
ROM:052F ED B0                       ldir
ROM:0531 C3 68 03                    jp      main_bg_loop
ROM:0534             ; ---------------------------------------------------------------------------
ROM:0534
ROM:0534             zero_p1_frogs_home_stats_only_and_more:                         ; ...
ROM:0534 AF                          xor     a
ROM:0535 32 5C 82                    ld      (p1_frogs_home_2), a
ROM:0538 21 5E 82                    ld      hl, #p1_frog_home_array
ROM:053B 11 5F 82                    ld      de, # p1_frog_home_array+1
ROM:053E 01 04 00                    ld      bc, #4
ROM:0541 70                          ld      (hl), b
ROM:0542 ED B0                       ldir                                            ; zero frogs at home array
ROM:0544 C3 67 05                    jp      loc_567
ROM:0547             ; ---------------------------------------------------------------------------
ROM:0547
ROM:0547             zero_p1_p2_frogs_home_stats_and_more:                           ; ...
ROM:0547 AF                          xor     a
ROM:0548 32 5C 82                    ld      (p1_frogs_home_2), a
ROM:054B 21 5E 82                    ld      hl, #p1_frog_home_array
ROM:054E 11 5F 82                    ld      de, # p1_frog_home_array+1
ROM:0551 01 04 00                    ld      bc, #4
ROM:0554 70                          ld      (hl), b
ROM:0555 ED B0                       ldir                                            ; zero frogs at home array
ROM:0557
ROM:0557             zero_p2_frogs_home_stats_only_and_more:                         ; ...
ROM:0557 AF                          xor     a
ROM:0558 32 5D 82                    ld      (p2_frogs_home_2), a
ROM:055B 21 63 82                    ld      hl, #p2_frog_home_array
ROM:055E 11 64 82                    ld      de, # p2_frog_home_array+1
ROM:0561 01 04 00                    ld      bc, #4
ROM:0564 70                          ld      (hl), b
ROM:0565 ED B0                       ldir                                            ; zero frogs at home array
ROM:0567
ROM:0567             loc_567:                                                        ; ...
ROM:0567 FF                          rst     clear_vram
ROM:0568 CD E6 07                    call    check_and_clear_8420
ROM:056B CD 67 0B                    call    check_and_print_credits
ROM:056E CD 69 0F                    call    update_high_score_tbl
ROM:0571 CD 1F 0B                    call    print_scores
ROM:0574 21 00 81                    ld      hl, #unk_8100
ROM:0577 11 01 81                    ld      de, #unk_8101
ROM:057A 01 5F 01                    ld      bc, #0x15F
ROM:057D 75                          ld      (hl), l
ROM:057E ED B0                       ldir
ROM:0580 21 00 80                    ld      hl, #word_8000
ROM:0583 11 01 80                    ld      de, # word_8000+1
ROM:0586 01 04 00                    ld      bc, #4
ROM:0589 70                          ld      (hl), b
ROM:058A ED B0                       ldir
ROM:058C 21 0C 80                    ld      hl, # obj_shadow_plus_7+5               ; row6, scroll
ROM:058F 11 0D 80                    ld      de, # obj_shadow_plus_7+6               ; row6, colour
ROM:0592 01 2E 00                    ld      bc, #46                                 ; 24 registers
ROM:0595 70                          ld      (hl), b                                 ; zero register
ROM:0596 ED B0                       ldir                                            ; loop through 12 rows
ROM:0598 AF                          xor     a
ROM:0599 32 C3 83                    ld      (byte_83C3), a
ROM:059C 32 FE 83                    ld      (f_in_game), a
ROM:059F 32 BF 83                    ld      (byte_83BF), a
ROM:05A2 21 C9 83                    ld      hl, #unk_83C9
ROM:05A5 77                          ld      (hl), a
ROM:05A6 2C                          inc     l
ROM:05A7 77                          ld      (hl), a
ROM:05A8 67                          ld      h, a
ROM:05A9 6F                          ld      l, a
ROM:05AA 32 10 B8                    ld      (flip_screen_x_w), a
ROM:05AD 32 0C B8                    ld      (flip_screen_y_w), a
ROM:05B0 22 93 82                    ld      (p1_frogs_home), hl
ROM:05B3 32 BB 83                    ld      (byte_83BB), a
ROM:05B6 32 CB 83                    ld      (flip_screen), a
ROM:05B9 32 D8 83                    ld      (timer_83d8), a
ROM:05BC 32 C4 83                    ld      (byte_83C4), a
ROM:05BF 32 BA 83                    ld      (byte_83BA), a
ROM:05C2 32 95 82                    ld      (byte_8295), a
ROM:05C5 32 5B 82                    ld      (byte_825B), a
ROM:05C8 3E 03                       ld      a, #3                                   ; high score table
ROM:05CA 32 D6 83                    ld      (attract_mode_part), a
ROM:05CD CD EB 07                    call    clear_8420
ROM:05D0 C3 68 03                    jp      main_bg_loop
ROM:05D3
ROM:05D3             ; =============== S U B R O U T I N E =======================================
ROM:05D3
ROM:05D3
ROM:05D3             sub_5D3:                                                        ; ...
ROM:05D3 3E 01                       ld      a, #1
ROM:05D5 32 6D 82                    ld      (byte_826D), a
ROM:05D8 32 5A 82                    ld      (byte_825A), a
ROM:05DB 32 CD 83                    ld      (byte_83CD), a
ROM:05DE AF                          xor     a
ROM:05DF 32 5B 82                    ld      (byte_825B), a
ROM:05E2 32 EA 83                    ld      (byte_83EA), a
ROM:05E5 3E FF                       ld      a, #0xFF
ROM:05E7 32 97 82                    ld      (display_frog_home_timer), a
ROM:05EA 3E 40                       ld      a, #0x40 ; '@'
ROM:05EC 32 98 82                    ld      (byte_8298), a
ROM:05EF C9                          ret
ROM:05EF             ; End of function sub_5D3
ROM:05EF
ROM:05F0
ROM:05F0             ; =============== S U B R O U T I N E =======================================
ROM:05F0
ROM:05F0
ROM:05F0             handle_frog_home:                                               ; ...
ROM:05F0 3E 10                       ld      a, #16                                  ; snd #16
ROM:05F2 DF                          rst     add_snd_to_q
ROM:05F3 3E 30                       ld      a, #48                                  ; snd #48
ROM:05F5 DF                          rst     add_snd_to_q
ROM:05F6 3A FD 83                    ld      a, (curr_player)
ROM:05F9 3D                          dec     a                                       ; player 1?
ROM:05FA 20 0C                       jr      NZ, p2_frog_home                        ; no, skip
ROM:05FC 21 93 82                    ld      hl, #p1_frogs_home
ROM:05FF 34                          inc     (hl)                                    ; inc & update
ROM:0600 7E                          ld      a, (hl)                                 ; frogs home
ROM:0601 D6 05                       sub     #5                                      ; all home?
ROM:0603 20 0D                       jr      NZ, frog_home_cont                      ; no, go
ROM:0605 77                          ld      (hl), a                                 ; reset
ROM:0606 18 0A                       jr      frog_home_cont
ROM:0608             ; ---------------------------------------------------------------------------
ROM:0608
ROM:0608             p2_frog_home:                                                   ; ...
ROM:0608 21 94 82                    ld      hl, #p2_frogs_home
ROM:060B 34                          inc     (hl)                                    ; inc & update
ROM:060C 7E                          ld      a, (hl)                                 ; frogs home
ROM:060D D6 05                       sub     #5                                      ; all home?
ROM:060F 20 01                       jr      NZ, frog_home_cont                      ; no, skip
ROM:0611 77                          ld      (hl), a                                 ; reset
ROM:0612
ROM:0612             frog_home_cont:                                                 ; ...
ROM:0612 CD 29 06                    call    more_clear_wipe
ROM:0615 CD 4B 06                    call    clear_objram_and_8100
ROM:0618 CD 3D 22                    call    update_game_data_for_frogs_home
ROM:061B CD 02 1A                    call    reset_row_colour_regs
ROM:061E 3E 01                       ld      a, #1
ROM:0620 32 80 83                    ld      (byte_8380), a
ROM:0623 11 00 01                    ld      de, #0x100                              ; 1000 pts
ROM:0626 C3 E0 08                    jp      add_DE_to_score
ROM:0626             ; End of function handle_frog_home
ROM:0626
ROM:0629
ROM:0629             ; =============== S U B R O U T I N E =======================================
ROM:0629
ROM:0629
ROM:0629             more_clear_wipe:                                                ; ...
ROM:0629 CD E6 07                    call    check_and_clear_8420
ROM:062C 21 9A 83                    ld      hl, #unk_839A
ROM:062F AF                          xor     a
ROM:0630 77                          ld      (hl), a
ROM:0631 2C                          inc     l
ROM:0632 77                          ld      (hl), a
ROM:0633 3C                          inc     a
ROM:0634 32 CC 83                    ld      (byte_83CC), a
ROM:0637 3E 20                       ld      a, #32
ROM:0639 21 06 A8                    ld      hl, # VRAM_START+6
ROM:063C
ROM:063C             loc_63C:                                                        ; ...
ROM:063C CD 79 07                    call    wipe_10_chars
ROM:063F 2C                          inc     l
ROM:0640 2C                          inc     l
ROM:0641 CD 79 07                    call    wipe_10_chars
ROM:0644 0E 0A                       ld      c, #10
ROM:0646 09                          add     hl, bc
ROM:0647 3D                          dec     a
ROM:0648 20 F2                       jr      NZ, loc_63C
ROM:064A C9                          ret
ROM:064A             ; End of function more_clear_wipe
ROM:064A
ROM:064B
ROM:064B             ; =============== S U B R O U T I N E =======================================
ROM:064B
ROM:064B
ROM:064B             clear_objram_and_8100:                                          ; ...
ROM:064B 21 0C 80                    ld      hl, # obj_shadow_plus_7+5               ; row3, colour
ROM:064E 11 0D 80                    ld      de, # obj_shadow_plus_7+6               ; row3, scroll
ROM:0651 01 2B 00                    ld      bc, #43                                 ; 44 regs to clear
ROM:0654 70                          ld      (hl), b
ROM:0655 ED B0                       ldir                                            ; clear 22 rows in shadow objram
ROM:0657 21 0C 80                    ld      hl, # obj_shadow_plus_7+5               ; row3, colour
ROM:065A 11 0C B0                    ld      de, # OBJRAM_START+0xC                  ; row6, scroll
ROM:065D 01 2B 00                    ld      bc, #43                                 ; 44 regs to update
ROM:0660 ED B0                       ldir                                            ; update 22 rows in hardware
ROM:0662 21 00 81                    ld      hl, #unk_8100
ROM:0665 11 01 81                    ld      de, #unk_8101
ROM:0668 01 62 00                    ld      bc, #98
ROM:066B 36 00                       ld      (hl), #0
ROM:066D ED B0                       ldir
ROM:066F C9                          ret
ROM:066F             ; End of function clear_objram_and_8100
ROM:066F
ROM:0670             ; ---------------------------------------------------------------------------
ROM:0670             ; START OF FUNCTION CHUNK FOR display_frog_home
ROM:0670
ROM:0670             fancy_wipe_and_update_level:                                    ; ...
ROM:0670 21 64 AB                    ld      hl, # VRAM_START+0x364
ROM:0673 CD 95 06                    call    clear_strips
ROM:0676 21 A4 AA                    ld      hl, # VRAM_START+0x2A4
ROM:0679 CD 95 06                    call    clear_strips
ROM:067C 21 E4 A9                    ld      hl, # VRAM_START+0x1E4
ROM:067F CD 95 06                    call    clear_strips
ROM:0682 21 24 A9                    ld      hl, # VRAM_START+0x124
ROM:0685 CD 95 06                    call    clear_strips
ROM:0688 21 64 A8                    ld      hl, # VRAM_START+0x64
ROM:068B CD 95 06                    call    clear_strips
ROM:068E AF                          xor     a
ROM:068F 32 2F 84                    ld      (byte_842F), a
ROM:0692 C3 5F 0A                    jp      update_level
ROM:0692             ; END OF FUNCTION CHUNK FOR display_frog_home
ROM:0695
ROM:0695             ; =============== S U B R O U T I N E =======================================
ROM:0695
ROM:0695
ROM:0695             clear_strips:                                                   ; ...
ROM:0695 3E 10                       ld      a, #0x10                                ; ' '
ROM:0697 77                          ld      (hl), a                                 ; display ' '
ROM:0698 23                          inc     hl                                      ; next vram address
ROM:0699 77                          ld      (hl), a                                 ; display ' '
ROM:069A 01 1F 00                    ld      bc, #31
ROM:069D 09                          add     hl, bc                                  ; next column
ROM:069E 77                          ld      (hl), a                                 ; display ' '
ROM:069F 23                          inc     hl                                      ; next vram address
ROM:06A0 77                          ld      (hl), a                                 ; display ' '
ROM:06A1 C9                          ret
ROM:06A1             ; End of function clear_strips
ROM:06A1
ROM:06A2
ROM:06A2             ; =============== S U B R O U T I N E =======================================
ROM:06A2
ROM:06A2
ROM:06A2             display_frog_home:                                              ; ...
ROM:06A2
ROM:06A2             ; FUNCTION CHUNK AT ROM:0670 SIZE 00000025 BYTES
ROM:06A2             ; FUNCTION CHUNK AT ROM:0A5F SIZE 00000025 BYTES
ROM:06A2
ROM:06A2 FE C0                       cp      #0xC0 ; 'À'
ROM:06A4 CA C1 06                    jp      Z, display_frog_home1
ROM:06A7 FE 90                       cp      #0x90 ; ''
ROM:06A9 CA C7 06                    jp      Z, display_frog_home2
ROM:06AC FE 70                       cp      #0x70 ; 'p'
ROM:06AE CA CD 06                    jp      Z, display_frog_home3
ROM:06B1 FE 50                       cp      #0x50 ; 'P'
ROM:06B3 CA D3 06                    jp      Z, display_frog_home4
ROM:06B6 FE 30                       cp      #0x30 ; '0'
ROM:06B8 CA D9 06                    jp      Z, display_frog_home5
ROM:06BB FE 10                       cp      #0x10
ROM:06BD CA 70 06                    jp      Z, fancy_wipe_and_update_level
ROM:06C0 C9                          ret
ROM:06C1             ; ---------------------------------------------------------------------------
ROM:06C1
ROM:06C1             display_frog_home1:                                             ; ...
ROM:06C1 21 64 AB                    ld      hl, # VRAM_START+0x364
ROM:06C4 C3 DF 06                    jp      display_frog_home_tiles
ROM:06C7             ; ---------------------------------------------------------------------------
ROM:06C7
ROM:06C7             display_frog_home2:                                             ; ...
ROM:06C7 21 A4 AA                    ld      hl, # VRAM_START+0x2A4
ROM:06CA C3 DF 06                    jp      display_frog_home_tiles
ROM:06CD             ; ---------------------------------------------------------------------------
ROM:06CD
ROM:06CD             display_frog_home3:                                             ; ...
ROM:06CD 21 E4 A9                    ld      hl, # VRAM_START+0x1E4
ROM:06D0 C3 DF 06                    jp      display_frog_home_tiles
ROM:06D3             ; ---------------------------------------------------------------------------
ROM:06D3
ROM:06D3             display_frog_home4:                                             ; ...
ROM:06D3 21 24 A9                    ld      hl, # VRAM_START+0x124
ROM:06D6 C3 DF 06                    jp      display_frog_home_tiles
ROM:06D9             ; ---------------------------------------------------------------------------
ROM:06D9
ROM:06D9             display_frog_home5:                                             ; ...
ROM:06D9 21 64 A8                    ld      hl, # VRAM_START+0x64
ROM:06DC C3 DF 06                    jp      display_frog_home_tiles
ROM:06DF             ; ---------------------------------------------------------------------------
ROM:06DF
ROM:06DF             display_frog_home_tiles:                                        ; ...
ROM:06DF 36 FC                       ld      (hl), #0xFC ; 'ü'
ROM:06E1 23                          inc     hl
ROM:06E2 36 FD                       ld      (hl), #0xFD ; 'ý'
ROM:06E4 01 1F 00                    ld      bc, #0x1F
ROM:06E7 09                          add     hl, bc
ROM:06E8 36 FE                       ld      (hl), #0xFE ; 'þ'
ROM:06EA 23                          inc     hl
ROM:06EB 36 FF                       ld      (hl), #0xFF
ROM:06ED C9                          ret
ROM:06ED             ; End of function display_frog_home
ROM:06ED
ROM:06EE
ROM:06EE             ; =============== S U B R O U T I N E =======================================
ROM:06EE
ROM:06EE
ROM:06EE             copy_player_stats_to_current:                                   ; ...
ROM:06EE 3A FD 83                    ld      a, (curr_player)
ROM:06F1 3D                          dec     a                                       ; player 1?
ROM:06F2 20 32                       jr      NZ, loc_726                             ; no, skip
ROM:06F4             ; save P1 stats, copy P2 stats to current
ROM:06F4 21 0C 80                    ld      hl, # obj_shadow_plus_7+5               ; row3 scroll
ROM:06F7 11 C0 85                    ld      de, #p1_row_register_shadow
ROM:06FA 01 2B 00                    ld      bc, #43                                 ; 44 registers to copy
ROM:06FD ED B0                       ldir                                            ; save p1 row register values
ROM:06FF 21 FF 80                    ld      hl, #row_to_scroll
ROM:0702 11 00 86                    ld      de, #p1_game_stats
ROM:0705 01 B7 00                    ld      bc, #183
ROM:0708 ED B0                       ldir                                            ; save p1 stats
ROM:070A 21 C0 86                    ld      hl, #p2_row_register_shadow
ROM:070D 11 0C 80                    ld      de, # obj_shadow_plus_7+5
ROM:0710 01 2B 00                    ld      bc, #43                                 ; 44 registers to copy
ROM:0713 ED B0                       ldir                                            ; copy p2 row register values to current
ROM:0715 3E 01                       ld      a, #1
ROM:0717 32 3F 80                    ld      (obj_shadow_plus_7+0x38), a             ; row31 colour
ROM:071A 21 00 85                    ld      hl, #p2_game_stats
ROM:071D 11 FF 80                    ld      de, #row_to_scroll
ROM:0720 01 B7 00                    ld      bc, #183
ROM:0723 ED B0                       ldir                                            ; copy p2 stats to current
ROM:0725 C9                          ret
ROM:0726             ; ---------------------------------------------------------------------------
ROM:0726             ; save P2 stats, copy P1 stats to current
ROM:0726
ROM:0726             loc_726:                                                        ; ...
ROM:0726 21 FF 80                    ld      hl, #row_to_scroll
ROM:0729 11 00 85                    ld      de, #p2_game_stats
ROM:072C 01 B7 00                    ld      bc, #183
ROM:072F ED B0                       ldir                                            ; save p2 stats
ROM:0731 21 0C 80                    ld      hl, # obj_shadow_plus_7+5
ROM:0734 11 C0 86                    ld      de, #p2_row_register_shadow
ROM:0737 01 2B 00                    ld      bc, #43                                 ; 44 registers to copy
ROM:073A ED B0                       ldir                                            ; save p2 row register values
ROM:073C 21 00 86                    ld      hl, #p1_game_stats
ROM:073F 11 FF 80                    ld      de, #row_to_scroll
ROM:0742 01 B7 00                    ld      bc, #183
ROM:0745 ED B0                       ldir                                            ; copy p1 stats to current
ROM:0747 21 C0 85                    ld      hl, #p1_row_register_shadow
ROM:074A 11 0C 80                    ld      de, # obj_shadow_plus_7+5
ROM:074D 01 2B 00                    ld      bc, #43
ROM:0750 ED B0                       ldir                                            ; copy p1 row register values to current
ROM:0752 3E 01                       ld      a, #1                                   ; brown
ROM:0754 32 3F 80                    ld      (obj_shadow_plus_7+0x38), a             ; row31 colour
ROM:0757 3A 95 82                    ld      a, (byte_8295)
ROM:075A A7                          and     a
ROM:075B C0                          ret     NZ
ROM:075C AF                          xor     a
ROM:075D 32 5B 82                    ld      (byte_825B), a
ROM:0760 3E 01                       ld      a, #1
ROM:0762 32 95 82                    ld      (byte_8295), a
ROM:0765 C9                          ret
ROM:0765             ; End of function copy_player_stats_to_current
ROM:0765
ROM:0766
ROM:0766             ; =============== S U B R O U T I N E =======================================
ROM:0766
ROM:0766
ROM:0766             cls:                                                            ; ...
ROM:0766 21 02 A8                    ld      hl, # VRAM_START+2
ROM:0769 11 10 20                    ld      de, #0x2010                             ; 32 cols, ' ' char
ROM:076C 0E 04                       ld      c, #4
ROM:076E
ROM:076E             loc_76E:                                                        ; ...
ROM:076E 06 1C                       ld      b, #28
ROM:0770
ROM:0770             loc_770:                                                        ; ...
ROM:0770 73                          ld      (hl), e                                 ; display ' '
ROM:0771 23                          inc     hl                                      ; next vram address
ROM:0772 10 FC                       djnz    loc_770                                 ; loop through row
ROM:0774 09                          add     hl, bc                                  ; skip 4 rows
ROM:0775 15                          dec     d                                       ; next col
ROM:0776 20 F6                       jr      NZ, loc_76E                             ; loop through cols
ROM:0778 C9                          ret
ROM:0778             ; End of function cls
ROM:0778
ROM:0779
ROM:0779             ; =============== S U B R O U T I N E =======================================
ROM:0779
ROM:0779
ROM:0779             wipe_10_chars:                                                  ; ...
ROM:0779 01 10 0A                    ld      bc, #0xA10                              ; 10 chars, ' ' char
ROM:077C
ROM:077C             loc_77C:                                                        ; ...
ROM:077C 71                          ld      (hl), c                                 ; display spce
ROM:077D 23                          inc     hl                                      ; next row
ROM:077E 10 FC                       djnz    loc_77C
ROM:0780 C9                          ret
ROM:0780             ; End of function wipe_10_chars
ROM:0780
ROM:0781
ROM:0781             ; =============== S U B R O U T I N E =======================================
ROM:0781
ROM:0781
ROM:0781             wipe_play_area:                                                 ; ...
ROM:0781 21 08 A8                    ld      hl, # VRAM_START+8
ROM:0784 11 10 20                    ld      de, #0x2010                             ; num rows, ' '
ROM:0787 0E 0A                       ld      c, #10                                  ; offset to next row
ROM:0789
ROM:0789             loc_789:                                                        ; ...
ROM:0789 06 16                       ld      b, #22                                  ; 22 cols
ROM:078B
ROM:078B             loc_78B:                                                        ; ...
ROM:078B 73                          ld      (hl), e                                 ; display ' '
ROM:078C 23                          inc     hl                                      ; next vram addr
ROM:078D 10 FC                       djnz    loc_78B                                 ; loop through row
ROM:078F 09                          add     hl, bc                                  ; next col
ROM:0790 15                          dec     d
ROM:0791 20 F6                       jr      NZ, loc_789                             ; loop through all rows
ROM:0793 C9                          ret
ROM:0793             ; End of function wipe_play_area
ROM:0793
ROM:0794
ROM:0794             ; =============== S U B R O U T I N E =======================================
ROM:0794
ROM:0794
ROM:0794             __send_sound_cmd:                                               ; ...
ROM:0794 32 00 D0                    ld      (ppi8255_1_PA), a                       ; generic_latch_8_device
ROM:0797 3A D9 83                    ld      a, (__soundCrtl_shadow)
ROM:079A E6 F7                       and     #0xF7 ; '÷'
ROM:079C 32 02 D0                    ld      (ppi8255_1_PB), a                       ; konami_sound_control_w
ROM:079F 00                          nop
ROM:07A0 00                          nop
ROM:07A1 00                          nop
ROM:07A2 00                          nop
ROM:07A3 3A D9 83                    ld      a, (__soundCrtl_shadow)
ROM:07A6 F6 08                       or      #8
ROM:07A8 32 02 D0                    ld      (ppi8255_1_PB), a                       ; konami_sound_control_w
ROM:07AB C9                          ret
ROM:07AB             ; End of function __send_sound_cmd
ROM:07AB
ROM:07AC
ROM:07AC             ; =============== S U B R O U T I N E =======================================
ROM:07AC
ROM:07AC
ROM:07AC             process_next_snd_q_entry:                                       ; ...
ROM:07AC 21 00 83                    ld      hl, #snd_q_cnt
ROM:07AF 7E                          ld      a, (hl)                                 ; count
ROM:07B0 B7                          or      a                                       ; empty?
ROM:07B1 C8                          ret     Z                                       ; yes, return
ROM:07B2 35                          dec     (hl)                                    ; dec count
ROM:07B3 4F                          ld      c, a                                    ; old count
ROM:07B4 2C                          inc     l
ROM:07B5 7E                          ld      a, (hl)                                 ; get 1st entry from queue
ROM:07B6 CD 94 07                    call    __send_sound_cmd
ROM:07B9 54                          ld      d, h
ROM:07BA 5D                          ld      e, l
ROM:07BB 2C                          inc     l
ROM:07BC 06 00                       ld      b, #0
ROM:07BE ED B0                       ldir                                            ; move queue down
ROM:07C0 C9                          ret
ROM:07C0             ; End of function process_next_snd_q_entry
ROM:07C0
ROM:07C1
ROM:07C1             ; =============== S U B R O U T I N E =======================================
ROM:07C1
ROM:07C1
ROM:07C1             sub_7C1:                                                        ; ...
ROM:07C1 3A FD 83                    ld      a, (curr_player)
ROM:07C4 3D                          dec     a                                       ; player 1?
ROM:07C5 CA CE 07                    jp      Z, loc_7CE                              ; yes, go
ROM:07C8 3E 01                       ld      a, #1
ROM:07CA 32 5B 82                    ld      (byte_825B), a
ROM:07CD C9                          ret
ROM:07CE             ; ---------------------------------------------------------------------------
ROM:07CE
ROM:07CE             loc_7CE:                                                        ; ...
ROM:07CE 3A 6D 82                    ld      a, (byte_826D)
ROM:07D1 A7                          and     a
ROM:07D2 C8                          ret     Z
ROM:07D3 3E 01                       ld      a, #1
ROM:07D5 32 5B 82                    ld      (byte_825B), a
ROM:07D8 C9                          ret
ROM:07D8             ; End of function sub_7C1
ROM:07D8
ROM:07D9
ROM:07D9             ; =============== S U B R O U T I N E =======================================
ROM:07D9
ROM:07D9
ROM:07D9             clear_snd_q:                                                    ; ...
ROM:07D9 21 00 83                    ld      hl, #snd_q_cnt
ROM:07DC 11 01 83                    ld      de, #snd_q
ROM:07DF 01 2F 00                    ld      bc, #47
ROM:07E2 70                          ld      (hl), b
ROM:07E3 ED B0                       ldir
ROM:07E5 C9                          ret
ROM:07E5             ; End of function clear_snd_q
ROM:07E5
ROM:07E6
ROM:07E6             ; =============== S U B R O U T I N E =======================================
ROM:07E6
ROM:07E6
ROM:07E6             check_and_clear_8420:                                           ; ...
ROM:07E6 3A FE 83                    ld      a, (f_in_game)
ROM:07E9 3D                          dec     a                                       ; in game?
ROM:07EA C8                          ret     Z                                       ; no, exit
ROM:07EA             ; End of function check_and_clear_8420
ROM:07EA
ROM:07EB
ROM:07EB             ; =============== S U B R O U T I N E =======================================
ROM:07EB
ROM:07EB
ROM:07EB             clear_8420:                                                     ; ...
ROM:07EB AF                          xor     a
ROM:07EC 21 44 80                    ld      hl, # spr_shadow+4                      ; row2, scroll
ROM:07EF 11 45 80                    ld      de, # spr_shadow+5                      ; row2, colour
ROM:07F2 01 1F 00                    ld      bc, #31                                 ; 32 regs to clear
ROM:07F5 70                          ld      (hl), b
ROM:07F6 ED B0                       ldir                                            ; clear 16 rows
ROM:07F8 21 20 84                    ld      hl, #unk_8420
ROM:07FB 11 21 84                    ld      de, #unk_8421
ROM:07FE 0E 0B                       ld      c, #11
ROM:0800 77                          ld      (hl), a
ROM:0801 ED B0                       ldir
ROM:0803 C9                          ret
ROM:0803             ; End of function clear_8420
ROM:0803
ROM:0804
ROM:0804             ; =============== S U B R O U T I N E =======================================
ROM:0804
ROM:0804
ROM:0804             sub_804:                                                        ; ...
ROM:0804 21 44 80                    ld      hl, # spr_shadow+4                      ; sprite1, base0 (frog Y)
ROM:0807 AF                          xor     a
ROM:0808 36 01                       ld      (hl), #1                                ; frog Y=1
ROM:080A 2C                          inc     l                                       ; sprite 1, flip/code
ROM:080B 77                          ld      (hl), a                                 ; frog code=0
ROM:080C 2C                          inc     l
ROM:080D 2C                          inc     l                                       ; sprite1 base3 (frog X)
ROM:080E 77                          ld      (hl), a                                 ; frog X=0
ROM:080F 3A FE 83                    ld      a, (f_in_game)                          ; num players
ROM:0812 FE 02                       cp      #2                                      ; 2 player game?
ROM:0814 C0                          ret     NZ                                      ; no, exit
ROM:0815 21 40 00                    ld      hl, #0x40 ; '@'
ROM:0818 22 D2 83                    ld      (word_83D2), hl
ROM:081B 21 40 00                    ld      hl, #0x40 ; '@'
ROM:081E 22 DA 83                    ld      (word_83DA), hl
ROM:0821 C9                          ret
ROM:0821             ; End of function sub_804
ROM:0821
ROM:0822
ROM:0822             ; =============== S U B R O U T I N E =======================================
ROM:0822
ROM:0822
ROM:0822             handle_toggle_player:                                           ; ...
ROM:0822 AF                          xor     a
ROM:0823 32 71 83                    ld      (byte_8371), a
ROM:0826 3A FE 83                    ld      a, (f_in_game)
ROM:0829 3D                          dec     a                                       ; 1 player?
ROM:082A C8                          ret     Z                                       ; yes, exit
ROM:082B 3A FD 83                    ld      a, (curr_player)
ROM:082E EE 03                       xor     #3                                      ; toggle player
ROM:0830 32 FD 83                    ld      (curr_player), a                        ; update
ROM:0833 21 B8 83                    ld      hl, #p1_level
ROM:0836 3D                          dec     a                                       ; player 1 next?
ROM:0837 28 01                       jr      Z, loc_83A                              ; yes, skip
ROM:0839 2C                          inc     l                                       ; p2_level
ROM:083A
ROM:083A             loc_83A:                                                        ; ...
ROM:083A 7E                          ld      a, (hl)                                 ; get level
ROM:083B 32 B7 83                    ld      (curr_level), a                         ; copy to current level
ROM:083E AF                          xor     a
ROM:083F 32 B6 83                    ld      (byte_83B6), a
ROM:0842 3C                          inc     a
ROM:0843 32 5A 82                    ld      (byte_825A), a
ROM:0846             ; update flip
ROM:0846 3A C2 83                    ld      a, (cocktail_cabinet)
ROM:0849 B7                          or      a                                       ; cocktail?
ROM:084A C8                          ret     Z                                       ; no, exit
ROM:084B 3A CB 83                    ld      a, (flip_screen)
ROM:084E EE 01                       xor     #1                                      ; toggle
ROM:0850 32 CB 83                    ld      (flip_screen), a
ROM:0853 67                          ld      h, a
ROM:0854 32 10 B8                    ld      (flip_screen_x_w), a                    ; update flip
ROM:0857 32 0C B8                    ld      (flip_screen_y_w), a                    ; update flip
ROM:085A C9                          ret
ROM:085A             ; End of function handle_toggle_player
ROM:085A
ROM:085B             ; ---------------------------------------------------------------------------
ROM:085B             ; START OF FUNCTION CHUNK FOR sub_870
ROM:085B
ROM:085B             print_time_over:                                                ; ...
ROM:085B 21 51 AA                    ld      hl, # VRAM_START+0x251
ROM:085E 11 6E 2F                    ld      de, #aTIME                              ; "TIME"
ROM:0861 06 04                       ld      b, #4                                   ; 4 chars
ROM:0863 EF                          rst     print_B_chars
ROM:0864 11 12 2F                    ld      de, # aGAME_OVER+4                      ; " OVER"
ROM:0867 06 05                       ld      b, #5                                   ; 5 chars
ROM:0869 EF                          rst     print_B_chars
ROM:086A 3E 01                       ld      a, #1
ROM:086C 32 04 80                    ld      (frog_dead), a
ROM:086F C9                          ret
ROM:086F             ; END OF FUNCTION CHUNK FOR sub_870
ROM:0870
ROM:0870             ; =============== S U B R O U T I N E =======================================
ROM:0870
ROM:0870
ROM:0870             sub_870:                                                        ; ...
ROM:0870
ROM:0870             ; FUNCTION CHUNK AT ROM:085B SIZE 00000015 BYTES
ROM:0870
ROM:0870 3A CD 83                    ld      a, (byte_83CD)
ROM:0873 B7                          or      a
ROM:0874 C0                          ret     NZ
ROM:0875 3A 04 80                    ld      a, (frog_dead)
ROM:0878 B7                          or      a                                       ; dead?
ROM:0879 C0                          ret     NZ                                      ; yes, exit
ROM:087A 3A AE 83                    ld      a, (byte_83AE)
ROM:087D B7                          or      a
ROM:087E 20 07                       jr      NZ, time_tick_and_update_time_bar
ROM:0880 3C                          inc     a
ROM:0881 32 AE 83                    ld      (byte_83AE), a
ROM:0884 3E 06                       ld      a, #6                                   ; snd #6
ROM:0886 DF                          rst     add_snd_to_q
ROM:0887
ROM:0887             time_tick_and_update_time_bar:                                  ; ...
ROM:0887 CD BA 0A                    call    init_time_bar
ROM:088A 3A DF 83                    ld      a, (byte_83DF)
ROM:088D B7                          or      a
ROM:088E 20 35                       jr      NZ, print_time
ROM:0890 21 DC 83                    ld      hl, #game_timer_lsb
ROM:0893 35                          dec     (hl)                                    ; dec; lsb expired?
ROM:0894 C0                          ret     NZ                                      ; no, return
ROM:0895 36 20                       ld      (hl), #0x20 ; ' '                       ; reset lsb
ROM:0897 23                          inc     hl                                      ; game_timer_msb
ROM:0898 7E                          ld      a, (hl)                                 ; msb
ROM:0899 B7                          or      a                                       ; expired?
ROM:089A CA 5B 08                    jp      Z, print_time_over                      ; yes, go
ROM:089D 3D                          dec     a                                       ; dec msb
ROM:089E 77                          ld      (hl), a                                 ; update msb
ROM:089F 2C                          inc     l                                       ; game_time_BCD
ROM:08A0 7E                          ld      a, (hl)                                 ; get time left
ROM:08A1 3D                          dec     a                                       ; dec
ROM:08A2 27                          daa                                             ; adjust for BCD
ROM:08A3 77                          ld      (hl), a                                 ; update time
ROM:08A4 2D                          dec     l                                       ; game_timer_msb
ROM:08A5 FE 10                       cp      #0x10                                   ; 16s left?
ROM:08A7 20 07                       jr      NZ, update_time_bar                     ; no, skip
ROM:08A9 3E 05                       ld      a, #5                                   ; snd #5 (time running out)
ROM:08AB DF                          rst     add_snd_to_q
ROM:08AC AF                          xor     a
ROM:08AD 32 3F 80                    ld      (obj_shadow_plus_7+0x38), a             ; row31 colour
ROM:08B0
ROM:08B0             update_time_bar:                                                ; ...
ROM:08B0 66                          ld      h, (hl)                                 ; game_timer_msb
ROM:08B1 7C                          ld      a, h                                    ; time left
ROM:08B2 E6 03                       and     #3                                      ; for tile calc
ROM:08B4 4F                          ld      c, a
ROM:08B5 AC                          xor     h                                       ; mask off low bits
ROM:08B6 07                          rlca
ROM:08B7 07                          rlca                                            ; x4
ROM:08B8 6F                          ld      l, a
ROM:08B9 26 00                       ld      h, #0
ROM:08BB 29                          add     hl, hl                                  ; offset for partial tile
ROM:08BC 11 DF A8                    ld      de, # VRAM_START+0xDF                   ; start of time bar
ROM:08BF 19                          add     hl, de                                  ; vram addr for partial tile
ROM:08C0 3E 10                       ld      a, #0x10
ROM:08C2 91                          sub     c                                       ; calc tile to use
ROM:08C3 77                          ld      (hl), a                                 ; display tile
ROM:08C4 C9                          ret
ROM:08C4             ; End of function sub_870
ROM:08C4
ROM:08C5
ROM:08C5             ; =============== S U B R O U T I N E =======================================
ROM:08C5
ROM:08C5
ROM:08C5             print_time:                                                     ; ...
ROM:08C5 3A E0 83                    ld      a, (byte_83E0)
ROM:08C8 B7                          or      a
ROM:08C9 C0                          ret     NZ
ROM:08CA 3C                          inc     a
ROM:08CB 32 E0 83                    ld      (byte_83E0), a
ROM:08CE 21 51 AA                    ld      hl, # VRAM_START+0x251
ROM:08D1 11 6E 2F                    ld      de, #aTIME                              ; "TIME "
ROM:08D4 06 05                       ld      b, #5
ROM:08D6 EF                          rst     print_B_chars
ROM:08D7 3A DE 83                    ld      a, (game_time_BCD)
ROM:08DA 5F                          ld      e, a
ROM:08DB 16 00                       ld      d, #0
ROM:08DD CD A0 0B                    call    print_2_bcd_digits
ROM:08DD             ; End of function print_time
ROM:08DD
ROM:08E0             ; fall thru from print_time
ROM:08E0             ; adds time left to score
ROM:08E0
ROM:08E0             ; =============== S U B R O U T I N E =======================================
ROM:08E0
ROM:08E0
ROM:08E0             add_DE_to_score:                                                ; ...
ROM:08E0 3A FE 83                    ld      a, (f_in_game)
ROM:08E3 B7                          or      a
ROM:08E4 C8                          ret     Z
ROM:08E5 3A FD 83                    ld      a, (curr_player)
ROM:08E8 3D                          dec     a                                       ; player 1?
ROM:08E9 28 05                       jr      Z, loc_8F0                              ; yes, go
ROM:08EB 21 EB 83                    ld      hl, #p2_score
ROM:08EE 18 03                       jr      add_to_score
ROM:08F0             ; ---------------------------------------------------------------------------
ROM:08F0
ROM:08F0             loc_8F0:                                                        ; ...
ROM:08F0 21 ED 83                    ld      hl, #p1_score
ROM:08F3
ROM:08F3             add_to_score:                                                   ; ...
ROM:08F3 7B                          ld      a, e                                    ; score to add lsb
ROM:08F4 86                          add     a, (hl)                                 ; add to score
ROM:08F5 27                          daa
ROM:08F6 77                          ld      (hl), a                                 ; update lsb
ROM:08F7 5F                          ld      e, a
ROM:08F8 23                          inc     hl                                      ; msb
ROM:08F9 7A                          ld      a, d                                    ; score to add msb
ROM:08FA 8E                          adc     a, (hl)                                 ; add to score
ROM:08FB 27                          daa
ROM:08FC 77                          ld      (hl), a                                 ; update msb
ROM:08FD 57                          ld      d, a                                    ; D = msb to add (why???)
ROM:08FE 3A FD 83                    ld      a, (curr_player)
ROM:0901 3D                          dec     a                                       ; player 1?
ROM:0902 20 09                       jr      NZ, add_bonus_frog_update_hi_score_p2   ; no, go
ROM:0904 01 E7 83                    ld      bc, #p1_got_bonus
ROM:0907 0A                          ld      a, (bc)
ROM:0908 B7                          or      a                                       ; already got bonus?
ROM:0909 20 2B                       jr      NZ, update_high_score                   ; yes, skip
ROM:090B 18 07                       jr      add_bonus_frog_update_hi_score
ROM:090D             ; ---------------------------------------------------------------------------
ROM:090D
ROM:090D             add_bonus_frog_update_hi_score_p2:                              ; ...
ROM:090D 01 E8 83                    ld      bc, #p2_got_bonus
ROM:0910 0A                          ld      a, (bc)
ROM:0911 B7                          or      a                                       ; already got bonus?
ROM:0912 20 22                       jr      NZ, update_high_score                   ; yes, skip
ROM:0914
ROM:0914             add_bonus_frog_update_hi_score:                                 ; ...
ROM:0914 2A 08 2E                    ld      hl, (bonus_frog_score)
ROM:0917 ED 52                       sbc     hl, de                                  ; reached bonus score?
ROM:0919 28 02                       jr      Z, add_bonus_frog                       ; yes, go
ROM:091B 30 19                       jr      NC, update_high_score                   ; no, skip
ROM:091D
ROM:091D             add_bonus_frog:                                                 ; ...
ROM:091D 32 CF 83                    ld      (f_game_over), a                        ; A=0
ROM:0920 3C                          inc     a
ROM:0921 02                          ld      (bc), a                                 ; flag got bonus
ROM:0922 0D                          dec     c
ROM:0923 0D                          dec     c
ROM:0924 0A                          ld      a, (bc)                                 ; p2 num frogs left
ROM:0925 3C                          inc     a                                       ; inc
ROM:0926 02                          ld      (bc), a                                 ; update
ROM:0927 21 DE AB                    ld      hl, # VRAM_START+0x3DE
ROM:092A 01 E0 FF                    ld      bc, #0xFFE0                             ; offset to next column
ROM:092D
ROM:092D             loc_92D:                                                        ; ...
ROM:092D 09                          add     hl, bc                                  ; vram addr
ROM:092E 3D                          dec     a
ROM:092F 20 FC                       jr      NZ, loc_92D                             ; find addr for frog
ROM:0931 36 4D                       ld      (hl), #0x4D ; 'M'                       ; display frog
ROM:0933 3E 07                       ld      a, #7                                   ; snd #7
ROM:0935 DF                          rst     add_snd_to_q
ROM:0936
ROM:0936             update_high_score:                                              ; ...
ROM:0936 2A EF 83                    ld      hl, (hi_score)
ROM:0939 B7                          or      a
ROM:093A ED 52                       sbc     hl, de
ROM:093C D0                          ret     NC
ROM:093D ED 53 EF 83                 ld      (hi_score), de
ROM:0941 C9                          ret
ROM:0941             ; End of function add_DE_to_score
ROM:0941
ROM:0942
ROM:0942             ; =============== S U B R O U T I N E =======================================
ROM:0942
ROM:0942
ROM:0942             sub_942:                                                        ; ...
ROM:0942
ROM:0942             ; FUNCTION CHUNK AT ROM:09CA SIZE 00000011 BYTES
ROM:0942
ROM:0942 AF                          xor     a
ROM:0943 32 CE 83                    ld      (byte_83CE), a
ROM:0946 3A CD 83                    ld      a, (byte_83CD)
ROM:0949 B7                          or      a
ROM:094A 20 04                       jr      NZ, check_and_dec_frogs_left
ROM:094C AF                          xor     a
ROM:094D 32 CF 83                    ld      (f_game_over), a                        ; reset
ROM:0950
ROM:0950             check_and_dec_frogs_left:                                       ; ...
ROM:0950 3A FE 83                    ld      a, (f_in_game)
ROM:0953 B7                          or      a                                       ; in game?
ROM:0954 28 74                       jr      Z, loc_9CA                              ; no, go
ROM:0956 3A FD 83                    ld      a, (curr_player)
ROM:0959 3D                          dec     a                                       ; player 1?
ROM:095A 20 05                       jr      NZ, loc_961                             ; no, skip
ROM:095C 21 E5 83                    ld      hl, #p1_num_frogs_left
ROM:095F 18 03                       jr      dec_frogs_left
ROM:0961             ; ---------------------------------------------------------------------------
ROM:0961
ROM:0961             loc_961:                                                        ; ...
ROM:0961 21 E6 83                    ld      hl, #p2_num_frogs_left
ROM:0964
ROM:0964             dec_frogs_left:                                                 ; ...
ROM:0964 3A CD 83                    ld      a, (byte_83CD)
ROM:0967 B7                          or      a
ROM:0968 20 08                       jr      NZ, loc_972
ROM:096A 35                          dec     (hl)                                    ; dec num_frogs_left
ROM:096B 20 05                       jr      NZ, loc_972                             ; frogs left? yes, skip
ROM:096D 3E 01                       ld      a, #1
ROM:096F 32 CF 83                    ld      (f_game_over), a                        ; flag game over
ROM:0972
ROM:0972             loc_972:                                                        ; ...
ROM:0972 CD 52 19                    call    draw_grass
ROM:0975 3A CD 83                    ld      a, (byte_83CD)
ROM:0978 B7                          or      a
ROM:0979 20 0A                       jr      NZ, loc_985
ROM:097B 3C                          inc     a
ROM:097C 32 B5 83                    ld      (byte_83B5), a
ROM:097F 21 50 A8                    ld      hl, # VRAM_START+0x50
ROM:0982 CD E2 19                    call    draw_purple_footpath
ROM:0985
ROM:0985             loc_985:                                                        ; ...
ROM:0985 3A 6C 82                    ld      a, (byte_826C)
ROM:0988 EE 01                       xor     #1
ROM:098A 32 B5 83                    ld      (byte_83B5), a
ROM:098D 3A FD 83                    ld      a, (curr_player)
ROM:0990 3D                          dec     a                                       ; player 1?
ROM:0991 C2 D2 09                    jp      NZ, loc_9D2                             ; no, go
ROM:0994 21 5E 82                    ld      hl, #p1_frog_home_array
ROM:0997 CD DB 09                    call    display_all_frogs_home_at_turn_start
ROM:099A
ROM:099A             loc_99A:                                                        ; ...
ROM:099A 3A 5A 82                    ld      a, (byte_825A)
ROM:099D A7                          and     a
ROM:099E 28 0A                       jr      Z, init_frog_for_turn_start
ROM:09A0 CD 3D 22                    call    update_game_data_for_frogs_home
ROM:09A3 CD AF 0F                    call    jp_jump_table_FBE
ROM:09A6 AF                          xor     a
ROM:09A7 32 5A 82                    ld      (byte_825A), a
ROM:09A7             ; End of function sub_942
ROM:09A7
ROM:09AA
ROM:09AA             ; =============== S U B R O U T I N E =======================================
ROM:09AA
ROM:09AA
ROM:09AA             init_frog_for_turn_start:                                       ; ...
ROM:09AA 21 44 80                    ld      hl, # spr_shadow+4                      ; sprite1, base0 (frog Y)
ROM:09AD 36 80                       ld      (hl), #0x80 ; '€'                       ; set frog Y
ROM:09AF 2C                          inc     l                                       ; sprite1, flip/code
ROM:09B0 36 1E                       ld      (hl), #0x1E                             ; set frog code (frog2, up)
ROM:09B2 2C                          inc     l                                       ; sprite1, colour
ROM:09B3 36 03                       ld      (hl), #3                                ; set frog colour
ROM:09B5 2C                          inc     l                                       ; sprite1, base3 (frog X)
ROM:09B6 36 E0                       ld      (hl), #224                              ; set frog X
ROM:09B8 AF                          xor     a
ROM:09B9 32 CD 83                    ld      (byte_83CD), a
ROM:09BC 32 2D 84                    ld      (byte_842D), a
ROM:09BF 32 2C 84                    ld      (byte_842C), a
ROM:09C2 32 69 82                    ld      (farthest_fwd), a
ROM:09C5 3C                          inc     a
ROM:09C6 32 C3 83                    ld      (byte_83C3), a
ROM:09C9 C9                          ret
ROM:09C9             ; End of function init_frog_for_turn_start
ROM:09C9
ROM:09CA             ; ---------------------------------------------------------------------------
ROM:09CA             ; START OF FUNCTION CHUNK FOR sub_942
ROM:09CA
ROM:09CA             loc_9CA:                                                        ; ...
ROM:09CA 3A CD 83                    ld      a, (byte_83CD)
ROM:09CD B7                          or      a
ROM:09CE C8                          ret     Z
ROM:09CF C3 AA 09                    jp      init_frog_for_turn_start
ROM:09D2             ; ---------------------------------------------------------------------------
ROM:09D2
ROM:09D2             loc_9D2:                                                        ; ...
ROM:09D2 21 63 82                    ld      hl, #p2_frog_home_array
ROM:09D5 CD DB 09                    call    display_all_frogs_home_at_turn_start
ROM:09D8 C3 9A 09                    jp      loc_99A
ROM:09D8             ; END OF FUNCTION CHUNK FOR sub_942
ROM:09DB
ROM:09DB             ; =============== S U B R O U T I N E =======================================
ROM:09DB
ROM:09DB
ROM:09DB             display_all_frogs_home_at_turn_start:                           ; ...
ROM:09DB AF                          xor     a
ROM:09DC B6                          or      (hl)
ROM:09DD 11 64 AB                    ld      de, # VRAM_START+0x364
ROM:09E0 C4 05 0A                    call    NZ, display_frog_home_at_turn_start
ROM:09E3 23                          inc     hl
ROM:09E4 AF                          xor     a
ROM:09E5 B6                          or      (hl)
ROM:09E6 11 A4 AA                    ld      de, # VRAM_START+0x2A4
ROM:09E9 C4 05 0A                    call    NZ, display_frog_home_at_turn_start
ROM:09EC 23                          inc     hl
ROM:09ED AF                          xor     a
ROM:09EE B6                          or      (hl)
ROM:09EF 11 E4 A9                    ld      de, # VRAM_START+0x1E4
ROM:09F2 C4 05 0A                    call    NZ, display_frog_home_at_turn_start
ROM:09F5 23                          inc     hl
ROM:09F6 AF                          xor     a
ROM:09F7 B6                          or      (hl)
ROM:09F8 11 24 A9                    ld      de, # VRAM_START+0x124
ROM:09FB C4 05 0A                    call    NZ, display_frog_home_at_turn_start
ROM:09FE 23                          inc     hl
ROM:09FF AF                          xor     a
ROM:0A00 B6                          or      (hl)
ROM:0A01 11 64 A8                    ld      de, # VRAM_START+0x64
ROM:0A04 C8                          ret     Z
ROM:0A04             ; End of function display_all_frogs_home_at_turn_start
ROM:0A04
ROM:0A05
ROM:0A05             ; =============== S U B R O U T I N E =======================================
ROM:0A05
ROM:0A05
ROM:0A05             display_frog_home_at_turn_start:                                ; ...
ROM:0A05 EB                          ex      de, hl
ROM:0A06 36 6C                       ld      (hl), #0x6C ; 'l'
ROM:0A08 23                          inc     hl
ROM:0A09 36 6D                       ld      (hl), #0x6D ; 'm'
ROM:0A0B 01 1F 00                    ld      bc, #31                                 ; next row
ROM:0A0E 09                          add     hl, bc
ROM:0A0F 36 6E                       ld      (hl), #0x6E ; 'n'
ROM:0A11 23                          inc     hl
ROM:0A12 36 6F                       ld      (hl), #0x6F ; 'o'
ROM:0A14 EB                          ex      de, hl
ROM:0A15 C9                          ret
ROM:0A15             ; End of function display_frog_home_at_turn_start
ROM:0A15
ROM:0A16
ROM:0A16             ; =============== S U B R O U T I N E =======================================
ROM:0A16
ROM:0A16
ROM:0A16             display_frogs_left:                                             ; ...
ROM:0A16 3A E4 83                    ld      a, (starting_lives)
ROM:0A19 3C                          inc     a                                       ; 255?
ROM:0A1A C8                          ret     Z                                       ; yes, return
ROM:0A1B 3A FE 83                    ld      a, (f_in_game)
ROM:0A1E B7                          or      a                                       ; in game?
ROM:0A1F 20 05                       jr      NZ, display_frogs_left_in_game          ; yes, skip
ROM:0A21 21 E4 83                    ld      hl, #starting_lives
ROM:0A24 18 0E                       jr      display_frog_tiles
ROM:0A26             ; ---------------------------------------------------------------------------
ROM:0A26
ROM:0A26             display_frogs_left_in_game:                                     ; ...
ROM:0A26 3A FD 83                    ld      a, (curr_player)
ROM:0A29 3D                          dec     a                                       ; player 1?
ROM:0A2A 20 05                       jr      NZ, loc_A31                             ; no, skip
ROM:0A2C 21 E5 83                    ld      hl, #p1_num_frogs_left
ROM:0A2F 18 03                       jr      display_frog_tiles
ROM:0A31             ; ---------------------------------------------------------------------------
ROM:0A31
ROM:0A31             loc_A31:                                                        ; ...
ROM:0A31 21 E6 83                    ld      hl, #p2_num_frogs_left
ROM:0A34
ROM:0A34             display_frog_tiles:                                             ; ...
ROM:0A34 46                          ld      b, (hl)                                 ; number of frogs
ROM:0A35 78                          ld      a, b
ROM:0A36 B7                          or      a
ROM:0A37 3E 4D                       ld      a, #0x4D ; 'M'                          ; frog
ROM:0A39 11 E0 FF                    ld      de, #0xFFE0                             ; offset to next vram addr
ROM:0A3C 21 BE AB                    ld      hl, # VRAM_START+0x3BE                  ; addr 1st frog
ROM:0A3F 28 04                       jr      Z, loc_A45                              ; no frogs, skip
ROM:0A41
ROM:0A41             loc_A41:                                                        ; ...
ROM:0A41 77                          ld      (hl), a                                 ; display frog
ROM:0A42 19                          add     hl, de                                  ; next vram addr
ROM:0A43 10 FC                       djnz    loc_A41                                 ; loop through all frogs
ROM:0A45
ROM:0A45             loc_A45:                                                        ; ...
ROM:0A45 36 10                       ld      (hl), #0x10                             ; ' '
ROM:0A47 C9                          ret
ROM:0A47             ; End of function display_frogs_left
ROM:0A47
ROM:0A48
ROM:0A48             ; =============== S U B R O U T I N E =======================================
ROM:0A48
ROM:0A48
ROM:0A48             display_level_indicators:                                       ; ...
ROM:0A48 3A B7 83                    ld      a, (curr_level)
ROM:0A4B 21 7E A8                    ld      hl, # VRAM_START+0x7E
ROM:0A4E 11 20 00                    ld      de, #32                                 ; column offset
ROM:0A51 FE 0F                       cp      #15                                     ; level < 15?
ROM:0A53 38 02                       jr      C, loc_A57                              ; yes, skip
ROM:0A55 3E 0F                       ld      a, #15                                  ; display 15 levels only
ROM:0A57
ROM:0A57             loc_A57:                                                        ; ...
ROM:0A57 47                          ld      b, a
ROM:0A58 0E 4C                       ld      c, #0x4C ; 'L'                          ; level indicator
ROM:0A5A
ROM:0A5A             loc_A5A:                                                        ; ...
ROM:0A5A 71                          ld      (hl), c                                 ; print char
ROM:0A5B 19                          add     hl, de                                  ; next column
ROM:0A5C 10 FC                       djnz    loc_A5A                                 ; loop through all levels
ROM:0A5E C9                          ret
ROM:0A5E             ; End of function display_level_indicators
ROM:0A5E
ROM:0A5F             ; ---------------------------------------------------------------------------
ROM:0A5F             ; START OF FUNCTION CHUNK FOR display_frog_home
ROM:0A5F
ROM:0A5F             update_level:                                                   ; ...
ROM:0A5F AF                          xor     a
ROM:0A60 32 CC 83                    ld      (byte_83CC), a
ROM:0A63 21 B8 83                    ld      hl, #p1_level
ROM:0A66 3A FD 83                    ld      a, (curr_player)
ROM:0A69 3D                          dec     a                                       ; player 1?
ROM:0A6A 28 01                       jr      Z, loc_A6D                              ; yes, skip
ROM:0A6C 2C                          inc     l
ROM:0A6D
ROM:0A6D             loc_A6D:                                                        ; ...
ROM:0A6D 34                          inc     (hl)                                    ; inc level
ROM:0A6E 7E                          ld      a, (hl)
ROM:0A6F 32 B7 83                    ld      (curr_level), a
ROM:0A72 FE 10                       cp      #16
ROM:0A74 D0                          ret     NC
ROM:0A75 26 00                       ld      h, #0
ROM:0A77 11 5E A8                    ld      de, # VRAM_START+0x5E
ROM:0A7A 87                          add     a, a                                    ; x2
ROM:0A7B 87                          add     a, a                                    ; x4
ROM:0A7C 87                          add     a, a                                    ; x8
ROM:0A7D 87                          add     a, a                                    ; x16
ROM:0A7E 6F                          ld      l, a
ROM:0A7F 29                          add     hl, hl                                  ; x32 (vram offset)
ROM:0A80 19                          add     hl, de                                  ; vram addr
ROM:0A81 36 4C                       ld      (hl), #0x4C ; 'L'                       ; display level icon
ROM:0A83 C9                          ret
ROM:0A83             ; END OF FUNCTION CHUNK FOR display_frog_home
ROM:0A84             ; DE = new score
ROM:0A84
ROM:0A84             ; =============== S U B R O U T I N E =======================================
ROM:0A84
ROM:0A84
ROM:0A84             check_and_handle_high_score:                                    ; ...
ROM:0A84 06 05                       ld      b, #5                                   ; 5 scores to check
ROM:0A86 21 F2 83                    ld      hl, # score_1st+1
ROM:0A89
ROM:0A89             loc_A89:                                                        ; ...
ROM:0A89 7A                          ld      a, d
ROM:0A8A BE                          cp      (hl)
ROM:0A8B 38 27                       jr      C, next_score_in_tbl                    ; new score msb lower
ROM:0A8D 28 19                       jr      Z, cmp_score_lsbs                       ; new score msb equal
ROM:0A8F
ROM:0A8F             move_scores_down_in_tbl:                                        ; ...
ROM:0A8F 78                          ld      a, b
ROM:0A90 3D                          dec     a
ROM:0A91 28 0F                       jr      Z, insert_new_score_in_tbl
ROM:0A93 87                          add     a, a
ROM:0A94 4F                          ld      c, a                                    ; number of bytes to move
ROM:0A95 06 00                       ld      b, #0
ROM:0A97 D5                          push    de
ROM:0A98 11 FA 83                    ld      de, # score_5th+1
ROM:0A9B 21 F8 83                    ld      hl, # score_4th+1
ROM:0A9E ED B8                       lddr                                            ; move scores down
ROM:0AA0 EB                          ex      de, hl
ROM:0AA1 D1                          pop     de
ROM:0AA2
ROM:0AA2             insert_new_score_in_tbl:                                        ; ...
ROM:0AA2 72                          ld      (hl), d
ROM:0AA3 2D                          dec     l
ROM:0AA4 73                          ld      (hl), e                                 ; insert new score
ROM:0AA5
ROM:0AA5             loc_AA5:                                                        ; ...
ROM:0AA5 87                          add     a, a
ROM:0AA6 3C                          inc     a                                       ; position x 2 + 1
ROM:0AA7 C9                          ret
ROM:0AA8             ; ---------------------------------------------------------------------------
ROM:0AA8
ROM:0AA8             cmp_score_lsbs:                                                 ; ...
ROM:0AA8 2D                          dec     l
ROM:0AA9 7E                          ld      a, (hl)
ROM:0AAA 2C                          inc     l
ROM:0AAB BB                          cp      e
ROM:0AAC 38 E1                       jr      C, move_scores_down_in_tbl
ROM:0AAE 20 04                       jr      NZ, next_score_in_tbl
ROM:0AB0 78                          ld      a, b
ROM:0AB1 3D                          dec     a
ROM:0AB2 28 F1                       jr      Z, loc_AA5
ROM:0AB4
ROM:0AB4             next_score_in_tbl:                                              ; ...
ROM:0AB4 2C                          inc     l
ROM:0AB5 2C                          inc     l
ROM:0AB6 10 D1                       djnz    loc_A89
ROM:0AB8 AF                          xor     a
ROM:0AB9 C9                          ret
ROM:0AB9             ; End of function check_and_handle_high_score
ROM:0AB9
ROM:0ABA
ROM:0ABA             ; =============== S U B R O U T I N E =======================================
ROM:0ABA
ROM:0ABA
ROM:0ABA             init_time_bar:                                                  ; ...
ROM:0ABA 3A 2D 84                    ld      a, (byte_842D)
ROM:0ABD B7                          or      a
ROM:0ABE C0                          ret     NZ
ROM:0ABF 3C                          inc     a
ROM:0AC0 32 2D 84                    ld      (byte_842D), a
ROM:0AC3 3E 03                       ld      a, #3
ROM:0AC5 32 3F 80                    ld      (obj_shadow_plus_7+0x38), a             ; row31, colour
ROM:0AC8 AF                          xor     a
ROM:0AC9 32 E0 83                    ld      (byte_83E0), a
ROM:0ACC 21 BF A8                    ld      hl, # VRAM_START+0xBF
ROM:0ACF 11 6E 2F                    ld      de, #aTIME
ROM:0AD2 06 04                       ld      b, #4                                   ; 4 chars
ROM:0AD4 EF                          rst     print_B_chars
ROM:0AD5 21 DF A8                    ld      hl, # VRAM_START+0xDF
ROM:0AD8 11 20 00                    ld      de, #0x20 ; ' '                         ; column offset
ROM:0ADB 01 0C 0F                    ld      bc, #0xF0C                              ; 15 chars, time bar (full char)
ROM:0ADE
ROM:0ADE             loc_ADE:                                                        ; ...
ROM:0ADE 71                          ld      (hl), c                                 ; display char
ROM:0ADF 19                          add     hl, de                                  ; next col
ROM:0AE0 10 FC                       djnz    loc_ADE                                 ; loop through bar
ROM:0AE2 21 20 3C                    ld      hl, #0x3C20
ROM:0AE5 22 DC 83                    ld      (game_timer_lsb), hl                    ; lsb=32, msb=60
ROM:0AE8 3E 60                       ld      a, #0x60 ; '`'                          ; 60 seconds
ROM:0AEA 32 DE 83                    ld      (game_time_BCD), a                      ; init time
ROM:0AED C9                          ret
ROM:0AED             ; End of function init_time_bar
ROM:0AED
ROM:0AEE
ROM:0AEE             ; =============== S U B R O U T I N E =======================================
ROM:0AEE
ROM:0AEE
ROM:0AEE             sub_AEE:                                                        ; ...
ROM:0AEE E5                          push    hl
ROM:0AEF D5                          push    de
ROM:0AF0 21 00 84                    ld      hl, #unk_8400
ROM:0AF3 35                          dec     (hl)
ROM:0AF4 20 02                       jr      NZ, loc_AF8
ROM:0AF6 36 1F                       ld      (hl), #0x1F
ROM:0AF8
ROM:0AF8             loc_AF8:                                                        ; ...
ROM:0AF8 54                          ld      d, h
ROM:0AF9 5E                          ld      e, (hl)
ROM:0AFA 7B                          ld      a, e
ROM:0AFB C6 0D                       add     a, #0xD
ROM:0AFD FE 20                       cp      #0x20 ; ' '
ROM:0AFF 38 02                       jr      C, loc_B03
ROM:0B01 D6 1F                       sub     #0x1F
ROM:0B03
ROM:0B03             loc_B03:                                                        ; ...
ROM:0B03 6F                          ld      l, a
ROM:0B04 1A                          ld      a, (de)
ROM:0B05 AE                          xor     (hl)
ROM:0B06 77                          ld      (hl), a
ROM:0B07 D1                          pop     de
ROM:0B08 E1                          pop     hl
ROM:0B09 C9                          ret
ROM:0B09             ; End of function sub_AEE
ROM:0B09
ROM:0B0A
ROM:0B0A             ; =============== S U B R O U T I N E =======================================
ROM:0B0A
ROM:0B0A
ROM:0B0A             init_player_stats:                                              ; ...
ROM:0B0A 21 00 00                    ld      hl, #0
ROM:0B0D 22 ED 83                    ld      (p1_score), hl
ROM:0B10 22 EB 83                    ld      (p2_score), hl
ROM:0B13 22 E7 83                    ld      (p1_got_bonus), hl
ROM:0B16 3A E4 83                    ld      a, (starting_lives)
ROM:0B19 67                          ld      h, a
ROM:0B1A 6F                          ld      l, a
ROM:0B1B 22 E5 83                    ld      (p1_num_frogs_left), hl                 ; init p1,p2 lives
ROM:0B1E C9                          ret
ROM:0B1E             ; End of function init_player_stats
ROM:0B1E
ROM:0B1F
ROM:0B1F             ; =============== S U B R O U T I N E =======================================
ROM:0B1F
ROM:0B1F
ROM:0B1F             print_scores:                                                   ; ...
ROM:0B1F 11 E2 2E                    ld      de, #aHI_SCORE                          ; "HI-SCORE"
ROM:0B22 21 60 AA                    ld      hl, # VRAM_START+0x260                  ; vram addr
ROM:0B25 06 08                       ld      b, #8                                   ; 8 chars
ROM:0B27 EF                          rst     print_B_chars
ROM:0B28 21 41 AA                    ld      hl, # VRAM_START+0x241                  ; vram addr
ROM:0B2B ED 5B EF 83                 ld      de, (hi_score)
ROM:0B2F CD 95 0B                    call    print_score
ROM:0B32 3E 01                       ld      a, #1                                   ; "1"
ROM:0B34 21 20 AB                    ld      hl, # VRAM_START+0x320                  ; vram addr
ROM:0B37 CD A9 0B                    call    print_bcd_digit
ROM:0B3A 11 DF 2E                    ld      de, #aUP                                ; "-UP"
ROM:0B3D 06 03                       ld      b, #3
ROM:0B3F EF                          rst     print_B_chars
ROM:0B40 21 41 AB                    ld      hl, # VRAM_START+0x341                  ; vram addr
ROM:0B43 ED 5B ED 83                 ld      de, (p1_score)
ROM:0B47 CD 95 0B                    call    print_score
ROM:0B4A 3A 70 83                    ld      a, (num_players)
ROM:0B4D 3D                          dec     a                                       ; 1 player?
ROM:0B4E C8                          ret     Z                                       ; yes, exit
ROM:0B4F 3E 02                       ld      a, #2                                   ; "2"
ROM:0B51 21 00 A9                    ld      hl, # VRAM_START+0x100                  ; vram addr
ROM:0B54 CD A9 0B                    call    print_bcd_digit
ROM:0B57 11 DF 2E                    ld      de, #aUP                                ; "-UP"
ROM:0B5A 06 03                       ld      b, #3
ROM:0B5C EF                          rst     print_B_chars
ROM:0B5D 21 21 A9                    ld      hl, # VRAM_START+0x121                  ; vram addr
ROM:0B60 ED 5B EB 83                 ld      de, (p2_score)
ROM:0B64 C3 95 0B                    jp      print_score
ROM:0B64             ; End of function print_scores
ROM:0B64
ROM:0B67
ROM:0B67             ; =============== S U B R O U T I N E =======================================
ROM:0B67
ROM:0B67
ROM:0B67             check_and_print_credits:                                        ; ...
ROM:0B67 3A B4 83                    ld      a, (f_bottom_row_cleared)
ROM:0B6A B7                          or      a                                       ; already cleared?
ROM:0B6B 20 11                       jr      NZ, print_credits                       ; yes, skip
ROM:0B6D 3C                          inc     a
ROM:0B6E 32 B4 83                    ld      (f_bottom_row_cleared), a
ROM:0B71 21 1F A8                    ld      hl, # VRAM_START+0x1F                   ; vram addr
ROM:0B74 11 20 00                    ld      de, #0x20 ; ' '
ROM:0B77 01 10 20                    ld      bc, #0x2010                             ; 32 cols, ' ' char
ROM:0B7A
ROM:0B7A             loc_B7A:                                                        ; ...
ROM:0B7A 71                          ld      (hl), c                                 ; space
ROM:0B7B 19                          add     hl, de                                  ; next col
ROM:0B7C 10 FC                       djnz    loc_B7A                                 ; loop thru 1 row
ROM:0B7E
ROM:0B7E             print_credits:                                                  ; ...
ROM:0B7E 11 68 2F                    ld      de, #aCREDIT
ROM:0B81 21 7F A9                    ld      hl, # VRAM_START+0x17F
ROM:0B84 06 06                       ld      b, #6                                   ; 6 chars
ROM:0B86 EF                          rst     print_B_chars
ROM:0B87 3E 01                       ld      a, #1
ROM:0B89 32 3F 80                    ld      (obj_shadow_plus_7+0x38), a
ROM:0B8C 21 9F A8                    ld      hl, # VRAM_START+0x9F
ROM:0B8F 3A E1 83                    ld      a, (num_credits)
ROM:0B92 C3 A0 0B                    jp      print_2_bcd_digits
ROM:0B92             ; End of function check_and_print_credits
ROM:0B92
ROM:0B95
ROM:0B95             ; =============== S U B R O U T I N E =======================================
ROM:0B95
ROM:0B95
ROM:0B95             print_score:                                                    ; ...
ROM:0B95 CD 9B 0B                    call    print_4_bcd_digits_in_DE
ROM:0B98 AF                          xor     a                                       ; always 0 at end
ROM:0B99 18 0E                       jr      print_bcd_digit
ROM:0B99             ; End of function print_score
ROM:0B99
ROM:0B9B
ROM:0B9B             ; =============== S U B R O U T I N E =======================================
ROM:0B9B
ROM:0B9B
ROM:0B9B             print_4_bcd_digits_in_DE:                                       ; ...
ROM:0B9B 7A                          ld      a, d
ROM:0B9C CD A0 0B                    call    print_2_bcd_digits
ROM:0B9F 7B                          ld      a, e
ROM:0B9F             ; End of function print_4_bcd_digits_in_DE
ROM:0B9F
ROM:0BA0
ROM:0BA0             ; =============== S U B R O U T I N E =======================================
ROM:0BA0
ROM:0BA0
ROM:0BA0             print_2_bcd_digits:                                             ; ...
ROM:0BA0 4F                          ld      c, a                                    ; get BCD digit
ROM:0BA1 0F                          rrca
ROM:0BA2 0F                          rrca
ROM:0BA3 0F                          rrca
ROM:0BA4 0F                          rrca                                            ; high nybble->low
ROM:0BA5 CD A9 0B                    call    print_bcd_digit
ROM:0BA8 79                          ld      a, c
ROM:0BA8             ; End of function print_2_bcd_digits
ROM:0BA8
ROM:0BA9
ROM:0BA9             ; =============== S U B R O U T I N E =======================================
ROM:0BA9
ROM:0BA9
ROM:0BA9             print_bcd_digit:                                                ; ...
ROM:0BA9 E6 0F                       and     #0xF                                    ; low nybble only
ROM:0BAB 77                          ld      (hl), a                                 ; store on screen
ROM:0BAC 7D                          ld      a, l
ROM:0BAD D6 20                       sub     #0x20 ; ' '                             ; next column
ROM:0BAF 6F                          ld      l, a
ROM:0BB0 D0                          ret     NC                                      ; addr hi OK
ROM:0BB1 25                          dec     h                                       ; adjust address
ROM:0BB2 C9                          ret
ROM:0BB2             ; End of function print_bcd_digit
ROM:0BB2
ROM:0BB3             ; ---------------------------------------------------------------------------
ROM:0BB3             ; START OF FUNCTION CHUNK FOR handle_attract_screens
ROM:0BB3
ROM:0BB3             print_high_score_table:                                         ; ...
ROM:0BB3 21 D8 83                    ld      hl, #timer_83d8
ROM:0BB6 35                          dec     (hl)                                    ; dec timer
ROM:0BB7 2D                          dec     l
ROM:0BB8 AF                          xor     a
ROM:0BB9 77                          ld      (hl), a                                 ; reset ???
ROM:0BBA 32 B3 83                    ld      (byte_83B3), a
ROM:0BBD CD 81 07                    call    wipe_play_area
ROM:0BC0 3E 03                       ld      a, #3
ROM:0BC2 32 19 80                    ld      (obj_shadow_plus_7+0x12), a             ; row12 colour
ROM:0BC5 21 1F 80                    ld      hl, # obj_shadow_plus_7+0x18            ; row15 colour
ROM:0BC8 06 05                       ld      b, #5
ROM:0BCA AF                          xor     a
ROM:0BCB
ROM:0BCB             loc_BCB:                                                        ; ...
ROM:0BCB 77                          ld      (hl), a
ROM:0BCC 2C                          inc     l
ROM:0BCD 2C                          inc     l
ROM:0BCE 2C                          inc     l
ROM:0BCF 2C                          inc     l                                       ; skip 2 rows
ROM:0BD0 10 F9                       djnz    loc_BCB
ROM:0BD2 CD 3D 0C                    call    sub_C3D
ROM:0BD5 21 AC AA                    ld      hl, # VRAM_START+0x2AC
ROM:0BD8 11 E5 2E                    ld      de, # aHI_SCORE+3                       ; "SCORE RANKING"
ROM:0BDB 06 0D                       ld      b, #13                                  ; 13 chars
ROM:0BDD EF                          rst     print_B_chars
ROM:0BDE 3E 01                       ld      a, #1
ROM:0BE0
ROM:0BE0             print_scores_in_table:                                          ; ...
ROM:0BE0 26 AA                       ld      h, #0xAA ; 'ª'                          ; vram address hi
ROM:0BE2 ED 47                       ld      i, a                                    ; rank 1-5
ROM:0BE4 87                          add     a, a                                    ; x2 (row offset)
ROM:0BE5 C6 CD                       add     a, #0xCD ; 'Í'                          ; vram addr lo
ROM:0BE7 6F                          ld      l, a                                    ; calc vram addr
ROM:0BE8 ED 57                       ld      a, i                                    ; restore rank 1-5
ROM:0BEA CD A9 0B                    call    print_bcd_digit                         ; display rank
ROM:0BED ED 57                       ld      a, i
ROM:0BEF 08                          ex      af, af'                                 ; save rank
ROM:0BF0 06 03                       ld      b, #3                                   ; 3 chars
ROM:0BF2 EF                          rst     print_B_chars                           ; " ST"
ROM:0BF3 D9                          exx                                             ; restore rank
ROM:0BF4 21 EF 83                    ld      hl, #hi_score
ROM:0BF7 08                          ex      af, af'                                 ; restore rank
ROM:0BF8 47                          ld      b, a
ROM:0BF9
ROM:0BF9             loc_BF9:                                                        ; ...
ROM:0BF9 2C                          inc     l
ROM:0BFA 2C                          inc     l                                       ; offset to score in table
ROM:0BFB 10 FC                       djnz    loc_BF9
ROM:0BFD 5E                          ld      e, (hl)
ROM:0BFE 2C                          inc     l
ROM:0BFF 56                          ld      d, (hl)                                 ; get score in DE
ROM:0C00 26 A9                       ld      h, #0xA9 ; '©'                          ; vram addr hi
ROM:0C02 87                          add     a, a                                    ; calc vram addr
ROM:0C03 C6 ED                       add     a, #0xED ; 'í'                          ; vram addr lo
ROM:0C05 6F                          ld      l, a
ROM:0C06 CD 95 0B                    call    print_score
ROM:0C09 11 BA 2F                    ld      de, #a_PTS
ROM:0C0C 06 04                       ld      b, #4                                   ; 4 chars
ROM:0C0E EF                          rst     print_B_chars
ROM:0C0F ED 57                       ld      a, i
ROM:0C11 D9                          exx
ROM:0C12 3C                          inc     a
ROM:0C13 FE 06                       cp      #6                                      ; done?
ROM:0C15 20 C9                       jr      NZ, print_scores_in_table               ; no, loop
ROM:0C17
ROM:0C17             display_konami_copyright:                                       ; ...
ROM:0C17 11 4D 2F                    ld      de, #aKONAMI_1981
ROM:0C1A 21 FC AA                    ld      hl, # VRAM_START+0x2FC                  ; vram addr
ROM:0C1D 06 0F                       ld      b, #15                                  ; 15 chars
ROM:0C1F AF                          xor     a
ROM:0C20 32 39 80                    ld      (obj_shadow_plus_7+0x32), a             ; row27 colour (whilte?)
ROM:0C23 EF                          rst     print_B_chars
ROM:0C24 C9                          ret
ROM:0C24             ; END OF FUNCTION CHUNK FOR handle_attract_screens
ROM:0C25             ; ---------------------------------------------------------------------------
ROM:0C25 7A                          ld      a, d
ROM:0C26 CD 2A 0C                    call    sub_C2A
ROM:0C29 7B                          ld      a, e
ROM:0C2A
ROM:0C2A             ; =============== S U B R O U T I N E =======================================
ROM:0C2A
ROM:0C2A
ROM:0C2A             sub_C2A:                                                        ; ...
ROM:0C2A 4F                          ld      c, a
ROM:0C2B E6 0F                       and     #0xF
ROM:0C2D CD 35 0C                    call    sub_C35
ROM:0C30 79                          ld      a, c
ROM:0C31 0F                          rrca
ROM:0C32 0F                          rrca
ROM:0C33 0F                          rrca
ROM:0C34 0F                          rrca
ROM:0C34             ; End of function sub_C2A
ROM:0C34
ROM:0C35
ROM:0C35             ; =============== S U B R O U T I N E =======================================
ROM:0C35
ROM:0C35
ROM:0C35             sub_C35:                                                        ; ...
ROM:0C35 77                          ld      (hl), a
ROM:0C36 7D                          ld      a, l
ROM:0C37 D6 20                       sub     #0x20 ; ' '
ROM:0C39 6F                          ld      l, a
ROM:0C3A D0                          ret     NC
ROM:0C3B 25                          dec     h
ROM:0C3C C9                          ret
ROM:0C3C             ; End of function sub_C35
ROM:0C3C
ROM:0C3D
ROM:0C3D             ; =============== S U B R O U T I N E =======================================
ROM:0C3D
ROM:0C3D
ROM:0C3D             sub_C3D:                                                        ; ...
ROM:0C3D 26 80                       ld      h, #0x80 ; '€'
ROM:0C3F ED 4B FB 83                 ld      bc, (word_83FB)
ROM:0C43 11 04 30                    ld      de, #0x3004
ROM:0C46 CD 4A 0C                    call    sub_C4A
ROM:0C49 48                          ld      c, b
ROM:0C49             ; End of function sub_C3D
ROM:0C49
ROM:0C4A
ROM:0C4A             ; =============== S U B R O U T I N E =======================================
ROM:0C4A
ROM:0C4A
ROM:0C4A             sub_C4A:                                                        ; ...
ROM:0C4A 7A                          ld      a, d
ROM:0C4B 91                          sub     c
ROM:0C4C BA                          cp      d
ROM:0C4D C8                          ret     Z
ROM:0C4E 6F                          ld      l, a
ROM:0C4F 73                          ld      (hl), e
ROM:0C50 C9                          ret
ROM:0C50             ; End of function sub_C4A
ROM:0C50
ROM:0C51             ; ---------------------------------------------------------------------------
ROM:0C51             ; "PLUS BONUS"
ROM:0C51             ; "10 PTS X REMAINING SECOND"
ROM:0C51
ROM:0C51             display_pts_tbl_part4:                                          ; ...
ROM:0C51 21 76 AB                    ld      hl, # VRAM_START+0x376
ROM:0C54 11 9E 2F                    ld      de, #aPLUS_BONUS                        ; "PLUS BONUS"
ROM:0C57 06 0A                       ld      b, #10
ROM:0C59 EF                          rst     print_B_chars
ROM:0C5A 21 77 AB                    ld      hl, # VRAM_START+0x377
ROM:0C5D 3E 10                       ld      a, #0x10                                ; "10"
ROM:0C5F CD A0 0B                    call    print_2_bcd_digits
ROM:0C62 11 BA 2F                    ld      de, #a_PTS                              ; " PTS"
ROM:0C65 06 04                       ld      b, #4                                   ; 4 chars
ROM:0C67 EF                          rst     print_B_chars
ROM:0C68 06 13                       ld      b, #19                                  ; 19 chars
ROM:0C6A EF                          rst     print_B_chars                           ; " X REMAINING SECOND"
ROM:0C6B 18 4D                       jr      set_timer_83d8_128
ROM:0C6D             ; ---------------------------------------------------------------------------
ROM:0C6D             ; START OF FUNCTION CHUNK FOR handle_attract_screens
ROM:0C6D
ROM:0C6D             display_next_point_table_part:                                  ; ...
ROM:0C6D 21 D8 83                    ld      hl, #timer_83d8
ROM:0C70 2D                          dec     l                                       ; $83D7
ROM:0C71 7E                          ld      a, (hl)                                 ; point table part
ROM:0C72 B7                          or      a                                       ; valid?
ROM:0C73 20 02                       jr      NZ, loc_C77                             ; yes, skip
ROM:0C75 36 05                       ld      (hl), #5                                ; reset
ROM:0C77
ROM:0C77             loc_C77:                                                        ; ...
ROM:0C77 35                          dec     (hl)                                    ; next part
ROM:0C78 7E                          ld      a, (hl)                                 ; point table part
ROM:0C79 87                          add     a, a                                    ; calc offset into jump table
ROM:0C7A 21 82 0C                    ld      hl, #display_point_table_jp_tbl
ROM:0C7D 5F                          ld      e, a
ROM:0C7E 16 00                       ld      d, #0
ROM:0C80 19                          add     hl, de                                  ; get entry
ROM:0C81 E9                          jp      (hl)                                    ; go!
ROM:0C81             ; END OF FUNCTION CHUNK FOR handle_attract_screens
ROM:0C82             ; ---------------------------------------------------------------------------
ROM:0C82
ROM:0C82             display_point_table_jp_tbl:                                     ; ...
ROM:0C82 18 3C                       jr      set_timer_83d8_192
ROM:0C84             ; ---------------------------------------------------------------------------
ROM:0C84 18 CB                       jr      display_pts_tbl_part4
ROM:0C86             ; ---------------------------------------------------------------------------
ROM:0C86 18 63                       jr      display_pts_tbl_part3
ROM:0C88             ; ---------------------------------------------------------------------------
ROM:0C88 18 3C                       jr      display_pts_tbl_part2
ROM:0C8A             ; ---------------------------------------------------------------------------
ROM:0C8A             ; "10 PTS FOR EACH STEP"
ROM:0C8A
ROM:0C8A             display_pts_tbl_part1:                                          ; red
ROM:0C8A 3E 06                       ld      a, #6
ROM:0C8C 32 1D 80                    ld      (obj_shadow_plus_7+0x16), a             ; row14 colour
ROM:0C8F 32 23 80                    ld      (obj_shadow_plus_7+0x1C), a             ; row17 colour
ROM:0C92 32 29 80                    ld      (obj_shadow_plus_7+0x22), a             ; row20 colour
ROM:0C95 32 2F 80                    ld      (obj_shadow_plus_7+0x28), a             ; row23 colour
ROM:0C98 3E 03                       ld      a, #3                                   ; yellow
ROM:0C9A 32 1B 80                    ld      (obj_shadow_plus_7+0x14), a             ; row13 colour
ROM:0C9D 32 21 80                    ld      (obj_shadow_plus_7+0x1A), a             ; row16 colour
ROM:0CA0 32 27 80                    ld      (obj_shadow_plus_7+0x20), a             ; row19 colour
ROM:0CA3 32 2D 80                    ld      (obj_shadow_plus_7+0x26), a             ; row22 colour
ROM:0CA6 3E 10                       ld      a, #0x10                                ; "10"
ROM:0CA8 21 6D AB                    ld      hl, # VRAM_START+0x36D
ROM:0CAB CD A0 0B                    call    print_2_bcd_digits
ROM:0CAE 11 BA 2F                    ld      de, #a_PTS                              ; " PTS"
ROM:0CB1 06 04                       ld      b, #4                                   ; 4 chars
ROM:0CB3 EF                          rst     print_B_chars
ROM:0CB4 11 D1 2E                    ld      de, #a_FOR_EACH_STEP                    ; " FOR EACH STEP"
ROM:0CB7 06 0E                       ld      b, #14                                  ; 14 chars
ROM:0CB9 EF                          rst     print_B_chars
ROM:0CBA
ROM:0CBA             set_timer_83d8_128:                                             ; ...
ROM:0CBA 21 D8 83                    ld      hl, #timer_83d8
ROM:0CBD 36 80                       ld      (hl), #128
ROM:0CBF C9                          ret
ROM:0CC0             ; ---------------------------------------------------------------------------
ROM:0CC0
ROM:0CC0             set_timer_83d8_192:                                             ; ...
ROM:0CC0 21 D8 83                    ld      hl, #timer_83d8
ROM:0CC3 36 C0                       ld      (hl), #192
ROM:0CC5 C9                          ret
ROM:0CC6             ; ---------------------------------------------------------------------------
ROM:0CC6             ; "50 PTS FOR EVERY FROG"
ROM:0CC6             ; "ARRIVED HOME SAFELY"
ROM:0CC6
ROM:0CC6             display_pts_tbl_part2:                                          ; ...
ROM:0CC6 21 70 AB                    ld      hl, # VRAM_START+0x370
ROM:0CC9 3E 50                       ld      a, #0x50 ; 'P'                          ; "50"
ROM:0CCB CD A0 0B                    call    print_2_bcd_digits
ROM:0CCE 11 BA 2F                    ld      de, #a_PTS                              ; " PTS"
ROM:0CD1 06 04                       ld      b, #4                                   ; 4 chars
ROM:0CD3 EF                          rst     print_B_chars
ROM:0CD4 11 43 2F                    ld      de, #a_FOR_EVERY                        ; " FOR EVERY"
ROM:0CD7 06 0A                       ld      b, #10                                  ; 10 chars
ROM:0CD9 EF                          rst     print_B_chars
ROM:0CDA 11 AE 2F                    ld      de, #a_FROGS                            ; " FROGS"
ROM:0CDD 06 05                       ld      b, #5                                   ; 5 chars
ROM:0CDF EF                          rst     print_B_chars
ROM:0CE0 21 71 AB                    ld      hl, # VRAM_START+0x371
ROM:0CE3 11 17 2F                    ld      de, #aARRIVED_HOME_SAFELY               ; "ARRIVED HOME SAFELY"
ROM:0CE6 06 13                       ld      b, #19                                  ; 19 chars
ROM:0CE8 EF                          rst     print_B_chars
ROM:0CE9 18 CF                       jr      set_timer_83d8_128
ROM:0CEB             ; ---------------------------------------------------------------------------
ROM:0CEB             ; "1000 PTS BY SAVING FROGS"
ROM:0CEB             ; "INTO FIYE HOMES" (sic)
ROM:0CEB
ROM:0CEB             display_pts_tbl_part3:                                          ; ...
ROM:0CEB 21 73 AB                    ld      hl, # VRAM_START+0x373
ROM:0CEE 11 00 10                    ld      de, #0x1000                             ; "1000"
ROM:0CF1 CD 9B 0B                    call    print_4_bcd_digits_in_DE
ROM:0CF4 11 BA 2F                    ld      de, #a_PTS                              ; " PTS"
ROM:0CF7 06 04                       ld      b, #4                                   ; 4 chars
ROM:0CF9 EF                          rst     print_B_chars
ROM:0CFA 11 39 2F                    ld      de, #aBY_SAVING_                        ; "BY SAVING "
ROM:0CFD 06 0A                       ld      b, #10                                  ; 10 chars
ROM:0CFF EF                          rst     print_B_chars
ROM:0D00 11 AE 2F                    ld      de, #a_FROGS                            ; " FROGS"
ROM:0D03 06 06                       ld      b, #6                                   ; 6 chars
ROM:0D05 EF                          rst     print_B_chars
ROM:0D06 21 74 AB                    ld      hl, # VRAM_START+0x374
ROM:0D09 11 2A 2F                    ld      de, #aINTO_FIYE_HOMES                   ; "INTO FIYE HOMES"
ROM:0D0C 06 0F                       ld      b, #15                                  ; 15 chars
ROM:0D0E EF                          rst     print_B_chars
ROM:0D0F 18 A9                       jr      set_timer_83d8_128
ROM:0D11
ROM:0D11             ; =============== S U B R O U T I N E =======================================
ROM:0D11
ROM:0D11
ROM:0D11             handle_attract_screens:                                         ; ...
ROM:0D11
ROM:0D11             ; FUNCTION CHUNK AT ROM:0BB3 SIZE 00000072 BYTES
ROM:0D11             ; FUNCTION CHUNK AT ROM:0C6D SIZE 00000015 BYTES
ROM:0D11             ; FUNCTION CHUNK AT ROM:2D88 SIZE 00000041 BYTES
ROM:0D11
ROM:0D11 3A D8 83                    ld      a, (timer_83d8)
ROM:0D14 B7                          or      a                                       ; expired?
ROM:0D15 C0                          ret     NZ                                      ; no, exit
ROM:0D16 3A D6 83                    ld      a, (attract_mode_part)                  ; attract mode part
ROM:0D19 FE 03                       cp      #3                                      ; 3=high score table
ROM:0D1B CA B3 0B                    jp      Z, print_high_score_table
ROM:0D1E 3A E1 83                    ld      a, (num_credits)
ROM:0D21 B7                          or      a                                       ; any credits?
ROM:0D22 C2 4C 0D                    jp      NZ, handle_start_game_screen            ; yes, skip
ROM:0D25 3A D6 83                    ld      a, (attract_mode_part)                  ; attract mode part
ROM:0D28 FE 04                       cp      #4                                      ; 4=point table
ROM:0D2A CA 6D 0C                    jp      Z, display_next_point_table_part
ROM:0D2D FE 02                       cp      #2                                      ; 2=insert coin
ROM:0D2F CA 88 2D                    jp      Z, display_insert_coin_screen
ROM:0D32 FE 05                       cp      #5                                      ; 5=point table header, copyright
ROM:0D34 C0                          ret     NZ
ROM:0D35             ; display point table header, copyright
ROM:0D35 21 D8 83                    ld      hl, #timer_83d8
ROM:0D38 36 30                       ld      (hl), #48
ROM:0D3A 2D                          dec     l
ROM:0D3B AF                          xor     a
ROM:0D3C 77                          ld      (hl), a
ROM:0D3D 32 15 80                    ld      (obj_shadow_plus_7+0xE), a              ; row10 colour (white?)
ROM:0D40 11 01 2F                    ld      de, #aPOINT_TABLE                       ; "-POINT TABLE-"
ROM:0D43 21 CA AA                    ld      hl, # VRAM_START+0x2CA                  ; vram addr
ROM:0D46 06 0D                       ld      b, #13                                  ; 13 chars
ROM:0D48 EF                          rst     print_B_chars
ROM:0D49 C3 17 0C                    jp      display_konami_copyright
ROM:0D4C             ; ---------------------------------------------------------------------------
ROM:0D4C
ROM:0D4C             handle_start_game_screen:                                       ; ...
ROM:0D4C CD E6 07                    call    check_and_clear_8420
ROM:0D4F 3A BA 83                    ld      a, (byte_83BA)
ROM:0D52 B7                          or      a
ROM:0D53 C0                          ret     NZ
ROM:0D54 67                          ld      h, a
ROM:0D55 6F                          ld      l, a
ROM:0D56 22 93 82                    ld      (p1_frogs_home), hl
ROM:0D59 22 B3 81                    ld      (word_81B3), hl
ROM:0D5C 32 5B 82                    ld      (byte_825B), a
ROM:0D5F 32 9A 82                    ld      (attract_mode_frog_move_cnt), a
ROM:0D62 3C                          inc     a
ROM:0D63 32 BA 83                    ld      (byte_83BA), a
ROM:0D66 CD 3D 22                    call    update_game_data_for_frogs_home
ROM:0D69 CD 04 08                    call    sub_804
ROM:0D6C CD 66 07                    call    cls
ROM:0D6F CD 4B 06                    call    clear_objram_and_8100
ROM:0D72 3E 04                       ld      a, #4
ROM:0D74 32 1B 80                    ld      (obj_shadow_plus_7+0x14), a
ROM:0D77 3E 06                       ld      a, #6
ROM:0D79 32 29 80                    ld      (obj_shadow_plus_7+0x22), a
ROM:0D7C             ; show start information
ROM:0D7C 21 28 AA                    ld      hl, # VRAM_START+0x228
ROM:0D7F 11 77 2F                    ld      de, #aPUSH                              ; "PUSH"
ROM:0D82 06 04                       ld      b, #4                                   ; 4 chars
ROM:0D84 EF                          rst     print_B_chars
ROM:0D85 21 AD AA                    ld      hl, # VRAM_START+0x2AD
ROM:0D88 1C                          inc     e                                       ; "START BUTTON"
ROM:0D89 06 0C                       ld      b, #12                                  ; 12 chars
ROM:0D8B EF                          rst     print_B_chars
ROM:0D8C CD B9 0D                    call    print_one_or_two_players
ROM:0D8F 21 74 AB                    ld      hl, # VRAM_START+0x374
ROM:0D92 11 88 2F                    ld      de, #aONE_                              ; "ONE"
ROM:0D95 06 03                       ld      b, #3                                   ; 3 chrs
ROM:0D97 EF                          rst     print_B_chars
ROM:0D98 11 A8 2F                    ld      de, #a_EXTRA                            ; " EXTRA"
ROM:0D9B 06 06                       ld      b, #6                                   ; 6 chars
ROM:0D9D EF                          rst     print_B_chars
ROM:0D9E 11 AE 2F                    ld      de, #a_FROGS
ROM:0DA1 06 05                       ld      b, #5                                   ; 5 chars (" FROG")
ROM:0DA3 EF                          rst     print_B_chars
ROM:0DA4 13                          inc     de                                      ; " AFTER "
ROM:0DA5 06 07                       ld      b, #7
ROM:0DA7 EF                          rst     print_B_chars
ROM:0DA8 21 94 A9                    ld      hl, # VRAM_START+0x194
ROM:0DAB ED 5B 08 2E                 ld      de, (bonus_frog_score)
ROM:0DAF CD 95 0B                    call    print_score
ROM:0DB2 11 BA 2F                    ld      de, #a_PTS
ROM:0DB5 06 04                       ld      b, #4
ROM:0DB7 EF                          rst     print_B_chars
ROM:0DB8 C9                          ret
ROM:0DB8             ; End of function handle_attract_screens
ROM:0DB8
ROM:0DB9
ROM:0DB9             ; =============== S U B R O U T I N E =======================================
ROM:0DB9
ROM:0DB9
ROM:0DB9             print_one_or_two_players:                                       ; ...
ROM:0DB9 3A E1 83                    ld      a, (num_credits)
ROM:0DBC 11 88 2F                    ld      de, #aONE_                              ; "ONE "
ROM:0DBF 3D                          dec     a                                       ; only 1 credit?
ROM:0DC0 28 11                       jr      Z, loc_DD3                              ; yes, skip
ROM:0DC2 3E 03                       ld      a, #3
ROM:0DC4 32 23 80                    ld      (obj_shadow_plus_7+0x1C), a
ROM:0DC7 21 11 AB                    ld      hl, # VRAM_START+0x311
ROM:0DCA 06 04                       ld      b, #4                                   ; 4 chars
ROM:0DCC EF                          rst     print_B_chars                           ; "OR T"
ROM:0DCD 06 0D                       ld      b, #13                                  ; 13 chars
ROM:0DCF EF                          rst     print_B_chars                           ; "OR TWO PLAYER"
ROM:0DD0 36 23                       ld      (hl), #0x23 ; '#'                       ; 'S'
ROM:0DD2 C9                          ret
ROM:0DD3             ; ---------------------------------------------------------------------------
ROM:0DD3
ROM:0DD3             loc_DD3:                                                        ; ...
ROM:0DD3 21 F1 AA                    ld      hl, # VRAM_START+0x2F1
ROM:0DD6 06 04                       ld      b, #4                                   ; 4 chars
ROM:0DD8 EF                          rst     print_B_chars
ROM:0DD9 11 93 2F                    ld      de, #aPLAYER_ONLY                       ; "PLAYER ONLY"
ROM:0DDC 06 0B                       ld      b, #11                                  ; 11 chars
ROM:0DDE EF                          rst     print_B_chars
ROM:0DDF C9                          ret
ROM:0DDF             ; End of function print_one_or_two_players
ROM:0DDF
ROM:0DE0             ; ---------------------------------------------------------------------------
ROM:0DE0             ; START OF FUNCTION CHUNK FOR sub_E7A
ROM:0DE0
ROM:0DE0             loc_DE0:                                                        ; ...
ROM:0DE0 3E 03                       ld      a, #3
ROM:0DE2 32 0D 80                    ld      (obj_shadow_plus_7+6), a
ROM:0DE5 32 0F 80                    ld      (obj_shadow_plus_7+8), a
ROM:0DE8 3A BC 83                    ld      a, (byte_83BC)
ROM:0DEB 3D                          dec     a
ROM:0DEC 32 BC 83                    ld      (byte_83BC), a
ROM:0DEF C0                          ret     NZ
ROM:0DF0 3E 20                       ld      a, #0x20 ; ' '
ROM:0DF2 32 BC 83                    ld      (byte_83BC), a
ROM:0DF5 3A D7 83                    ld      a, (tmp_83D7)                           ; splash letter number
ROM:0DF8 87                          add     a, a                                    ; x2
ROM:0DF9 16 00                       ld      d, #0
ROM:0DFB 5F                          ld      e, a                                    ; table offset
ROM:0DFC 21 FF 0D                    ld      hl, #loc_DFF
ROM:0DFF
ROM:0DFF             loc_DFF:                                                        ; ...
ROM:0DFF 19                          add     hl, de
ROM:0E00 E9                          jp      (hl)
ROM:0E00             ; END OF FUNCTION CHUNK FOR sub_E7A
ROM:0E01             ; ---------------------------------------------------------------------------
ROM:0E01 18 46                       jr      loc_E49                                 ; "R"
ROM:0E03             ; ---------------------------------------------------------------------------
ROM:0E03 18 3A                       jr      loc_E3F                                 ; "E"
ROM:0E05             ; ---------------------------------------------------------------------------
ROM:0E05 18 2E                       jr      loc_E35                                 ; "G"
ROM:0E07             ; ---------------------------------------------------------------------------
ROM:0E07 18 22                       jr      loc_E2B                                 ; "G"
ROM:0E09             ; ---------------------------------------------------------------------------
ROM:0E09 18 16                       jr      loc_E21                                 ; "O"
ROM:0E0B             ; ---------------------------------------------------------------------------
ROM:0E0B 18 0A                       jr      loc_E17                                 ; "R"
ROM:0E0D             ; ---------------------------------------------------------------------------
ROM:0E0D 21 06 AB                    ld      hl, # VRAM_START+0x306                  ; "F"
ROM:0E10 11 40 80                    ld      de, #spr_shadow                         ; sprite 0
ROM:0E13 3E D4                       ld      a, #0xD4 ; 'Ô'                          ; "F"
ROM:0E15 18 3A                       jr      loc_E51
ROM:0E17             ; ---------------------------------------------------------------------------
ROM:0E17
ROM:0E17             loc_E17:                                                        ; ...
ROM:0E17 21 A6 AA                    ld      hl, # VRAM_START+0x2A6
ROM:0E1A 11 44 80                    ld      de, # spr_shadow+4                      ; sprite 1
ROM:0E1D 3E D8                       ld      a, #0xD8 ; 'Ø'                          ; "R"
ROM:0E1F 18 30                       jr      loc_E51
ROM:0E21             ; ---------------------------------------------------------------------------
ROM:0E21
ROM:0E21             loc_E21:                                                        ; ...
ROM:0E21 21 46 AA                    ld      hl, # VRAM_START+0x246
ROM:0E24 11 48 80                    ld      de, # spr_shadow+8                      ; sprite 2
ROM:0E27 3E DC                       ld      a, #0xDC ; 'Ü'                          ; "O"
ROM:0E29 18 26                       jr      loc_E51
ROM:0E2B             ; ---------------------------------------------------------------------------
ROM:0E2B
ROM:0E2B             loc_E2B:                                                        ; ...
ROM:0E2B 21 E6 A9                    ld      hl, # VRAM_START+0x1E6
ROM:0E2E 11 4C 80                    ld      de, # spr_shadow+0xC                    ; sprite 3
ROM:0E31 3E F4                       ld      a, #0xF4 ; 'ô'                          ; "G"
ROM:0E33 18 1C                       jr      loc_E51
ROM:0E35             ; ---------------------------------------------------------------------------
ROM:0E35
ROM:0E35             loc_E35:                                                        ; ...
ROM:0E35 21 86 A9                    ld      hl, # VRAM_START+0x186
ROM:0E38 11 50 80                    ld      de, # spr_shadow+0x10                   ; sprite 4
ROM:0E3B 3E F4                       ld      a, #0xF4 ; 'ô'                          ; "G"
ROM:0E3D 18 12                       jr      loc_E51
ROM:0E3F             ; ---------------------------------------------------------------------------
ROM:0E3F
ROM:0E3F             loc_E3F:                                                        ; ...
ROM:0E3F 21 26 A9                    ld      hl, # VRAM_START+0x126
ROM:0E42 11 54 80                    ld      de, # spr_shadow+0x14                   ; sprite 5
ROM:0E45 3E F8                       ld      a, #0xF8 ; 'ø'                          ; "E"
ROM:0E47 18 08                       jr      loc_E51
ROM:0E49             ; ---------------------------------------------------------------------------
ROM:0E49
ROM:0E49             loc_E49:                                                        ; ...
ROM:0E49 21 C6 A8                    ld      hl, # VRAM_START+0xC6
ROM:0E4C 11 58 80                    ld      de, # spr_shadow+0x18                   ; sprite 6
ROM:0E4F 3E D8                       ld      a, #0xD8 ; 'Ø'                          ; "R"
ROM:0E51
ROM:0E51             loc_E51:                                                        ; ...
ROM:0E51 01 1F 00                    ld      bc, #31                                 ; next row offset
ROM:0E54 77                          ld      (hl), a                                 ; print 1st tile
ROM:0E55 3C                          inc     a                                       ; next tile code
ROM:0E56 2C                          inc     l
ROM:0E57 77                          ld      (hl), a                                 ; print 2nd tile
ROM:0E58 3C                          inc     a                                       ; next tile code
ROM:0E59 09                          add     hl, bc                                  ; next row
ROM:0E5A 77                          ld      (hl), a                                 ; print 3rd tile
ROM:0E5B 3C                          inc     a                                       ; next tile code
ROM:0E5C 2C                          inc     l
ROM:0E5D 77                          ld      (hl), a                                 ; print 3rd tile
ROM:0E5E EB                          ex      de, hl                                  ; HL=sprite shadow address
ROM:0E5F 01 00 04                    ld      bc, #0x400                              ; 4 bytes, val=00
ROM:0E62
ROM:0E62             loc_E62:                                                        ; ...
ROM:0E62 71                          ld      (hl), c                                 ; zero byte in sprite shadow RAM
ROM:0E63 2C                          inc     l
ROM:0E64 10 FC                       djnz    loc_E62                                 ; zero registers for 1 sprite
ROM:0E66 21 D7 83                    ld      hl, #tmp_83D7
ROM:0E69 35                          dec     (hl)
ROM:0E6A C0                          ret     NZ
ROM:0E6B 36 07                       ld      (hl), #7
ROM:0E6D AF                          xor     a
ROM:0E6E 32 BF 83                    ld      (byte_83BF), a
ROM:0E71 32 BB 83                    ld      (byte_83BB), a
ROM:0E74             ; START OF FUNCTION CHUNK FOR sub_E7A
ROM:0E74
ROM:0E74             set_attract_screen_point_table:                                 ; ...
ROM:0E74 3E 05                       ld      a, #5                                   ; point table header
ROM:0E76 32 D6 83                    ld      (attract_mode_part), a
ROM:0E79 C9                          ret
ROM:0E79             ; END OF FUNCTION CHUNK FOR sub_E7A
ROM:0E7A
ROM:0E7A             ; =============== S U B R O U T I N E =======================================
ROM:0E7A
ROM:0E7A
ROM:0E7A             sub_E7A:                                                        ; ...
ROM:0E7A
ROM:0E7A             ; FUNCTION CHUNK AT ROM:0DE0 SIZE 00000021 BYTES
ROM:0E7A             ; FUNCTION CHUNK AT ROM:0E74 SIZE 00000006 BYTES
ROM:0E7A
ROM:0E7A 3A E1 83                    ld      a, (num_credits)
ROM:0E7D B7                          or      a                                       ; any credits?
ROM:0E7E 20 F4                       jr      NZ, set_attract_screen_point_table      ; yes, exit
ROM:0E80 21 BF 83                    ld      hl, #byte_83BF
ROM:0E83 7E                          ld      a, (hl)
ROM:0E84 B7                          or      a
ROM:0E85 20 2D                       jr      NZ, loc_EB4
ROM:0E87 CD 66 07                    call    cls
ROM:0E8A CD 4B 06                    call    clear_objram_and_8100
ROM:0E8D 21 40 80                    ld      hl, #spr_shadow
ROM:0E90 01 03 07                    ld      bc, #0x703                              ; 7 sprites to init
ROM:0E93 11 00 81                    ld      de, #0x8100
ROM:0E96
ROM:0E96             loc_E96:                                                        ; ...
ROM:0E96 73                          ld      (hl), e                                 ; base0=0
ROM:0E97 2C                          inc     l
ROM:0E98 2C                          inc     l
ROM:0E99 71                          ld      (hl), c                                 ; colour=3
ROM:0E9A 2C                          inc     l
ROM:0E9B 72                          ld      (hl), d                                 ; base3=129
ROM:0E9C 2C                          inc     l
ROM:0E9D 10 F7                       djnz    loc_E96                                 ; loop through 7 sprites
ROM:0E9F 21 04 05                    ld      hl, #0x504
ROM:0EA2 22 BD 83                    ld      (word_83BD), hl
ROM:0EA5
ROM:0EA5             loc_EA5:                                                        ; ...
ROM:0EA5 21 D7 83                    ld      hl, #tmp_83D7
ROM:0EA8 36 07                       ld      (hl), #7
ROM:0EAA 21 BC 83                    ld      hl, #byte_83BC
ROM:0EAD 36 20                       ld      (hl), #0x20 ; ' '
ROM:0EAF
ROM:0EAF             loc_EAF:                                                        ; ...
ROM:0EAF 21 BF 83                    ld      hl, #byte_83BF
ROM:0EB2 34                          inc     (hl)
ROM:0EB3 C9                          ret
ROM:0EB4             ; ---------------------------------------------------------------------------
ROM:0EB4
ROM:0EB4             loc_EB4:                                                        ; ...
ROM:0EB4 3D                          dec     a
ROM:0EB5 20 5F                       jr      NZ, loc_F16
ROM:0EB7 3A D7 83                    ld      a, (tmp_83D7)
ROM:0EBA 87                          add     a, a
ROM:0EBB 16 00                       ld      d, #0
ROM:0EBD 5F                          ld      e, a
ROM:0EBE 21 C1 0E                    ld      hl, #loc_EC1
ROM:0EC1
ROM:0EC1             loc_EC1:                                                        ; ...
ROM:0EC1 19                          add     hl, de
ROM:0EC2 E9                          jp      (hl)
ROM:0EC3             ; ---------------------------------------------------------------------------
ROM:0EC3 18 34                       jr      loc_EF9
ROM:0EC5             ; ---------------------------------------------------------------------------
ROM:0EC5 18 2B                       jr      loc_EF2
ROM:0EC7             ; ---------------------------------------------------------------------------
ROM:0EC7 18 22                       jr      loc_EEB
ROM:0EC9             ; ---------------------------------------------------------------------------
ROM:0EC9 18 19                       jr      loc_EE4
ROM:0ECB             ; ---------------------------------------------------------------------------
ROM:0ECB 18 10                       jr      loc_EDD
ROM:0ECD             ; ---------------------------------------------------------------------------
ROM:0ECD 18 07                       jr      loc_ED6
ROM:0ECF             ; ---------------------------------------------------------------------------
ROM:0ECF 21 40 80                    ld      hl, #0x8040
ROM:0ED2 06 31                       ld      b, #0x31 ; '1'
ROM:0ED4 18 28                       jr      loc_EFE
ROM:0ED6             ; ---------------------------------------------------------------------------
ROM:0ED6
ROM:0ED6             loc_ED6:                                                        ; ...
ROM:0ED6 21 44 80                    ld      hl, #0x8044
ROM:0ED9 06 49                       ld      b, #0x49 ; 'I'
ROM:0EDB 18 21                       jr      loc_EFE
ROM:0EDD             ; ---------------------------------------------------------------------------
ROM:0EDD
ROM:0EDD             loc_EDD:                                                        ; ...
ROM:0EDD 21 48 80                    ld      hl, #0x8048
ROM:0EE0 06 61                       ld      b, #0x61 ; 'a'
ROM:0EE2 18 1A                       jr      loc_EFE
ROM:0EE4             ; ---------------------------------------------------------------------------
ROM:0EE4
ROM:0EE4             loc_EE4:                                                        ; ...
ROM:0EE4 21 4C 80                    ld      hl, #0x804C
ROM:0EE7 06 79                       ld      b, #0x79 ; 'y'
ROM:0EE9 18 13                       jr      loc_EFE
ROM:0EEB             ; ---------------------------------------------------------------------------
ROM:0EEB
ROM:0EEB             loc_EEB:                                                        ; ...
ROM:0EEB 21 50 80                    ld      hl, #0x8050
ROM:0EEE 06 91                       ld      b, #0x91 ; '‘'
ROM:0EF0 18 0C                       jr      loc_EFE
ROM:0EF2             ; ---------------------------------------------------------------------------
ROM:0EF2
ROM:0EF2             loc_EF2:                                                        ; ...
ROM:0EF2 21 54 80                    ld      hl, #0x8054
ROM:0EF5 06 A9                       ld      b, #0xA9 ; '©'
ROM:0EF7 18 05                       jr      loc_EFE
ROM:0EF9             ; ---------------------------------------------------------------------------
ROM:0EF9
ROM:0EF9             loc_EF9:                                                        ; ...
ROM:0EF9 21 58 80                    ld      hl, #0x8058
ROM:0EFC 06 C1                       ld      b, #0xC1 ; 'Á'
ROM:0EFE
ROM:0EFE             loc_EFE:                                                        ; ...
ROM:0EFE CD 3E 0F                    call    sub_F3E
ROM:0F01 4F                          ld      c, a
ROM:0F02 35                          dec     (hl)
ROM:0F03 35                          dec     (hl)
ROM:0F04 35                          dec     (hl)
ROM:0F05 35                          dec     (hl)
ROM:0F06 7E                          ld      a, (hl)
ROM:0F07 2C                          inc     l
ROM:0F08 71                          ld      (hl), c
ROM:0F09 B8                          cp      b
ROM:0F0A D0                          ret     NC
ROM:0F0B 36 1E                       ld      (hl), #0x1E
ROM:0F0D 21 D7 83                    ld      hl, #tmp_83D7
ROM:0F10 35                          dec     (hl)
ROM:0F11 C0                          ret     NZ
ROM:0F12 36 14                       ld      (hl), #0x14
ROM:0F14 18 99                       jr      loc_EAF
ROM:0F16             ; ---------------------------------------------------------------------------
ROM:0F16
ROM:0F16             loc_F16:                                                        ; ...
ROM:0F16 3D                          dec     a
ROM:0F17 C2 E0 0D                    jp      NZ, loc_DE0
ROM:0F1A CD 3E 0F                    call    sub_F3E
ROM:0F1D D6 03                       sub     #3
ROM:0F1F 4F                          ld      c, a
ROM:0F20 3A D7 83                    ld      a, (tmp_83D7)
ROM:0F23 B7                          or      a
ROM:0F24 CA A5 0E                    jp      Z, loc_EA5
ROM:0F27 06 07                       ld      b, #7
ROM:0F29 11 06 00                    ld      de, #6
ROM:0F2C 21 43 80                    ld      hl, # spr_shadow+3
ROM:0F2F
ROM:0F2F             loc_F2F:                                                        ; ...
ROM:0F2F 35                          dec     (hl)
ROM:0F30 35                          dec     (hl)
ROM:0F31 35                          dec     (hl)
ROM:0F32 35                          dec     (hl)
ROM:0F33 2D                          dec     l
ROM:0F34 2D                          dec     l
ROM:0F35 71                          ld      (hl), c
ROM:0F36 19                          add     hl, de
ROM:0F37 10 F6                       djnz    loc_F2F
ROM:0F39 3D                          dec     a
ROM:0F3A 32 D7 83                    ld      (tmp_83D7), a
ROM:0F3D C9                          ret
ROM:0F3D             ; End of function sub_E7A
ROM:0F3D
ROM:0F3E
ROM:0F3E             ; =============== S U B R O U T I N E =======================================
ROM:0F3E
ROM:0F3E
ROM:0F3E             sub_F3E:                                                        ; ...
ROM:0F3E E5                          push    hl
ROM:0F3F 21 BD 83                    ld      hl, #word_83BD
ROM:0F42 35                          dec     (hl)
ROM:0F43 20 11                       jr      NZ, loc_F56
ROM:0F45 36 08                       ld      (hl), #8
ROM:0F47 2C                          inc     l
ROM:0F48 35                          dec     (hl)
ROM:0F49 20 02                       jr      NZ, loc_F4D
ROM:0F4B 36 04                       ld      (hl), #4
ROM:0F4D
ROM:0F4D             loc_F4D:                                                        ; ...
ROM:0F4D 7E                          ld      a, (hl)
ROM:0F4E 21 1B 2E                    ld      hl, #byte_2E1B
ROM:0F51 85                          add     a, l
ROM:0F52 6F                          ld      l, a
ROM:0F53 7E                          ld      a, (hl)
ROM:0F54 E1                          pop     hl
ROM:0F55 C9                          ret
ROM:0F56             ; ---------------------------------------------------------------------------
ROM:0F56
ROM:0F56             loc_F56:                                                        ; ...
ROM:0F56 F1                          pop     af
ROM:0F57 F1                          pop     af
ROM:0F58 C9                          ret
ROM:0F58             ; End of function sub_F3E
ROM:0F58
ROM:0F59
ROM:0F59             ; =============== S U B R O U T I N E =======================================
ROM:0F59
ROM:0F59
ROM:0F59             display_game_over:                                              ; ...
ROM:0F59 21 50 A8                    ld      hl, # VRAM_START+0x50
ROM:0F5C CD E2 19                    call    draw_purple_footpath
ROM:0F5F 21 70 AA                    ld      hl, # VRAM_START+0x270
ROM:0F62 11 0E 2F                    ld      de, #aGAME_OVER
ROM:0F65 06 09                       ld      b, #9
ROM:0F67 EF                          rst     print_B_chars
ROM:0F68 C9                          ret
ROM:0F68             ; End of function display_game_over
ROM:0F68
ROM:0F69
ROM:0F69             ; =============== S U B R O U T I N E =======================================
ROM:0F69
ROM:0F69
ROM:0F69             update_high_score_tbl:                                          ; ...
ROM:0F69 ED 5B ED 83                 ld      de, (p1_score)
ROM:0F6D 2A EB 83                    ld      hl, (p2_score)
ROM:0F70 44                          ld      b, h
ROM:0F71 4D                          ld      c, l                                    ; BC = P2 score
ROM:0F72 B7                          or      a
ROM:0F73 ED 52                       sbc     hl, de
ROM:0F75 38 05                       jr      C, loc_F7C                              ; p1 higher
ROM:0F77 D5                          push    de                                      ; save P1 score
ROM:0F78 C5                          push    bc
ROM:0F79 D1                          pop     de                                      ; DE = P2 score (lower)
ROM:0F7A 18 01                       jr      loc_F7D
ROM:0F7C             ; ---------------------------------------------------------------------------
ROM:0F7C
ROM:0F7C             loc_F7C:                                                        ; ...
ROM:0F7C C5                          push    bc                                      ; save P2 score
ROM:0F7D
ROM:0F7D             loc_F7D:                                                        ; ...
ROM:0F7D CD 84 0A                    call    check_and_handle_high_score             ; higher score
ROM:0F80 D1                          pop     de
ROM:0F81 F5                          push    af
ROM:0F82 CD 84 0A                    call    check_and_handle_high_score             ; lower score
ROM:0F85 67                          ld      h, a
ROM:0F86 F1                          pop     af
ROM:0F87 6F                          ld      l, a
ROM:0F88 22 FB 83                    ld      (word_83FB), hl                         ; store new score pos*2+1 ??
ROM:0F8B C9                          ret
ROM:0F8B             ; End of function update_high_score_tbl
ROM:0F8B
ROM:0F8C
ROM:0F8C             ; =============== S U B R O U T I N E =======================================
ROM:0F8C
ROM:0F8C
ROM:0F8C             display_alligator_8:                                            ; ...
ROM:0F8C 3A 18 81                    ld      a, (byte_8118)
ROM:0F8F A7                          and     a
ROM:0F90 C8                          ret     Z
ROM:0F91 11 06 A8                    ld      de, # VRAM_START+6
ROM:0F94 06 08                       ld      b, #8                                   ; 8 columns of tiles to display
ROM:0F96 21 13 14                    ld      hl, #alligator_codes
ROM:0F99
ROM:0F99             loc_F99:                                                        ; ...
ROM:0F99 7E                          ld      a, (hl)                                 ; get code
ROM:0F9A 12                          ld      (de), a                                 ; display tile
ROM:0F9B 23                          inc     hl                                      ; next code
ROM:0F9C 13                          inc     de                                      ; next vram addr
ROM:0F9D 7E                          ld      a, (hl)                                 ; get code
ROM:0F9E 12                          ld      (de), a                                 ; display tile
ROM:0F9F 23                          inc     hl                                      ; next code
ROM:0FA0 C5                          push    bc
ROM:0FA1 01 1F 00                    ld      bc, #31
ROM:0FA4 EB                          ex      de, hl
ROM:0FA5 09                          add     hl, bc                                  ; next column addr
ROM:0FA6 EB                          ex      de, hl
ROM:0FA7 C1                          pop     bc
ROM:0FA8 10 EF                       djnz    loc_F99                                 ; loop through alligator
ROM:0FAA AF                          xor     a
ROM:0FAB 32 18 81                    ld      (byte_8118), a
ROM:0FAE C9                          ret
ROM:0FAE             ; End of function display_alligator_8
ROM:0FAE
ROM:0FAF
ROM:0FAF             ; =============== S U B R O U T I N E =======================================
ROM:0FAF
ROM:0FAF
ROM:0FAF             jp_jump_table_FBE:                                              ; ...
ROM:0FAF 2A 00 80                    ld      hl, (word_8000)
ROM:0FB2 01 BE 0F                    ld      bc, #jmp_tbl_FBE
ROM:0FB5 26 00                       ld      h, #0
ROM:0FB7 29                          add     hl, hl
ROM:0FB8 09                          add     hl, bc                                  ; calc jump table offset
ROM:0FB9 4E                          ld      c, (hl)
ROM:0FBA 23                          inc     hl
ROM:0FBB 66                          ld      h, (hl)
ROM:0FBC 69                          ld      l, c                                    ; get jump addr
ROM:0FBD E9                          jp      (hl)                                    ; go
ROM:0FBD             ; End of function jp_jump_table_FBE
ROM:0FBD
ROM:0FBD             ; ---------------------------------------------------------------------------
ROM:0FBE D4 0F       jmp_tbl_FBE:    .dw loc_FD4                                     ; ...
ROM:0FC0 58 10                       .dw loc_1058
ROM:0FC2 7B 10                       .dw loc_107B
ROM:0FC4 9B 10                       .dw loc_109B
ROM:0FC6 BB 10                       .dw loc_10BB
ROM:0FC8 DB 10                       .dw loc_10DB
ROM:0FCA F8 10                       .dw loc_10F8
ROM:0FCC 18 11                       .dw loc_1118
ROM:0FCE 38 11                       .dw loc_1138
ROM:0FD0 58 11                       .dw loc_1158
ROM:0FD2 78 11                       .dw loc_1178
ROM:0FD4             ; ---------------------------------------------------------------------------
ROM:0FD4
ROM:0FD4             loc_FD4:                                                        ; ...
ROM:0FD4 21 70 82                    ld      hl, #unk_8270
ROM:0FD7 7E                          ld      a, (hl)
ROM:0FD8 23                          inc     hl
ROM:0FD9 46                          ld      b, (hl)
ROM:0FDA 23                          inc     hl
ROM:0FDB 4E                          ld      c, (hl)
ROM:0FDC 2A ED 13                    ld      hl, (word_13ED)
ROM:0FDF 11 03 14                    ld      de, #log_codes
ROM:0FE2 DD 21 00 81                 ld      ix, #unk_8100
ROM:0FE6 FD 21 00 81                 ld      iy, #unk_8100
ROM:0FEA 32 B1 81                    ld      (byte_81B1), a
ROM:0FED ED 53 01 80                 ld      (word_8000+1), de
ROM:0FF1
ROM:0FF1             loc_FF1:                                                        ; ...
ROM:0FF1 E5                          push    hl
ROM:0FF2 C5                          push    bc
ROM:0FF3 D5                          push    de
ROM:0FF4 CD 98 11                    call    sub_1198
ROM:0FF7 3A 5B 82                    ld      a, (byte_825B)
ROM:0FFA A7                          and     a
ROM:0FFB 20 0B                       jr      NZ, loc_1008
ROM:0FFD 79                          ld      a, c
ROM:0FFE 2F                          cpl
ROM:0FFF 3C                          inc     a
ROM:1000 DD 77 01                    ld      1(ix), a
ROM:1003 DD 23                       inc     ix
ROM:1005 FD 34 00                    inc     0(iy)
ROM:1008
ROM:1008             loc_1008:                                                       ; ...
ROM:1008 D1                          pop     de
ROM:1009 C1                          pop     bc
ROM:100A E1                          pop     hl
ROM:100B 78                          ld      a, b
ROM:100C 32 03 80                    ld      (byte_8003), a
ROM:100F
ROM:100F             loc_100F:                                                       ; ...
ROM:100F 1A                          ld      a, (de)
ROM:1010 77                          ld      (hl), a
ROM:1011 23                          inc     hl
ROM:1012 13                          inc     de
ROM:1013 1A                          ld      a, (de)
ROM:1014 77                          ld      (hl), a
ROM:1015 2B                          dec     hl
ROM:1016 D5                          push    de
ROM:1017 11 20 00                    ld      de, #0x20 ; ' '
ROM:101A 19                          add     hl, de
ROM:101B D1                          pop     de
ROM:101C 10 1A                       djnz    loc_1038
ROM:101E 3A B1 81                    ld      a, (byte_81B1)
ROM:1021 5F                          ld      e, a
ROM:1022 16 00                       ld      d, #0
ROM:1024 19                          add     hl, de
ROM:1025 0D                          dec     c
ROM:1026 C2 3C 10                    jp      NZ, loc_103C
ROM:1029
ROM:1029             loc_1029:                                                       ; ...
ROM:1029 21 00 80                    ld      hl, #0x8000
ROM:102C 34                          inc     (hl)
ROM:102D 7E                          ld      a, (hl)
ROM:102E FE 0B                       cp      #0xB
ROM:1030 DA AF 0F                    jp      C, jp_jump_table_FBE
ROM:1033 AF                          xor     a
ROM:1034 77                          ld      (hl), a
ROM:1035 C3 47 10                    jp      locret_1047
ROM:1038             ; ---------------------------------------------------------------------------
ROM:1038
ROM:1038             loc_1038:                                                       ; ...
ROM:1038 13                          inc     de
ROM:1039 C3 0F 10                    jp      loc_100F
ROM:103C             ; ---------------------------------------------------------------------------
ROM:103C
ROM:103C             loc_103C:                                                       ; ...
ROM:103C ED 5B 01 80                 ld      de, (word_8000+1)
ROM:1040 3A 03 80                    ld      a, (byte_8003)
ROM:1043 47                          ld      b, a
ROM:1044 C3 F1 0F                    jp      loc_FF1
ROM:1047             ; ---------------------------------------------------------------------------
ROM:1047
ROM:1047             locret_1047:                                                    ; ...
ROM:1047 C9                          ret
ROM:1048
ROM:1048             ; =============== S U B R O U T I N E =======================================
ROM:1048
ROM:1048
ROM:1048             delay:                                                          ; ...
ROM:1048 01 FF EF                    ld      bc, #0xEFFF
ROM:104B
ROM:104B             loc_104B:                                                       ; ...
ROM:104B 3A 00 88                    ld      a, (watchdog)                           ; kick watchdog
ROM:104E 0B                          dec     bc
ROM:104F 78                          ld      a, b
ROM:1050 A7                          and     a
ROM:1051 20 F8                       jr      NZ, loc_104B
ROM:1053 79                          ld      a, c
ROM:1054 A7                          and     a
ROM:1055 20 F4                       jr      NZ, loc_104B
ROM:1057 C9                          ret
ROM:1057             ; End of function delay
ROM:1057
ROM:1058             ; ---------------------------------------------------------------------------
ROM:1058
ROM:1058             loc_1058:                                                       ; ...
ROM:1058 CD 8C 0F                    call    display_alligator_8
ROM:105B 21 73 82                    ld      hl, #turtle_duo_data
ROM:105E 7E                          ld      a, (hl)
ROM:105F 23                          inc     hl
ROM:1060 46                          ld      b, (hl)
ROM:1061 23                          inc     hl
ROM:1062 4E                          ld      c, (hl)
ROM:1063 2A EF 13                    ld      hl, (word_13EF)
ROM:1066 11 23 14                    ld      de, #byte_1423
ROM:1069 DD 21 09 81                 ld      ix, #byte_8109
ROM:106D FD 21 09 81                 ld      iy, #byte_8109
ROM:1071 32 B1 81                    ld      (byte_81B1), a
ROM:1074 ED 53 01 80                 ld      (word_8000+1), de
ROM:1078 C3 F1 0F                    jp      loc_FF1
ROM:107B             ; ---------------------------------------------------------------------------
ROM:107B
ROM:107B             loc_107B:                                                       ; ...
ROM:107B 21 76 82                    ld      hl, #unk_8276
ROM:107E 7E                          ld      a, (hl)
ROM:107F 23                          inc     hl
ROM:1080 46                          ld      b, (hl)
ROM:1081 23                          inc     hl
ROM:1082 4E                          ld      c, (hl)
ROM:1083 2A F1 13                    ld      hl, (word_13F1)
ROM:1086 11 3B 14                    ld      de, #byte_143B
ROM:1089 DD 21 12 81                 ld      ix, #unk_8112
ROM:108D FD 21 12 81                 ld      iy, #unk_8112
ROM:1091 32 B1 81                    ld      (byte_81B1), a
ROM:1094 ED 53 01 80                 ld      (word_8000+1), de
ROM:1098 C3 F1 0F                    jp      loc_FF1
ROM:109B             ; ---------------------------------------------------------------------------
ROM:109B
ROM:109B             loc_109B:                                                       ; ...
ROM:109B 21 79 82                    ld      hl, #unk_8279
ROM:109E 7E                          ld      a, (hl)
ROM:109F 23                          inc     hl
ROM:10A0 46                          ld      b, (hl)
ROM:10A1 23                          inc     hl
ROM:10A2 4E                          ld      c, (hl)
ROM:10A3 2A F3 13                    ld      hl, (word_13F3)
ROM:10A6 11 53 14                    ld      de, #byte_1453
ROM:10A9 DD 21 1B 81                 ld      ix, #unk_811B
ROM:10AD FD 21 1B 81                 ld      iy, #unk_811B
ROM:10B1 32 B1 81                    ld      (byte_81B1), a
ROM:10B4 ED 53 01 80                 ld      (word_8000+1), de
ROM:10B8 C3 F1 0F                    jp      loc_FF1
ROM:10BB             ; ---------------------------------------------------------------------------
ROM:10BB
ROM:10BB             loc_10BB:                                                       ; ...
ROM:10BB 21 7C 82                    ld      hl, #turtle_trio_data
ROM:10BE 7E                          ld      a, (hl)
ROM:10BF 23                          inc     hl
ROM:10C0 46                          ld      b, (hl)
ROM:10C1 23                          inc     hl
ROM:10C2 4E                          ld      c, (hl)
ROM:10C3 2A F5 13                    ld      hl, (word_13F5)
ROM:10C6 11 5F 14                    ld      de, #byte_145F
ROM:10C9 DD 21 24 81                 ld      ix, #byte_8124
ROM:10CD FD 21 24 81                 ld      iy, #byte_8124
ROM:10D1 32 B1 81                    ld      (byte_81B1), a
ROM:10D4 ED 53 01 80                 ld      (word_8000+1), de
ROM:10D8 C3 F1 0F                    jp      loc_FF1
ROM:10DB             ; ---------------------------------------------------------------------------
ROM:10DB
ROM:10DB             loc_10DB:                                                       ; ...
ROM:10DB C3 29 10                    jp      loc_1029
ROM:10DE             ; ---------------------------------------------------------------------------
ROM:10DE 11 9B 14                    ld      de, #byte_149B
ROM:10E1 01 04 02                    ld      bc, #0x204
ROM:10E4 DD 21 2D 81                 ld      ix, #unk_812D
ROM:10E8 FD 21 2D 81                 ld      iy, #unk_812D
ROM:10EC 3E 80                       ld      a, #0x80 ; '€'
ROM:10EE 32 B1 81                    ld      (byte_81B1), a
ROM:10F1 ED 53 01 80                 ld      (word_8000+1), de
ROM:10F5 C3 F1 0F                    jp      loc_FF1
ROM:10F8             ; ---------------------------------------------------------------------------
ROM:10F8
ROM:10F8             loc_10F8:                                                       ; ...
ROM:10F8 21 82 82                    ld      hl, #unk_8282
ROM:10FB 7E                          ld      a, (hl)
ROM:10FC 23                          inc     hl
ROM:10FD 46                          ld      b, (hl)
ROM:10FE 23                          inc     hl
ROM:10FF 4E                          ld      c, (hl)
ROM:1100 2A F9 13                    ld      hl, (word_13F9)
ROM:1103 11 9F 14                    ld      de, #byte_149F
ROM:1106 DD 21 36 81                 ld      ix, #unk_8136
ROM:110A FD 21 36 81                 ld      iy, #unk_8136
ROM:110E 32 B1 81                    ld      (byte_81B1), a
ROM:1111 ED 53 01 80                 ld      (word_8000+1), de
ROM:1115 C3 F1 0F                    jp      loc_FF1
ROM:1118             ; ---------------------------------------------------------------------------
ROM:1118
ROM:1118             loc_1118:                                                       ; ...
ROM:1118 21 85 82                    ld      hl, #unk_8285
ROM:111B 7E                          ld      a, (hl)
ROM:111C 23                          inc     hl
ROM:111D 46                          ld      b, (hl)
ROM:111E 23                          inc     hl
ROM:111F 4E                          ld      c, (hl)
ROM:1120 2A FB 13                    ld      hl, (word_13FB)
ROM:1123 11 A7 14                    ld      de, #byte_14A7
ROM:1126 DD 21 3F 81                 ld      ix, #unk_813F
ROM:112A FD 21 3F 81                 ld      iy, #unk_813F
ROM:112E 32 B1 81                    ld      (byte_81B1), a
ROM:1131 ED 53 01 80                 ld      (word_8000+1), de
ROM:1135 C3 F1 0F                    jp      loc_FF1
ROM:1138             ; ---------------------------------------------------------------------------
ROM:1138
ROM:1138             loc_1138:                                                       ; ...
ROM:1138 21 88 82                    ld      hl, #unk_8288
ROM:113B 7E                          ld      a, (hl)
ROM:113C 23                          inc     hl
ROM:113D 46                          ld      b, (hl)
ROM:113E 23                          inc     hl
ROM:113F 4E                          ld      c, (hl)
ROM:1140 2A FD 13                    ld      hl, (word_13FD)
ROM:1143 11 AB 14                    ld      de, #byte_14AB
ROM:1146 DD 21 48 81                 ld      ix, #unk_8148
ROM:114A FD 21 48 81                 ld      iy, #unk_8148
ROM:114E 32 B1 81                    ld      (byte_81B1), a
ROM:1151 ED 53 01 80                 ld      (word_8000+1), de
ROM:1155 C3 F1 0F                    jp      loc_FF1
ROM:1158             ; ---------------------------------------------------------------------------
ROM:1158
ROM:1158             loc_1158:                                                       ; ...
ROM:1158 21 8B 82                    ld      hl, #unk_828B
ROM:115B 7E                          ld      a, (hl)
ROM:115C 23                          inc     hl
ROM:115D 46                          ld      b, (hl)
ROM:115E 23                          inc     hl
ROM:115F 4E                          ld      c, (hl)
ROM:1160 2A FF 13                    ld      hl, (word_13FF)
ROM:1163 11 AF 14                    ld      de, #byte_14AF
ROM:1166 DD 21 51 81                 ld      ix, #unk_8151
ROM:116A FD 21 51 81                 ld      iy, #unk_8151
ROM:116E 32 B1 81                    ld      (byte_81B1), a
ROM:1171 ED 53 01 80                 ld      (word_8000+1), de
ROM:1175 C3 F1 0F                    jp      loc_FF1
ROM:1178             ; ---------------------------------------------------------------------------
ROM:1178
ROM:1178             loc_1178:                                                       ; ...
ROM:1178 21 8E 82                    ld      hl, #unk_828E
ROM:117B 7E                          ld      a, (hl)
ROM:117C 23                          inc     hl
ROM:117D 46                          ld      b, (hl)
ROM:117E 23                          inc     hl
ROM:117F 4E                          ld      c, (hl)
ROM:1180 2A 01 14                    ld      hl, (word_1401)
ROM:1183 11 B3 14                    ld      de, #byte_14B3
ROM:1186 DD 21 5A 81                 ld      ix, #unk_815A
ROM:118A FD 21 5A 81                 ld      iy, #unk_815A
ROM:118E 32 B1 81                    ld      (byte_81B1), a
ROM:1191 ED 53 01 80                 ld      (word_8000+1), de
ROM:1195 C3 F1 0F                    jp      loc_FF1
ROM:1198
ROM:1198             ; =============== S U B R O U T I N E =======================================
ROM:1198
ROM:1198
ROM:1198             sub_1198:                                                       ; ...
ROM:1198 11 00 A8                    ld      de, #VRAM_START
ROM:119B ED 52                       sbc     hl, de                                  ; calc vram offset
ROM:119D 7D                          ld      a, l
ROM:119E 01 00 06                    ld      bc, #0x600
ROM:11A1 E6 E0                       and     #0xE0 ; 'à'                             ; row address???
ROM:11A3 6F                          ld      l, a
ROM:11A4
ROM:11A4             loc_11A4:                                                       ; ...
ROM:11A4 7C                          ld      a, h
ROM:11A5 E6 04                       and     #4
ROM:11A7 CA B0 11                    jp      Z, loc_11B0
ROM:11AA CB 01                       rlc     c
ROM:11AC 0C                          inc     c
ROM:11AD C3 B2 11                    jp      loc_11B2
ROM:11B0             ; ---------------------------------------------------------------------------
ROM:11B0
ROM:11B0             loc_11B0:                                                       ; ...
ROM:11B0 CB 01                       rlc     c
ROM:11B2
ROM:11B2             loc_11B2:                                                       ; ...
ROM:11B2 CB 05                       rlc     l
ROM:11B4 CB 14                       rl      h
ROM:11B6 10 EC                       djnz    loc_11A4
ROM:11B8 CB 01                       rlc     c
ROM:11BA CB 01                       rlc     c
ROM:11BC CB 01                       rlc     c
ROM:11BE C9                          ret
ROM:11BE             ; End of function sub_1198
ROM:11BE
ROM:11BF             ; this looks like collision detection
ROM:11BF
ROM:11BF             ; =============== S U B R O U T I N E =======================================
ROM:11BF
ROM:11BF
ROM:11BF             sub_11BF:                                                       ; ...
ROM:11BF
ROM:11BF             ; FUNCTION CHUNK AT ROM:12E4 SIZE 00000027 BYTES
ROM:11BF             ; FUNCTION CHUNK AT ROM:132B SIZE 00000003 BYTES
ROM:11BF             ; FUNCTION CHUNK AT ROM:13E1 SIZE 00000001 BYTES
ROM:11BF
ROM:11BF 3A CD 83                    ld      a, (byte_83CD)
ROM:11C2 B7                          or      a
ROM:11C3 C0                          ret     NZ
ROM:11C4 3A 04 80                    ld      a, (frog_dead)
ROM:11C7 A7                          and     a
ROM:11C8 C0                          ret     NZ
ROM:11C9 21 47 80                    ld      hl, # spr_shadow+7                      ; sprite1 base3 (frog X)
ROM:11CC 7E                          ld      a, (hl)                                 ; frog X
ROM:11CD 4F                          ld      c, a                                    ; save a copy
ROM:11CE E6 0F                       and     #0xF
ROM:11D0 FE 09                       cp      #9                                      ; < 9?
ROM:11D2 D2 09 12                    jp      NC, loc_1209                            ; no, go
ROM:11D5 79                          ld      a, c
ROM:11D6 E6 F0                       and     #0xF0 ; 'ð'
ROM:11D8 0F                          rrca
ROM:11D9 0F                          rrca
ROM:11DA 0F                          rrca
ROM:11DB 0F                          rrca
ROM:11DC 6F                          ld      l, a
ROM:11DD 26 00                       ld      h, #0
ROM:11DF 01 E9 11                    ld      bc, #off_11E9
ROM:11E2 29                          add     hl, hl
ROM:11E3 09                          add     hl, bc
ROM:11E4 4E                          ld      c, (hl)
ROM:11E5 23                          inc     hl
ROM:11E6 66                          ld      h, (hl)
ROM:11E7 69                          ld      l, c
ROM:11E8 E9                          jp      (hl)
ROM:11E8             ; ---------------------------------------------------------------------------
ROM:11E9 09 12       off_11E9:       .dw loc_1209                                    ; ...
ROM:11EB 0C 12                       .dw loc_120C
ROM:11ED 0F 12                       .dw loc_120F
ROM:11EF 12 12                       .dw loc_1212
ROM:11F1 1A 12                       .dw loc_121A
ROM:11F3 22 12                       .dw loc_1222
ROM:11F5 2A 12                       .dw loc_122A
ROM:11F7 32 12                       .dw loc_1232
ROM:11F9 3A 12                       .dw loc_123A
ROM:11FB 42 12                       .dw loc_1242
ROM:11FD 4A 12                       .dw loc_124A
ROM:11FF 52 12                       .dw loc_1252
ROM:1201 5A 12                       .dw loc_125A
ROM:1203 62 12                       .dw loc_1262
ROM:1205 6A 12                       .dw loc_126A
ROM:1207 6D 12                       .dw loc_126D
ROM:1209             ; ---------------------------------------------------------------------------
ROM:1209
ROM:1209             loc_1209:                                                       ; ...
ROM:1209 C3 E4 12                    jp      loc_12E4
ROM:1209             ; End of function sub_11BF
ROM:1209
ROM:120C             ; ---------------------------------------------------------------------------
ROM:120C
ROM:120C             loc_120C:                                                       ; ...
ROM:120C C3 E4 12                    jp      loc_12E4
ROM:120F             ; ---------------------------------------------------------------------------
ROM:120F
ROM:120F             loc_120F:                                                       ; ...
ROM:120F C3 E4 12                    jp      loc_12E4
ROM:1212             ; ---------------------------------------------------------------------------
ROM:1212
ROM:1212             loc_1212:                                                       ; ...
ROM:1212 21 00 81                    ld      hl, #unk_8100
ROM:1215 0E 3C                       ld      c, #0x3C ; '<'
ROM:1217 C3 70 12                    jp      loc_1270
ROM:121A             ; ---------------------------------------------------------------------------
ROM:121A
ROM:121A             loc_121A:                                                       ; ...
ROM:121A 21 09 81                    ld      hl, #byte_8109
ROM:121D 0E 1F                       ld      c, #0x1F
ROM:121F C3 70 12                    jp      loc_1270
ROM:1222             ; ---------------------------------------------------------------------------
ROM:1222
ROM:1222             loc_1222:                                                       ; ...
ROM:1222 21 12 81                    ld      hl, #unk_8112
ROM:1225 0E 5C                       ld      c, #0x5C ; '\'
ROM:1227 C3 70 12                    jp      loc_1270
ROM:122A             ; ---------------------------------------------------------------------------
ROM:122A
ROM:122A             loc_122A:                                                       ; ...
ROM:122A 21 1B 81                    ld      hl, #unk_811B
ROM:122D 0E 2C                       ld      c, #0x2C ; ','
ROM:122F C3 70 12                    jp      loc_1270
ROM:1232             ; ---------------------------------------------------------------------------
ROM:1232
ROM:1232             loc_1232:                                                       ; ...
ROM:1232 21 24 81                    ld      hl, #byte_8124
ROM:1235 0E 2F                       ld      c, #0x2F ; '/'
ROM:1237 C3 70 12                    jp      loc_1270
ROM:123A             ; ---------------------------------------------------------------------------
ROM:123A
ROM:123A             loc_123A:                                                       ; ...
ROM:123A C3 E4 12                    jp      loc_12E4
ROM:123D             ; ---------------------------------------------------------------------------
ROM:123D 0E 17                       ld      c, #0x17
ROM:123F C3 70 12                    jp      loc_1270
ROM:1242             ; ---------------------------------------------------------------------------
ROM:1242
ROM:1242             loc_1242:                                                       ; ...
ROM:1242 21 36 81                    ld      hl, #unk_8136
ROM:1245 0E 22                       ld      c, #0x22 ; '"'
ROM:1247 C3 70 12                    jp      loc_1270
ROM:124A             ; ---------------------------------------------------------------------------
ROM:124A
ROM:124A             loc_124A:                                                       ; ...
ROM:124A 21 3F 81                    ld      hl, #unk_813F
ROM:124D 0E 12                       ld      c, #0x12
ROM:124F C3 70 12                    jp      loc_1270
ROM:1252             ; ---------------------------------------------------------------------------
ROM:1252
ROM:1252             loc_1252:                                                       ; ...
ROM:1252 21 48 81                    ld      hl, #unk_8148
ROM:1255 0E 12                       ld      c, #0x12
ROM:1257 C3 70 12                    jp      loc_1270
ROM:125A             ; ---------------------------------------------------------------------------
ROM:125A
ROM:125A             loc_125A:                                                       ; ...
ROM:125A 21 51 81                    ld      hl, #unk_8151
ROM:125D 0E 12                       ld      c, #0x12
ROM:125F C3 70 12                    jp      loc_1270
ROM:1262             ; ---------------------------------------------------------------------------
ROM:1262
ROM:1262             loc_1262:                                                       ; ...
ROM:1262 21 5A 81                    ld      hl, #unk_815A
ROM:1265 0E 12                       ld      c, #0x12
ROM:1267 C3 70 12                    jp      loc_1270
ROM:126A             ; ---------------------------------------------------------------------------
ROM:126A
ROM:126A             loc_126A:                                                       ; ...
ROM:126A C3 E4 12                    jp      loc_12E4
ROM:126D             ; ---------------------------------------------------------------------------
ROM:126D
ROM:126D             loc_126D:                                                       ; ...
ROM:126D C3 E4 12                    jp      loc_12E4
ROM:1270             ; ---------------------------------------------------------------------------
ROM:1270
ROM:1270             loc_1270:                                                       ; ...
ROM:1270 3A 47 80                    ld      a, (spr_shadow+7)                       ; sprite1, base3 (frog X)
ROM:1273 FE 80                       cp      #0x80 ; '€'
ROM:1275 DA 99 12                    jp      C, loc_1299
ROM:1278 3A 44 80                    ld      a, (spr_shadow+4)                       ; sprite1, base0 (frog Y)
ROM:127B C6 03                       add     a, #3
ROM:127D
ROM:127D             loc_127D:                                                       ; ...
ROM:127D 57                          ld      d, a
ROM:127E 81                          add     a, c
ROM:127F 5F                          ld      e, a
ROM:1280 46                          ld      b, (hl)
ROM:1281 DA A1 12                    jp      C, loc_12A1
ROM:1284
ROM:1284             loc_1284:                                                       ; ...
ROM:1284 23                          inc     hl
ROM:1285 7E                          ld      a, (hl)
ROM:1286 BA                          cp      d
ROM:1287 DA B6 12                    jp      C, loc_12B6
ROM:128A BB                          cp      e
ROM:128B D2 B6 12                    jp      NC, loc_12B6
ROM:128E 3A 47 80                    ld      a, (spr_shadow+7)                       ; sprite1, base3 (frog X)
ROM:1291 FE 80                       cp      #0x80 ; '€'
ROM:1293 DA E4 12                    jp      C, loc_12E4
ROM:1296 C3 D0 12                    jp      sub_12D0
ROM:1299             ; ---------------------------------------------------------------------------
ROM:1299
ROM:1299             loc_1299:                                                       ; ...
ROM:1299 3A 44 80                    ld      a, (spr_shadow+4)                       ; sprite1, base0 (frog Y)
ROM:129C C6 0C                       add     a, #0xC
ROM:129E C3 7D 12                    jp      loc_127D
ROM:12A1             ; ---------------------------------------------------------------------------
ROM:12A1
ROM:12A1             loc_12A1:                                                       ; ...
ROM:12A1 23                          inc     hl
ROM:12A2 7E                          ld      a, (hl)
ROM:12A3 BA                          cp      d
ROM:12A4 D2 AB 12                    jp      NC, loc_12AB
ROM:12A7 BB                          cp      e
ROM:12A8 D2 C3 12                    jp      NC, loc_12C3
ROM:12AB
ROM:12AB             loc_12AB:                                                       ; ...
ROM:12AB 3A 47 80                    ld      a, (spr_shadow+7)                       ; sprite1, base3 (frog X)
ROM:12AE FE 80                       cp      #0x80 ; '€'
ROM:12B0 DA E4 12                    jp      C, loc_12E4
ROM:12B3 C3 D0 12                    jp      sub_12D0
ROM:12B6             ; ---------------------------------------------------------------------------
ROM:12B6
ROM:12B6             loc_12B6:                                                       ; ...
ROM:12B6 10 CC                       djnz    loc_1284
ROM:12B8 3A 47 80                    ld      a, (spr_shadow+7)                       ; sprite1, base3 (frog X)
ROM:12BB FE 80                       cp      #0x80 ; '€'
ROM:12BD DA D0 12                    jp      C, sub_12D0
ROM:12C0 C3 E4 12                    jp      loc_12E4
ROM:12C3             ; ---------------------------------------------------------------------------
ROM:12C3
ROM:12C3             loc_12C3:                                                       ; ...
ROM:12C3 10 DC                       djnz    loc_12A1
ROM:12C5 3A 47 80                    ld      a, (spr_shadow+7)                       ; sprite1, base3 (frog X)
ROM:12C8 FE 80                       cp      #0x80 ; '€'
ROM:12CA DA D0 12                    jp      C, sub_12D0
ROM:12CD C3 E4 12                    jp      loc_12E4
ROM:12D0
ROM:12D0             ; =============== S U B R O U T I N E =======================================
ROM:12D0
ROM:12D0
ROM:12D0             sub_12D0:                                                       ; ...
ROM:12D0 3E 01                       ld      a, #1
ROM:12D2 32 04 80                    ld      (frog_dead), a
ROM:12D5 3A 47 80                    ld      a, (spr_shadow+7)                       ; sprite1 base3 (frog X)
ROM:12D8 FE 80                       cp      #128
ROM:12DA D0                          ret     NC
ROM:12DB FE 30                       cp      #48
ROM:12DD D8                          ret     C
ROM:12DE 3E 01                       ld      a, #1
ROM:12E0 32 9C 82                    ld      (byte_829C), a
ROM:12E3 C9                          ret
ROM:12E3             ; End of function sub_12D0
ROM:12E3
ROM:12E4             ; ---------------------------------------------------------------------------
ROM:12E4             ; START OF FUNCTION CHUNK FOR sub_11BF
ROM:12E4
ROM:12E4             loc_12E4:                                                       ; ...
ROM:12E4 3A 04 80                    ld      a, (frog_dead)
ROM:12E7 A7                          and     a
ROM:12E8 C0                          ret     NZ
ROM:12E9 21 47 80                    ld      hl, # spr_shadow+7                      ; sprite1 base3 (frog X)
ROM:12EC 7E                          ld      a, (hl)                                 ; frog X
ROM:12ED C6 0F                       add     a, #0xF
ROM:12EF 4F                          ld      c, a
ROM:12F0 E6 0F                       and     #0xF
ROM:12F2 FE 05                       cp      #5
ROM:12F4 DA 2B 13                    jp      C, loc_132B
ROM:12F7 79                          ld      a, c
ROM:12F8 E6 F0                       and     #0xF0 ; 'ð'
ROM:12FA 0F                          rrca
ROM:12FB 0F                          rrca
ROM:12FC 0F                          rrca
ROM:12FD 0F                          rrca
ROM:12FE 6F                          ld      l, a
ROM:12FF 26 00                       ld      h, #0
ROM:1301 01 0B 13                    ld      bc, #off_130B
ROM:1304 29                          add     hl, hl
ROM:1305 09                          add     hl, bc
ROM:1306 4E                          ld      c, (hl)
ROM:1307 23                          inc     hl
ROM:1308 66                          ld      h, (hl)
ROM:1309 69                          ld      l, c
ROM:130A E9                          jp      (hl)
ROM:130A             ; END OF FUNCTION CHUNK FOR sub_11BF
ROM:130A             ; ---------------------------------------------------------------------------
ROM:130B 2B 13       off_130B:       .dw loc_132B                                    ; ...
ROM:130D 2E 13                       .dw loc_132E
ROM:130F 31 13                       .dw loc_1331
ROM:1311 34 13                       .dw loc_1334
ROM:1313 3C 13                       .dw loc_133C
ROM:1315 44 13                       .dw loc_1344
ROM:1317 4C 13                       .dw loc_134C
ROM:1319 54 13                       .dw loc_1354
ROM:131B 5C 13                       .dw loc_135C
ROM:131D 64 13                       .dw loc_1364
ROM:131F 6C 13                       .dw loc_136C
ROM:1321 74 13                       .dw loc_1374
ROM:1323 7C 13                       .dw loc_137C
ROM:1325 84 13                       .dw loc_1384
ROM:1327 8C 13                       .dw loc_138C
ROM:1329 8C 13                       .dw loc_138C
ROM:132B             ; ---------------------------------------------------------------------------
ROM:132B             ; START OF FUNCTION CHUNK FOR sub_11BF
ROM:132B
ROM:132B             loc_132B:                                                       ; ...
ROM:132B C3 E1 13                    jp      locret_13E1
ROM:132B             ; END OF FUNCTION CHUNK FOR sub_11BF
ROM:132E             ; ---------------------------------------------------------------------------
ROM:132E
ROM:132E             loc_132E:                                                       ; ...
ROM:132E C3 E1 13                    jp      locret_13E1
ROM:1331             ; ---------------------------------------------------------------------------
ROM:1331
ROM:1331             loc_1331:                                                       ; ...
ROM:1331 C3 E1 13                    jp      locret_13E1
ROM:1334             ; ---------------------------------------------------------------------------
ROM:1334
ROM:1334             loc_1334:                                                       ; ...
ROM:1334 21 00 81                    ld      hl, #unk_8100
ROM:1337 0E 3C                       ld      c, #0x3C ; '<'
ROM:1339 C3 8F 13                    jp      loc_138F
ROM:133C             ; ---------------------------------------------------------------------------
ROM:133C
ROM:133C             loc_133C:                                                       ; ...
ROM:133C 21 09 81                    ld      hl, #byte_8109
ROM:133F 0E 1F                       ld      c, #0x1F
ROM:1341 C3 8F 13                    jp      loc_138F
ROM:1344             ; ---------------------------------------------------------------------------
ROM:1344
ROM:1344             loc_1344:                                                       ; ...
ROM:1344 21 12 81                    ld      hl, #unk_8112
ROM:1347 0E 5C                       ld      c, #0x5C ; '\'
ROM:1349 C3 8F 13                    jp      loc_138F
ROM:134C             ; ---------------------------------------------------------------------------
ROM:134C
ROM:134C             loc_134C:                                                       ; ...
ROM:134C 21 1B 81                    ld      hl, #unk_811B
ROM:134F 0E 2C                       ld      c, #0x2C ; ','
ROM:1351 C3 8F 13                    jp      loc_138F
ROM:1354             ; ---------------------------------------------------------------------------
ROM:1354
ROM:1354             loc_1354:                                                       ; ...
ROM:1354 21 24 81                    ld      hl, #byte_8124
ROM:1357 0E 2F                       ld      c, #0x2F ; '/'
ROM:1359 C3 8F 13                    jp      loc_138F
ROM:135C             ; ---------------------------------------------------------------------------
ROM:135C
ROM:135C             loc_135C:                                                       ; ...
ROM:135C C3 E1 13                    jp      locret_13E1
ROM:135F             ; ---------------------------------------------------------------------------
ROM:135F             ; not used?
ROM:135F 0E 17                       ld      c, #0x17
ROM:1361 C3 8F 13                    jp      loc_138F
ROM:1364             ; ---------------------------------------------------------------------------
ROM:1364
ROM:1364             loc_1364:                                                       ; ...
ROM:1364 21 36 81                    ld      hl, #unk_8136
ROM:1367 0E 22                       ld      c, #0x22 ; '"'
ROM:1369 C3 8F 13                    jp      loc_138F
ROM:136C             ; ---------------------------------------------------------------------------
ROM:136C
ROM:136C             loc_136C:                                                       ; ...
ROM:136C 21 3F 81                    ld      hl, #unk_813F
ROM:136F 0E 12                       ld      c, #0x12
ROM:1371 C3 8F 13                    jp      loc_138F
ROM:1374             ; ---------------------------------------------------------------------------
ROM:1374
ROM:1374             loc_1374:                                                       ; ...
ROM:1374 21 48 81                    ld      hl, #unk_8148
ROM:1377 0E 12                       ld      c, #0x12
ROM:1379 C3 8F 13                    jp      loc_138F
ROM:137C             ; ---------------------------------------------------------------------------
ROM:137C
ROM:137C             loc_137C:                                                       ; ...
ROM:137C 21 51 81                    ld      hl, #unk_8151
ROM:137F 0E 12                       ld      c, #0x12
ROM:1381 C3 8F 13                    jp      loc_138F
ROM:1384             ; ---------------------------------------------------------------------------
ROM:1384
ROM:1384             loc_1384:                                                       ; ...
ROM:1384 21 5A 81                    ld      hl, #unk_815A
ROM:1387 0E 12                       ld      c, #0x12
ROM:1389 C3 8F 13                    jp      loc_138F
ROM:138C             ; ---------------------------------------------------------------------------
ROM:138C
ROM:138C             loc_138C:                                                       ; ...
ROM:138C C3 E1 13                    jp      locret_13E1
ROM:138F             ; ---------------------------------------------------------------------------
ROM:138F
ROM:138F             loc_138F:                                                       ; ...
ROM:138F 3A 2F 80                    ld      a, (obj_shadow_plus_7+0x28)
ROM:1392 FE 80                       cp      #0x80 ; '€'
ROM:1394 DA B9 13                    jp      C, loc_13B9
ROM:1397 3A 44 80                    ld      a, (spr_shadow+4)                       ; sprite1, base0 (frog Y)
ROM:139A C6 03                       add     a, #3
ROM:139C
ROM:139C             loc_139C:                                                       ; ...
ROM:139C 57                          ld      d, a
ROM:139D 81                          add     a, c
ROM:139E 5F                          ld      e, a
ROM:139F 46                          ld      b, (hl)
ROM:13A0 DA C1 13                    jp      C, loc_13C1
ROM:13A3
ROM:13A3             loc_13A3:                                                       ; ...
ROM:13A3 23                          inc     hl
ROM:13A4 7E                          ld      a, (hl)
ROM:13A5 BA                          cp      d
ROM:13A6 DA D7 13                    jp      C, loc_13D7
ROM:13A9 BB                          cp      e
ROM:13AA D2 D7 13                    jp      NC, loc_13D7
ROM:13AD 3A 47 80                    ld      a, (spr_shadow+7)                       ; sprite1, base3 (frog X)
ROM:13B0 FE 80                       cp      #0x80 ; '€'
ROM:13B2 D8                          ret     C
ROM:13B3 3E 01                       ld      a, #1
ROM:13B5 32 04 80                    ld      (frog_dead), a
ROM:13B8 C9                          ret
ROM:13B9             ; ---------------------------------------------------------------------------
ROM:13B9
ROM:13B9             loc_13B9:                                                       ; ...
ROM:13B9 3A 44 80                    ld      a, (spr_shadow+4)                       ; sprite1, base0 (frog Y)
ROM:13BC C6 0C                       add     a, #0xC
ROM:13BE C3 9C 13                    jp      loc_139C
ROM:13C1             ; ---------------------------------------------------------------------------
ROM:13C1
ROM:13C1             loc_13C1:                                                       ; ...
ROM:13C1 23                          inc     hl
ROM:13C2 7E                          ld      a, (hl)
ROM:13C3 BA                          cp      d
ROM:13C4 D2 CB 13                    jp      NC, loc_13CB
ROM:13C7 BB                          cp      e
ROM:13C8 D2 E2 13                    jp      NC, loc_13E2
ROM:13CB
ROM:13CB             loc_13CB:                                                       ; ...
ROM:13CB 3A 47 80                    ld      a, (spr_shadow+7)                       ; sprite1, base3 (frog X)
ROM:13CE FE 80                       cp      #0x80 ; '€'
ROM:13D0 D8                          ret     C
ROM:13D1 3E 01                       ld      a, #1
ROM:13D3 32 04 80                    ld      (frog_dead), a
ROM:13D6 C9                          ret
ROM:13D7             ; ---------------------------------------------------------------------------
ROM:13D7
ROM:13D7             loc_13D7:                                                       ; ...
ROM:13D7 10 CA                       djnz    loc_13A3
ROM:13D9 3A 47 80                    ld      a, (spr_shadow+7)                       ; sprite1, base3 (frog X)
ROM:13DC FE 80                       cp      #0x80 ; '€'
ROM:13DE DA D0 12                    jp      C, sub_12D0
ROM:13E1             ; START OF FUNCTION CHUNK FOR sub_11BF
ROM:13E1
ROM:13E1             locret_13E1:                                                    ; ...
ROM:13E1 C9                          ret
ROM:13E1             ; END OF FUNCTION CHUNK FOR sub_11BF
ROM:13E2             ; ---------------------------------------------------------------------------
ROM:13E2
ROM:13E2             loc_13E2:                                                       ; ...
ROM:13E2 10 DD                       djnz    loc_13C1
ROM:13E4 3A 47 80                    ld      a, (spr_shadow+7)                       ; sprite1, base3 (frog X)
ROM:13E7 FE 80                       cp      #0x80 ; '€'
ROM:13E9 DA D0 12                    jp      C, sub_12D0
ROM:13EC C9                          ret
ROM:13EC             ; ---------------------------------------------------------------------------
ROM:13ED 06 A8       word_13ED:      .dw 0xA806                                      ; ...
ROM:13EF 08 A8       word_13EF:      .dw 0xA808                                      ; ...
ROM:13F1 0A A8       word_13F1:      .dw 0xA80A                                      ; ...
ROM:13F3 0C A8       word_13F3:      .dw 0xA80C                                      ; ...
ROM:13F5 0E A8       word_13F5:      .dw 0xA80E                                      ; ...
ROM:13F7 10                          .db 0x10
ROM:13F8 A8                          .db 0xA8 ; ¨
ROM:13F9 12 A8       word_13F9:      .dw 0xA812                                      ; ...
ROM:13FB 14 A8       word_13FB:      .dw 0xA814                                      ; ...
ROM:13FD 16 A8       word_13FD:      .dw 0xA816                                      ; ...
ROM:13FF 18 A8       word_13FF:      .dw 0xA818                                      ; ...
ROM:1401 1A A8       word_1401:      .dw 0xA81A                                      ; ...
ROM:1403 5C 5D 5E 5F+log_codes:      .db 0x5C, 0x5D, 0x5E, 0x5F, 0x58, 0x59, 0x5A, 0x5B, 0x58, 0x59, 0x5A ; ...
ROM:1403 58 59 5A 5B+                .db 0x5B, 0x54, 0x55, 0x56, 0x57
ROM:1413 10 10 10 10+alligator_codes:.db 0x10, 0x10, 0x10, 0x10, 0xD0, 0xD1, 0xD2, 0xD3, 0xCC, 0xCD, 0xCE ; ...
ROM:1413 D0 D1 D2 D3+                .db 0xCF, 0xC8, 0xC9, 0xCA, 0xCB
ROM:1423 34 35 36 37+byte_1423:      .db 0x34, 0x35, 0x36, 0x37, 0x34, 0x35, 0x36, 0x37 ; ...
ROM:142B 38 39 3A 3B+byte_142B:      .db 0x38, 0x39, 0x3A, 0x3B, 0x38, 0x39, 0x3A, 0x3B ; ...
ROM:1433 3C 3D 3E 3F+byte_1433:      .db 0x3C, 0x3D, 0x3E, 0x3F, 0x3C, 0x3D, 0x3E, 0x3F ; ...
ROM:143B 5C 5D 5E 5F+byte_143B:      .db 0x5C, 0x5D, 0x5E, 0x5F, 0x58, 0x59, 0x5A, 0x5B ; ...
ROM:1443 58 59 5A 5B+                .db 0x58, 0x59, 0x5A, 0x5B, 0x58, 0x59, 0x5A, 0x5B
ROM:144B 58 59 5A 5B+                .db 0x58, 0x59, 0x5A, 0x5B, 0x54, 0x55, 0x56, 0x57
ROM:1453 5C 5D 5E 5F+byte_1453:      .db 0x5C, 0x5D, 0x5E, 0x5F, 0x58, 0x59, 0x5A, 0x5B, 0x54, 0x55, 0x56 ; ...
ROM:1453 58 59 5A 5B+                .db 0x57
ROM:145F 34 35 36 37+byte_145F:      .db 0x34, 0x35, 0x36, 0x37, 0x34, 0x35, 0x36, 0x37, 0x34, 0x35, 0x36 ; ...
ROM:145F 34 35 36 37+                .db 0x37, 0x34, 0x35, 0x36, 0x37, 0x34, 0x35, 0x36, 0x37
ROM:1473 38 39 3A 3B+byte_1473:      .db 0x38, 0x39, 0x3A, 0x3B, 0x38, 0x39, 0x3A, 0x3B, 0x38, 0x39, 0x3A ; ...
ROM:1473 38 39 3A 3B+                .db 0x3B, 0x38, 0x39, 0x3A, 0x3B, 0x38, 0x39, 0x3A, 0x3B
ROM:1487 3C 3D 3E 3F+byte_1487:      .db 0x3C, 0x3D, 0x3E, 0x3F, 0x3C, 0x3D, 0x3E, 0x3F, 0x3C, 0x3D, 0x3E ; ...
ROM:1487 3C 3D 3E 3F+                .db 0x3F, 0x3C, 0x3D, 0x3E, 0x3F, 0x3C, 0x3D, 0x3E, 0x3F
ROM:149B 47 47 47 47 byte_149B:      .db 0x47, 0x47, 0x47, 0x47                      ; ...
ROM:149F AC AD AE AF byte_149F:      .db 0xAC, 0xAD, 0xAE, 0xAF                      ; ...
ROM:14A3 A8 A9 AA AB                 .db 0xA8, 0xA9, 0xAA, 0xAB
ROM:14A7 A0 A1 A2 A3 byte_14A7:      .db 0xA0, 0xA1, 0xA2, 0xA3                      ; ...
ROM:14AB 30 31 32 33 byte_14AB:      .db 0x30, 0x31, 0x32, 0x33                      ; ...
ROM:14AF A4 A5 A6 A7 byte_14AF:      .db 0xA4, 0xA5, 0xA6, 0xA7                      ; ...
ROM:14B3 50 51 52 53 byte_14B3:      .db 0x50, 0x51, 0x52, 0x53                      ; ...
ROM:14B7
ROM:14B7             ; =============== S U B R O U T I N E =======================================
ROM:14B7
ROM:14B7
ROM:14B7             update_row_scroll:                                              ; ...
ROM:14B7 3A FF 80                    ld      a, (row_to_scroll)                      ; get row to scroll
ROM:14BA 01 C7 14                    ld      bc, #update_row_scroll_tbl
ROM:14BD 26 00                       ld      h, #0
ROM:14BF 87                          add     a, a                                    ; x2
ROM:14C0 6F                          ld      l, a
ROM:14C1 09                          add     hl, bc                                  ; offset into table
ROM:14C2 4E                          ld      c, (hl)
ROM:14C3 23                          inc     hl
ROM:14C4 66                          ld      h, (hl)
ROM:14C5 69                          ld      l, c                                    ; HL - table entry
ROM:14C6 E9                          jp      (hl)                                    ; jump
ROM:14C6             ; End of function update_row_scroll
ROM:14C6
ROM:14C6             ; ---------------------------------------------------------------------------
ROM:14C7 DD 14       update_row_scroll_tbl:.dw update_top_logs_scroll                ; ...
ROM:14C9 EE 14                       .dw update_top_turtles_scroll
ROM:14CB FF 14                       .dw update_middle_logs_scroll
ROM:14CD 10 15                       .dw update_bottom_logs_scroll
ROM:14CF 21 15                       .dw update_bottom_turtles_scroll
ROM:14D1 32 15                       .dw loc_1532
ROM:14D3 43 15                       .dw update_top_cars_scroll
ROM:14D5 54 15                       .dw update_2nd_cars_scroll
ROM:14D7 65 15                       .dw update_3rd_cars_scroll
ROM:14D9 76 15                       .dw update_4th_cars_scroll
ROM:14DB 87 15                       .dw update_bottom_cars_scroll
ROM:14DD             ; ---------------------------------------------------------------------------
ROM:14DD
ROM:14DD             update_top_logs_scroll:                                         ; ...
ROM:14DD 21 9B 81                    ld      hl, #byte_819B
ROM:14E0 11 00 81                    ld      de, #unk_8100
ROM:14E3 DD 21 0C 80                 ld      ix, # obj_shadow_plus_7+5               ; row6, scroll
ROM:14E7 FD 21 A6 81                 ld      iy, #unk_81A6
ROM:14EB C3 98 15                    jp      handle_scroll_right_row
ROM:14EE             ; ---------------------------------------------------------------------------
ROM:14EE
ROM:14EE             update_top_turtles_scroll:                                      ; ...
ROM:14EE 21 9C 81                    ld      hl, #unk_819C
ROM:14F1 11 09 81                    ld      de, #byte_8109
ROM:14F4 DD 21 10 80                 ld      ix, # obj_shadow_plus_7+9               ; row8, scroll
ROM:14F8 FD 21 A7 81                 ld      iy, #unk_81A7
ROM:14FC C3 3E 16                    jp      handle_scroll_left_row
ROM:14FF             ; ---------------------------------------------------------------------------
ROM:14FF
ROM:14FF             update_middle_logs_scroll:                                      ; ...
ROM:14FF 21 9D 81                    ld      hl, #unk_819D
ROM:1502 11 12 81                    ld      de, #unk_8112
ROM:1505 DD 21 14 80                 ld      ix, # obj_shadow_plus_7+0xD             ; row10, scroll
ROM:1509 FD 21 A8 81                 ld      iy, #unk_81A8
ROM:150D C3 98 15                    jp      handle_scroll_right_row
ROM:1510             ; ---------------------------------------------------------------------------
ROM:1510
ROM:1510             update_bottom_logs_scroll:                                      ; ...
ROM:1510 21 9E 81                    ld      hl, #unk_819E
ROM:1513 11 1B 81                    ld      de, #unk_811B
ROM:1516 DD 21 18 80                 ld      ix, # obj_shadow_plus_7+0x11            ; row12, scroll
ROM:151A FD 21 A9 81                 ld      iy, #unk_81A9
ROM:151E C3 98 15                    jp      handle_scroll_right_row
ROM:1521             ; ---------------------------------------------------------------------------
ROM:1521
ROM:1521             update_bottom_turtles_scroll:                                   ; ...
ROM:1521 21 9F 81                    ld      hl, #unk_819F
ROM:1524 11 24 81                    ld      de, #byte_8124
ROM:1527 DD 21 1C 80                 ld      ix, # obj_shadow_plus_7+0x15            ; row14, scroll
ROM:152B FD 21 AA 81                 ld      iy, #unk_81AA
ROM:152F C3 3E 16                    jp      handle_scroll_left_row
ROM:1532             ; ---------------------------------------------------------------------------
ROM:1532
ROM:1532             loc_1532:                                                       ; ...
ROM:1532 C3 DE 15                    jp      scroll_next_row
ROM:1535             ; ---------------------------------------------------------------------------
ROM:1535             ; possibly unused
ROM:1535 11 2D 81                    ld      de, #unk_812D
ROM:1538 DD 21 20 80                 ld      ix, # obj_shadow_plus_7+0x19
ROM:153C FD 21 AB 81                 ld      iy, #unk_81AB
ROM:1540 C3 98 15                    jp      handle_scroll_right_row
ROM:1543             ; ---------------------------------------------------------------------------
ROM:1543
ROM:1543             update_top_cars_scroll:                                         ; ...
ROM:1543 21 A1 81                    ld      hl, #unk_81A1
ROM:1546 11 36 81                    ld      de, #unk_8136
ROM:1549 DD 21 24 80                 ld      ix, # obj_shadow_plus_7+0x1D            ; row18, scroll
ROM:154D FD 21 AC 81                 ld      iy, #unk_81AC
ROM:1551 C3 3E 16                    jp      handle_scroll_left_row
ROM:1554             ; ---------------------------------------------------------------------------
ROM:1554
ROM:1554             update_2nd_cars_scroll:                                         ; ...
ROM:1554 21 A2 81                    ld      hl, #byte_81A2
ROM:1557 11 3F 81                    ld      de, #unk_813F
ROM:155A DD 21 28 80                 ld      ix, # obj_shadow_plus_7+0x21            ; row20, scroll
ROM:155E FD 21 AD 81                 ld      iy, #unk_81AD
ROM:1562 C3 98 15                    jp      handle_scroll_right_row
ROM:1565             ; ---------------------------------------------------------------------------
ROM:1565
ROM:1565             update_3rd_cars_scroll:                                         ; ...
ROM:1565 21 A3 81                    ld      hl, #unk_81A3
ROM:1568 11 48 81                    ld      de, #unk_8148
ROM:156B DD 21 2C 80                 ld      ix, # obj_shadow_plus_7+0x25            ; row22, scroll
ROM:156F FD 21 AE 81                 ld      iy, #unk_81AE
ROM:1573 C3 3E 16                    jp      handle_scroll_left_row
ROM:1576             ; ---------------------------------------------------------------------------
ROM:1576
ROM:1576             update_4th_cars_scroll:                                         ; ...
ROM:1576 21 A4 81                    ld      hl, #unk_81A4
ROM:1579 11 51 81                    ld      de, #unk_8151
ROM:157C DD 21 30 80                 ld      ix, # obj_shadow_plus_7+0x29            ; row24, scroll
ROM:1580 FD 21 AF 81                 ld      iy, #unk_81AF
ROM:1584 C3 98 15                    jp      handle_scroll_right_row
ROM:1587             ; ---------------------------------------------------------------------------
ROM:1587
ROM:1587             update_bottom_cars_scroll:                                      ; ...
ROM:1587 21 A5 81                    ld      hl, #unk_81A5
ROM:158A 11 5A 81                    ld      de, #unk_815A
ROM:158D DD 21 34 80                 ld      ix, # obj_shadow_plus_7+0x2D            ; row26, scroll
ROM:1591 FD 21 B0 81                 ld      iy, #unk_81B0
ROM:1595 C3 3E 16                    jp      handle_scroll_left_row
ROM:1598             ; ---------------------------------------------------------------------------
ROM:1598
ROM:1598             handle_scroll_right_row:                                        ; ...
ROM:1598 FD 7E 00                    ld      a, 0(iy)
ROM:159B 4F                          ld      c, a
ROM:159C A7                          and     a
ROM:159D C2 D4 16                    jp      NZ, loc_16D4
ROM:15A0 7E                          ld      a, (hl)
ROM:15A1 47                          ld      b, a
ROM:15A2 E6 0F                       and     #0xF
ROM:15A4 4F                          ld      c, a
ROM:15A5 78                          ld      a, b
ROM:15A6 E6 10                       and     #0x10
ROM:15A8 C2 D4 16                    jp      NZ, loc_16D4
ROM:15AB
ROM:15AB             loc_15AB:                                                       ; ...
ROM:15AB 1A                          ld      a, (de)
ROM:15AC 47                          ld      b, a
ROM:15AD
ROM:15AD             loc_15AD:                                                       ; ...
ROM:15AD 13                          inc     de
ROM:15AE 1A                          ld      a, (de)
ROM:15AF 81                          add     a, c
ROM:15B0 12                          ld      (de), a
ROM:15B1 10 FA                       djnz    loc_15AD
ROM:15B3 DD 7E 00                    ld      a, 0(ix)                                ; row scroll register
ROM:15B6 81                          add     a, c                                    ; add offset
ROM:15B7 DD 77 00                    ld      0(ix), a                                ; update
ROM:15BA DD 77 02                    ld      2(ix), a                                ; update row+1 scroll
ROM:15BD 3A 47 80                    ld      a, (spr_shadow+7)                       ; sprite1 base3 (frog X)
ROM:15C0 FE 30                       cp      #48                                     ; <48?
ROM:15C2 DA DA 15                    jp      C, loc_15DA                             ; yes, go
ROM:15C5 3A 47 80                    ld      a, (spr_shadow+7)                       ; sprite1 base3 (frog X)
ROM:15C8 FE 73                       cp      #115                                    ; >115?
ROM:15CA D2 DA 15                    jp      NC, loc_15DA                            ; yes, go
ROM:15CD 47                          ld      b, a
ROM:15CE E6 0F                       and     #0xF
ROM:15D0 FE 03                       cp      #3
ROM:15D2 DA EB 15                    jp      C, update_frog_on_scroll_right_row
ROM:15D5 FE 0C                       cp      #12
ROM:15D7 D2 1F 16                    jp      NC, loc_161F
ROM:15DA
ROM:15DA             loc_15DA:                                                       ; ...
ROM:15DA FD 36 00 00                 ld      0(iy), #0
ROM:15DE
ROM:15DE             scroll_next_row:                                                ; ...
ROM:15DE 21 FF 80                    ld      hl, #row_to_scroll
ROM:15E1 34                          inc     (hl)                                    ; inc & update
ROM:15E2 7E                          ld      a, (hl)                                 ; row to scroll
ROM:15E3 FE 0B                       cp      #11                                     ; out of range?
ROM:15E5 DA B7 14                    jp      C, update_row_scroll                    ; no, go
ROM:15E8 36 00                       ld      (hl), #0                                ; reset
ROM:15EA C9                          ret
ROM:15EB             ; ---------------------------------------------------------------------------
ROM:15EB
ROM:15EB             update_frog_on_scroll_right_row:                                ; ...
ROM:15EB 78                          ld      a, b                                    ; frog X
ROM:15EC E6 F0                       and     #0xF0 ; 'ð'                             ; mask off low 4 bits
ROM:15EE 08                          ex      af, af'
ROM:15EF 08                          ex      af, af'
ROM:15F0 D6 30                       sub     #48
ROM:15F2 0F                          rrca
ROM:15F3 0F                          rrca
ROM:15F4 0F                          rrca
ROM:15F5 0F                          rrca                                            ; convert to tile row coordinate
ROM:15F6 47                          ld      b, a
ROM:15F7 3A FF 80                    ld      a, (row_to_scroll)
ROM:15FA B8                          cp      b                                       ; on this row?
ROM:15FB C2 DA 15                    jp      NZ, loc_15DA                            ; no, go
ROM:15FE 3A 47 80                    ld      a, (spr_shadow+7)                       ; sprite1, base3 (frog X)
ROM:1601 FE 30                       cp      #48                                     ; <48?
ROM:1603 DA DA 15                    jp      C, loc_15DA                             ; yes, go
ROM:1606 3A 44 80                    ld      a, (spr_shadow+4)                       ; sprite1 base0 (frog Y)
ROM:1609 81                          add     a, c                                    ; add scrolling offset
ROM:160A 32 44 80                    ld      (spr_shadow+4), a                       ; update
ROM:160D FE 08                       cp      #8                                      ; <8?
ROM:160F DA 17 16                    jp      C, loc_1617                             ; yes, go
ROM:1612 FE E7                       cp      #231                                    ; <231?
ROM:1614 DA DA 15                    jp      C, loc_15DA                             ; yes, go
ROM:1617
ROM:1617             loc_1617:                                                       ; ...
ROM:1617 3E 01                       ld      a, #1
ROM:1619 32 04 80                    ld      (frog_dead), a
ROM:161C C3 DA 15                    jp      loc_15DA
ROM:161F             ; ---------------------------------------------------------------------------
ROM:161F
ROM:161F             loc_161F:                                                       ; ...
ROM:161F 78                          ld      a, b
ROM:1620 E6 F0                       and     #0xF0 ; 'ð'                             ; mask off low 4 bits
ROM:1622 C6 10                       add     a, #16
ROM:1624 08                          ex      af, af'
ROM:1625 08                          ex      af, af'
ROM:1626 D6 30                       sub     #48
ROM:1628 0F                          rrca
ROM:1629 0F                          rrca
ROM:162A 0F                          rrca
ROM:162B 0F                          rrca                                            ; convert to tile row coordinate
ROM:162C 47                          ld      b, a
ROM:162D 3A FF 80                    ld      a, (row_to_scroll)
ROM:1630 B8                          cp      b                                       ; this row?
ROM:1631 C2 DA 15                    jp      NZ, loc_15DA                            ; no, go
ROM:1634 3A 44 80                    ld      a, (spr_shadow+4)                       ; sprite1 base0 (frog Y)
ROM:1637 81                          add     a, c                                    ; add scroll delta
ROM:1638 32 44 80                    ld      (spr_shadow+4), a                       ; update
ROM:163B C3 DA 15                    jp      loc_15DA
ROM:163E             ; ---------------------------------------------------------------------------
ROM:163E
ROM:163E             handle_scroll_left_row:                                         ; ...
ROM:163E FD 7E 00                    ld      a, 0(iy)
ROM:1641 4F                          ld      c, a
ROM:1642 A7                          and     a
ROM:1643 C2 E6 16                    jp      NZ, loc_16E6
ROM:1646 7E                          ld      a, (hl)
ROM:1647 47                          ld      b, a
ROM:1648 E6 0F                       and     #0xF
ROM:164A 4F                          ld      c, a
ROM:164B 78                          ld      a, b
ROM:164C E6 10                       and     #0x10
ROM:164E C2 E6 16                    jp      NZ, loc_16E6
ROM:1651
ROM:1651             loc_1651:                                                       ; ...
ROM:1651 1A                          ld      a, (de)
ROM:1652 47                          ld      b, a
ROM:1653
ROM:1653             loc_1653:                                                       ; ...
ROM:1653 13                          inc     de
ROM:1654 1A                          ld      a, (de)
ROM:1655 91                          sub     c
ROM:1656 12                          ld      (de), a
ROM:1657 10 FA                       djnz    loc_1653
ROM:1659 DD 7E 00                    ld      a, 0(ix)                                ; row scroll
ROM:165C 91                          sub     c                                       ; add offset
ROM:165D DD 77 00                    ld      0(ix), a                                ; update
ROM:1660 DD 77 02                    ld      2(ix), a                                ; update row+1 scroll
ROM:1663 3A 47 80                    ld      a, (spr_shadow+7)                       ; sprite1, base3 (frog X)
ROM:1666 FE 73                       cp      #0x73 ; 's'
ROM:1668 D2 78 16                    jp      NC, loc_1678
ROM:166B 47                          ld      b, a
ROM:166C E6 0F                       and     #0xF
ROM:166E FE 03                       cp      #3
ROM:1670 DA 89 16                    jp      C, update_frog_on_scroll_left_row
ROM:1673 FE 0C                       cp      #0xC
ROM:1675 D2 B5 16                    jp      NC, loc_16B5
ROM:1678
ROM:1678             loc_1678:                                                       ; ...
ROM:1678 FD 36 00 00                 ld      0(iy), #0
ROM:167C
ROM:167C             loc_167C:                                                       ; ...
ROM:167C 21 FF 80                    ld      hl, #row_to_scroll
ROM:167F 34                          inc     (hl)                                    ; inc & update
ROM:1680 7E                          ld      a, (hl)                                 ; row to scoll
ROM:1681 FE 0B                       cp      #11                                     ; out of bounds?
ROM:1683 DA B7 14                    jp      C, update_row_scroll                    ; no, go
ROM:1686 36 00                       ld      (hl), #0                                ; reset
ROM:1688 C9                          ret
ROM:1689             ; ---------------------------------------------------------------------------
ROM:1689
ROM:1689             update_frog_on_scroll_left_row:                                 ; ...
ROM:1689 78                          ld      a, b
ROM:168A E6 F0                       and     #0xF0 ; 'ð'
ROM:168C 08                          ex      af, af'
ROM:168D 08                          ex      af, af'
ROM:168E D6 30                       sub     #0x30 ; '0'
ROM:1690 0F                          rrca
ROM:1691 0F                          rrca
ROM:1692 0F                          rrca
ROM:1693 0F                          rrca
ROM:1694 47                          ld      b, a
ROM:1695 3A FF 80                    ld      a, (row_to_scroll)
ROM:1698 B8                          cp      b
ROM:1699 C2 78 16                    jp      NZ, loc_1678
ROM:169C 3A 44 80                    ld      a, (spr_shadow+4)                       ; sprite1 base0 (frog Y)
ROM:169F 91                          sub     c
ROM:16A0 32 44 80                    ld      (spr_shadow+4), a                       ; update
ROM:16A3 FE 08                       cp      #8
ROM:16A5 DA AD 16                    jp      C, loc_16AD
ROM:16A8 FE E7                       cp      #0xE7 ; 'ç'
ROM:16AA DA 78 16                    jp      C, loc_1678
ROM:16AD
ROM:16AD             loc_16AD:                                                       ; ...
ROM:16AD 3E 01                       ld      a, #1
ROM:16AF 32 04 80                    ld      (frog_dead), a
ROM:16B2 C3 78 16                    jp      loc_1678
ROM:16B5             ; ---------------------------------------------------------------------------
ROM:16B5
ROM:16B5             loc_16B5:                                                       ; ...
ROM:16B5 78                          ld      a, b
ROM:16B6 E6 F0                       and     #0xF0 ; 'ð'
ROM:16B8 C6 10                       add     a, #0x10
ROM:16BA 08                          ex      af, af'
ROM:16BB 08                          ex      af, af'
ROM:16BC D6 30                       sub     #0x30 ; '0'
ROM:16BE 0F                          rrca
ROM:16BF 0F                          rrca
ROM:16C0 0F                          rrca
ROM:16C1 0F                          rrca
ROM:16C2 47                          ld      b, a
ROM:16C3 3A FF 80                    ld      a, (row_to_scroll)
ROM:16C6 B8                          cp      b
ROM:16C7 C2 78 16                    jp      NZ, loc_1678
ROM:16CA 3A 44 80                    ld      a, (spr_shadow+4)                       ; sprite1 base0 (frog Y)
ROM:16CD 91                          sub     c
ROM:16CE 32 44 80                    ld      (spr_shadow+4), a                       ; update
ROM:16D1 C3 78 16                    jp      loc_1678
ROM:16D4             ; ---------------------------------------------------------------------------
ROM:16D4
ROM:16D4             loc_16D4:                                                       ; ...
ROM:16D4 79                          ld      a, c
ROM:16D5 FE 01                       cp      #1
ROM:16D7 C2 DF 16                    jp      NZ, loc_16DF
ROM:16DA 0E 01                       ld      c, #1
ROM:16DC C3 AB 15                    jp      loc_15AB
ROM:16DF             ; ---------------------------------------------------------------------------
ROM:16DF
ROM:16DF             loc_16DF:                                                       ; ...
ROM:16DF 0D                          dec     c
ROM:16E0 FD 71 00                    ld      0(iy), c
ROM:16E3 C3 DE 15                    jp      scroll_next_row
ROM:16E6             ; ---------------------------------------------------------------------------
ROM:16E6
ROM:16E6             loc_16E6:                                                       ; ...
ROM:16E6 79                          ld      a, c
ROM:16E7 FE 01                       cp      #1
ROM:16E9 C2 F1 16                    jp      NZ, loc_16F1
ROM:16EC 0E 01                       ld      c, #1
ROM:16EE C3 51 16                    jp      loc_1651
ROM:16F1             ; ---------------------------------------------------------------------------
ROM:16F1
ROM:16F1             loc_16F1:                                                       ; ...
ROM:16F1 0D                          dec     c
ROM:16F2 FD 71 00                    ld      0(iy), c
ROM:16F5 C3 7C 16                    jp      loc_167C
ROM:16F8
ROM:16F8             ; =============== S U B R O U T I N E =======================================
ROM:16F8
ROM:16F8
ROM:16F8             sub_16F8:                                                       ; ...
ROM:16F8 3A 04 80                    ld      a, (frog_dead)
ROM:16FB A7                          and     a                                       ; dead?
ROM:16FC C8                          ret     Z                                       ; no, exit
ROM:16FD 3A 50 81                    ld      a, (f_alligator)
ROM:1700 CB 47                       bit     0, a
ROM:1702 28 05                       jr      Z, loc_1709
ROM:1704 3E 01                       ld      a, #1
ROM:1706 32 18 81                    ld      (byte_8118), a
ROM:1709
ROM:1709             loc_1709:                                                       ; ...
ROM:1709 3A 20 81                    ld      a, (alligator_home_num)
ROM:170C A7                          and     a
ROM:170D 28 03                       jr      Z, loc_1712
ROM:170F 32 21 81                    ld      (creature_home_num), a
ROM:1712
ROM:1712             loc_1712:                                                       ; ...
ROM:1712 CD CE 25                    call    clear_creature_from_home
ROM:1715 CD B3 27                    call    sub_27B3
ROM:1718 3A 47 82                    ld      a, (byte_8247)
ROM:171B 3C                          inc     a
ROM:171C 32 47 82                    ld      (byte_8247), a
ROM:171F D6 10                       sub     #0x10
ROM:1721 C0                          ret     NZ
ROM:1722 32 47 82                    ld      (byte_8247), a
ROM:1725 3E 07                       ld      a, #7                                   ; colour=7
ROM:1727 32 46 80                    ld      (spr_shadow+6), a                       ; sprite1 colour (frog)
ROM:172A 21 44 80                    ld      hl, # spr_shadow+4                      ; sprite1 base0 (frog Y)
ROM:172D 3A B2 81                    ld      a, (byte_81B2)
ROM:1730 3C                          inc     a
ROM:1731 32 B2 81                    ld      (byte_81B2), a
ROM:1734 4F                          ld      c, a
ROM:1735 3A 9C 82                    ld      a, (byte_829C)
ROM:1738 A7                          and     a
ROM:1739 C2 7D 17                    jp      NZ, loc_177D
ROM:173C 79                          ld      a, c
ROM:173D FE 06                       cp      #6
ROM:173F 20 44                       jr      NZ, loc_1785
ROM:1741
ROM:1741             loc_1741:                                                       ; ...
ROM:1741 CD 04 08                    call    sub_804
ROM:1744 AF                          xor     a
ROM:1745 32 B2 81                    ld      (byte_81B2), a
ROM:1748 32 04 80                    ld      (frog_dead), a
ROM:174B 32 47 82                    ld      (byte_8247), a
ROM:174E 32 69 82                    ld      (farthest_fwd), a
ROM:1751 32 9C 82                    ld      (byte_829C), a
ROM:1754 21 48 82                    ld      hl, #byte_8248
ROM:1757 11 49 82                    ld      de, #byte_8249
ROM:175A 01 0B 00                    ld      bc, #0xB
ROM:175D 77                          ld      (hl), a
ROM:175E ED B0                       ldir
ROM:1760 3C                          inc     a
ROM:1761 32 CE 83                    ld      (byte_83CE), a
ROM:1764 3A D6 83                    ld      a, (attract_mode_part)
ROM:1767 3D                          dec     a                                       ; ==1?
ROM:1768 20 12                       jr      NZ, locret_177C                         ; no, exit
ROM:176A 3A FE 83                    ld      a, (f_in_game)
ROM:176D A7                          and     a                                       ; in game?
ROM:176E 20 0C                       jr      NZ, locret_177C                         ; yes, exit
ROM:1770 32 D6 83                    ld      (attract_mode_part), a
ROM:1773 32 99 82                    ld      (attract_frog_move_timer), a
ROM:1776 32 9A 82                    ld      (attract_mode_frog_move_cnt), a
ROM:1779 32 5B 82                    ld      (byte_825B), a
ROM:177C
ROM:177C             locret_177C:                                                    ; ...
ROM:177C C9                          ret
ROM:177D             ; ---------------------------------------------------------------------------
ROM:177D
ROM:177D             loc_177D:                                                       ; ...
ROM:177D 79                          ld      a, c
ROM:177E FE 05                       cp      #5
ROM:1780 20 03                       jr      NZ, loc_1785
ROM:1782 C3 41 17                    jp      loc_1741
ROM:1785             ; ---------------------------------------------------------------------------
ROM:1785
ROM:1785             loc_1785:                                                       ; ...
ROM:1785 3A 9C 82                    ld      a, (byte_829C)
ROM:1788 A7                          and     a
ROM:1789 C2 C4 17                    jp      NZ, loc_17C4
ROM:178C 23                          inc     hl
ROM:178D 3A B2 81                    ld      a, (byte_81B2)
ROM:1790 3D                          dec     a
ROM:1791 28 0B                       jr      Z, loc_179E
ROM:1793 3D                          dec     a
ROM:1794 28 15                       jr      Z, loc_17AB
ROM:1796 3D                          dec     a
ROM:1797 28 15                       jr      Z, loc_17AE
ROM:1799 3D                          dec     a
ROM:179A 28 15                       jr      Z, loc_17B1
ROM:179C 18 16                       jr      loc_17B4
ROM:179E             ; ---------------------------------------------------------------------------
ROM:179E
ROM:179E             loc_179E:                                                       ; ...
ROM:179E 36 39                       ld      (hl), #0x39 ; '9'
ROM:17A0 AF                          xor     a
ROM:17A1 67                          ld      h, a
ROM:17A2 6F                          ld      l, a
ROM:17A3 22 82 83                    ld      (word_8382), hl
ROM:17A6 DF                          rst     add_snd_to_q
ROM:17A7 3E 03                       ld      a, #3                                   ; snd #3
ROM:17A9 DF                          rst     add_snd_to_q
ROM:17AA C9                          ret
ROM:17AB             ; ---------------------------------------------------------------------------
ROM:17AB
ROM:17AB             loc_17AB:                                                       ; ...
ROM:17AB 36 39                       ld      (hl), #0x39 ; '9'
ROM:17AD C9                          ret
ROM:17AE             ; ---------------------------------------------------------------------------
ROM:17AE
ROM:17AE             loc_17AE:                                                       ; ...
ROM:17AE 36 3A                       ld      (hl), #0x3A ; ':'
ROM:17B0 C9                          ret
ROM:17B1             ; ---------------------------------------------------------------------------
ROM:17B1
ROM:17B1             loc_17B1:                                                       ; ...
ROM:17B1 36 3B                       ld      (hl), #0x3B ; ';'
ROM:17B3 C9                          ret
ROM:17B4             ; ---------------------------------------------------------------------------
ROM:17B4
ROM:17B4             loc_17B4:                                                       ; ...
ROM:17B4 36 3C                       ld      (hl), #0x3C ; '<'
ROM:17B6 AF                          xor     a
ROM:17B7 32 AE 83                    ld      (byte_83AE), a
ROM:17BA CD 56 28                    call    sub_2856
ROM:17BD 21 D8 00                    ld      hl, #0xD8 ; 'Ø'
ROM:17C0 22 82 83                    ld      (word_8382), hl
ROM:17C3 C9                          ret
ROM:17C4             ; ---------------------------------------------------------------------------
ROM:17C4
ROM:17C4             loc_17C4:                                                       ; ...
ROM:17C4 23                          inc     hl
ROM:17C5 3A B2 81                    ld      a, (byte_81B2)
ROM:17C8 3D                          dec     a
ROM:17C9 28 08                       jr      Z, loc_17D3
ROM:17CB 3D                          dec     a
ROM:17CC 28 12                       jr      Z, loc_17E0
ROM:17CE 3D                          dec     a
ROM:17CF 28 12                       jr      Z, loc_17E3
ROM:17D1 18 13                       jr      loc_17E6
ROM:17D3             ; ---------------------------------------------------------------------------
ROM:17D3
ROM:17D3             loc_17D3:                                                       ; ...
ROM:17D3 36 22                       ld      (hl), #0x22 ; '"'
ROM:17D5 AF                          xor     a                                       ; reset sound
ROM:17D6 67                          ld      h, a
ROM:17D7 6F                          ld      l, a
ROM:17D8 22 82 83                    ld      (word_8382), hl
ROM:17DB DF                          rst     add_snd_to_q
ROM:17DC 3E 02                       ld      a, #2                                   ; snd #2
ROM:17DE DF                          rst     add_snd_to_q
ROM:17DF C9                          ret
ROM:17E0             ; ---------------------------------------------------------------------------
ROM:17E0
ROM:17E0             loc_17E0:                                                       ; ...
ROM:17E0 36 23                       ld      (hl), #0x23 ; '#'
ROM:17E2 C9                          ret
ROM:17E3             ; ---------------------------------------------------------------------------
ROM:17E3
ROM:17E3             loc_17E3:                                                       ; ...
ROM:17E3 36 24                       ld      (hl), #0x24 ; '$'
ROM:17E5 C9                          ret
ROM:17E6             ; ---------------------------------------------------------------------------
ROM:17E6
ROM:17E6             loc_17E6:                                                       ; ...
ROM:17E6 36 3C                       ld      (hl), #0x3C ; '<'
ROM:17E8 AF                          xor     a
ROM:17E9 32 AE 83                    ld      (byte_83AE), a
ROM:17EC 32 10 81                    ld      (turtle_duo_timer), a
ROM:17EF 32 07 81                    ld      (unk_8107), a
ROM:17F2 32 1A 81                    ld      (turtle_duo_data_2ix), a
ROM:17F5 32 19 81                    ld      (turtle_trio_data_2ix), a
ROM:17F8 CD 56 28                    call    sub_2856
ROM:17FB 21 D8 00                    ld      hl, #0xD8 ; 'Ø'
ROM:17FE 22 82 83                    ld      (word_8382), hl
ROM:1801 C9                          ret
ROM:1801             ; End of function sub_16F8
ROM:1801
ROM:1802
ROM:1802             ; =============== S U B R O U T I N E =======================================
ROM:1802
ROM:1802
ROM:1802             sub_1802:                                                       ; ...
ROM:1802 3A 4F 81                    ld      a, (byte_814F)
ROM:1805 A7                          and     a
ROM:1806 C0                          ret     NZ
ROM:1807 3A 5B 81                    ld      a, (byte_815B)
ROM:180A A7                          and     a
ROM:180B C0                          ret     NZ
ROM:180C 3A B4 81                    ld      a, (word_81B3+1)
ROM:180F A7                          and     a
ROM:1810 C2 32 18                    jp      NZ, loc_1832
ROM:1813 67                          ld      h, a
ROM:1814 3A B3 81                    ld      a, (word_81B3)
ROM:1817 6F                          ld      l, a
ROM:1818 11 41 18                    ld      de, #off_1841
ROM:181B 29                          add     hl, hl
ROM:181C 19                          add     hl, de
ROM:181D 4E                          ld      c, (hl)
ROM:181E 23                          inc     hl
ROM:181F 66                          ld      h, (hl)
ROM:1820 69                          ld      l, c
ROM:1821 EB                          ex      de, hl
ROM:1822 21 B3 81                    ld      hl, #word_81B3
ROM:1825 34                          inc     (hl)
ROM:1826 7E                          ld      a, (hl)
ROM:1827 23                          inc     hl
ROM:1828 36 15                       ld      (hl), #0x15
ROM:182A D6 0A                       sub     #0xA
ROM:182C C2 37 18                    jp      NZ, loc_1837
ROM:182F 2B                          dec     hl
ROM:1830 77                          ld      (hl), a
ROM:1831 C9                          ret
ROM:1832             ; ---------------------------------------------------------------------------
ROM:1832
ROM:1832             loc_1832:                                                       ; ...
ROM:1832 21 B4 81                    ld      hl, # word_81B3+1
ROM:1835 35                          dec     (hl)
ROM:1836 C9                          ret
ROM:1837             ; ---------------------------------------------------------------------------
ROM:1837
ROM:1837             loc_1837:                                                       ; ...
ROM:1837 EB                          ex      de, hl
ROM:1838 11 9B 81                    ld      de, #byte_819B
ROM:183B 01 0B 00                    ld      bc, #0xB
ROM:183E ED B0                       ldir
ROM:1840 C9                          ret
ROM:1840             ; End of function sub_1802
ROM:1840
ROM:1840             ; ---------------------------------------------------------------------------
ROM:1841 6B 18       off_1841:       .dw byte_186B                                   ; ...
ROM:1843 76 18                       .dw byte_1876
ROM:1845 81 18                       .dw byte_1881
ROM:1847 8C 18                       .dw byte_188C
ROM:1849 97 18                       .dw byte_1897
ROM:184B A2 18                       .dw byte_18A2
ROM:184D AD 18                       .dw byte_18AD
ROM:184F B8 18                       .dw byte_18B8
ROM:1851 C3 18                       .dw byte_18C3
ROM:1853 CE 18                       .dw byte_18CE
ROM:1855 D9 18                       .dw byte_18D9
ROM:1857 E4 18                       .dw byte_18E4
ROM:1859 EF 18                       .dw byte_18EF
ROM:185B FA 18                       .dw byte_18FA
ROM:185D 05 19                       .dw byte_1905
ROM:185F 10 19                       .dw byte_1910
ROM:1861 1B 19                       .dw byte_191B
ROM:1863 26 19                       .dw byte_1926
ROM:1865 31 19                       .dw byte_1931
ROM:1867 3C 19                       .dw byte_193C
ROM:1869 47 19                       .dw byte_1947
ROM:186B 13 12 11 16+byte_186B:      .db 0x13, 0x12, 0x11, 0x16, 0x12, 0, 0x12, 0x13, 0x14, 0x15, 0x16 ; ...
ROM:1876 12 13 12 15+byte_1876:      .db 0x12, 0x13, 0x12, 0x15, 1, 0, 0x13, 2, 0x12, 0x13, 0x12 ; ...
ROM:1881 12 12 13 14+byte_1881:      .db 0x12, 0x12, 0x13, 0x14, 0x12, 0, 0x12, 1, 0x13, 0x12, 0x13 ; ...
ROM:188C 12 01 12 13+byte_188C:      .db 0x12, 1, 0x12, 0x13, 0x13, 0, 0x12, 2, 0x12, 1, 0x14 ; ...
ROM:1897 13 12 01 12+byte_1897:      .db 0x13, 0x12, 1, 0x12, 0x12, 0, 0x12, 1, 1, 0x12, 0x13 ; ...
ROM:18A2 13 01 12 13+byte_18A2:      .db 0x13, 1, 0x12, 0x13, 0x13, 0, 1, 2, 0x12, 0x13, 0x12 ; ...
ROM:18AD 12 12 13 12+byte_18AD:      .db 0x12, 0x12, 0x13, 0x12, 0x12, 0, 0x12, 1, 0x13, 0x12, 0x13 ; ...
ROM:18B8 13 13 12 13+byte_18B8:      .db 0x13, 0x13, 0x12, 0x13, 1, 0, 0x13, 2, 0x12, 1, 0x12 ; ...
ROM:18C3 12 12 13 12+byte_18C3:      .db 0x12, 0x12, 0x13, 0x12, 0x12, 0, 0x12, 1, 1, 0x12, 0x13 ; ...
ROM:18CE 13 01 12 01+byte_18CE:      .db 0x13, 1, 0x12, 1, 0x13, 0, 1, 2, 0x12, 0x13, 0x13 ; ...
ROM:18D9 12 12 01 12+byte_18D9:      .db 0x12, 0x12, 1, 0x12, 0x12, 0, 1, 1, 0x13, 0x12, 0x12 ; ...
ROM:18E4 01 13 01 13+byte_18E4:      .db 1, 0x13, 1, 0x13, 1, 0, 0x12, 1, 0x12, 1, 1 ; ...
ROM:18EF 12 12 01 12+byte_18EF:      .db 0x12, 0x12, 1, 0x12, 0x12, 0, 1, 2, 0x13, 0x12, 1 ; ...
ROM:18FA 01 12 01 12+byte_18FA:      .db 1, 0x12, 1, 0x12, 1, 0, 1, 3, 0x12, 1, 0x12 ; ...
ROM:1905 12 12 01 12+byte_1905:      .db 0x12, 0x12, 1, 0x12, 0x12, 0, 1, 2, 0x13, 0x12, 0x12 ; ...
ROM:1910 01 01 12 01+byte_1910:      .db 1, 1, 0x12, 1, 0x12, 0, 1, 1, 0x12, 1, 1    ; ...
ROM:191B 01 01 12 01+byte_191B:      .db 1, 1, 0x12, 1, 0x12, 0, 1, 1, 0x12, 1, 1    ; ...
ROM:1926 12 01 13 12+byte_1926:      .db 0x12, 1, 0x13, 0x12, 1, 0, 0x12, 2, 1, 0x12, 0x12 ; ...
ROM:1931 01 12 14 01+byte_1931:      .db 1, 0x12, 0x14, 1, 0x12, 0, 1, 3, 0x12, 0x13, 1 ; ...
ROM:193C 12 01 13 12+byte_193C:      .db 0x12, 1, 0x13, 0x12, 0x13, 0, 0x12, 2, 0x13, 0x12, 0x12 ; ...
ROM:1947 13 12 12 13+byte_1947:      .db 0x13, 0x12, 0x12, 0x13, 0x12, 0, 0x13, 1, 0x14, 0x13, 0x14 ; ...
ROM:1952
ROM:1952             ; =============== S U B R O U T I N E =======================================
ROM:1952
ROM:1952
ROM:1952             draw_grass:                                                     ; ...
ROM:1952 21 43 A8                    ld      hl, # VRAM_START+0x43
ROM:1955 0E 05                       ld      c, #5                                   ; 5 sections
ROM:1957
ROM:1957             loc_1957:                                                       ; ...
ROM:1957 11 F6 19                    ld      de, #grass1_data
ROM:195A 06 04                       ld      b, #4                                   ; 4 chars
ROM:195C
ROM:195C             loc_195C:                                                       ; ...
ROM:195C 1A                          ld      a, (de)                                 ; get char
ROM:195D 77                          ld      (hl), a                                 ; display char
ROM:195E 13                          inc     de
ROM:195F C5                          push    bc
ROM:1960 01 20 00                    ld      bc, #0x20 ; ' '
ROM:1963 09                          add     hl, bc                                  ; next col
ROM:1964 C1                          pop     bc
ROM:1965 10 F5                       djnz    loc_195C                                ; loop through section
ROM:1967 11 40 00                    ld      de, #0x40 ; '@'
ROM:196A 19                          add     hl, de
ROM:196B 0D                          dec     c                                       ; next section
ROM:196C C2 57 19                    jp      NZ, loc_1957
ROM:196F 21 A4 A8                    ld      hl, # VRAM_START+0xA4
ROM:1972 0E 04                       ld      c, #4                                   ; 4 sections
ROM:1974
ROM:1974             loc_1974:                                                       ; ...
ROM:1974 11 FA 19                    ld      de, #grass2_data
ROM:1977 06 04                       ld      b, #4                                   ; 4 chars
ROM:1979
ROM:1979             loc_1979:                                                       ; ...
ROM:1979 1A                          ld      a, (de)
ROM:197A 77                          ld      (hl), a
ROM:197B 13                          inc     de
ROM:197C C5                          push    bc
ROM:197D 01 20 00                    ld      bc, #0x20 ; ' '
ROM:1980 09                          add     hl, bc                                  ; next col
ROM:1981 C1                          pop     bc
ROM:1982 10 F5                       djnz    loc_1979                                ; loop through section
ROM:1984 11 40 00                    ld      de, #0x40 ; '@'
ROM:1987 19                          add     hl, de
ROM:1988 0D                          dec     c                                       ; next section
ROM:1989 C2 74 19                    jp      NZ, loc_1974
ROM:198C 21 A5 A8                    ld      hl, # VRAM_START+0xA5
ROM:198F 0E 04                       ld      c, #4                                   ; 4 sections
ROM:1991
ROM:1991             loc_1991:                                                       ; ...
ROM:1991 11 FE 19                    ld      de, #grass3_data
ROM:1994 06 04                       ld      b, #4                                   ; 4 chars
ROM:1996
ROM:1996             loc_1996:                                                       ; ...
ROM:1996 1A                          ld      a, (de)                                 ; get char
ROM:1997 77                          ld      (hl), a                                 ; display char
ROM:1998 13                          inc     de
ROM:1999 C5                          push    bc
ROM:199A 01 20 00                    ld      bc, #0x20 ; ' '
ROM:199D 09                          add     hl, bc                                  ; next col
ROM:199E C1                          pop     bc
ROM:199F 10 F5                       djnz    loc_1996                                ; loop through section
ROM:19A1 11 40 00                    ld      de, #0x40 ; '@'
ROM:19A4 19                          add     hl, de
ROM:19A5 0D                          dec     c                                       ; next section
ROM:19A6 C2 91 19                    jp      NZ, loc_1991
ROM:19A9 21 C3 A8                    ld      hl, # VRAM_START+0xC3
ROM:19AC 06 04                       ld      b, #4
ROM:19AE
ROM:19AE             draw_grass_and_set_row_colours:                                 ; ...
ROM:19AE 36 47                       ld      (hl), #0x47 ; 'G'
ROM:19B0 11 20 00                    ld      de, #32
ROM:19B3 19                          add     hl, de
ROM:19B4 36 47                       ld      (hl), #0x47 ; 'G'
ROM:19B6 11 A0 00                    ld      de, #0xA0 ; ' '
ROM:19B9 19                          add     hl, de
ROM:19BA 10 F2                       djnz    draw_grass_and_set_row_colours
ROM:19BC 21 44 A8                    ld      hl, # VRAM_START+0x44
ROM:19BF 36 41                       ld      (hl), #0x41 ; 'A'
ROM:19C1 23                          inc     hl
ROM:19C2 36 42                       ld      (hl), #0x42 ; 'B'
ROM:19C4 01 5F 03                    ld      bc, #0x35F
ROM:19C7 09                          add     hl, bc
ROM:19C8 36 45                       ld      (hl), #0x45 ; 'E'
ROM:19CA 23                          inc     hl
ROM:19CB 36 46                       ld      (hl), #0x46 ; 'F'
ROM:19CD 21 5C A8                    ld      hl, # VRAM_START+0x5C
ROM:19D0 CD E2 19                    call    draw_purple_footpath
ROM:19D3 21 07 80                    ld      hl, #obj_shadow_plus_7                  ; row3, colour
ROM:19D6 3E 01                       ld      a, #1
ROM:19D8 77                          ld      (hl), a                                 ; update
ROM:19D9 2C                          inc     l
ROM:19DA 2C                          inc     l                                       ; row 4, colour
ROM:19DB 77                          ld      (hl), a                                 ; update
ROM:19DC 2C                          inc     l
ROM:19DD 2C                          inc     l                                       ; row5, colour
ROM:19DE 77                          ld      (hl), a                                 ; update
ROM:19DF C3 02 1A                    jp      reset_row_colour_regs
ROM:19DF             ; End of function draw_grass
ROM:19DF
ROM:19E2
ROM:19E2             ; =============== S U B R O U T I N E =======================================
ROM:19E2
ROM:19E2
ROM:19E2             draw_purple_footpath:                                           ; ...
ROM:19E2 06 0E                       ld      b, #0xE                                 ; 15 2x2 blocks
ROM:19E4
ROM:19E4             loc_19E4:                                                       ; ...
ROM:19E4 36 48                       ld      (hl), #0x48 ; 'H'
ROM:19E6 23                          inc     hl
ROM:19E7 36 49                       ld      (hl), #0x49 ; 'I'
ROM:19E9 11 1F 00                    ld      de, #0x1F
ROM:19EC 19                          add     hl, de
ROM:19ED 36 4A                       ld      (hl), #0x4A ; 'J'
ROM:19EF 23                          inc     hl
ROM:19F0 36 4B                       ld      (hl), #0x4B ; 'K'
ROM:19F2 19                          add     hl, de
ROM:19F3 10 EF                       djnz    loc_19E4
ROM:19F5 C9                          ret
ROM:19F5             ; End of function draw_purple_footpath
ROM:19F5
ROM:19F5             ; ---------------------------------------------------------------------------
ROM:19F6 40 43 43 44 grass1_data:    .db 0x40, 0x43, 0x43, 0x44                      ; ...
ROM:19FA 45 47 47 41 grass2_data:    .db 0x45, 0x47, 0x47, 0x41                      ; ...
ROM:19FE 46 43 43 42 grass3_data:    .db 0x46, 0x43, 0x43, 0x42                      ; ...
ROM:1A02
ROM:1A02             ; =============== S U B R O U T I N E =======================================
ROM:1A02
ROM:1A02
ROM:1A02             reset_row_colour_regs:                                          ; ...
ROM:1A02 3E 05                       ld      a, #5
ROM:1A04 32 25 80                    ld      (obj_shadow_plus_7+0x1E), a             ; row18, colour
ROM:1A07 32 27 80                    ld      (obj_shadow_plus_7+0x20), a             ; row19, colour
ROM:1A0A 3E 04                       ld      a, #4
ROM:1A0C 32 2D 80                    ld      (obj_shadow_plus_7+0x26), a             ; row22, colour
ROM:1A0F 32 2F 80                    ld      (obj_shadow_plus_7+0x28), a             ; row23, colour
ROM:1A12 3E 07                       ld      a, #7
ROM:1A14 32 35 80                    ld      (obj_shadow_plus_7+0x2E), a             ; row26, colour
ROM:1A17 32 37 80                    ld      (obj_shadow_plus_7+0x30), a             ; row27, colour
ROM:1A1A 3E 06                       ld      a, #6
ROM:1A1C 32 21 80                    ld      (obj_shadow_plus_7+0x1A), a             ; row16, colour
ROM:1A1F 32 23 80                    ld      (obj_shadow_plus_7+0x1C), a             ; row17, colour
ROM:1A22 32 39 80                    ld      (obj_shadow_plus_7+0x32), a             ; row28, colour
ROM:1A25 32 3B 80                    ld      (obj_shadow_plus_7+0x34), a             ; row29, colour
ROM:1A28 3E 05                       ld      a, #5
ROM:1A2A 06 0A                       ld      b, #10                                  ; 10 rows to update
ROM:1A2C 21 0D 80                    ld      hl, # obj_shadow_plus_7+6               ; row6, colour
ROM:1A2F
ROM:1A2F             loc_1A2F:                                                       ; ...
ROM:1A2F 77                          ld      (hl), a                                 ; set colour
ROM:1A30 23                          inc     hl
ROM:1A31 23                          inc     hl                                      ; next row colour register
ROM:1A32 10 FB                       djnz    loc_1A2F                                ; loop through all rows
ROM:1A34 32 29 80                    ld      (obj_shadow_plus_7+0x22), a             ; row20, colour
ROM:1A37 32 2B 80                    ld      (obj_shadow_plus_7+0x24), a             ; row21, colour
ROM:1A3A 32 31 80                    ld      (obj_shadow_plus_7+0x2A), a             ; row24, colour
ROM:1A3D 32 33 80                    ld      (obj_shadow_plus_7+0x2C), a             ; row25, colour
ROM:1A40 3E 02                       ld      a, #2
ROM:1A42 32 0D 80                    ld      (obj_shadow_plus_7+6), a                ; row6, colour
ROM:1A45 32 0F 80                    ld      (obj_shadow_plus_7+8), a                ; row7, colour
ROM:1A48 32 15 80                    ld      (obj_shadow_plus_7+0xE), a              ; row10, colour
ROM:1A4B 32 17 80                    ld      (obj_shadow_plus_7+0x10), a             ; row11, colour
ROM:1A4E 32 19 80                    ld      (obj_shadow_plus_7+0x12), a             ; row12, colour
ROM:1A51 32 1B 80                    ld      (obj_shadow_plus_7+0x14), a             ; row13, colour
ROM:1A54 C9                          ret
ROM:1A54             ; End of function reset_row_colour_regs
ROM:1A54
ROM:1A55
ROM:1A55             ; =============== S U B R O U T I N E =======================================
ROM:1A55
ROM:1A55
ROM:1A55             sub_1A55:                                                       ; ...
ROM:1A55
ROM:1A55             ; FUNCTION CHUNK AT ROM:1AAD SIZE 0000046F BYTES
ROM:1A55
ROM:1A55 3A FE 83                    ld      a, (f_in_game)
ROM:1A58 B7                          or      a                                       ; in game?
ROM:1A59 28 34                       jr      Z, loc_1A8F                             ; no, skip
ROM:1A5B CD BB 28                    call    sub_28BB
ROM:1A5E CD 1D 29                    call    sub_291D
ROM:1A61 CD EA 27                    call    sub_27EA
ROM:1A64 CD A6 26                    call    sub_26A6
ROM:1A67 CD 06 29                    call    sub_2906
ROM:1A6A 3A 40 83                    ld      a, (byte_8340)
ROM:1A6D A7                          and     a
ROM:1A6E C4 9F 1A                    call    NZ, sub_1A9F
ROM:1A71 CD EB 23                    call    inc_next_creature_home_num
ROM:1A74 3A B7 83                    ld      a, (curr_level)
ROM:1A77 CB 47                       bit     0, a
ROM:1A79 CA AD 1A                    jp      Z, handle_alligator_in_home             ; even levels = alligator
ROM:1A7C 3A 22 81                    ld      a, (creature_home_timer)
ROM:1A7F 3C                          inc     a                                       ; inc timer
ROM:1A80 32 22 81                    ld      (creature_home_timer), a                ; update
ROM:1A83 A7                          and     a                                       ; expired?
ROM:1A84 CC FA 23                    call    Z, display_fly_in_home                  ; yes, go
ROM:1A87 3A 22 81                    ld      a, (creature_home_timer)
ROM:1A8A FE 70                       cp      #112
ROM:1A8C CC CE 25                    call    Z, clear_creature_from_home
ROM:1A8F
ROM:1A8F             loc_1A8F:                                                       ; ...
ROM:1A8F 3A 47 80                    ld      a, (spr_shadow+7)                       ; sprite 1 base3 (frog X)
ROM:1A92 FE 31                       cp      #49                                     ; top row?
ROM:1A94 DA FF 1C                    jp      C, handle_frog_home_row                 ; yes, go
ROM:1A97 3A FE 83                    ld      a, (f_in_game)
ROM:1A9A B7                          or      a                                       ; in game?
ROM:1A9B C8                          ret     Z                                       ; no, exit
ROM:1A9C C3 CB 1A                    jp      loc_1ACB
ROM:1A9C             ; End of function sub_1A55
ROM:1A9C
ROM:1A9F
ROM:1A9F             ; =============== S U B R O U T I N E =======================================
ROM:1A9F
ROM:1A9F
ROM:1A9F             sub_1A9F:                                                       ; ...
ROM:1A9F 3D                          dec     a
ROM:1AA0 32 40 83                    ld      (byte_8340), a
ROM:1AA3 FE 01                       cp      #1
ROM:1AA5 C0                          ret     NZ
ROM:1AA6 CD 9A 26                    call    clear_sprite7
ROM:1AA9 CD DE 27                    call    clear_sprite0
ROM:1AAC C9                          ret
ROM:1AAC             ; End of function sub_1A9F
ROM:1AAC
ROM:1AAD             ; ---------------------------------------------------------------------------
ROM:1AAD             ; START OF FUNCTION CHUNK FOR sub_1A55
ROM:1AAD
ROM:1AAD             handle_alligator_in_home:                                       ; ...
ROM:1AAD 3A 22 81                    ld      a, (creature_home_timer)
ROM:1AB0 3C                          inc     a                                       ; inc timer
ROM:1AB1 32 22 81                    ld      (creature_home_timer), a
ROM:1AB4 A7                          and     a
ROM:1AB5 CC 96 24                    call    Z, display_alligator_appearing_in_home
ROM:1AB8 3A 22 81                    ld      a, (creature_home_timer)
ROM:1ABB FE 50                       cp      #0x50 ; 'P'
ROM:1ABD CC 32 25                    call    Z, display_alligator_in_home
ROM:1AC0 3A 22 81                    ld      a, (creature_home_timer)
ROM:1AC3 FE B0                       cp      #0xB0 ; '°'
ROM:1AC5 CC CE 25                    call    Z, clear_creature_from_home
ROM:1AC8 C3 8F 1A                    jp      loc_1A8F
ROM:1ACB             ; ---------------------------------------------------------------------------
ROM:1ACB
ROM:1ACB             loc_1ACB:                                                       ; ...
ROM:1ACB 3A 6C 82                    ld      a, (byte_826C)
ROM:1ACE A7                          and     a
ROM:1ACF C0                          ret     NZ
ROM:1AD0 3A 68 82                    ld      a, (byte_8268)
ROM:1AD3 A7                          and     a
ROM:1AD4 28 08                       jr      Z, loc_1ADE
ROM:1AD6 3D                          dec     a
ROM:1AD7 32 68 82                    ld      (byte_8268), a
ROM:1ADA CD EB 23                    call    inc_next_creature_home_num
ROM:1ADD C9                          ret
ROM:1ADE             ; ---------------------------------------------------------------------------
ROM:1ADE
ROM:1ADE             loc_1ADE:                                                       ; ...
ROM:1ADE 3A 04 80                    ld      a, (frog_dead)
ROM:1AE1 A7                          and     a
ROM:1AE2 C0                          ret     NZ
ROM:1AE3 21 44 80                    ld      hl, # spr_shadow+4                      ; sprite1 base0 (frog Y)
ROM:1AE6 11 47 80                    ld      de, # spr_shadow+7                      ; sprite1 base3 (frog X)
ROM:1AE9 3A 04 E0                    ld      a, (ppi8255_0_PC)                       ; IN2
ROM:1AEC CB 5F                       bit     3, a                                    ; cocktail?
ROM:1AEE 28 07                       jr      Z, loc_1AF7                             ; no, skip
ROM:1AF0 3A FD 83                    ld      a, (curr_player)
ROM:1AF3 3D                          dec     a                                       ; player 1?
ROM:1AF4 C2 74 1B                    jp      NZ, loc_1B74                            ; no, go
ROM:1AF7
ROM:1AF7             loc_1AF7:                                                       ; ...
ROM:1AF7 3A 00 E0                    ld      a, (ppi8255_0_PA)                       ; IN2
ROM:1AFA 4F                          ld      c, a                                    ; store
ROM:1AFB
ROM:1AFB             loc_1AFB:                                                       ; ...
ROM:1AFB 3A 48 82                    ld      a, (byte_8248)
ROM:1AFE A7                          and     a
ROM:1AFF C2 BA 1B                    jp      NZ, loc_1BBA
ROM:1B02 3A 04 E0                    ld      a, (ppi8255_0_PC)                       ; IN2
ROM:1B05 CB 5F                       bit     3, a                                    ; cocktail?
ROM:1B07 28 07                       jr      Z, loc_1B10                             ; no, skip
ROM:1B09 3A FD 83                    ld      a, (curr_player)
ROM:1B0C 3D                          dec     a                                       ; player 1?
ROM:1B0D C2 7B 1B                    jp      NZ, loc_1B7B                            ; no, go
ROM:1B10
ROM:1B10             loc_1B10:                                                       ; ...
ROM:1B10 3A 04 E0                    ld      a, (ppi8255_0_PC)                       ; IN2
ROM:1B13 CB 77                       bit     6, a                                    ; 1P DOWN?
ROM:1B15
ROM:1B15             loc_1B15:                                                       ; ...
ROM:1B15 CA 8B 1B                    jp      Z, handle_frog_down                     ; yes, go
ROM:1B18 AF                          xor     a
ROM:1B19 32 4C 82                    ld      (byte_824C), a
ROM:1B1C 32 50 82                    ld      (byte_8250), a
ROM:1B1F 3A 49 82                    ld      a, (byte_8249)
ROM:1B22 A7                          and     a
ROM:1B23 C2 0D 1C                    jp      NZ, loc_1C0D
ROM:1B26 3A 4A 82                    ld      a, (byte_824A)
ROM:1B29 47                          ld      b, a
ROM:1B2A 3A 4B 82                    ld      a, (byte_824B)
ROM:1B2D 80                          add     a, b
ROM:1B2E 20 1D                       jr      NZ, loc_1B4D
ROM:1B30 3A 04 E0                    ld      a, (ppi8255_0_PC)                       ; IN2
ROM:1B33 CB 5F                       bit     3, a                                    ; cocktail?
ROM:1B35 28 07                       jr      Z, loc_1B3E                             ; no, skip
ROM:1B37 3A FD 83                    ld      a, (curr_player)
ROM:1B3A 3D                          dec     a                                       ; player 1?
ROM:1B3B C2 83 1B                    jp      NZ, loc_1B83                            ; no, go
ROM:1B3E
ROM:1B3E             loc_1B3E:                                                       ; ...
ROM:1B3E 3A 04 E0                    ld      a, (ppi8255_0_PC)                       ; IN2
ROM:1B41 CB 67                       bit     4, a                                    ; 1P UP?
ROM:1B43
ROM:1B43             loc_1B43:                                                       ; ...
ROM:1B43 CA E4 1B                    jp      Z, handle_frog_up                       ; yes, go
ROM:1B46 AF                          xor     a
ROM:1B47 32 4D 82                    ld      (byte_824D), a
ROM:1B4A 32 51 82                    ld      (byte_8251), a
ROM:1B4D
ROM:1B4D             loc_1B4D:                                                       ; ...
ROM:1B4D 3A 4A 82                    ld      a, (byte_824A)
ROM:1B50 A7                          and     a
ROM:1B51 C2 76 1C                    jp      NZ, loc_1C76
ROM:1B54 CB 61                       bit     4, c
ROM:1B56 CA 41 1C                    jp      Z, handle_frog_right
ROM:1B59 AF                          xor     a
ROM:1B5A 32 4E 82                    ld      (byte_824E), a
ROM:1B5D 32 52 82                    ld      (byte_8252), a
ROM:1B60 3A 4B 82                    ld      a, (byte_824B)
ROM:1B63 A7                          and     a
ROM:1B64 C2 D5 1C                    jp      NZ, loc_1CD5
ROM:1B67 CB 69                       bit     5, c
ROM:1B69 CA A0 1C                    jp      Z, handle_frog_left
ROM:1B6C AF                          xor     a
ROM:1B6D 32 4F 82                    ld      (byte_824F), a
ROM:1B70 32 53 82                    ld      (byte_8253), a
ROM:1B73 C9                          ret
ROM:1B74             ; ---------------------------------------------------------------------------
ROM:1B74
ROM:1B74             loc_1B74:                                                       ; ...
ROM:1B74 3A 02 E0                    ld      a, (ppi8255_0_PB)                       ; IN1
ROM:1B77 4F                          ld      c, a                                    ; dips, cocktail controls, start
ROM:1B78 C3 FB 1A                    jp      loc_1AFB
ROM:1B7B             ; ---------------------------------------------------------------------------
ROM:1B7B
ROM:1B7B             loc_1B7B:                                                       ; ...
ROM:1B7B 3A 04 E0                    ld      a, (ppi8255_0_PC)                       ; IN2
ROM:1B7E CB 47                       bit     0, a                                    ; 1P DOWN
ROM:1B80 C3 15 1B                    jp      loc_1B15
ROM:1B83             ; ---------------------------------------------------------------------------
ROM:1B83
ROM:1B83             loc_1B83:                                                       ; ...
ROM:1B83 3A 00 E0                    ld      a, (ppi8255_0_PA)                       ; IN0
ROM:1B86 CB 47                       bit     0, a                                    ; 1P UP (cocktail)
ROM:1B88 C3 43 1B                    jp      loc_1B43
ROM:1B8B             ; ---------------------------------------------------------------------------
ROM:1B8B             ; HL = spr_shadow+4 (sprite1 base0 = frog Y)
ROM:1B8B
ROM:1B8B             handle_frog_down:                                               ; ...
ROM:1B8B 3A 47 80                    ld      a, (spr_shadow+7)                       ; sprite 1 base3 (X)
ROM:1B8E FE F0                       cp      #240                                    ; X >= 240?
ROM:1B90 D0                          ret     NC                                      ; yes, exit
ROM:1B91 3A 50 82                    ld      a, (byte_8250)
ROM:1B94 A7                          and     a
ROM:1B95 20 10                       jr      NZ, loc_1BA7
ROM:1B97 3E 04                       ld      a, #4                                   ; snd #4
ROM:1B99 DF                          rst     add_snd_to_q
ROM:1B9A 23                          inc     hl                                      ; sprite1 flip/code, (frog code)
ROM:1B9B 7E                          ld      a, (hl)                                 ; code
ROM:1B9C 2B                          dec     hl
ROM:1B9D FE DE                       cp      #0xDE ; 'Þ'                             ; frog2 (down?)
ROM:1B9F CA B4 1B                    jp      Z, loc_1BB4
ROM:1BA2 3E DE                       ld      a, #0xDE ; 'Þ'                          ; flip = y,x, code = frog2 (down)
ROM:1BA4 32 45 80                    ld      (spr_shadow+5), a                       ; sprite 1, flip/code
ROM:1BA7
ROM:1BA7             loc_1BA7:                                                       ; ...
ROM:1BA7 3A 50 82                    ld      a, (byte_8250)
ROM:1BAA 3C                          inc     a
ROM:1BAB 32 50 82                    ld      (byte_8250), a
ROM:1BAE B7                          or      a
ROM:1BAF C8                          ret     Z
ROM:1BB0 AF                          xor     a
ROM:1BB1 32 50 82                    ld      (byte_8250), a
ROM:1BB4
ROM:1BB4             loc_1BB4:                                                       ; ...
ROM:1BB4 3A 56 82                    ld      a, (byte_8256)
ROM:1BB7 32 50 82                    ld      (byte_8250), a
ROM:1BBA
ROM:1BBA             loc_1BBA:                                                       ; ...
ROM:1BBA 3A 4C 82                    ld      a, (byte_824C)
ROM:1BBD A7                          and     a
ROM:1BBE C0                          ret     NZ
ROM:1BBF 3C                          inc     a
ROM:1BC0 32 48 82                    ld      (byte_8248), a
ROM:1BC3 3A 50 82                    ld      a, (byte_8250)
ROM:1BC6 3D                          dec     a
ROM:1BC7 32 50 82                    ld      (byte_8250), a
ROM:1BCA C2 D8 1B                    jp      NZ, loc_1BD8
ROM:1BCD 32 48 82                    ld      (byte_8248), a
ROM:1BD0 3C                          inc     a
ROM:1BD1 32 4C 82                    ld      (byte_824C), a
ROM:1BD4 23                          inc     hl
ROM:1BD5 36 DE                       ld      (hl), #0xDE ; 'Þ'                       ; flip=y,x, code=frog2 (down)
ROM:1BD7 C9                          ret
ROM:1BD8             ; ---------------------------------------------------------------------------
ROM:1BD8
ROM:1BD8             loc_1BD8:                                                       ; ...
ROM:1BD8 EB                          ex      de, hl
ROM:1BD9 3A 54 82                    ld      a, (byte_8254)
ROM:1BDC 86                          add     a, (hl)
ROM:1BDD 77                          ld      (hl), a
ROM:1BDE EB                          ex      de, hl
ROM:1BDF 23                          inc     hl
ROM:1BE0 3E DC                       ld      a, #0xDC ; 'Ü'                          ; flip = y,x, code = frog0 (up/down)
ROM:1BE2 77                          ld      (hl), a
ROM:1BE3 C9                          ret
ROM:1BE4             ; ---------------------------------------------------------------------------
ROM:1BE4             ; HL = spr_shadow+4 (sprite1 base0 = frog Y)
ROM:1BE4
ROM:1BE4             handle_frog_up:                                                 ; ...
ROM:1BE4 3A 51 82                    ld      a, (byte_8251)
ROM:1BE7 A7                          and     a
ROM:1BE8 20 10                       jr      NZ, loc_1BFA
ROM:1BEA 3E 04                       ld      a, #4                                   ; snd #4
ROM:1BEC DF                          rst     add_snd_to_q
ROM:1BED 23                          inc     hl                                      ; sprite1 flip/code
ROM:1BEE 7E                          ld      a, (hl)                                 ; code
ROM:1BEF 2B                          dec     hl
ROM:1BF0 FE 1E                       cp      #0x1E                                   ; frog2 (up)?
ROM:1BF2 CA 07 1C                    jp      Z, loc_1C07                             ; yes, go
ROM:1BF5 3E 1E                       ld      a, #0x1E                                ; code = frog2 (up)
ROM:1BF7 32 45 80                    ld      (spr_shadow+5), a                       ; sprite #1 flip/code
ROM:1BFA
ROM:1BFA             loc_1BFA:                                                       ; ...
ROM:1BFA 3A 51 82                    ld      a, (byte_8251)
ROM:1BFD 3C                          inc     a
ROM:1BFE 32 51 82                    ld      (byte_8251), a
ROM:1C01 B7                          or      a
ROM:1C02 C8                          ret     Z
ROM:1C03 AF                          xor     a
ROM:1C04 32 51 82                    ld      (byte_8251), a
ROM:1C07
ROM:1C07             loc_1C07:                                                       ; ...
ROM:1C07 3A 57 82                    ld      a, (byte_8257)
ROM:1C0A 32 51 82                    ld      (byte_8251), a
ROM:1C0D
ROM:1C0D             loc_1C0D:                                                       ; ...
ROM:1C0D CD EB 23                    call    inc_next_creature_home_num
ROM:1C10 3A 4D 82                    ld      a, (byte_824D)
ROM:1C13 A7                          and     a
ROM:1C14 C0                          ret     NZ
ROM:1C15 3C                          inc     a
ROM:1C16 32 49 82                    ld      (byte_8249), a
ROM:1C19 3A 51 82                    ld      a, (byte_8251)
ROM:1C1C 3D                          dec     a
ROM:1C1D 32 51 82                    ld      (byte_8251), a
ROM:1C20 C2 33 1C                    jp      NZ, loc_1C33
ROM:1C23 32 49 82                    ld      (byte_8249), a
ROM:1C26 3C                          inc     a
ROM:1C27 32 4D 82                    ld      (byte_824D), a
ROM:1C2A 23                          inc     hl
ROM:1C2B 36 1E                       ld      (hl), #0x1E                             ; frog2 (up)
ROM:1C2D D5                          push    de
ROM:1C2E CD D6 1F                    call    add_hop_fwd_score
ROM:1C31 D1                          pop     de
ROM:1C32 C9                          ret
ROM:1C33             ; ---------------------------------------------------------------------------
ROM:1C33
ROM:1C33             loc_1C33:                                                       ; ...
ROM:1C33 EB                          ex      de, hl
ROM:1C34 3A 54 82                    ld      a, (byte_8254)
ROM:1C37 47                          ld      b, a
ROM:1C38 7E                          ld      a, (hl)
ROM:1C39 90                          sub     b
ROM:1C3A 77                          ld      (hl), a
ROM:1C3B EB                          ex      de, hl
ROM:1C3C 23                          inc     hl
ROM:1C3D 3E 1C                       ld      a, #0x1C                                ; frog0 (up/down)
ROM:1C3F 77                          ld      (hl), a
ROM:1C40 C9                          ret
ROM:1C41             ; ---------------------------------------------------------------------------
ROM:1C41             ; HL = spr_shadow+4 (sprite1 base0 = frog Y)
ROM:1C41
ROM:1C41             handle_frog_right:                                              ; ...
ROM:1C41 3A 47 80                    ld      a, (spr_shadow+7)                       ; sprite 1, base3 (X)
ROM:1C44 FE 30                       cp      #48                                     ; < 48?
ROM:1C46 D8                          ret     C                                       ; yes, exit
ROM:1C47 3A 44 80                    ld      a, (spr_shadow+4)                       ; sprite 1, base0 (Y)
ROM:1C4A FE E0                       cp      #224                                    ; >= 224?
ROM:1C4C D0                          ret     NC                                      ; yes, exit
ROM:1C4D 3A 52 82                    ld      a, (byte_8252)
ROM:1C50 A7                          and     a
ROM:1C51 20 10                       jr      NZ, loc_1C63
ROM:1C53 3E 04                       ld      a, #4
ROM:1C55 DF                          rst     add_snd_to_q
ROM:1C56 23                          inc     hl                                      ; sprite1 flip/code
ROM:1C57 7E                          ld      a, (hl)                                 ; code
ROM:1C58 2B                          dec     hl
ROM:1C59 FE A1                       cp      #0xA1 ; '¡'                             ; frog5 (right)?
ROM:1C5B CA 70 1C                    jp      Z, loc_1C70                             ; yes, skip
ROM:1C5E 3E A1                       ld      a, #0xA1 ; '¡'                          ; flip=y, code=frog5 (right)
ROM:1C60 32 45 80                    ld      (spr_shadow+5), a                       ; sprite 1 flip/code
ROM:1C63
ROM:1C63             loc_1C63:                                                       ; ...
ROM:1C63 3A 52 82                    ld      a, (byte_8252)
ROM:1C66 3C                          inc     a
ROM:1C67 32 52 82                    ld      (byte_8252), a
ROM:1C6A B7                          or      a
ROM:1C6B C8                          ret     Z
ROM:1C6C AF                          xor     a
ROM:1C6D 32 52 82                    ld      (byte_8252), a
ROM:1C70
ROM:1C70             loc_1C70:                                                       ; ...
ROM:1C70 3A 58 82                    ld      a, (byte_8258)
ROM:1C73 32 52 82                    ld      (byte_8252), a
ROM:1C76
ROM:1C76             loc_1C76:                                                       ; ...
ROM:1C76 3A 4E 82                    ld      a, (byte_824E)
ROM:1C79 A7                          and     a
ROM:1C7A C0                          ret     NZ
ROM:1C7B 3C                          inc     a
ROM:1C7C 32 4A 82                    ld      (byte_824A), a
ROM:1C7F 3A 52 82                    ld      a, (byte_8252)
ROM:1C82 3D                          dec     a
ROM:1C83 32 52 82                    ld      (byte_8252), a
ROM:1C86 C2 94 1C                    jp      NZ, loc_1C94
ROM:1C89 32 4A 82                    ld      (byte_824A), a
ROM:1C8C 3C                          inc     a
ROM:1C8D 32 4E 82                    ld      (byte_824E), a
ROM:1C90 23                          inc     hl
ROM:1C91 36 A1                       ld      (hl), #0xA1 ; '¡'                       ; frog5 (right)
ROM:1C93 C9                          ret
ROM:1C94             ; ---------------------------------------------------------------------------
ROM:1C94
ROM:1C94             loc_1C94:                                                       ; ...
ROM:1C94 3A 55 82                    ld      a, (byte_8255)
ROM:1C97 47                          ld      b, a
ROM:1C98 7E                          ld      a, (hl)
ROM:1C99 80                          add     a, b
ROM:1C9A 77                          ld      (hl), a
ROM:1C9B 23                          inc     hl
ROM:1C9C 3E 9F                       ld      a, #0x9F ; 'Ÿ'                          ; flip = y, code = frog3 (left/right)
ROM:1C9E 77                          ld      (hl), a
ROM:1C9F C9                          ret
ROM:1CA0             ; ---------------------------------------------------------------------------
ROM:1CA0             ; HL = spr_shadow+4 (sprite1 base0 = frog Y)
ROM:1CA0
ROM:1CA0             handle_frog_left:                                               ; ...
ROM:1CA0 3A 47 80                    ld      a, (spr_shadow+7)                       ; sprite 1, base3 (X)
ROM:1CA3 FE 30                       cp      #48                                     ; <48?
ROM:1CA5 D8                          ret     C                                       ; yes, exit
ROM:1CA6 3A 44 80                    ld      a, (spr_shadow+4)                       ; sprite 1 base0 (Y)
ROM:1CA9 FE 20                       cp      #32                                     ; <32?
ROM:1CAB D8                          ret     C                                       ; yes, exit
ROM:1CAC 3A 53 82                    ld      a, (byte_8253)
ROM:1CAF A7                          and     a
ROM:1CB0 20 10                       jr      NZ, loc_1CC2
ROM:1CB2 3E 04                       ld      a, #4                                   ; snd #4
ROM:1CB4 DF                          rst     add_snd_to_q
ROM:1CB5 23                          inc     hl
ROM:1CB6 7E                          ld      a, (hl)                                 ; sprite1, flip,code
ROM:1CB7 2B                          dec     hl
ROM:1CB8 FE 21                       cp      #0x21 ; '!'                             ; frog5 (left)?
ROM:1CBA CA CF 1C                    jp      Z, loc_1CCF                             ; yes, skip
ROM:1CBD 3E 21                       ld      a, #0x21 ; '!'                          ; code = frog5 (left)
ROM:1CBF 32 45 80                    ld      (spr_shadow+5), a                       ; sprite1, flip/code
ROM:1CC2
ROM:1CC2             loc_1CC2:                                                       ; ...
ROM:1CC2 3A 53 82                    ld      a, (byte_8253)
ROM:1CC5 3C                          inc     a
ROM:1CC6 32 53 82                    ld      (byte_8253), a
ROM:1CC9 B7                          or      a
ROM:1CCA C8                          ret     Z
ROM:1CCB AF                          xor     a
ROM:1CCC 32 53 82                    ld      (byte_8253), a
ROM:1CCF
ROM:1CCF             loc_1CCF:                                                       ; ...
ROM:1CCF 3A 59 82                    ld      a, (byte_8259)
ROM:1CD2 32 53 82                    ld      (byte_8253), a
ROM:1CD5
ROM:1CD5             loc_1CD5:                                                       ; ...
ROM:1CD5 3A 4F 82                    ld      a, (byte_824F)
ROM:1CD8 A7                          and     a
ROM:1CD9 C0                          ret     NZ
ROM:1CDA 3C                          inc     a
ROM:1CDB 32 4B 82                    ld      (byte_824B), a
ROM:1CDE 3A 53 82                    ld      a, (byte_8253)
ROM:1CE1 3D                          dec     a
ROM:1CE2 32 53 82                    ld      (byte_8253), a
ROM:1CE5 C2 F3 1C                    jp      NZ, loc_1CF3
ROM:1CE8 32 4B 82                    ld      (byte_824B), a
ROM:1CEB 3C                          inc     a
ROM:1CEC 32 4F 82                    ld      (byte_824F), a
ROM:1CEF 23                          inc     hl
ROM:1CF0 36 21                       ld      (hl), #0x21 ; '!'                       ; code = frog5 (left)
ROM:1CF2 C9                          ret
ROM:1CF3             ; ---------------------------------------------------------------------------
ROM:1CF3
ROM:1CF3             loc_1CF3:                                                       ; ...
ROM:1CF3 3A 55 82                    ld      a, (byte_8255)
ROM:1CF6 47                          ld      b, a
ROM:1CF7 7E                          ld      a, (hl)
ROM:1CF8 90                          sub     b
ROM:1CF9 77                          ld      (hl), a
ROM:1CFA 23                          inc     hl
ROM:1CFB 3E 1F                       ld      a, #0x1F                                ; code = frog3 (left/right)
ROM:1CFD 77                          ld      (hl), a
ROM:1CFE C9                          ret
ROM:1CFF             ; ---------------------------------------------------------------------------
ROM:1CFF
ROM:1CFF             handle_frog_home_row:                                           ; ...
ROM:1CFF 3A 44 80                    ld      a, (spr_shadow+4)                       ; sprite 1 base0 (Y)
ROM:1D02 FE 15                       cp      #21
ROM:1D04 DA 77 1D                    jp      C, handle_missed_home
ROM:1D07 FE 1C                       cp      #28
ROM:1D09 CA 87 1D                    jp      Z, handle_home1
ROM:1D0C DA 87 1D                    jp      C, handle_home1
ROM:1D0F FE 2E                       cp      #46
ROM:1D11 DA 77 1D                    jp      C, handle_missed_home
ROM:1D14 FE 35                       cp      #53
ROM:1D16 CA 77 1D                    jp      Z, handle_missed_home
ROM:1D19 DA 77 1D                    jp      C, handle_missed_home
ROM:1D1C FE 45                       cp      #69
ROM:1D1E DA 77 1D                    jp      C, handle_missed_home
ROM:1D21 FE 4C                       cp      #76
ROM:1D23 CA D8 1D                    jp      Z, handle_home2
ROM:1D26 DA D8 1D                    jp      C, handle_home2
ROM:1D29 FE 5E                       cp      #94
ROM:1D2B DA 77 1D                    jp      C, handle_missed_home
ROM:1D2E FE 65                       cp      #101
ROM:1D30 CA 77 1D                    jp      Z, handle_missed_home
ROM:1D33 DA 77 1D                    jp      C, handle_missed_home
ROM:1D36 FE 75                       cp      #117
ROM:1D38 DA 77 1D                    jp      C, handle_missed_home
ROM:1D3B FE 7C                       cp      #124
ROM:1D3D CA 29 1E                    jp      Z, handle_home3
ROM:1D40 DA 29 1E                    jp      C, handle_home3
ROM:1D43 FE 8E                       cp      #142
ROM:1D45 DA 77 1D                    jp      C, handle_missed_home
ROM:1D48 FE 95                       cp      #149
ROM:1D4A CA 77 1D                    jp      Z, handle_missed_home
ROM:1D4D DA 77 1D                    jp      C, handle_missed_home
ROM:1D50 FE A5                       cp      #165
ROM:1D52 DA 77 1D                    jp      C, handle_missed_home
ROM:1D55 FE AC                       cp      #172
ROM:1D57 CA 7A 1E                    jp      Z, hande_home4
ROM:1D5A DA 7A 1E                    jp      C, hande_home4
ROM:1D5D FE BE                       cp      #190
ROM:1D5F DA 77 1D                    jp      C, handle_missed_home
ROM:1D62 FE C5                       cp      #197
ROM:1D64 CA 77 1D                    jp      Z, handle_missed_home
ROM:1D67 DA 77 1D                    jp      C, handle_missed_home
ROM:1D6A FE D5                       cp      #213
ROM:1D6C DA 77 1D                    jp      C, handle_missed_home
ROM:1D6F FE DC                       cp      #220
ROM:1D71 CA CB 1E                    jp      Z, hande_home5
ROM:1D74 DA CB 1E                    jp      C, hande_home5
ROM:1D77
ROM:1D77             handle_missed_home:                                             ; ...
ROM:1D77 3A 47 80                    ld      a, (spr_shadow+7)                       ; sprite 1 base3 (frog X)
ROM:1D7A FE 2A                       cp      #42                                     ; < 42?
ROM:1D7C D2 CB 1A                    jp      NC, loc_1ACB                            ; no, go
ROM:1D7F 3E 01                       ld      a, #1
ROM:1D81 32 04 80                    ld      (frog_dead), a                          ; kill frog
ROM:1D84 C3 CB 1A                    jp      loc_1ACB
ROM:1D87             ; ---------------------------------------------------------------------------
ROM:1D87
ROM:1D87             handle_home1:                                                   ; ...
ROM:1D87 3A FD 83                    ld      a, (curr_player)
ROM:1D8A 3D                          dec     a                                       ; player 1?
ROM:1D8B 20 3C                       jr      NZ, loc_1DC9                            ; no, skip
ROM:1D8D 3A 5E 82                    ld      a, (p1_frog_home_array)                 ; frog 1 home
ROM:1D90
ROM:1D90             loc_1D90:                                                       ; ...
ROM:1D90 A7                          and     a                                       ; home?
ROM:1D91 C0                          ret     NZ                                      ; yes, exit
ROM:1D92 3A 47 80                    ld      a, (spr_shadow+7)                       ; sprite1 base3 (frog X)
ROM:1D95 FE 2A                       cp      #42                                     ; < 42?
ROM:1D97 D2 CB 1A                    jp      NC, loc_1ACB                            ; no, go
ROM:1D9A 06 18                       ld      b, #24                                  ; Y value for '200' sprite
ROM:1D9C 3A 21 81                    ld      a, (creature_home_num)
ROM:1D9F D6 01                       sub     #1                                      ; creature here?
ROM:1DA1 CC 73 26                    call    Z, handle_home_with_creature            ; yes (dead frog will return up the call stack)
ROM:1DA4 21 64 AB                    ld      hl, # VRAM_START+0x364
ROM:1DA7 CD 1C 1F                    call    display_frog_home_add_pts
ROM:1DAA 3A 34 81                    ld      a, (f_got_lady_frog)
ROM:1DAD A7                          and     a
ROM:1DAE 28 09                       jr      Z, loc_1DB9
ROM:1DB0 06 18                       ld      b, #24                                  ; Y value for '200' sprite
ROM:1DB2 CD CB 27                    call    display_200_for_lady_frog
ROM:1DB5 AF                          xor     a
ROM:1DB6 32 34 81                    ld      (f_got_lady_frog), a
ROM:1DB9
ROM:1DB9             loc_1DB9:                                                       ; ...
ROM:1DB9 3A FD 83                    ld      a, (curr_player)
ROM:1DBC 3D                          dec     a                                       ; player 1?
ROM:1DBD 20 0F                       jr      NZ, loc_1DCE                            ; no, go
ROM:1DBF 3E 01                       ld      a, #1
ROM:1DC1 32 5E 82                    ld      (p1_frog_home_array), a                 ; flag frog home
ROM:1DC4 21 5C 82                    ld      hl, #p1_frogs_home_2
ROM:1DC7 34                          inc     (hl)                                    ; inc & update
ROM:1DC8 C9                          ret
ROM:1DC9             ; ---------------------------------------------------------------------------
ROM:1DC9
ROM:1DC9             loc_1DC9:                                                       ; ...
ROM:1DC9 3A 63 82                    ld      a, (p2_frog_home_array)
ROM:1DCC 18 C2                       jr      loc_1D90
ROM:1DCE             ; ---------------------------------------------------------------------------
ROM:1DCE
ROM:1DCE             loc_1DCE:                                                       ; ...
ROM:1DCE 3E 01                       ld      a, #1
ROM:1DD0 32 63 82                    ld      (p2_frog_home_array), a                 ; flag frog home
ROM:1DD3 21 5D 82                    ld      hl, #p2_frogs_home_2
ROM:1DD6 34                          inc     (hl)                                    ; inc & update
ROM:1DD7 C9                          ret
ROM:1DD8             ; ---------------------------------------------------------------------------
ROM:1DD8
ROM:1DD8             handle_home2:                                                   ; ...
ROM:1DD8 3A FD 83                    ld      a, (curr_player)
ROM:1DDB 3D                          dec     a                                       ; player 1?
ROM:1DDC 20 3C                       jr      NZ, loc_1E1A                            ; no, go
ROM:1DDE 3A 5F 82                    ld      a, (p1_frog_home_array+1)               ; frog 2 home
ROM:1DE1
ROM:1DE1             loc_1DE1:                                                       ; ...
ROM:1DE1 A7                          and     a                                       ; home?
ROM:1DE2 C0                          ret     NZ                                      ; yes, exit
ROM:1DE3 3A 47 80                    ld      a, (spr_shadow+7)                       ; sprite1 base3 (frog X)
ROM:1DE6 FE 2A                       cp      #42
ROM:1DE8 D2 CB 1A                    jp      NC, loc_1ACB
ROM:1DEB 06 48                       ld      b, #72                                  ; Y value for '200' sprite
ROM:1DED 3A 21 81                    ld      a, (creature_home_num)
ROM:1DF0 D6 02                       sub     #2                                      ; creature here?
ROM:1DF2 CC 73 26                    call    Z, handle_home_with_creature            ; yes (dead frog will return up the call stack)
ROM:1DF5 21 A4 AA                    ld      hl, # VRAM_START+0x2A4
ROM:1DF8 CD 1C 1F                    call    display_frog_home_add_pts
ROM:1DFB 3A 34 81                    ld      a, (f_got_lady_frog)
ROM:1DFE A7                          and     a
ROM:1DFF 28 09                       jr      Z, loc_1E0A
ROM:1E01 06 48                       ld      b, #72                                  ; Y value for '200' sprite
ROM:1E03 CD CB 27                    call    display_200_for_lady_frog
ROM:1E06 AF                          xor     a
ROM:1E07 32 34 81                    ld      (f_got_lady_frog), a
ROM:1E0A
ROM:1E0A             loc_1E0A:                                                       ; ...
ROM:1E0A 3A FD 83                    ld      a, (curr_player)
ROM:1E0D 3D                          dec     a
ROM:1E0E 20 0F                       jr      NZ, loc_1E1F
ROM:1E10 3E 01                       ld      a, #1
ROM:1E12 32 5F 82                    ld      (p1_frog_home_array+1), a               ; flag frog home
ROM:1E15 21 5C 82                    ld      hl, #p1_frogs_home_2
ROM:1E18 34                          inc     (hl)                                    ; inc & update
ROM:1E19 C9                          ret
ROM:1E1A             ; ---------------------------------------------------------------------------
ROM:1E1A
ROM:1E1A             loc_1E1A:                                                       ; ...
ROM:1E1A 3A 64 82                    ld      a, (p2_frog_home_array+1)
ROM:1E1D 18 C2                       jr      loc_1DE1
ROM:1E1F             ; ---------------------------------------------------------------------------
ROM:1E1F
ROM:1E1F             loc_1E1F:                                                       ; ...
ROM:1E1F 3E 01                       ld      a, #1
ROM:1E21 32 64 82                    ld      (p2_frog_home_array+1), a               ; flag frog home
ROM:1E24 21 5D 82                    ld      hl, #p2_frogs_home_2
ROM:1E27 34                          inc     (hl)                                    ; inc & update
ROM:1E28 C9                          ret
ROM:1E29             ; ---------------------------------------------------------------------------
ROM:1E29
ROM:1E29             handle_home3:                                                   ; ...
ROM:1E29 3A FD 83                    ld      a, (curr_player)
ROM:1E2C 3D                          dec     a                                       ; player 1?
ROM:1E2D 20 3C                       jr      NZ, loc_1E6B                            ; no, go
ROM:1E2F 3A 60 82                    ld      a, (p1_frog_home_array+2)               ; frog 3 home
ROM:1E32
ROM:1E32             loc_1E32:                                                       ; ...
ROM:1E32 A7                          and     a                                       ; home?
ROM:1E33 C0                          ret     NZ                                      ; no, exit
ROM:1E34 3A 47 80                    ld      a, (spr_shadow+7)                       ; sprite1 base3 (frog X)
ROM:1E37 FE 2A                       cp      #42
ROM:1E39 D2 CB 1A                    jp      NC, loc_1ACB
ROM:1E3C 06 78                       ld      b, #120                                 ; Y value for '200' sprite
ROM:1E3E 3A 21 81                    ld      a, (creature_home_num)
ROM:1E41 D6 03                       sub     #3                                      ; creature here?
ROM:1E43 CC 73 26                    call    Z, handle_home_with_creature            ; yes (dead frog will return up the call stack)
ROM:1E46 21 E4 A9                    ld      hl, # VRAM_START+0x1E4
ROM:1E49 CD 1C 1F                    call    display_frog_home_add_pts
ROM:1E4C 3A 34 81                    ld      a, (f_got_lady_frog)
ROM:1E4F A7                          and     a
ROM:1E50 28 09                       jr      Z, loc_1E5B
ROM:1E52 06 78                       ld      b, #120                                 ; Y value for '200' sprite
ROM:1E54 CD CB 27                    call    display_200_for_lady_frog
ROM:1E57 AF                          xor     a
ROM:1E58 32 34 81                    ld      (f_got_lady_frog), a
ROM:1E5B
ROM:1E5B             loc_1E5B:                                                       ; ...
ROM:1E5B 3A FD 83                    ld      a, (curr_player)
ROM:1E5E 3D                          dec     a                                       ; player 1?
ROM:1E5F 20 0F                       jr      NZ, loc_1E70                            ; no, go
ROM:1E61 3E 01                       ld      a, #1
ROM:1E63 32 60 82                    ld      (p1_frog_home_array+2), a               ; flag frog home
ROM:1E66 21 5C 82                    ld      hl, #p1_frogs_home_2
ROM:1E69 34                          inc     (hl)                                    ; inc & update
ROM:1E6A C9                          ret
ROM:1E6B             ; ---------------------------------------------------------------------------
ROM:1E6B
ROM:1E6B             loc_1E6B:                                                       ; ...
ROM:1E6B 3A 65 82                    ld      a, (p2_frog_home_array+2)
ROM:1E6E 18 C2                       jr      loc_1E32
ROM:1E70             ; ---------------------------------------------------------------------------
ROM:1E70
ROM:1E70             loc_1E70:                                                       ; ...
ROM:1E70 3E 01                       ld      a, #1
ROM:1E72 32 65 82                    ld      (p2_frog_home_array+2), a               ; flag frog home
ROM:1E75 21 5D 82                    ld      hl, #p2_frogs_home_2
ROM:1E78 34                          inc     (hl)                                    ; inc & update
ROM:1E79 C9                          ret
ROM:1E7A             ; ---------------------------------------------------------------------------
ROM:1E7A
ROM:1E7A             hande_home4:                                                    ; ...
ROM:1E7A 3A FD 83                    ld      a, (curr_player)
ROM:1E7D 3D                          dec     a                                       ; player 1?
ROM:1E7E 20 3C                       jr      NZ, loc_1EBC                            ; no, go
ROM:1E80 3A 61 82                    ld      a, (p1_frog_home_array+3)               ; frog 4 home
ROM:1E83
ROM:1E83             loc_1E83:                                                       ; ...
ROM:1E83 A7                          and     a                                       ; home?
ROM:1E84 C0                          ret     NZ                                      ; no, return
ROM:1E85 3A 47 80                    ld      a, (spr_shadow+7)                       ; sprite1 base3 (frog X)
ROM:1E88 FE 2A                       cp      #42
ROM:1E8A D2 CB 1A                    jp      NC, loc_1ACB
ROM:1E8D 06 A8                       ld      b, #168                                 ; Y value for '200' sprite
ROM:1E8F 3A 21 81                    ld      a, (creature_home_num)
ROM:1E92 D6 04                       sub     #4                                      ; creature here?
ROM:1E94 CC 73 26                    call    Z, handle_home_with_creature            ; yes (dead frog will return up the call stack)
ROM:1E97 21 24 A9                    ld      hl, # VRAM_START+0x124
ROM:1E9A CD 1C 1F                    call    display_frog_home_add_pts
ROM:1E9D 3A 34 81                    ld      a, (f_got_lady_frog)
ROM:1EA0 A7                          and     a
ROM:1EA1 28 09                       jr      Z, loc_1EAC
ROM:1EA3 06 A8                       ld      b, #168                                 ; Y value for '200' sprite
ROM:1EA5 CD CB 27                    call    display_200_for_lady_frog
ROM:1EA8 AF                          xor     a
ROM:1EA9 32 34 81                    ld      (f_got_lady_frog), a
ROM:1EAC
ROM:1EAC             loc_1EAC:                                                       ; ...
ROM:1EAC 3A FD 83                    ld      a, (curr_player)
ROM:1EAF 3D                          dec     a                                       ; player 1?
ROM:1EB0 20 0F                       jr      NZ, loc_1EC1                            ; no, go
ROM:1EB2 3E 01                       ld      a, #1                                   ; yes (dead frog will return up the call stack)
ROM:1EB4 32 61 82                    ld      (p1_frog_home_array+3), a               ; flag frog home
ROM:1EB7 21 5C 82                    ld      hl, #p1_frogs_home_2
ROM:1EBA 34                          inc     (hl)                                    ; inc & update
ROM:1EBB C9                          ret
ROM:1EBC             ; ---------------------------------------------------------------------------
ROM:1EBC
ROM:1EBC             loc_1EBC:                                                       ; ...
ROM:1EBC 3A 66 82                    ld      a, (p2_frog_home_array+3)
ROM:1EBF 18 C2                       jr      loc_1E83
ROM:1EC1             ; ---------------------------------------------------------------------------
ROM:1EC1
ROM:1EC1             loc_1EC1:                                                       ; ...
ROM:1EC1 3E 01                       ld      a, #1
ROM:1EC3 32 66 82                    ld      (p2_frog_home_array+3), a               ; flag frog home
ROM:1EC6 21 5D 82                    ld      hl, #p2_frogs_home_2
ROM:1EC9 34                          inc     (hl)                                    ; inc & update
ROM:1ECA C9                          ret
ROM:1ECB             ; ---------------------------------------------------------------------------
ROM:1ECB
ROM:1ECB             hande_home5:                                                    ; ...
ROM:1ECB 3A FD 83                    ld      a, (curr_player)
ROM:1ECE 3D                          dec     a                                       ; player 1?
ROM:1ECF 20 3C                       jr      NZ, loc_1F0D                            ; no, go
ROM:1ED1 3A 62 82                    ld      a, (p1_frog_home_array+4)               ; frog 5 home
ROM:1ED4
ROM:1ED4             loc_1ED4:                                                       ; ...
ROM:1ED4 A7                          and     a                                       ; home?
ROM:1ED5 C0                          ret     NZ                                      ; no, exit
ROM:1ED6 3A 47 80                    ld      a, (spr_shadow+7)                       ; sprite1 base3 (frog X)
ROM:1ED9 FE 2A                       cp      #42
ROM:1EDB D2 CB 1A                    jp      NC, loc_1ACB
ROM:1EDE 06 D8                       ld      b, #216                                 ; Y value for '200' sprite
ROM:1EE0 3A 21 81                    ld      a, (creature_home_num)
ROM:1EE3 D6 05                       sub     #5                                      ; creature here?
ROM:1EE5 CC 73 26                    call    Z, handle_home_with_creature            ; yes (dead frog will return up the call stack)
ROM:1EE8 21 64 A8                    ld      hl, # VRAM_START+0x64
ROM:1EEB CD 1C 1F                    call    display_frog_home_add_pts
ROM:1EEE 3A 34 81                    ld      a, (f_got_lady_frog)
ROM:1EF1 A7                          and     a
ROM:1EF2 28 09                       jr      Z, loc_1EFD
ROM:1EF4 06 D8                       ld      b, #216                                 ; Y value for '200' sprite
ROM:1EF6 CD CB 27                    call    display_200_for_lady_frog
ROM:1EF9 AF                          xor     a
ROM:1EFA 32 34 81                    ld      (f_got_lady_frog), a
ROM:1EFD
ROM:1EFD             loc_1EFD:                                                       ; ...
ROM:1EFD 3A FD 83                    ld      a, (curr_player)
ROM:1F00 3D                          dec     a                                       ; player 1?
ROM:1F01 20 0F                       jr      NZ, loc_1F12                            ; no, go
ROM:1F03 3E 01                       ld      a, #1
ROM:1F05 32 62 82                    ld      (p1_frog_home_array+4), a               ; flag frog home
ROM:1F08 21 5C 82                    ld      hl, #p1_frogs_home_2
ROM:1F0B 34                          inc     (hl)                                    ; inc & update
ROM:1F0C C9                          ret
ROM:1F0D             ; ---------------------------------------------------------------------------
ROM:1F0D
ROM:1F0D             loc_1F0D:                                                       ; ...
ROM:1F0D 3A 67 82                    ld      a, (p2_frog_home_array+4)
ROM:1F10 18 C2                       jr      loc_1ED4
ROM:1F12             ; ---------------------------------------------------------------------------
ROM:1F12
ROM:1F12             loc_1F12:                                                       ; ...
ROM:1F12 3E 01                       ld      a, #1
ROM:1F14 32 67 82                    ld      (p2_frog_home_array+4), a               ; flag frog home
ROM:1F17 21 5D 82                    ld      hl, #p2_frogs_home_2
ROM:1F1A 34                          inc     (hl)                                    ; inc & update
ROM:1F1B C9                          ret
ROM:1F1B             ; END OF FUNCTION CHUNK FOR sub_1A55
ROM:1F1C
ROM:1F1C             ; =============== S U B R O U T I N E =======================================
ROM:1F1C
ROM:1F1C
ROM:1F1C             display_frog_home_add_pts:                                      ; ...
ROM:1F1C 3A 34 81                    ld      a, (f_got_lady_frog)
ROM:1F1F A7                          and     a
ROM:1F20 28 09                       jr      Z, display_frog_home_add_50pts
ROM:1F22 11 20 00                    ld      de, #0x20 ; ' '                         ; 200 pts
ROM:1F25 CD E0 08                    call    add_DE_to_score
ROM:1F28 CD BC 27                    call    clear_lady_frog_sprite
ROM:1F2B
ROM:1F2B             display_frog_home_add_50pts:                                    ; ...
ROM:1F2B 36 6C                       ld      (hl), #0x6C ; 'l'
ROM:1F2D 23                          inc     hl
ROM:1F2E 36 6D                       ld      (hl), #0x6D ; 'm'
ROM:1F30 01 1F 00                    ld      bc, #0x1F
ROM:1F33 09                          add     hl, bc
ROM:1F34 36 6E                       ld      (hl), #0x6E ; 'n'
ROM:1F36 23                          inc     hl
ROM:1F37 36 6F                       ld      (hl), #0x6F ; 'o'
ROM:1F39 E5                          push    hl
ROM:1F3A D5                          push    de
ROM:1F3B 11 05 00                    ld      de, #5                                  ; 50 pts
ROM:1F3E CD E0 08                    call    add_DE_to_score
ROM:1F41 CD C5 08                    call    print_time
ROM:1F44 3A FE 83                    ld      a, (f_in_game)
ROM:1F47 B7                          or      a                                       ; in game?
ROM:1F48 28 4A                       jr      Z, loc_1F94                             ; no, skip
ROM:1F4A AF                          xor     a
ROM:1F4B 67                          ld      h, a
ROM:1F4C 6F                          ld      l, a
ROM:1F4D 22 82 83                    ld      (word_8382), hl
ROM:1F50 DF                          rst     add_snd_to_q
ROM:1F51 3E F0                       ld      a, #0xF0 ; 'ð'
ROM:1F53 DF                          rst     add_snd_to_q
ROM:1F54 3A FD 83                    ld      a, (curr_player)
ROM:1F57 21 5C 82                    ld      hl, #p1_frogs_home_2
ROM:1F5A 3D                          dec     a                                       ; player 1?
ROM:1F5B 28 01                       jr      Z, loc_1F5E                             ; yes, skip
ROM:1F5D 2C                          inc     l
ROM:1F5E
ROM:1F5E             loc_1F5E:                                                       ; ...
ROM:1F5E 7E                          ld      a, (hl)
ROM:1F5F FE 04                       cp      #4
ROM:1F61 28 1E                       jr      Z, loc_1F81
ROM:1F63 3E 08                       ld      a, #8
ROM:1F65 DF                          rst     add_snd_to_q
ROM:1F66 3E 0E                       ld      a, #0xE
ROM:1F68 DF                          rst     add_snd_to_q
ROM:1F69 21 81 83                    ld      hl, #byte_8381
ROM:1F6C 35                          dec     (hl)
ROM:1F6D 20 02                       jr      NZ, loc_1F71
ROM:1F6F 36 14                       ld      (hl), #0x14
ROM:1F71
ROM:1F71             loc_1F71:                                                       ; ...
ROM:1F71 7E                          ld      a, (hl)
ROM:1F72 21 87 2E                    ld      hl, # attract_mode_frog_move_data+0x1E
ROM:1F75 87                          add     a, a
ROM:1F76 85                          add     a, l
ROM:1F77 6F                          ld      l, a
ROM:1F78 7E                          ld      a, (hl)
ROM:1F79 2C                          inc     l
ROM:1F7A 66                          ld      h, (hl)
ROM:1F7B 6F                          ld      l, a
ROM:1F7C 22 82 83                    ld      (word_8382), hl
ROM:1F7F 18 13                       jr      loc_1F94
ROM:1F81             ; ---------------------------------------------------------------------------
ROM:1F81
ROM:1F81             loc_1F81:                                                       ; ...
ROM:1F81 32 2F 84                    ld      (byte_842F), a
ROM:1F84 CD E6 07                    call    check_and_clear_8420
ROM:1F87 21 40 B0                    ld      hl, #SPRAM_START
ROM:1F8A 01 00 18                    ld      bc, #0x1800
ROM:1F8D
ROM:1F8D             loc_1F8D:                                                       ; ...
ROM:1F8D 71                          ld      (hl), c
ROM:1F8E 2C                          inc     l
ROM:1F8F 10 FC                       djnz    loc_1F8D
ROM:1F91 CD BC 27                    call    clear_lady_frog_sprite
ROM:1F94
ROM:1F94             loc_1F94:                                                       ; ...
ROM:1F94 3E 20                       ld      a, #0x20 ; ' '
ROM:1F96 32 6A 82                    ld      (byte_826A), a
ROM:1F99 3E 80                       ld      a, #128
ROM:1F9B DF                          rst     add_snd_to_q
ROM:1F9C 21 44 80                    ld      hl, # spr_shadow+4                      ; sprite1 (frog)
ROM:1F9F AF                          xor     a
ROM:1FA0 77                          ld      (hl), a
ROM:1FA1 23                          inc     hl
ROM:1FA2 77                          ld      (hl), a
ROM:1FA3 23                          inc     hl
ROM:1FA4 77                          ld      (hl), a
ROM:1FA5 23                          inc     hl
ROM:1FA6 36 F0                       ld      (hl), #240                              ; sprite1 base3 (frog X)
ROM:1FA8 D1                          pop     de
ROM:1FA9 E1                          pop     hl
ROM:1FAA AF                          xor     a
ROM:1FAB 32 9B 82                    ld      (byte_829B), a
ROM:1FAE 32 EA 83                    ld      (byte_83EA), a
ROM:1FB1 32 4D 82                    ld      (byte_824D), a
ROM:1FB4 32 49 82                    ld      (byte_8249), a
ROM:1FB7 32 51 82                    ld      (byte_8251), a
ROM:1FBA 3C                          inc     a
ROM:1FBB 32 6C 82                    ld      (byte_826C), a
ROM:1FBE 32 CD 83                    ld      (byte_83CD), a
ROM:1FC1 3E 10                       ld      a, #0x10
ROM:1FC3 32 68 82                    ld      (byte_8268), a
ROM:1FC6 C9                          ret
ROM:1FC6             ; End of function display_frog_home_add_pts
ROM:1FC6
ROM:1FC7
ROM:1FC7             ; =============== S U B R O U T I N E =======================================
ROM:1FC7
ROM:1FC7
ROM:1FC7             sub_1FC7:                                                       ; ...
ROM:1FC7 3A 6C 82                    ld      a, (byte_826C)
ROM:1FCA A7                          and     a
ROM:1FCB C8                          ret     Z
ROM:1FCC 21 6A 82                    ld      hl, #byte_826A
ROM:1FCF 35                          dec     (hl)
ROM:1FD0 C0                          ret     NZ
ROM:1FD1 AF                          xor     a
ROM:1FD2 32 6C 82                    ld      (byte_826C), a
ROM:1FD5 C9                          ret
ROM:1FD5             ; End of function sub_1FC7
ROM:1FD5
ROM:1FD6
ROM:1FD6             ; =============== S U B R O U T I N E =======================================
ROM:1FD6
ROM:1FD6
ROM:1FD6             add_hop_fwd_score:                                              ; ...
ROM:1FD6 3A 47 80                    ld      a, (spr_shadow+7)                       ; sprite 1 base3
ROM:1FD9 FE 30                       cp      #48                                     ; in bounds?
ROM:1FDB D8                          ret     C                                       ; no,exit
ROM:1FDC FE D0                       cp      #208                                    ; in bounds?
ROM:1FDE 4F                          ld      c, a
ROM:1FDF 28 17                       jr      Z, loc_1FF8                             ; yes, go
ROM:1FE1 D0                          ret     NC                                      ; no, exit
ROM:1FE2
ROM:1FE2             loc_1FE2:                                                       ; ...
ROM:1FE2 3A 69 82                    ld      a, (farthest_fwd)
ROM:1FE5 B9                          cp      c                                       ; been this far?
ROM:1FE6 D8                          ret     C                                       ; yes, exit
ROM:1FE7 C8                          ret     Z                                       ; yes, exit
ROM:1FE8 79                          ld      a, c
ROM:1FE9 32 69 82                    ld      (farthest_fwd), a                       ; update
ROM:1FEC 11 01 00                    ld      de, #1                                  ; 10 pts
ROM:1FEF FE 80                       cp      #128                                    ; top???
ROM:1FF1 C8                          ret     Z                                       ; yes, exit
ROM:1FF2 E5                          push    hl
ROM:1FF3 CD E0 08                    call    add_DE_to_score
ROM:1FF6 E1                          pop     hl
ROM:1FF7 C9                          ret
ROM:1FF8             ; ---------------------------------------------------------------------------
ROM:1FF8
ROM:1FF8             loc_1FF8:                                                       ; ...
ROM:1FF8 3A 69 82                    ld      a, (farthest_fwd)
ROM:1FFB A7                          and     a                                       ; bottom row?
ROM:1FFC 20 E4                       jr      NZ, loc_1FE2                            ; no, go
ROM:1FFE 3E E0                       ld      a, #224
ROM:2000 32 69 82                    ld      (farthest_fwd), a
ROM:2003 18 DD                       jr      loc_1FE2
ROM:2003             ; End of function add_hop_fwd_score
ROM:2003
ROM:2005
ROM:2005             ; =============== S U B R O U T I N E =======================================
ROM:2005
ROM:2005
ROM:2005             handle_diving_turtles:                                          ; ...
ROM:2005 DD 21 73 82                 ld      ix, #turtle_duo_data
ROM:2009 DD 7E 02                    ld      a, 2(ix)
ROM:200C 32 1A 81                    ld      (turtle_duo_data_2ix), a
ROM:200F
ROM:200F             loc_200F:
ROM:200F 3A 10 81                    ld      a, (turtle_duo_timer)
ROM:2012 3C                          inc     a                                       ; inc timer
ROM:2013 32 10 81                    ld      (turtle_duo_timer), a                   ; update
ROM:2016 FE 50                       cp      #0x50 ; 'P'                             ; time to dive?
ROM:2018 D4 FB 20                    call    NC, handle_diving_turtle_duo            ; yes, go
ROM:201B DD 21 7C 82                 ld      ix, #turtle_trio_data
ROM:201F DD 7E 02                    ld      a, 2(ix)
ROM:2022 32 19 81                    ld      (turtle_trio_data_2ix), a
ROM:2025 3A 11 81                    ld      a, (turtle_trio_timer)
ROM:2028 3C                          inc     a
ROM:2029 3C                          inc     a                                       ; inc timer
ROM:202A 32 11 81                    ld      (turtle_trio_timer), a                  ; update
ROM:202D FE A0                       cp      #0xA0 ; ' '                             ; time to dive?
ROM:202F DC 9C 21                    call    C, handle_diving_turtle_trio            ; yes, go
ROM:2032 3A 6E 82                    ld      a, (byte_826E)
ROM:2035 3C                          inc     a
ROM:2036 32 6E 82                    ld      (byte_826E), a
ROM:2039 FE 10                       cp      #0x10
ROM:203B CA 49 20                    jp      Z, loc_2049
ROM:203E FE 20                       cp      #0x20 ; ' '
ROM:2040 CA 6F 20                    jp      Z, loc_206F
ROM:2043 FE 30                       cp      #0x30 ; '0'
ROM:2045 CA 95 20                    jp      Z, loc_2095
ROM:2048 C9                          ret
ROM:2049             ; ---------------------------------------------------------------------------
ROM:2049
ROM:2049             loc_2049:                                                       ; ...
ROM:2049 21 73 82                    ld      hl, #turtle_duo_data
ROM:204C 7E                          ld      a, (hl)
ROM:204D 23                          inc     hl
ROM:204E 46                          ld      b, (hl)
ROM:204F 21 1A 81                    ld      hl, #turtle_duo_data_2ix
ROM:2052 4E                          ld      c, (hl)
ROM:2053 11 23 14                    ld      de, #byte_1423
ROM:2056 32 B1 81                    ld      (byte_81B1), a
ROM:2059 CD CC 20                    call    sub_20CC
ROM:205C 21 7C 82                    ld      hl, #turtle_trio_data
ROM:205F 7E                          ld      a, (hl)
ROM:2060 23                          inc     hl
ROM:2061 46                          ld      b, (hl)
ROM:2062 21 19 81                    ld      hl, #turtle_trio_data_2ix
ROM:2065 4E                          ld      c, (hl)
ROM:2066 11 5F 14                    ld      de, #byte_145F
ROM:2069 32 B1 81                    ld      (byte_81B1), a
ROM:206C C3 BF 20                    jp      loc_20BF
ROM:206F             ; ---------------------------------------------------------------------------
ROM:206F
ROM:206F             loc_206F:                                                       ; ...
ROM:206F 21 73 82                    ld      hl, #turtle_duo_data
ROM:2072 7E                          ld      a, (hl)
ROM:2073 23                          inc     hl
ROM:2074 46                          ld      b, (hl)
ROM:2075 21 1A 81                    ld      hl, #turtle_duo_data_2ix
ROM:2078 4E                          ld      c, (hl)
ROM:2079 11 2B 14                    ld      de, #byte_142B
ROM:207C 32 B1 81                    ld      (byte_81B1), a
ROM:207F CD CC 20                    call    sub_20CC
ROM:2082 21 7C 82                    ld      hl, #turtle_trio_data
ROM:2085 7E                          ld      a, (hl)
ROM:2086 23                          inc     hl
ROM:2087 46                          ld      b, (hl)
ROM:2088 21 19 81                    ld      hl, #turtle_trio_data_2ix
ROM:208B 4E                          ld      c, (hl)
ROM:208C 11 73 14                    ld      de, #byte_1473
ROM:208F 32 B1 81                    ld      (byte_81B1), a
ROM:2092 C3 BF 20                    jp      loc_20BF
ROM:2095             ; ---------------------------------------------------------------------------
ROM:2095
ROM:2095             loc_2095:                                                       ; ...
ROM:2095 21 73 82                    ld      hl, #turtle_duo_data
ROM:2098 7E                          ld      a, (hl)
ROM:2099 23                          inc     hl
ROM:209A 46                          ld      b, (hl)
ROM:209B 21 1A 81                    ld      hl, #turtle_duo_data_2ix
ROM:209E 4E                          ld      c, (hl)
ROM:209F 11 33 14                    ld      de, #byte_1433
ROM:20A2 32 B1 81                    ld      (byte_81B1), a
ROM:20A5 AF                          xor     a
ROM:20A6 32 6E 82                    ld      (byte_826E), a
ROM:20A9 CD CC 20                    call    sub_20CC
ROM:20AC 21 7C 82                    ld      hl, #turtle_trio_data
ROM:20AF 7E                          ld      a, (hl)
ROM:20B0 23                          inc     hl
ROM:20B1 46                          ld      b, (hl)
ROM:20B2 21 19 81                    ld      hl, #turtle_trio_data_2ix
ROM:20B5 4E                          ld      c, (hl)
ROM:20B6 11 87 14                    ld      de, #byte_1487
ROM:20B9 32 B1 81                    ld      (byte_81B1), a
ROM:20BC C3 BF 20                    jp      loc_20BF
ROM:20BF             ; ---------------------------------------------------------------------------
ROM:20BF
ROM:20BF             loc_20BF:                                                       ; ...
ROM:20BF 2A F5 13                    ld      hl, (word_13F5)
ROM:20C2 ED 53 01 80                 ld      (word_8000+1), de
ROM:20C6 78                          ld      a, b
ROM:20C7 32 03 80                    ld      (byte_8003), a
ROM:20CA 18 0B                       jr      loc_20D7
ROM:20CA             ; End of function handle_diving_turtles
ROM:20CA
ROM:20CC
ROM:20CC             ; =============== S U B R O U T I N E =======================================
ROM:20CC
ROM:20CC
ROM:20CC             sub_20CC:                                                       ; ...
ROM:20CC 2A EF 13                    ld      hl, (word_13EF)
ROM:20CF ED 53 01 80                 ld      (word_8000+1), de
ROM:20D3 78                          ld      a, b
ROM:20D4 32 03 80                    ld      (byte_8003), a
ROM:20D7
ROM:20D7             loc_20D7:                                                       ; ...
ROM:20D7 1A                          ld      a, (de)
ROM:20D8 77                          ld      (hl), a
ROM:20D9 23                          inc     hl
ROM:20DA 13                          inc     de
ROM:20DB 1A                          ld      a, (de)
ROM:20DC 77                          ld      (hl), a
ROM:20DD 2B                          dec     hl
ROM:20DE D5                          push    de
ROM:20DF 11 20 00                    ld      de, #0x20 ; ' '
ROM:20E2 19                          add     hl, de
ROM:20E3 D1                          pop     de
ROM:20E4 13                          inc     de
ROM:20E5 10 F0                       djnz    loc_20D7
ROM:20E7 3A B1 81                    ld      a, (byte_81B1)
ROM:20EA 5F                          ld      e, a
ROM:20EB 16 00                       ld      d, #0
ROM:20ED 19                          add     hl, de
ROM:20EE 3A 03 80                    ld      a, (byte_8003)
ROM:20F1 47                          ld      b, a
ROM:20F2 ED 5B 01 80                 ld      de, (word_8000+1)
ROM:20F6 0D                          dec     c
ROM:20F7 C2 D7 20                    jp      NZ, loc_20D7
ROM:20FA C9                          ret
ROM:20FA             ; End of function sub_20CC
ROM:20FA
ROM:20FB
ROM:20FB             ; =============== S U B R O U T I N E =======================================
ROM:20FB
ROM:20FB
ROM:20FB             handle_diving_turtle_duo:                                       ; ...
ROM:20FB
ROM:20FB             ; FUNCTION CHUNK AT ROM:2188 SIZE 00000008 BYTES
ROM:20FB
ROM:20FB DD 21 73 82                 ld      ix, #turtle_duo_data
ROM:20FF AF                          xor     a
ROM:2100 67                          ld      h, a
ROM:2101 DD 46 01                    ld      b, 1(ix)
ROM:2104
ROM:2104             loc_2104:                                                       ; ...
ROM:2104 C6 20                       add     a, #32
ROM:2106 10 FC                       djnz    loc_2104                                ; A = 32 x 1(ix) (overflow???)
ROM:2108 4F                          ld      c, a
ROM:2109 DD 6E 00                    ld      l, 0(ix)
ROM:210C 09                          add     hl, bc                                  ; HL = 0(ix) + 32 x 1(ix)
ROM:210D 5D                          ld      e, l
ROM:210E 54                          ld      d, h                                    ; DE = 0(ix) + 32 x 1(ix)
ROM:210F AF                          xor     a
ROM:2110 6F                          ld      l, a
ROM:2111 67                          ld      h, a
ROM:2112 DD 46 02                    ld      b, 2(ix)
ROM:2115 05                          dec     b
ROM:2116
ROM:2116             loc_2116:                                                       ; ...
ROM:2116 19                          add     hl, de
ROM:2117 10 FD                       djnz    loc_2116                                ; HL = (2(ix) - 1) x (0(ix) + 32 x 1(ix))
ROM:2119 11 08 A8                    ld      de, # VRAM_START+8
ROM:211C 19                          add     hl, de                                  ; get vram addr of object
ROM:211D 0E 02                       ld      c, #2                                   ; 2 turtles to display
ROM:211F 3A 10 81                    ld      a, (turtle_duo_timer)
ROM:2122 FE 50                       cp      #0x50 ; 'P'
ROM:2124 CA 3E 21                    jp      Z, turtle_duo_diving_surfacing_1
ROM:2127 FE 80                       cp      #0x80 ; '€'
ROM:2129 CA 4C 21                    jp      Z, turtle_duo_diving_surfacing_2
ROM:212C FE A0                       cp      #0xA0 ; ' '
ROM:212E CA 65 21                    jp      Z, turtle_duo_submerged
ROM:2131 FE B0                       cp      #0xB0 ; '°'
ROM:2133 CA 4C 21                    jp      Z, turtle_duo_diving_surfacing_2
ROM:2136 FE D0                       cp      #0xD0 ; 'Ð'
ROM:2138 CA 3E 21                    jp      Z, turtle_duo_diving_surfacing_1
ROM:213B C3 88 21                    jp      loc_2188
ROM:213E             ; ---------------------------------------------------------------------------
ROM:213E
ROM:213E             turtle_duo_diving_surfacing_1:                                  ; ...
ROM:213E 06 02                       ld      b, #2
ROM:2140 11 90 21                    ld      de, #diving_turtle_duo_codes_1
ROM:2143 CD 78 21                    call    display_2xB_tiles_1
ROM:2146 0D                          dec     c
ROM:2147 20 F5                       jr      NZ, turtle_duo_diving_surfacing_1
ROM:2149 C3 88 21                    jp      loc_2188
ROM:214C             ; ---------------------------------------------------------------------------
ROM:214C
ROM:214C             turtle_duo_diving_surfacing_2:                                  ; ...
ROM:214C 06 02                       ld      b, #2
ROM:214E 11 94 21                    ld      de, #diving_turtle_duo_codes_2
ROM:2151 CD 78 21                    call    display_2xB_tiles_1
ROM:2154 0D                          dec     c
ROM:2155 20 F5                       jr      NZ, turtle_duo_diving_surfacing_2
ROM:2157 3A 07 81                    ld      a, (unk_8107)
ROM:215A A7                          and     a
ROM:215B CA 88 21                    jp      Z, loc_2188
ROM:215E AF                          xor     a
ROM:215F 32 07 81                    ld      (unk_8107), a
ROM:2162 C3 88 21                    jp      loc_2188
ROM:2165             ; ---------------------------------------------------------------------------
ROM:2165
ROM:2165             turtle_duo_submerged:                                           ; ...
ROM:2165 06 02                       ld      b, #2
ROM:2167 11 98 21                    ld      de, #diving_turtle_duo_codes_3
ROM:216A CD 78 21                    call    display_2xB_tiles_1
ROM:216D 0D                          dec     c
ROM:216E 20 F5                       jr      NZ, turtle_duo_submerged
ROM:2170 3E 01                       ld      a, #1
ROM:2172 32 07 81                    ld      (unk_8107), a
ROM:2175 C3 88 21                    jp      loc_2188
ROM:2175             ; End of function handle_diving_turtle_duo
ROM:2175
ROM:2178
ROM:2178             ; =============== S U B R O U T I N E =======================================
ROM:2178
ROM:2178
ROM:2178             display_2xB_tiles_1:                                            ; ...
ROM:2178 1A                          ld      a, (de)                                 ; get code
ROM:2179 77                          ld      (hl), a                                 ; display on screen
ROM:217A 13                          inc     de                                      ; next code
ROM:217B 23                          inc     hl                                      ; next vram addr
ROM:217C 1A                          ld      a, (de)                                 ; get code
ROM:217D 77                          ld      (hl), a                                 ; display on screen
ROM:217E 13                          inc     de                                      ; next code
ROM:217F D5                          push    de
ROM:2180 11 1F 00                    ld      de, #31
ROM:2183 19                          add     hl, de                                  ; next row
ROM:2184 D1                          pop     de
ROM:2185 10 F1                       djnz    display_2xB_tiles_1                     ; loop through all rows
ROM:2187 C9                          ret
ROM:2187             ; End of function display_2xB_tiles_1
ROM:2187
ROM:2188             ; ---------------------------------------------------------------------------
ROM:2188             ; START OF FUNCTION CHUNK FOR handle_diving_turtle_duo
ROM:2188
ROM:2188             loc_2188:                                                       ; ...
ROM:2188 DD 7E 02                    ld      a, 2(ix)
ROM:218B 3D                          dec     a
ROM:218C 32 1A 81                    ld      (turtle_duo_data_2ix), a
ROM:218F C9                          ret
ROM:218F             ; END OF FUNCTION CHUNK FOR handle_diving_turtle_duo
ROM:218F             ; ---------------------------------------------------------------------------
ROM:2190 94 95 96 97 diving_turtle_duo_codes_1:.db 0x94, 0x95, 0x96, 0x97            ; ...
ROM:2194 98 99 9A 9B diving_turtle_duo_codes_2:.db 0x98, 0x99, 0x9A, 0x9B            ; ...
ROM:2198 10 10 10 10 diving_turtle_duo_codes_3:.db 0x10, 0x10, 0x10, 0x10            ; ...
ROM:219C
ROM:219C             ; =============== S U B R O U T I N E =======================================
ROM:219C
ROM:219C
ROM:219C             handle_diving_turtle_trio:                                      ; ...
ROM:219C
ROM:219C             ; FUNCTION CHUNK AT ROM:2229 SIZE 00000008 BYTES
ROM:219C
ROM:219C DD 21 7C 82                 ld      ix, #turtle_trio_data
ROM:21A0 AF                          xor     a
ROM:21A1 67                          ld      h, a
ROM:21A2 DD 46 01                    ld      b, 1(ix)
ROM:21A5
ROM:21A5             loc_21A5:                                                       ; ...
ROM:21A5 C6 20                       add     a, #32
ROM:21A7 10 FC                       djnz    loc_21A5                                ; A = 32 x 1(ix)
ROM:21A9 4F                          ld      c, a
ROM:21AA DD 6E 00                    ld      l, 0(ix)
ROM:21AD 09                          add     hl, bc                                  ; HL = 0(ix) + 32 x 1(ix)
ROM:21AE 5D                          ld      e, l
ROM:21AF 54                          ld      d, h                                    ; DE = 0(ix) + 32 x 1(ix)
ROM:21B0 AF                          xor     a
ROM:21B1 6F                          ld      l, a
ROM:21B2 67                          ld      h, a
ROM:21B3 DD 46 02                    ld      b, 2(ix)
ROM:21B6 05                          dec     b
ROM:21B7
ROM:21B7             loc_21B7:                                                       ; ...
ROM:21B7 19                          add     hl, de
ROM:21B8 10 FD                       djnz    loc_21B7                                ; HL = (2(ix) - 1) x (0(ix) + 32 x 1(ix))
ROM:21BA 11 0E A8                    ld      de, # VRAM_START+0xE
ROM:21BD 19                          add     hl, de                                  ; get vram addr of object
ROM:21BE 0E 03                       ld      c, #3                                   ; 3 turtles to display
ROM:21C0 3A 11 81                    ld      a, (turtle_trio_timer)
ROM:21C3 FE 00                       cp      #0
ROM:21C5 CA DF 21                    jp      Z, turtle_trio_diving_surfacing_1
ROM:21C8 FE 30                       cp      #0x30 ; '0'
ROM:21CA CA ED 21                    jp      Z, turtle_trio_diving_surfacing_2
ROM:21CD FE 50                       cp      #0x50 ; 'P'
ROM:21CF CA 06 22                    jp      Z, turtle_trio_submerged
ROM:21D2 FE 60                       cp      #0x60 ; '`'
ROM:21D4 CA ED 21                    jp      Z, turtle_trio_diving_surfacing_2
ROM:21D7 FE 70                       cp      #0x70 ; 'p'
ROM:21D9 CA DF 21                    jp      Z, turtle_trio_diving_surfacing_1
ROM:21DC C3 29 22                    jp      loc_2229
ROM:21DF             ; ---------------------------------------------------------------------------
ROM:21DF
ROM:21DF             turtle_trio_diving_surfacing_1:                                 ; ...
ROM:21DF 06 02                       ld      b, #2
ROM:21E1 11 31 22                    ld      de, #diving_turtle_trio_codes_1
ROM:21E4 CD 19 22                    call    display_2xB_tiles_2
ROM:21E7 0D                          dec     c
ROM:21E8 20 F5                       jr      NZ, turtle_trio_diving_surfacing_1
ROM:21EA C3 29 22                    jp      loc_2229
ROM:21ED             ; ---------------------------------------------------------------------------
ROM:21ED
ROM:21ED             turtle_trio_diving_surfacing_2:                                 ; ...
ROM:21ED 06 02                       ld      b, #2
ROM:21EF 11 35 22                    ld      de, #diving_turtle_trio_codes_2
ROM:21F2 CD 19 22                    call    display_2xB_tiles_2
ROM:21F5 0D                          dec     c
ROM:21F6 20 F5                       jr      NZ, turtle_trio_diving_surfacing_2
ROM:21F8 3A 08 81                    ld      a, (unk_8108)
ROM:21FB A7                          and     a
ROM:21FC CA 29 22                    jp      Z, loc_2229
ROM:21FF AF                          xor     a
ROM:2200 32 08 81                    ld      (unk_8108), a
ROM:2203 C3 29 22                    jp      loc_2229
ROM:2206             ; ---------------------------------------------------------------------------
ROM:2206
ROM:2206             turtle_trio_submerged:                                          ; ...
ROM:2206 06 02                       ld      b, #2
ROM:2208 11 39 22                    ld      de, #diving_turtle_trio_codes_3
ROM:220B CD 19 22                    call    display_2xB_tiles_2
ROM:220E 0D                          dec     c
ROM:220F 20 F5                       jr      NZ, turtle_trio_submerged
ROM:2211 3E 01                       ld      a, #1
ROM:2213 32 08 81                    ld      (unk_8108), a
ROM:2216 C3 29 22                    jp      loc_2229
ROM:2216             ; End of function handle_diving_turtle_trio
ROM:2216
ROM:2219
ROM:2219             ; =============== S U B R O U T I N E =======================================
ROM:2219
ROM:2219
ROM:2219             display_2xB_tiles_2:                                            ; ...
ROM:2219 1A                          ld      a, (de)                                 ; get code
ROM:221A 77                          ld      (hl), a                                 ; display on screen
ROM:221B 13                          inc     de                                      ; next code
ROM:221C 23                          inc     hl                                      ; next vram addr
ROM:221D 1A                          ld      a, (de)                                 ; get code
ROM:221E 77                          ld      (hl), a                                 ; display on screen
ROM:221F 13                          inc     de                                      ; next code
ROM:2220 D5                          push    de
ROM:2221 11 1F 00                    ld      de, #31
ROM:2224 19                          add     hl, de                                  ; next row
ROM:2225 D1                          pop     de
ROM:2226 10 F1                       djnz    display_2xB_tiles_2                     ; loop through all rows
ROM:2228 C9                          ret
ROM:2228             ; End of function display_2xB_tiles_2
ROM:2228
ROM:2229             ; ---------------------------------------------------------------------------
ROM:2229             ; START OF FUNCTION CHUNK FOR handle_diving_turtle_trio
ROM:2229
ROM:2229             loc_2229:                                                       ; ...
ROM:2229 DD 7E 02                    ld      a, 2(ix)
ROM:222C 3D                          dec     a
ROM:222D 32 19 81                    ld      (turtle_trio_data_2ix), a
ROM:2230 C9                          ret
ROM:2230             ; END OF FUNCTION CHUNK FOR handle_diving_turtle_trio
ROM:2230             ; ---------------------------------------------------------------------------
ROM:2231 94 95 96 97 diving_turtle_trio_codes_1:.db 0x94, 0x95, 0x96, 0x97           ; ...
ROM:2235 98 99 9A 9B diving_turtle_trio_codes_2:.db 0x98, 0x99, 0x9A, 0x9B           ; ...
ROM:2239 10 10 10 10 diving_turtle_trio_codes_3:.db 0x10, 0x10, 0x10, 0x10           ; ...
ROM:223D
ROM:223D             ; =============== S U B R O U T I N E =======================================
ROM:223D
ROM:223D
ROM:223D             update_game_data_for_frogs_home:                                ; ...
ROM:223D D9                          exx
ROM:223E 21 93 82                    ld      hl, #p1_frogs_home
ROM:2241 3A FD 83                    ld      a, (curr_player)
ROM:2244 3D                          dec     a                                       ; player 1?
ROM:2245 28 01                       jr      Z, update_data_for_frogs_home           ; yes, skip
ROM:2247 2C                          inc     l                                       ; p2_frogs_home
ROM:2248
ROM:2248             update_data_for_frogs_home:                                     ; ...
ROM:2248 7E                          ld      a, (hl)                                 ; frogs home
ROM:2249 01 60 22                    ld      bc, #frogs_home_data_tbl_tbl
ROM:224C 26 00                       ld      h, #0
ROM:224E 6F                          ld      l, a                                    ; frogs home
ROM:224F 85                          add     a, l                                    ; frogs home x2
ROM:2250 6F                          ld      l, a
ROM:2251 09                          add     hl, bc                                  ; table offset
ROM:2252 5E                          ld      e, (hl)
ROM:2253 23                          inc     hl
ROM:2254 56                          ld      d, (hl)                                 ; DE = addr from table
ROM:2255 EB                          ex      de, hl                                  ; HL = addr from table
ROM:2256 11 70 82                    ld      de, #unk_8270
ROM:2259 01 21 00                    ld      bc, #33                                 ; 33 bytes to copy
ROM:225C ED B0                       ldir
ROM:225E D9                          exx
ROM:225F C9                          ret
ROM:225F             ; End of function update_game_data_for_frogs_home
ROM:225F
ROM:225F             ; ---------------------------------------------------------------------------
ROM:2260 6A 22       frogs_home_data_tbl_tbl:.dw frogs_home_1_data_tbl               ; ...
ROM:2262 8B 22                       .dw frogs_home_2_data_tbl
ROM:2264 AC 22                       .dw frogs_home_3_data_tbl
ROM:2266 CD 22                       .dw frogs_home_4_data_tbl
ROM:2268 EE 22                       .dw frogs_home_5_data_tbl
ROM:226A 60 08 03 60+frogs_home_1_data_tbl:.db 0x60, 8, 3, 0x60, 4, 4, 0x80, 0xC, 2, 0x80, 6, 3, 0x40, 6, 4 ; ...
ROM:226A 04 04 80 0C+                .db 0x80, 2, 4, 0xE0, 4, 2, 0x60, 2, 1, 0xC0, 2, 3, 0xC0, 2, 3, 0xE0
ROM:226A 02 80 06 03+                .db 2, 3
ROM:228B 60 08 03 40+frogs_home_2_data_tbl:.db 0x60, 8, 3, 0x40, 4, 5, 0x80, 0xC, 1, 0x60, 6, 3, 0xC0, 6, 3 ; ...
ROM:228B 04 05 80 0C+                .db 0x80, 2, 4, 0xE0, 4, 3, 0x60, 2, 2, 0xE0, 2, 4, 0xC0, 2, 4, 0xE0
ROM:228B 01 60 06 03+                .db 2, 4
ROM:22AC 60 08 02 80+frogs_home_3_data_tbl:.db 0x60, 8, 2, 0x80, 4, 4, 0x80, 0xC, 1, 0xC0, 6, 3, 0x60, 6, 3 ; ...
ROM:22AC 04 04 80 0C+                .db 0x80, 2, 4, 0xA0, 4, 3, 0xE0, 2, 2, 0xA0, 2, 5, 0xE0, 2, 4, 0xC0
ROM:22AC 01 C0 06 03+                .db 2, 4
ROM:22CD 60 08 02 A0+frogs_home_4_data_tbl:.db 0x60, 8, 2, 0xA0, 4, 3, 0x80, 0xC, 1, 0xE0, 6, 2, 0x80, 6, 3 ; ...
ROM:22CD 04 03 80 0C+                .db 0x80, 2, 4, 0x80, 4, 4, 0xC0, 2, 3, 0xE0, 2, 4, 0xA0, 2, 4, 0xE0
ROM:22CD 01 E0 06 02+                .db 2, 4
ROM:22EE 60 08 01 E0+frogs_home_5_data_tbl:.db 0x60, 8, 1, 0xE0, 4, 3, 0x80, 0xC, 1, 0xA0, 6, 2, 0xE0, 6, 2 ; ...
ROM:22EE 04 03 80 0C+                .db 0x80, 2, 4, 0x60, 4, 3, 0xA0, 2, 4, 0x80, 2, 5, 0xC0, 2, 4, 0xA0
ROM:22EE 01 A0 06 02+                .db 2, 5
ROM:230F
ROM:230F             ; =============== S U B R O U T I N E =======================================
ROM:230F
ROM:230F
ROM:230F             init_turn:                                                      ; ...
ROM:230F 3A D6 83                    ld      a, (attract_mode_part)                  ; attract mode part
ROM:2312 3D                          dec     a                                       ; ==1?
ROM:2313 C0                          ret     NZ                                      ; no, exit
ROM:2314 3A 9B 82                    ld      a, (byte_829B)
ROM:2317 A7                          and     a
ROM:2318 C0                          ret     NZ
ROM:2319 32 B4 83                    ld      (f_bottom_row_cleared), a               ; reset
ROM:231C CD BA 0A                    call    init_time_bar
ROM:231F CD 29 06                    call    more_clear_wipe
ROM:2322 CD 3D 22                    call    update_game_data_for_frogs_home         ; game logic
ROM:2325 AF                          xor     a
ROM:2326 32 5B 82                    ld      (byte_825B), a
ROM:2329 CD 52 19                    call    draw_grass
ROM:232C 21 50 A8                    ld      hl, # VRAM_START+0x50
ROM:232F CD E2 19                    call    draw_purple_footpath
ROM:2332 CD AA 09                    call    init_frog_for_turn_start
ROM:2335 CD AF 0F                    call    jp_jump_table_FBE
ROM:2338 3E 01                       ld      a, #1
ROM:233A 32 5B 82                    ld      (byte_825B), a
ROM:233D 32 9B 82                    ld      (byte_829B), a
ROM:2340 C9                          ret
ROM:2340             ; End of function init_turn
ROM:2340
ROM:2341
ROM:2341             ; =============== S U B R O U T I N E =======================================
ROM:2341
ROM:2341
ROM:2341             handle_attract_mode_gameplay:                                   ; ...
ROM:2341 3A D6 83                    ld      a, (attract_mode_part)
ROM:2344 3D                          dec     a                                       ; ==1?
ROM:2345 C0                          ret     NZ                                      ; no, exit
ROM:2346 3A 9B 82                    ld      a, (byte_829B)
ROM:2349 A7                          and     a
ROM:234A C8                          ret     Z
ROM:234B CD 6D 23                    call    handle_frog_movement_attract_mode
ROM:234E CD 55 1A                    call    sub_1A55
ROM:2351 CD B7 23                    call    sub_23B7
ROM:2354 CD 42 09                    call    sub_942
ROM:2357 CD 70 08                    call    sub_870
ROM:235A CD 05 20                    call    handle_diving_turtles
ROM:235D CD 02 18                    call    sub_1802
ROM:2360 CD BF 11                    call    sub_11BF
ROM:2363 CD F8 16                    call    sub_16F8
ROM:2366 CD C7 1F                    call    sub_1FC7
ROM:2369 CD B7 14                    call    update_row_scroll
ROM:236C C9                          ret
ROM:236C             ; End of function handle_attract_mode_gameplay
ROM:236C
ROM:236D
ROM:236D             ; =============== S U B R O U T I N E =======================================
ROM:236D
ROM:236D
ROM:236D             handle_frog_movement_attract_mode:                              ; ...
ROM:236D
ROM:236D             ; FUNCTION CHUNK AT ROM:23E6 SIZE 00000005 BYTES
ROM:236D
ROM:236D 3A 6C 82                    ld      a, (byte_826C)
ROM:2370 B7                          or      a
ROM:2371 C0                          ret     NZ
ROM:2372 3A 04 80                    ld      a, (frog_dead)
ROM:2375 A7                          and     a                                       ; dead?
ROM:2376 C0                          ret     NZ                                      ; yes, exit
ROM:2377 3A 99 82                    ld      a, (attract_frog_move_timer)
ROM:237A A7                          and     a                                       ; time for next move?
ROM:237B C2 E6 23                    jp      NZ, dec_attract_frog_move_timer         ; no, go
ROM:237E 11 47 80                    ld      de, # spr_shadow+7                      ; sprite1, base3 (frog X)
ROM:2381 3E 30                       ld      a, #48
ROM:2383 32 99 82                    ld      (attract_frog_move_timer), a            ; reset timer
ROM:2386 21 9A 82                    ld      hl, #attract_mode_frog_move_cnt
ROM:2389 34                          inc     (hl)                                    ; next entry
ROM:238A 4E                          ld      c, (hl)                                 ; get count
ROM:238B 06 00                       ld      b, #0
ROM:238D 21 68 2E                    ld      hl, #unk_2E68                           ; attract_frog_move_data-1
ROM:2390 09                          add     hl, bc                                  ; offset to next move
ROM:2391 4E                          ld      c, (hl)                                 ; get next move
ROM:2392 0C                          inc     c                                       ; done?
ROM:2393 CA AC 23                    jp      Z, init_attract_mode                    ; yes, go
ROM:2396 21 9C 23                    ld      hl, # loc_239B+1                        ; base of jump table
ROM:2399 09                          add     hl, bc
ROM:239A E5                          push    hl
ROM:239B
ROM:239B             loc_239B:                                                       ; ...
ROM:239B 21 44 80                    ld      hl, # spr_shadow+4                      ; sprite1, base0 (frog Y)
ROM:239E C9                          ret                                             ; jump
ROM:239F             ; ---------------------------------------------------------------------------
ROM:239F C3 A0 1C                    jp      handle_frog_left
ROM:23A2             ; ---------------------------------------------------------------------------
ROM:23A2 C3 41 1C                    jp      handle_frog_right
ROM:23A5             ; ---------------------------------------------------------------------------
ROM:23A5 C3 E4 1B                    jp      handle_frog_up
ROM:23A8             ; ---------------------------------------------------------------------------
ROM:23A8 C3 8B 1B                    jp      handle_frog_down
ROM:23AB             ; ---------------------------------------------------------------------------
ROM:23AB C9                          ret
ROM:23AC             ; ---------------------------------------------------------------------------
ROM:23AC
ROM:23AC             init_attract_mode:                                              ; ...
ROM:23AC AF                          xor     a
ROM:23AD 32 9A 82                    ld      (attract_mode_frog_move_cnt), a
ROM:23B0 32 99 82                    ld      (attract_frog_move_timer), a
ROM:23B3 32 5B 82                    ld      (byte_825B), a
ROM:23B6 C9                          ret
ROM:23B6             ; End of function handle_frog_movement_attract_mode
ROM:23B6
ROM:23B7
ROM:23B7             ; =============== S U B R O U T I N E =======================================
ROM:23B7
ROM:23B7
ROM:23B7             sub_23B7:                                                       ; ...
ROM:23B7 21 44 80                    ld      hl, # spr_shadow+4                      ; sprite1, base0 (frog Y)
ROM:23BA 11 47 80                    ld      de, # spr_shadow+7                      ; sprite1, base3 (frog X)
ROM:23BD 3A 48 82                    ld      a, (byte_8248)
ROM:23C0 A7                          and     a
ROM:23C1 C2 BA 1B                    jp      NZ, loc_1BBA
ROM:23C4 32 4C 82                    ld      (byte_824C), a
ROM:23C7 3A 49 82                    ld      a, (byte_8249)
ROM:23CA A7                          and     a
ROM:23CB C2 0D 1C                    jp      NZ, loc_1C0D
ROM:23CE 32 4D 82                    ld      (byte_824D), a
ROM:23D1 3A 4A 82                    ld      a, (byte_824A)
ROM:23D4 A7                          and     a
ROM:23D5 C2 76 1C                    jp      NZ, loc_1C76
ROM:23D8 32 4E 82                    ld      (byte_824E), a
ROM:23DB 3A 4B 82                    ld      a, (byte_824B)
ROM:23DE A7                          and     a
ROM:23DF C2 D5 1C                    jp      NZ, loc_1CD5
ROM:23E2 32 4F 82                    ld      (byte_824F), a
ROM:23E5 C9                          ret
ROM:23E5             ; End of function sub_23B7
ROM:23E5
ROM:23E6             ; ---------------------------------------------------------------------------
ROM:23E6             ; START OF FUNCTION CHUNK FOR handle_frog_movement_attract_mode
ROM:23E6
ROM:23E6             dec_attract_frog_move_timer:                                    ; ...
ROM:23E6 3D                          dec     a
ROM:23E7 32 99 82                    ld      (attract_frog_move_timer), a
ROM:23EA C9                          ret
ROM:23EA             ; END OF FUNCTION CHUNK FOR handle_frog_movement_attract_mode
ROM:23EB             ; 'randomises' the home in which a creature will appear
ROM:23EB
ROM:23EB             ; =============== S U B R O U T I N E =======================================
ROM:23EB
ROM:23EB
ROM:23EB             inc_next_creature_home_num:                                     ; ...
ROM:23EB 3A 23 81                    ld      a, (creature_next_home_num)
ROM:23EE 3C                          inc     a                                       ; inc
ROM:23EF 32 23 81                    ld      (creature_next_home_num), a             ; update
ROM:23F2 FE 06                       cp      #6                                      ; invalid?
ROM:23F4 D8                          ret     C                                       ; no, exit
ROM:23F5 AF                          xor     a                                       ; reset
ROM:23F6 32 23 81                    ld      (creature_next_home_num), a             ; update
ROM:23F9 C9                          ret
ROM:23F9             ; End of function inc_next_creature_home_num
ROM:23F9
ROM:23FA
ROM:23FA             ; =============== S U B R O U T I N E =======================================
ROM:23FA
ROM:23FA
ROM:23FA             display_fly_in_home:                                            ; ...
ROM:23FA 3A FD 83                    ld      a, (curr_player)
ROM:23FD 4F                          ld      c, a
ROM:23FE 3A 23 81                    ld      a, (creature_next_home_num)             ; 'random'
ROM:2401 32 21 81                    ld      (creature_home_num), a
ROM:2404 FE 01                       cp      #1
ROM:2406 CA 1E 24                    jp      Z, display_fly_home1
ROM:2409 FE 02                       cp      #2
ROM:240B CA 33 24                    jp      Z, display_fly_home2
ROM:240E FE 03                       cp      #3
ROM:2410 CA 48 24                    jp      Z, display_fly_home3
ROM:2413 FE 04                       cp      #4
ROM:2415 CA 5D 24                    jp      Z, display_fly_home4
ROM:2418 FE 05                       cp      #5
ROM:241A CA 72 24                    jp      Z, display_fly_home5
ROM:241D C9                          ret
ROM:241E             ; ---------------------------------------------------------------------------
ROM:241E
ROM:241E             display_fly_home1:                                              ; ...
ROM:241E 0D                          dec     c                                       ; player 1?
ROM:241F 20 0B                       jr      NZ, loc_242C                            ; no, go
ROM:2421 3A 5E 82                    ld      a, (p1_frog_home_array)
ROM:2424 A7                          and     a
ROM:2425 C0                          ret     NZ
ROM:2426
ROM:2426             loc_2426:                                                       ; ...
ROM:2426 21 64 AB                    ld      hl, # VRAM_START+0x364
ROM:2429 C3 87 24                    jp      display_fly
ROM:242C             ; ---------------------------------------------------------------------------
ROM:242C
ROM:242C             loc_242C:                                                       ; ...
ROM:242C 3A 63 82                    ld      a, (p2_frog_home_array)
ROM:242F A7                          and     a
ROM:2430 C0                          ret     NZ
ROM:2431 18 F3                       jr      loc_2426
ROM:2433             ; ---------------------------------------------------------------------------
ROM:2433
ROM:2433             display_fly_home2:                                              ; ...
ROM:2433 0D                          dec     c
ROM:2434 20 0B                       jr      NZ, loc_2441
ROM:2436 3A 5F 82                    ld      a, (p1_frog_home_array+1)
ROM:2439 A7                          and     a
ROM:243A C0                          ret     NZ
ROM:243B
ROM:243B             loc_243B:                                                       ; ...
ROM:243B 21 A4 AA                    ld      hl, # VRAM_START+0x2A4
ROM:243E C3 87 24                    jp      display_fly
ROM:2441             ; ---------------------------------------------------------------------------
ROM:2441
ROM:2441             loc_2441:                                                       ; ...
ROM:2441 3A 64 82                    ld      a, (p2_frog_home_array+1)
ROM:2444 A7                          and     a
ROM:2445 C0                          ret     NZ
ROM:2446 18 F3                       jr      loc_243B
ROM:2448             ; ---------------------------------------------------------------------------
ROM:2448
ROM:2448             display_fly_home3:                                              ; ...
ROM:2448 0D                          dec     c
ROM:2449 20 0B                       jr      NZ, loc_2456
ROM:244B 3A 60 82                    ld      a, (p1_frog_home_array+2)
ROM:244E A7                          and     a
ROM:244F C0                          ret     NZ
ROM:2450
ROM:2450             loc_2450:                                                       ; ...
ROM:2450 21 E4 A9                    ld      hl, # VRAM_START+0x1E4
ROM:2453 C3 87 24                    jp      display_fly
ROM:2456             ; ---------------------------------------------------------------------------
ROM:2456
ROM:2456             loc_2456:                                                       ; ...
ROM:2456 3A 65 82                    ld      a, (p2_frog_home_array+2)
ROM:2459 A7                          and     a
ROM:245A C0                          ret     NZ
ROM:245B 18 F3                       jr      loc_2450
ROM:245D             ; ---------------------------------------------------------------------------
ROM:245D
ROM:245D             display_fly_home4:                                              ; ...
ROM:245D 0D                          dec     c
ROM:245E 20 0B                       jr      NZ, loc_246B
ROM:2460 3A 61 82                    ld      a, (p1_frog_home_array+3)
ROM:2463 A7                          and     a
ROM:2464 C0                          ret     NZ
ROM:2465
ROM:2465             loc_2465:                                                       ; ...
ROM:2465 21 24 A9                    ld      hl, # VRAM_START+0x124
ROM:2468 C3 87 24                    jp      display_fly
ROM:246B             ; ---------------------------------------------------------------------------
ROM:246B
ROM:246B             loc_246B:                                                       ; ...
ROM:246B 3A 66 82                    ld      a, (p2_frog_home_array+3)
ROM:246E A7                          and     a
ROM:246F C0                          ret     NZ
ROM:2470 18 F3                       jr      loc_2465
ROM:2472             ; ---------------------------------------------------------------------------
ROM:2472
ROM:2472             display_fly_home5:                                              ; ...
ROM:2472 0D                          dec     c
ROM:2473 20 0B                       jr      NZ, loc_2480
ROM:2475 3A 62 82                    ld      a, (p1_frog_home_array+4)
ROM:2478 A7                          and     a
ROM:2479 C0                          ret     NZ
ROM:247A
ROM:247A             loc_247A:                                                       ; ...
ROM:247A 21 64 A8                    ld      hl, # VRAM_START+0x64
ROM:247D C3 87 24                    jp      display_fly
ROM:2480             ; ---------------------------------------------------------------------------
ROM:2480
ROM:2480             loc_2480:                                                       ; ...
ROM:2480 3A 67 82                    ld      a, (p2_frog_home_array+4)
ROM:2483 A7                          and     a
ROM:2484 C0                          ret     NZ
ROM:2485 18 F3                       jr      loc_247A
ROM:2487             ; ---------------------------------------------------------------------------
ROM:2487
ROM:2487             display_fly:                                                    ; ...
ROM:2487 36 2C                       ld      (hl), #0x2C ; ','
ROM:2489 23                          inc     hl
ROM:248A 36 2D                       ld      (hl), #0x2D ; '-'
ROM:248C 01 1F 00                    ld      bc, #31                                 ; column offset
ROM:248F 09                          add     hl, bc
ROM:2490 36 2E                       ld      (hl), #0x2E ; '.'
ROM:2492 23                          inc     hl
ROM:2493 36 2F                       ld      (hl), #0x2F ; '/'
ROM:2495 C9                          ret
ROM:2495             ; End of function display_fly_in_home
ROM:2495
ROM:2496
ROM:2496             ; =============== S U B R O U T I N E =======================================
ROM:2496
ROM:2496
ROM:2496             display_alligator_appearing_in_home:                            ; ...
ROM:2496 3A FD 83                    ld      a, (curr_player)
ROM:2499 4F                          ld      c, a                                    ; store
ROM:249A 3A 23 81                    ld      a, (creature_next_home_num)             ; 'random'
ROM:249D 32 20 81                    ld      (alligator_home_num), a
ROM:24A0 FE 01                       cp      #1
ROM:24A2 CA BA 24                    jp      Z, display_alligator_appear_home1
ROM:24A5 FE 02                       cp      #2
ROM:24A7 CA CF 24                    jp      Z, display_alligator_appear_home2
ROM:24AA FE 03                       cp      #3
ROM:24AC CA E4 24                    jp      Z, display_alligator_appear_home3
ROM:24AF FE 04                       cp      #4
ROM:24B1 CA F9 24                    jp      Z, display_alligator_appear_home4
ROM:24B4 FE 05                       cp      #5
ROM:24B6 CA 0E 25                    jp      Z, display_alligator_appear_home5
ROM:24B9 C9                          ret
ROM:24BA             ; ---------------------------------------------------------------------------
ROM:24BA
ROM:24BA             display_alligator_appear_home1:                                 ; ...
ROM:24BA 0D                          dec     c                                       ; player 1?
ROM:24BB 20 0B                       jr      NZ, loc_24C8                            ; no, skip
ROM:24BD 3A 5E 82                    ld      a, (p1_frog_home_array)
ROM:24C0 A7                          and     a                                       ; frog home?
ROM:24C1 C0                          ret     NZ                                      ; yes, exit
ROM:24C2
ROM:24C2             loc_24C2:                                                       ; ...
ROM:24C2 21 64 AB                    ld      hl, # VRAM_START+0x364
ROM:24C5 C3 23 25                    jp      display_alligator_head_appearing
ROM:24C8             ; ---------------------------------------------------------------------------
ROM:24C8
ROM:24C8             loc_24C8:                                                       ; ...
ROM:24C8 3A 63 82                    ld      a, (p2_frog_home_array)
ROM:24CB A7                          and     a                                       ; frog home?
ROM:24CC C0                          ret     NZ                                      ; yes, exit
ROM:24CD 18 F3                       jr      loc_24C2
ROM:24CF             ; ---------------------------------------------------------------------------
ROM:24CF
ROM:24CF             display_alligator_appear_home2:                                 ; ...
ROM:24CF 0D                          dec     c                                       ; player 11?
ROM:24D0 20 0B                       jr      NZ, loc_24DD                            ; no, skip
ROM:24D2 3A 5F 82                    ld      a, (p1_frog_home_array+1)
ROM:24D5 A7                          and     a                                       ; frog home?
ROM:24D6 C0                          ret     NZ                                      ; yes, exit
ROM:24D7
ROM:24D7             loc_24D7:                                                       ; ...
ROM:24D7 21 A4 AA                    ld      hl, # VRAM_START+0x2A4
ROM:24DA C3 23 25                    jp      display_alligator_head_appearing
ROM:24DD             ; ---------------------------------------------------------------------------
ROM:24DD
ROM:24DD             loc_24DD:                                                       ; ...
ROM:24DD 3A 64 82                    ld      a, (p2_frog_home_array+1)
ROM:24E0 A7                          and     a                                       ; frog home?
ROM:24E1 C0                          ret     NZ                                      ; yes, exit
ROM:24E2 18 F3                       jr      loc_24D7
ROM:24E4             ; ---------------------------------------------------------------------------
ROM:24E4
ROM:24E4             display_alligator_appear_home3:                                 ; ...
ROM:24E4 0D                          dec     c                                       ; player 1?
ROM:24E5 20 0B                       jr      NZ, loc_24F2                            ; no, skip
ROM:24E7 3A 60 82                    ld      a, (p1_frog_home_array+2)
ROM:24EA A7                          and     a                                       ; frog home?
ROM:24EB C0                          ret     NZ                                      ; yes, exit
ROM:24EC
ROM:24EC             loc_24EC:                                                       ; ...
ROM:24EC 21 E4 A9                    ld      hl, # VRAM_START+0x1E4
ROM:24EF C3 23 25                    jp      display_alligator_head_appearing
ROM:24F2             ; ---------------------------------------------------------------------------
ROM:24F2
ROM:24F2             loc_24F2:                                                       ; ...
ROM:24F2 3A 65 82                    ld      a, (p2_frog_home_array+2)
ROM:24F5 A7                          and     a                                       ; frog home?
ROM:24F6 C0                          ret     NZ                                      ; yes, exit
ROM:24F7 18 F3                       jr      loc_24EC
ROM:24F9             ; ---------------------------------------------------------------------------
ROM:24F9
ROM:24F9             display_alligator_appear_home4:                                 ; ...
ROM:24F9 0D                          dec     c                                       ; player 1?
ROM:24FA 20 0B                       jr      NZ, loc_2507                            ; no, skip
ROM:24FC 3A 61 82                    ld      a, (p1_frog_home_array+3)
ROM:24FF A7                          and     a                                       ; frog home?
ROM:2500 C0                          ret     NZ                                      ; yes, exit
ROM:2501
ROM:2501             loc_2501:                                                       ; ...
ROM:2501 21 24 A9                    ld      hl, # VRAM_START+0x124
ROM:2504 C3 23 25                    jp      display_alligator_head_appearing
ROM:2507             ; ---------------------------------------------------------------------------
ROM:2507
ROM:2507             loc_2507:                                                       ; ...
ROM:2507 3A 66 82                    ld      a, (p2_frog_home_array+3)
ROM:250A A7                          and     a                                       ; frog home?
ROM:250B C0                          ret     NZ                                      ; yes, exit
ROM:250C 18 F3                       jr      loc_2501
ROM:250E             ; ---------------------------------------------------------------------------
ROM:250E
ROM:250E             display_alligator_appear_home5:                                 ; ...
ROM:250E 0D                          dec     c                                       ; player 1?
ROM:250F 20 0B                       jr      NZ, loc_251C                            ; no, skip
ROM:2511 3A 62 82                    ld      a, (p1_frog_home_array+4)
ROM:2514 A7                          and     a                                       ; frog home?
ROM:2515 C0                          ret     NZ                                      ; yes, exit
ROM:2516
ROM:2516             loc_2516:                                                       ; ...
ROM:2516 21 64 A8                    ld      hl, # VRAM_START+0x64
ROM:2519 C3 23 25                    jp      display_alligator_head_appearing
ROM:251C             ; ---------------------------------------------------------------------------
ROM:251C
ROM:251C             loc_251C:                                                       ; ...
ROM:251C 3A 67 82                    ld      a, (p2_frog_home_array+4)
ROM:251F A7                          and     a                                       ; frog home?
ROM:2520 C0                          ret     NZ                                      ; yes, exit
ROM:2521 18 F3                       jr      loc_2516
ROM:2523             ; ---------------------------------------------------------------------------
ROM:2523
ROM:2523             display_alligator_head_appearing:                               ; ...
ROM:2523 36 10                       ld      (hl), #0x10
ROM:2525 23                          inc     hl
ROM:2526 36 10                       ld      (hl), #0x10
ROM:2528 01 1F 00                    ld      bc, #0x1F
ROM:252B 09                          add     hl, bc
ROM:252C 36 D0                       ld      (hl), #0xD0 ; 'Ð'
ROM:252E 23                          inc     hl
ROM:252F 36 D1                       ld      (hl), #0xD1 ; 'Ñ'
ROM:2531 C9                          ret
ROM:2531             ; End of function display_alligator_appearing_in_home
ROM:2531
ROM:2532
ROM:2532             ; =============== S U B R O U T I N E =======================================
ROM:2532
ROM:2532
ROM:2532             display_alligator_in_home:                                      ; ...
ROM:2532 3A FD 83                    ld      a, (curr_player)
ROM:2535 4F                          ld      c, a
ROM:2536 3A 20 81                    ld      a, (alligator_home_num)
ROM:2539 32 21 81                    ld      (creature_home_num), a
ROM:253C FE 01                       cp      #1
ROM:253E CA 56 25                    jp      Z, display_alligator_home1
ROM:2541 FE 02                       cp      #2
ROM:2543 CA 6B 25                    jp      Z, display_alligator_home2
ROM:2546 FE 03                       cp      #3
ROM:2548 CA 80 25                    jp      Z, display_alligator_home3
ROM:254B FE 04                       cp      #4
ROM:254D CA 95 25                    jp      Z, display_alligator_home4
ROM:2550 FE 05                       cp      #5
ROM:2552 CA AA 25                    jp      Z, display_alligator_home5
ROM:2555 C9                          ret
ROM:2556             ; ---------------------------------------------------------------------------
ROM:2556
ROM:2556             display_alligator_home1:                                        ; ...
ROM:2556 0D                          dec     c                                       ; player 1?
ROM:2557 20 0B                       jr      NZ, loc_2564                            ; no, skip
ROM:2559 3A 5E 82                    ld      a, (p1_frog_home_array)
ROM:255C A7                          and     a                                       ; frog home?
ROM:255D C0                          ret     NZ                                      ; no, exit
ROM:255E
ROM:255E             loc_255E:                                                       ; ...
ROM:255E 21 64 AB                    ld      hl, # VRAM_START+0x364
ROM:2561 C3 BF 25                    jp      display_alligator_head
ROM:2564             ; ---------------------------------------------------------------------------
ROM:2564
ROM:2564             loc_2564:                                                       ; ...
ROM:2564 3A 63 82                    ld      a, (p2_frog_home_array)
ROM:2567 A7                          and     a                                       ; frog home?
ROM:2568 C0                          ret     NZ                                      ; no, exit
ROM:2569 18 F3                       jr      loc_255E
ROM:256B             ; ---------------------------------------------------------------------------
ROM:256B
ROM:256B             display_alligator_home2:                                        ; ...
ROM:256B 0D                          dec     c                                       ; player 1?
ROM:256C 20 0B                       jr      NZ, loc_2579                            ; no, skip
ROM:256E 3A 5F 82                    ld      a, (p1_frog_home_array+1)
ROM:2571 A7                          and     a                                       ; frog home?
ROM:2572 C0                          ret     NZ                                      ; no, exit
ROM:2573
ROM:2573             loc_2573:                                                       ; ...
ROM:2573 21 A4 AA                    ld      hl, # VRAM_START+0x2A4
ROM:2576 C3 BF 25                    jp      display_alligator_head
ROM:2579             ; ---------------------------------------------------------------------------
ROM:2579
ROM:2579             loc_2579:                                                       ; ...
ROM:2579 3A 64 82                    ld      a, (p2_frog_home_array+1)
ROM:257C A7                          and     a                                       ; frog home?
ROM:257D C0                          ret     NZ                                      ; no, exit
ROM:257E 18 F3                       jr      loc_2573
ROM:2580             ; ---------------------------------------------------------------------------
ROM:2580
ROM:2580             display_alligator_home3:                                        ; ...
ROM:2580 0D                          dec     c                                       ; player 1?
ROM:2581 20 0B                       jr      NZ, loc_258E                            ; no, skip
ROM:2583 3A 60 82                    ld      a, (p1_frog_home_array+2)
ROM:2586 A7                          and     a                                       ; frog home?
ROM:2587 C0                          ret     NZ                                      ; no, exit
ROM:2588
ROM:2588             loc_2588:                                                       ; ...
ROM:2588 21 E4 A9                    ld      hl, # VRAM_START+0x1E4
ROM:258B C3 BF 25                    jp      display_alligator_head
ROM:258E             ; ---------------------------------------------------------------------------
ROM:258E
ROM:258E             loc_258E:                                                       ; ...
ROM:258E 3A 65 82                    ld      a, (p2_frog_home_array+2)
ROM:2591 A7                          and     a                                       ; frog home?
ROM:2592 C0                          ret     NZ                                      ; no, exit
ROM:2593 18 F3                       jr      loc_2588
ROM:2595             ; ---------------------------------------------------------------------------
ROM:2595
ROM:2595             display_alligator_home4:                                        ; ...
ROM:2595 0D                          dec     c                                       ; player 1?
ROM:2596 20 0B                       jr      NZ, loc_25A3                            ; no, skip
ROM:2598 3A 61 82                    ld      a, (p1_frog_home_array+3)
ROM:259B A7                          and     a                                       ; frog home?
ROM:259C C0                          ret     NZ                                      ; no, exit
ROM:259D
ROM:259D             loc_259D:                                                       ; ...
ROM:259D 21 24 A9                    ld      hl, # VRAM_START+0x124
ROM:25A0 C3 BF 25                    jp      display_alligator_head
ROM:25A3             ; ---------------------------------------------------------------------------
ROM:25A3
ROM:25A3             loc_25A3:                                                       ; ...
ROM:25A3 3A 66 82                    ld      a, (p2_frog_home_array+3)
ROM:25A6 A7                          and     a                                       ; frog home?
ROM:25A7 C0                          ret     NZ                                      ; no, exit
ROM:25A8 18 F3                       jr      loc_259D
ROM:25AA             ; ---------------------------------------------------------------------------
ROM:25AA
ROM:25AA             display_alligator_home5:                                        ; ...
ROM:25AA 0D                          dec     c                                       ; player 1?
ROM:25AB 20 0B                       jr      NZ, loc_25B8                            ; no, skip
ROM:25AD 3A 62 82                    ld      a, (p1_frog_home_array+4)
ROM:25B0 A7                          and     a                                       ; frog home?
ROM:25B1 C0                          ret     NZ                                      ; no, exit
ROM:25B2
ROM:25B2             loc_25B2:                                                       ; ...
ROM:25B2 21 64 A8                    ld      hl, # VRAM_START+0x64
ROM:25B5 C3 BF 25                    jp      display_alligator_head
ROM:25B8             ; ---------------------------------------------------------------------------
ROM:25B8
ROM:25B8             loc_25B8:                                                       ; ...
ROM:25B8 3A 67 82                    ld      a, (p2_frog_home_array+4)
ROM:25BB A7                          and     a                                       ; frog home?
ROM:25BC C0                          ret     NZ                                      ; no, exit
ROM:25BD 18 F3                       jr      loc_25B2
ROM:25BF             ; ---------------------------------------------------------------------------
ROM:25BF
ROM:25BF             display_alligator_head:                                         ; ...
ROM:25BF 36 D0                       ld      (hl), #0xD0 ; 'Ð'
ROM:25C1 23                          inc     hl
ROM:25C2 36 D1                       ld      (hl), #0xD1 ; 'Ñ'
ROM:25C4 01 1F 00                    ld      bc, #31                                 ; next row
ROM:25C7 09                          add     hl, bc
ROM:25C8 36 D2                       ld      (hl), #0xD2 ; 'Ò'
ROM:25CA 23                          inc     hl
ROM:25CB 36 D3                       ld      (hl), #0xD3 ; 'Ó'
ROM:25CD C9                          ret
ROM:25CD             ; End of function display_alligator_in_home
ROM:25CD
ROM:25CE
ROM:25CE             ; =============== S U B R O U T I N E =======================================
ROM:25CE
ROM:25CE
ROM:25CE             clear_creature_from_home:                                       ; ...
ROM:25CE 3A FD 83                    ld      a, (curr_player)
ROM:25D1 4F                          ld      c, a
ROM:25D2 3A 21 81                    ld      a, (creature_home_num)
ROM:25D5 FE 01                       cp      #1
ROM:25D7 CA EF 25                    jp      Z, clear_creature_home1
ROM:25DA FE 02                       cp      #2
ROM:25DC CA 04 26                    jp      Z, clear_creature_home2
ROM:25DF FE 03                       cp      #3
ROM:25E1 CA 19 26                    jp      Z, clear_creature_home3
ROM:25E4 FE 04                       cp      #4
ROM:25E6 CA 2E 26                    jp      Z, clear_creature_home4
ROM:25E9 FE 05                       cp      #5
ROM:25EB CA 43 26                    jp      Z, clear_creature_home5
ROM:25EE C9                          ret
ROM:25EF             ; ---------------------------------------------------------------------------
ROM:25EF
ROM:25EF             clear_creature_home1:                                           ; ...
ROM:25EF 0D                          dec     c                                       ; player 1?
ROM:25F0 20 0B                       jr      NZ, loc_25FD                            ; no, skip
ROM:25F2 3A 5E 82                    ld      a, (p1_frog_home_array)
ROM:25F5 A7                          and     a                                       ; frog home?
ROM:25F6 C0                          ret     NZ                                      ; yes, exit
ROM:25F7
ROM:25F7             loc_25F7:                                                       ; ...
ROM:25F7 21 64 AB                    ld      hl, # VRAM_START+0x364
ROM:25FA C3 58 26                    jp      clear_home
ROM:25FD             ; ---------------------------------------------------------------------------
ROM:25FD
ROM:25FD             loc_25FD:                                                       ; ...
ROM:25FD 3A 63 82                    ld      a, (p2_frog_home_array)
ROM:2600 A7                          and     a                                       ; frog home?
ROM:2601 C0                          ret     NZ                                      ; yes, exit
ROM:2602 18 F3                       jr      loc_25F7
ROM:2604             ; ---------------------------------------------------------------------------
ROM:2604
ROM:2604             clear_creature_home2:                                           ; ...
ROM:2604 0D                          dec     c                                       ; player 1?
ROM:2605 20 0B                       jr      NZ, loc_2612                            ; no, skip
ROM:2607 3A 5F 82                    ld      a, (p1_frog_home_array+1)
ROM:260A A7                          and     a                                       ; frog home?
ROM:260B C0                          ret     NZ                                      ; yes, exit
ROM:260C
ROM:260C             loc_260C:                                                       ; ...
ROM:260C 21 A4 AA                    ld      hl, # VRAM_START+0x2A4
ROM:260F C3 58 26                    jp      clear_home
ROM:2612             ; ---------------------------------------------------------------------------
ROM:2612
ROM:2612             loc_2612:                                                       ; ...
ROM:2612 3A 64 82                    ld      a, (p2_frog_home_array+1)
ROM:2615 A7                          and     a                                       ; frog home?
ROM:2616 C0                          ret     NZ                                      ; yes, exit
ROM:2617 18 F3                       jr      loc_260C
ROM:2619             ; ---------------------------------------------------------------------------
ROM:2619
ROM:2619             clear_creature_home3:                                           ; ...
ROM:2619 0D                          dec     c                                       ; player 1?
ROM:261A 20 0B                       jr      NZ, loc_2627                            ; no, skip
ROM:261C 3A 60 82                    ld      a, (p1_frog_home_array+2)
ROM:261F A7                          and     a                                       ; frog home?
ROM:2620 C0                          ret     NZ                                      ; yes, exit
ROM:2621
ROM:2621             loc_2621:                                                       ; ...
ROM:2621 21 E4 A9                    ld      hl, # VRAM_START+0x1E4
ROM:2624 C3 58 26                    jp      clear_home
ROM:2627             ; ---------------------------------------------------------------------------
ROM:2627
ROM:2627             loc_2627:                                                       ; ...
ROM:2627 3A 65 82                    ld      a, (p2_frog_home_array+2)
ROM:262A A7                          and     a                                       ; frog home?
ROM:262B C0                          ret     NZ                                      ; yes, exit
ROM:262C 18 F3                       jr      loc_2621
ROM:262E             ; ---------------------------------------------------------------------------
ROM:262E
ROM:262E             clear_creature_home4:                                           ; ...
ROM:262E 0D                          dec     c                                       ; player 1?
ROM:262F 20 0B                       jr      NZ, loc_263C                            ; no, skip
ROM:2631 3A 61 82                    ld      a, (p1_frog_home_array+3)
ROM:2634 A7                          and     a                                       ; frog home?
ROM:2635 C0                          ret     NZ                                      ; yes, exit
ROM:2636
ROM:2636             loc_2636:                                                       ; ...
ROM:2636 21 24 A9                    ld      hl, # VRAM_START+0x124
ROM:2639 C3 58 26                    jp      clear_home
ROM:263C             ; ---------------------------------------------------------------------------
ROM:263C
ROM:263C             loc_263C:                                                       ; ...
ROM:263C 3A 66 82                    ld      a, (p2_frog_home_array+3)
ROM:263F A7                          and     a                                       ; frog home?
ROM:2640 C0                          ret     NZ                                      ; yes, exit
ROM:2641 18 F3                       jr      loc_2636
ROM:2643             ; ---------------------------------------------------------------------------
ROM:2643
ROM:2643             clear_creature_home5:                                           ; ...
ROM:2643 0D                          dec     c                                       ; player 1?
ROM:2644 20 0B                       jr      NZ, loc_2651                            ; no, skip
ROM:2646 3A 62 82                    ld      a, (p1_frog_home_array+4)
ROM:2649 A7                          and     a                                       ; frog home?
ROM:264A C0                          ret     NZ                                      ; yes, exit
ROM:264B
ROM:264B             loc_264B:                                                       ; ...
ROM:264B 21 64 A8                    ld      hl, # VRAM_START+0x64
ROM:264E C3 58 26                    jp      clear_home
ROM:2651             ; ---------------------------------------------------------------------------
ROM:2651
ROM:2651             loc_2651:                                                       ; ...
ROM:2651 3A 67 82                    ld      a, (p2_frog_home_array+4)
ROM:2654 A7                          and     a                                       ; frog home?
ROM:2655 C0                          ret     NZ                                      ; yes exit
ROM:2656 18 F3                       jr      loc_264B
ROM:2658             ; ---------------------------------------------------------------------------
ROM:2658
ROM:2658             clear_home:                                                     ; ...
ROM:2658 36 10                       ld      (hl), #0x10
ROM:265A 23                          inc     hl
ROM:265B 36 10                       ld      (hl), #0x10
ROM:265D 01 1F 00                    ld      bc, #31
ROM:2660 09                          add     hl, bc
ROM:2661 36 10                       ld      (hl), #0x10
ROM:2663 23                          inc     hl
ROM:2664 36 10                       ld      (hl), #0x10
ROM:2666 3A 04 80                    ld      a, (frog_dead)
ROM:2669 A7                          and     a                                       ; dead?
ROM:266A C0                          ret     NZ                                      ; yes, exit
ROM:266B AF                          xor     a
ROM:266C 32 21 81                    ld      (creature_home_num), a
ROM:266F 32 20 81                    ld      (alligator_home_num), a
ROM:2672 C9                          ret
ROM:2672             ; End of function clear_creature_from_home
ROM:2672
ROM:2673
ROM:2673             ; =============== S U B R O U T I N E =======================================
ROM:2673
ROM:2673
ROM:2673             handle_home_with_creature:                                      ; ...
ROM:2673 3A 20 81                    ld      a, (alligator_home_num)
ROM:2676 A7                          and     a                                       ; alligator here?
ROM:2677 C2 93 26                    jp      NZ, kill_frog                           ; yes, go
ROM:267A 21 5C 80                    ld      hl, # spr_shadow+0x1C                   ; sprite7 base0 (Y)
ROM:267D 70                          ld      (hl), b
ROM:267E 23                          inc     hl                                      ; sprite7 code
ROM:267F 36 19                       ld      (hl), #0x19                             ; code=$19 ('200')
ROM:2681 23                          inc     hl                                      ; sprite7 colour
ROM:2682 36 03                       ld      (hl), #3                                ; colour=3
ROM:2684 23                          inc     hl                                      ; sprite7 base3 (X)
ROM:2685 36 20                       ld      (hl), #32                               ; base3=32
ROM:2687 3E A0                       ld      a, #0xA0 ; ' '
ROM:2689 32 40 83                    ld      (byte_8340), a
ROM:268C 11 20 00                    ld      de, #0x20 ; ' '                         ; 200 pts
ROM:268F CD E0 08                    call    add_DE_to_score
ROM:2692 C9                          ret
ROM:2693             ; ---------------------------------------------------------------------------
ROM:2693
ROM:2693             kill_frog:                                                      ; ...
ROM:2693 3E 01                       ld      a, #1
ROM:2695 32 04 80                    ld      (frog_dead), a
ROM:2698 E1                          pop     hl                                      ; return from CALLING FUNCTION
ROM:2699 C9                          ret
ROM:2699             ; End of function handle_home_with_creature
ROM:2699
ROM:269A
ROM:269A             ; =============== S U B R O U T I N E =======================================
ROM:269A
ROM:269A
ROM:269A             clear_sprite7:                                                  ; ...
ROM:269A 21 5C 80                    ld      hl, # spr_shadow+0x1C                   ; sprite7, base 0 (Y)
ROM:269D AF                          xor     a
ROM:269E 77                          ld      (hl), a
ROM:269F 23                          inc     hl
ROM:26A0 77                          ld      (hl), a
ROM:26A1 23                          inc     hl
ROM:26A2 77                          ld      (hl), a
ROM:26A3 23                          inc     hl
ROM:26A4 77                          ld      (hl), a
ROM:26A5 C9                          ret
ROM:26A5             ; End of function clear_sprite7
ROM:26A5
ROM:26A6
ROM:26A6             ; =============== S U B R O U T I N E =======================================
ROM:26A6
ROM:26A6
ROM:26A6             sub_26A6:                                                       ; ...
ROM:26A6 3A 34 81                    ld      a, (f_got_lady_frog)
ROM:26A9 A7                          and     a                                       ; got it already?
ROM:26AA C2 F0 26                    jp      NZ, update_lady_frog_piggyback          ; yes, go
ROM:26AD DD 21 1B 81                 ld      ix, #unk_811B
ROM:26B1 DD 7E 01                    ld      a, 1(ix)
ROM:26B4 A7                          and     a
ROM:26B5 CC 0D 27                    call    Z, handle_new_lady_frog
ROM:26B8 3A 3D 81                    ld      a, (lady_frog_active)
ROM:26BB CB 47                       bit     0, a
ROM:26BD C2 B3 27                    jp      NZ, sub_27B3
ROM:26C0 3A 35 81                    ld      a, (byte_8135)
ROM:26C3 A7                          and     a
ROM:26C4 20 01                       jr      NZ, check_and_update_got_lady_frog
ROM:26C6 C9                          ret
ROM:26C7             ; ---------------------------------------------------------------------------
ROM:26C7
ROM:26C7             check_and_update_got_lady_frog:                                 ; ...
ROM:26C7 3A 34 81                    ld      a, (f_got_lady_frog)
ROM:26CA A7                          and     a                                       ; got it already?
ROM:26CB 20 23                       jr      NZ, update_lady_frog_piggyback          ; yes, go
ROM:26CD CD 2F 27                    call    update_lady_frog_move_probably
ROM:26D0 3A 47 80                    ld      a, (spr_shadow+7)                       ; sprite1 base3 (frog X)
ROM:26D3 FE 5A                       cp      #90                                     ; < 90?
ROM:26D5 D8                          ret     C                                       ; yes, exit
ROM:26D6 FE 68                       cp      #104                                    ; >= 104?
ROM:26D8 D0                          ret     NC                                      ; yes, exit
ROM:26D9 3A 40 80                    ld      a, (spr_shadow)                         ; sprite0 base0 (Y)
ROM:26DC 47                          ld      b, a                                    ; save a copy
ROM:26DD 3A 44 80                    ld      a, (spr_shadow+4)                       ; sprite1 base0 (frog Y)
ROM:26E0 C6 04                       add     a, #4
ROM:26E2 B8                          cp      b
ROM:26E3 D8                          ret     C                                       ; no overlap, exit
ROM:26E4 D6 08                       sub     #8
ROM:26E6 B8                          cp      b
ROM:26E7 D0                          ret     NC                                      ; no overlap, exit
ROM:26E8 3E 01                       ld      a, #1
ROM:26EA 32 34 81                    ld      (f_got_lady_frog), a
ROM:26ED 3E 18                       ld      a, #24                                  ; snd #24
ROM:26EF DF                          rst     add_snd_to_q
ROM:26F0
ROM:26F0             update_lady_frog_piggyback:                                     ; ...
ROM:26F0 DD 21 44 80                 ld      ix, # spr_shadow+4                      ; sprite1 base0 (frog Y)
ROM:26F4 FD 21 40 80                 ld      iy, #spr_shadow                         ; sprite0 base0 (Y)
ROM:26F8 DD 7E 00                    ld      a, 0(ix)                                ; frog Y
ROM:26FB FD 77 00                    ld      0(iy), a                                ; copy to sprite0 Y
ROM:26FE DD 7E 01                    ld      a, 1(ix)                                ; frog flip/code
ROM:2701 FD 77 01                    ld      1(iy), a                                ; copy to sprite0 flip/code
ROM:2704 DD 7E 03                    ld      a, 3(ix)                                ; frog X
ROM:2707 C6 02                       add     a, #2
ROM:2709 FD 77 03                    ld      3(iy), a                                ; set sprite0 X
ROM:270C C9                          ret
ROM:270C             ; End of function sub_26A6
ROM:270C
ROM:270D
ROM:270D             ; =============== S U B R O U T I N E =======================================
ROM:270D
ROM:270D
ROM:270D             handle_new_lady_frog:                                           ; ...
ROM:270D 3A 35 81                    ld      a, (byte_8135)
ROM:2710 A7                          and     a
ROM:2711 C0                          ret     NZ
ROM:2712 21 3D 81                    ld      hl, #lady_frog_active
ROM:2715 34                          inc     (hl)
ROM:2716 21 41 80                    ld      hl, # spr_shadow+1                      ; sprite0 flip/code
ROM:2719 36 1E                       ld      (hl), #0x1E                             ; code=frog2 (up)
ROM:271B 23                          inc     hl                                      ; sprite0 colour
ROM:271C 36 04                       ld      (hl), #4                                ; colour=4
ROM:271E 23                          inc     hl                                      ; sprite0 base3 (X)
ROM:271F 36 60                       ld      (hl), #96                               ; X=96
ROM:2721 3E 01                       ld      a, #1
ROM:2723 32 35 81                    ld      (byte_8135), a
ROM:2726 32 3D 83                    ld      (byte_833D), a
ROM:2729 3E 3C                       ld      a, #0x3C ; '<'
ROM:272B 32 3E 83                    ld      (byte_833E), a
ROM:272E C9                          ret
ROM:272E             ; End of function handle_new_lady_frog
ROM:272E
ROM:272F
ROM:272F             ; =============== S U B R O U T I N E =======================================
ROM:272F
ROM:272F
ROM:272F             update_lady_frog_move_probably:                                 ; ...
ROM:272F 21 3E 83                    ld      hl, #byte_833E
ROM:2732 7E                          ld      a, (hl)
ROM:2733 A7                          and     a
ROM:2734 28 2B                       jr      Z, loc_2761
ROM:2736 35                          dec     (hl)
ROM:2737 3E 3C                       ld      a, #0x3C ; '<'
ROM:2739 CB 3F                       srl     a
ROM:273B BE                          cp      (hl)
ROM:273C 20 0F                       jr      NZ, loc_274D
ROM:273E 2B                          dec     hl
ROM:273F 7E                          ld      a, (hl)
ROM:2740 A7                          and     a
ROM:2741 3E 21                       ld      a, #0x21 ; '!'                          ; frog (left)
ROM:2743 32 41 80                    ld      (spr_shadow+1), a                       ; sprite0 flip/code
ROM:2746 F0                          ret     P
ROM:2747 3E A1                       ld      a, #0xA1 ; '¡'                          ; flip=Y, frog (left)
ROM:2749 32 41 80                    ld      (spr_shadow+1), a                       ; sprite0 flip/code
ROM:274C C9                          ret
ROM:274D             ; ---------------------------------------------------------------------------
ROM:274D
ROM:274D             loc_274D:                                                       ; ...
ROM:274D 2B                          dec     hl
ROM:274E 7E                          ld      a, (hl)
ROM:274F E6 7F                       and     #0x7F ; ''
ROM:2751 21 9F 27                    ld      hl, #unk_279F
ROM:2754 3C                          inc     a
ROM:2755 CD 9A 27                    call    HL_plus_A
ROM:2758 7E                          ld      a, (hl)
ROM:2759 21 1C 81                    ld      hl, #unk_811C
ROM:275C 86                          add     a, (hl)
ROM:275D 32 40 80                    ld      (spr_shadow), a                         ; sprite0 base0 (Y)
ROM:2760 C9                          ret
ROM:2761             ; ---------------------------------------------------------------------------
ROM:2761
ROM:2761             loc_2761:                                                       ; ...
ROM:2761 2B                          dec     hl
ROM:2762 7E                          ld      a, (hl)
ROM:2763 A7                          and     a
ROM:2764 F2 69 27                    jp      P, loc_2769
ROM:2767 35                          dec     (hl)
ROM:2768 35                          dec     (hl)
ROM:2769
ROM:2769             loc_2769:                                                       ; ...
ROM:2769 34                          inc     (hl)
ROM:276A 7E                          ld      a, (hl)
ROM:276B E6 7F                       and     #0x7F ; ''
ROM:276D 21 9F 27                    ld      hl, #unk_279F
ROM:2770 CD 9A 27                    call    HL_plus_A
ROM:2773 7E                          ld      a, (hl)
ROM:2774 FE 01                       cp      #1
ROM:2776 38 0A                       jr      C, loc_2782
ROM:2778 28 1A                       jr      Z, loc_2794
ROM:277A 21 1C 81                    ld      hl, #unk_811C
ROM:277D 86                          add     a, (hl)
ROM:277E 32 40 80                    ld      (spr_shadow), a                         ; sprite0 base0 (Y)
ROM:2781 C9                          ret
ROM:2782             ; ---------------------------------------------------------------------------
ROM:2782
ROM:2782             loc_2782:                                                       ; ...
ROM:2782 21 3D 83                    ld      hl, #byte_833D
ROM:2785 7E                          ld      a, (hl)
ROM:2786 EE 80                       xor     #0x80 ; '€'
ROM:2788 77                          ld      (hl), a
ROM:2789 3E 3C                       ld      a, #0x3C ; '<'
ROM:278B 32 3E 83                    ld      (byte_833E), a
ROM:278E 3E 1E                       ld      a, #0x1E                                ; frog (up)
ROM:2790 32 41 80                    ld      (spr_shadow+1), a                       ; sprite0 flip/code
ROM:2793 C9                          ret
ROM:2794             ; ---------------------------------------------------------------------------
ROM:2794
ROM:2794             loc_2794:                                                       ; ...
ROM:2794 3E 3C                       ld      a, #0x3C ; '<'
ROM:2796 32 3E 83                    ld      (byte_833E), a
ROM:2799 C9                          ret
ROM:2799             ; End of function update_lady_frog_move_probably
ROM:2799
ROM:279A
ROM:279A             ; =============== S U B R O U T I N E =======================================
ROM:279A
ROM:279A
ROM:279A             HL_plus_A:                                                      ; ...
ROM:279A 85                          add     a, l
ROM:279B 6F                          ld      l, a
ROM:279C D0                          ret     NC
ROM:279D 24                          inc     h
ROM:279E C9                          ret
ROM:279E             ; End of function HL_plus_A
ROM:279E
ROM:279E             ; ---------------------------------------------------------------------------
ROM:279F 00          unk_279F:       .db    0                                        ; ...
ROM:27A0 EE                          .db 0xEE ; î
ROM:27A1 EC                          .db 0xEC ; ì
ROM:27A2 EA                          .db 0xEA ; ê
ROM:27A3 E8                          .db 0xE8 ; è
ROM:27A4 E6                          .db 0xE6 ; æ
ROM:27A5 E4                          .db 0xE4 ; ä
ROM:27A6 E2                          .db 0xE2 ; â
ROM:27A7 E0                          .db 0xE0 ; à
ROM:27A8 01                          .db    1
ROM:27A9 DE                          .db 0xDE ; Þ
ROM:27AA DC                          .db 0xDC ; Ü
ROM:27AB DA                          .db 0xDA ; Ú
ROM:27AC D8                          .db 0xD8 ; Ø
ROM:27AD D6                          .db 0xD6 ; Ö
ROM:27AE D4                          .db 0xD4 ; Ô
ROM:27AF D2                          .db 0xD2 ; Ò
ROM:27B0 D0                          .db 0xD0 ; Ð
ROM:27B1 00                          .db    0
ROM:27B2 D0                          .db 0xD0 ; Ð
ROM:27B3
ROM:27B3             ; =============== S U B R O U T I N E =======================================
ROM:27B3
ROM:27B3
ROM:27B3             sub_27B3:                                                       ; ...
ROM:27B3 3A 35 81                    ld      a, (byte_8135)
ROM:27B6 A7                          and     a
ROM:27B7 C8                          ret     Z
ROM:27B8 AF                          xor     a                                       ; reset
ROM:27B9 32 34 81                    ld      (f_got_lady_frog), a
ROM:27B9             ; End of function sub_27B3
ROM:27B9
ROM:27BC
ROM:27BC             ; =============== S U B R O U T I N E =======================================
ROM:27BC
ROM:27BC
ROM:27BC             clear_lady_frog_sprite:                                         ; ...
ROM:27BC 21 40 80                    ld      hl, #spr_shadow
ROM:27BF AF                          xor     a
ROM:27C0 77                          ld      (hl), a
ROM:27C1 23                          inc     hl
ROM:27C2 77                          ld      (hl), a
ROM:27C3 23                          inc     hl
ROM:27C4 77                          ld      (hl), a
ROM:27C5 23                          inc     hl
ROM:27C6 77                          ld      (hl), a
ROM:27C7 32 35 81                    ld      (byte_8135), a
ROM:27CA C9                          ret
ROM:27CA             ; End of function clear_lady_frog_sprite
ROM:27CA
ROM:27CB
ROM:27CB             ; =============== S U B R O U T I N E =======================================
ROM:27CB
ROM:27CB
ROM:27CB             display_200_for_lady_frog:                                      ; ...
ROM:27CB 21 40 80                    ld      hl, #spr_shadow                         ; sprite0 base0 (Y)
ROM:27CE 70                          ld      (hl), b
ROM:27CF 23                          inc     hl                                      ; sprite0 flip,code
ROM:27D0 36 19                       ld      (hl), #0x19                             ; code=$19 ('200')
ROM:27D2 23                          inc     hl                                      ; sprite0 colour
ROM:27D3 36 03                       ld      (hl), #3                                ; colour=3
ROM:27D5 23                          inc     hl                                      ; sprite0 base3 (X)
ROM:27D6 36 10                       ld      (hl), #16                               ; X=16
ROM:27D8 3E A0                       ld      a, #0xA0 ; ' '
ROM:27DA 32 40 83                    ld      (byte_8340), a
ROM:27DD C9                          ret
ROM:27DD             ; End of function display_200_for_lady_frog
ROM:27DD
ROM:27DE
ROM:27DE             ; =============== S U B R O U T I N E =======================================
ROM:27DE
ROM:27DE
ROM:27DE             clear_sprite0:                                                  ; ...
ROM:27DE 21 40 80                    ld      hl, #spr_shadow
ROM:27E1 AF                          xor     a
ROM:27E2 77                          ld      (hl), a
ROM:27E3 23                          inc     hl
ROM:27E4 77                          ld      (hl), a
ROM:27E5 23                          inc     hl
ROM:27E6 77                          ld      (hl), a
ROM:27E7 23                          inc     hl
ROM:27E8 77                          ld      (hl), a
ROM:27E9 C9                          ret
ROM:27E9             ; End of function clear_sprite0
ROM:27E9
ROM:27EA
ROM:27EA             ; =============== S U B R O U T I N E =======================================
ROM:27EA
ROM:27EA
ROM:27EA             sub_27EA:                                                       ; ...
ROM:27EA
ROM:27EA             ; FUNCTION CHUNK AT ROM:286D SIZE 00000011 BYTES
ROM:27EA             ; FUNCTION CHUNK AT ROM:28B0 SIZE 0000000B BYTES
ROM:27EA
ROM:27EA 3A B7 83                    ld      a, (curr_level)
ROM:27ED FE 02                       cp      #2                                      ; level < 2?
ROM:27EF DA 73 28                    jp      C, locret_2873                          ; yes, skip (exit)
ROM:27F2 FE 05                       cp      #5                                      ; level < 5?
ROM:27F4 D2 74 28                    jp      NC, loc_2874                            ; no, go
ROM:27F7 3A 01 81                    ld      a, (unk_8101)
ROM:27FA A7                          and     a
ROM:27FB CC 8C 28                    call    Z, sub_288C
ROM:27FE
ROM:27FE             loc_27FE:                                                       ; ...
ROM:27FE 3A 4F 81                    ld      a, (byte_814F)
ROM:2801 A7                          and     a
ROM:2802 C8                          ret     Z
ROM:2803 21 46 81                    ld      hl, #byte_8146
ROM:2806 7E                          ld      a, (hl)
ROM:2807 23                          inc     hl
ROM:2808 BE                          cp      (hl)
ROM:2809 C2 B0 28                    jp      NZ, loc_28B0
ROM:280C 35                          dec     (hl)
ROM:280D 11 06 A8                    ld      de, # VRAM_START+6
ROM:2810 3A 50 81                    ld      a, (f_alligator)
ROM:2813 CB 47                       bit     0, a
ROM:2815 CA 6D 28                    jp      Z, render_log
ROM:2818 21 13 14                    ld      hl, #alligator_codes
ROM:281B
ROM:281B             render_log_alligator:                                           ; ...
ROM:281B AF                          xor     a
ROM:281C 47                          ld      b, a
ROM:281D 3A 4E 81                    ld      a, (byte_814E)
ROM:2820 4F                          ld      c, a
ROM:2821 3C                          inc     a
ROM:2822 3C                          inc     a                                       ; add 2
ROM:2823 32 4E 81                    ld      (byte_814E), a
ROM:2826 09                          add     hl, bc                                  ; HL ptr to codes
ROM:2827 06 00                       ld      b, #0
ROM:2829 EB                          ex      de, hl                                  ; DE ptr to codes
ROM:282A 3A 45 81                    ld      a, (byte_8145)
ROM:282D 4F                          ld      c, a
ROM:282E 09                          add     hl, bc                                  ; vram addr
ROM:282F EB                          ex      de, hl                                  ; DE = vram, HL = codes
ROM:2830 0E 20                       ld      c, #0x20 ; ' '
ROM:2832 3A 45 81                    ld      a, (byte_8145)
ROM:2835 81                          add     a, c
ROM:2836 32 45 81                    ld      (byte_8145), a
ROM:2839 7E                          ld      a, (hl)                                 ; get code
ROM:283A 12                          ld      (de), a                                 ; display on screen
ROM:283B 23                          inc     hl                                      ; next code
ROM:283C 13                          inc     de                                      ; next vram addr
ROM:283D 7E                          ld      a, (hl)                                 ; get code
ROM:283E 12                          ld      (de), a                                 ; display on screen
ROM:283F 3A 4E 81                    ld      a, (byte_814E)
ROM:2842 FE 10                       cp      #0x10
ROM:2844 D8                          ret     C
ROM:2845 AF                          xor     a
ROM:2846 32 4F 81                    ld      (byte_814F), a
ROM:2849 32 4E 81                    ld      (byte_814E), a
ROM:284C 32 45 81                    ld      (byte_8145), a
ROM:284F 32 46 81                    ld      (byte_8146), a
ROM:2852 32 47 81                    ld      (byte_8147), a
ROM:2855 C9                          ret
ROM:2855             ; End of function sub_27EA
ROM:2855
ROM:2856
ROM:2856             ; =============== S U B R O U T I N E =======================================
ROM:2856
ROM:2856
ROM:2856             sub_2856:                                                       ; ...
ROM:2856 3A FE 83                    ld      a, (f_in_game)
ROM:2859 FE 02                       cp      #2
ROM:285B C0                          ret     NZ
ROM:285C AF                          xor     a
ROM:285D 32 4F 81                    ld      (byte_814F), a
ROM:2860 32 4E 81                    ld      (byte_814E), a
ROM:2863 32 45 81                    ld      (byte_8145), a
ROM:2866 32 46 81                    ld      (byte_8146), a
ROM:2869 32 47 81                    ld      (byte_8147), a
ROM:286C C9                          ret
ROM:286C             ; End of function sub_2856
ROM:286C
ROM:286D             ; ---------------------------------------------------------------------------
ROM:286D             ; START OF FUNCTION CHUNK FOR sub_27EA
ROM:286D
ROM:286D             render_log:                                                     ; ...
ROM:286D 21 03 14                    ld      hl, #log_codes
ROM:2870 C3 1B 28                    jp      render_log_alligator
ROM:2873             ; ---------------------------------------------------------------------------
ROM:2873
ROM:2873             locret_2873:                                                    ; ...
ROM:2873 C9                          ret
ROM:2874             ; ---------------------------------------------------------------------------
ROM:2874
ROM:2874             loc_2874:                                                       ; ...
ROM:2874 3A 01 81                    ld      a, (unk_8101)
ROM:2877 A7                          and     a
ROM:2878 CC 7E 28                    call    Z, sub_287E
ROM:287B C3 FE 27                    jp      loc_27FE
ROM:287B             ; END OF FUNCTION CHUNK FOR sub_27EA
ROM:287E
ROM:287E             ; =============== S U B R O U T I N E =======================================
ROM:287E
ROM:287E
ROM:287E             sub_287E:                                                       ; ...
ROM:287E 3A 4F 81                    ld      a, (byte_814F)
ROM:2881 A7                          and     a
ROM:2882 C0                          ret     NZ
ROM:2883 3E 01                       ld      a, #1
ROM:2885 32 50 81                    ld      (f_alligator), a
ROM:2888 CD 9C 28                    call    sub_289C
ROM:288B C9                          ret
ROM:288B             ; End of function sub_287E
ROM:288B
ROM:288C
ROM:288C             ; =============== S U B R O U T I N E =======================================
ROM:288C
ROM:288C
ROM:288C             sub_288C:                                                       ; ...
ROM:288C 3A 4F 81                    ld      a, (byte_814F)
ROM:288F A7                          and     a
ROM:2890 C0                          ret     NZ
ROM:2891 3A 50 81                    ld      a, (f_alligator)
ROM:2894 3C                          inc     a
ROM:2895 32 50 81                    ld      (f_alligator), a
ROM:2898 CD 9C 28                    call    sub_289C
ROM:289B C9                          ret
ROM:289B             ; End of function sub_288C
ROM:289B
ROM:289C
ROM:289C             ; =============== S U B R O U T I N E =======================================
ROM:289C
ROM:289C
ROM:289C             sub_289C:                                                       ; ...
ROM:289C 3A 9B 81                    ld      a, (byte_819B)
ROM:289F E6 0F                       and     #0xF
ROM:28A1 87                          add     a, a
ROM:28A2 87                          add     a, a
ROM:28A3 87                          add     a, a
ROM:28A4 21 46 81                    ld      hl, #byte_8146
ROM:28A7 77                          ld      (hl), a
ROM:28A8 23                          inc     hl
ROM:28A9 77                          ld      (hl), a
ROM:28AA 3E 01                       ld      a, #1
ROM:28AC 32 4F 81                    ld      (byte_814F), a
ROM:28AF C9                          ret
ROM:28AF             ; End of function sub_289C
ROM:28AF
ROM:28B0             ; ---------------------------------------------------------------------------
ROM:28B0             ; START OF FUNCTION CHUNK FOR sub_27EA
ROM:28B0
ROM:28B0             loc_28B0:                                                       ; ...
ROM:28B0 7E                          ld      a, (hl)
ROM:28B1 A7                          and     a
ROM:28B2 28 02                       jr      Z, loc_28B6
ROM:28B4 35                          dec     (hl)
ROM:28B5 C9                          ret
ROM:28B6             ; ---------------------------------------------------------------------------
ROM:28B6
ROM:28B6             loc_28B6:                                                       ; ...
ROM:28B6 3A 46 81                    ld      a, (byte_8146)
ROM:28B9 77                          ld      (hl), a
ROM:28BA C9                          ret
ROM:28BA             ; END OF FUNCTION CHUNK FOR sub_27EA
ROM:28BB
ROM:28BB             ; =============== S U B R O U T I N E =======================================
ROM:28BB
ROM:28BB
ROM:28BB             sub_28BB:                                                       ; ...
ROM:28BB 3A 50 81                    ld      a, (f_alligator)
ROM:28BE CB 47                       bit     0, a
ROM:28C0 C8                          ret     Z
ROM:28C1 3A B7 83                    ld      a, (curr_level)
ROM:28C4 FE 02                       cp      #2
ROM:28C6 D8                          ret     C
ROM:28C7 3A 47 80                    ld      a, (spr_shadow+7)                       ; sprite1 base3 (frog X)
ROM:28CA C6 08                       add     a, #8
ROM:28CC FE 2A                       cp      #0x2A ; '*'
ROM:28CE D8                          ret     C
ROM:28CF FE 3B                       cp      #0x3B ; ';'
ROM:28D1 D0                          ret     NC
ROM:28D2 3A 44 80                    ld      a, (spr_shadow+4)                       ; sprite1 base0 (frog Y)
ROM:28D5 C6 08                       add     a, #8
ROM:28D7 47                          ld      b, a
ROM:28D8 3A 01 81                    ld      a, (unk_8101)
ROM:28DB 4F                          ld      c, a
ROM:28DC C6 08                       add     a, #8
ROM:28DE B8                          cp      b
ROM:28DF D8                          ret     C
ROM:28E0 79                          ld      a, c
ROM:28E1 D6 20                       sub     #0x20 ; ' '
ROM:28E3 B8                          cp      b
ROM:28E4 D0                          ret     NC
ROM:28E5 79                          ld      a, c
ROM:28E6 D6 08                       sub     #8
ROM:28E8 B8                          cp      b
ROM:28E9 30 04                       jr      NC, alligator_mouth_closed_1
ROM:28EB CD D0 12                    call    sub_12D0
ROM:28EE C9                          ret
ROM:28EF             ; ---------------------------------------------------------------------------
ROM:28EF
ROM:28EF             alligator_mouth_closed_1:                                       ; ...
ROM:28EF 3E 01                       ld      a, #1
ROM:28F1 32 04 80                    ld      (frog_dead), a
ROM:28F4 21 46 A8                    ld      hl, # VRAM_START+0x46
ROM:28F7 36 68                       ld      (hl), #0x68 ; 'h'
ROM:28F9 23                          inc     hl
ROM:28FA 36 69                       ld      (hl), #0x69 ; 'i'
ROM:28FC 01 1F 00                    ld      bc, #0x1F
ROM:28FF 09                          add     hl, bc
ROM:2900 36 6A                       ld      (hl), #0x6A ; 'j'
ROM:2902 23                          inc     hl
ROM:2903 36 6B                       ld      (hl), #0x6B ; 'k'
ROM:2905 C9                          ret
ROM:2905             ; End of function sub_28BB
ROM:2905
ROM:2906
ROM:2906             ; =============== S U B R O U T I N E =======================================
ROM:2906
ROM:2906
ROM:2906             sub_2906:                                                       ; ...
ROM:2906 3A FE 83                    ld      a, (f_in_game)
ROM:2909 A7                          and     a                                       ; in game?
ROM:290A C8                          ret     Z                                       ; no, exit
ROM:290B 3A A2 81                    ld      a, (byte_81A2)
ROM:290E FE 0F                       cp      #0xF
ROM:2910 D0                          ret     NC
ROM:2911 FE 02                       cp      #2
ROM:2913 D8                          ret     C
ROM:2914 3A 40 81                    ld      a, (byte_8140)
ROM:2917 A7                          and     a
ROM:2918 C0                          ret     NZ
ROM:2919 3E D0                       ld      a, #208
ROM:291B DF                          rst     add_snd_to_q
ROM:291C C9                          ret
ROM:291C             ; End of function sub_2906
ROM:291C
ROM:291D
ROM:291D             ; =============== S U B R O U T I N E =======================================
ROM:291D
ROM:291D
ROM:291D             sub_291D:                                                       ; ...
ROM:291D 3A 01 81                    ld      a, (unk_8101)
ROM:2920 A7                          and     a
ROM:2921 20 05                       jr      NZ, loc_2928
ROM:2923 AF                          xor     a
ROM:2924 32 3F 83                    ld      (alligator_anim_timer), a
ROM:2927 C9                          ret
ROM:2928             ; ---------------------------------------------------------------------------
ROM:2928
ROM:2928             loc_2928:                                                       ; ...
ROM:2928 3A 50 81                    ld      a, (f_alligator)
ROM:292B CB 47                       bit     0, a                                    ; active?
ROM:292D C8                          ret     Z                                       ; no, exit
ROM:292E 3A 4F 81                    ld      a, (byte_814F)
ROM:2931 A7                          and     a
ROM:2932 C0                          ret     NZ
ROM:2933 21 3F 83                    ld      hl, #alligator_anim_timer
ROM:2936 34                          inc     (hl)
ROM:2937 7E                          ld      a, (hl)
ROM:2938 FE 40                       cp      #0x40 ; '@'
ROM:293A 28 05                       jr      Z, alligator_mouth_closed_2
ROM:293C FE 70                       cp      #0x70 ; 'p'
ROM:293E 28 13                       jr      Z, alligator_mouth_open_2
ROM:2940 C9                          ret
ROM:2941             ; ---------------------------------------------------------------------------
ROM:2941
ROM:2941             alligator_mouth_closed_2:                                       ; ...
ROM:2941 21 46 A8                    ld      hl, # VRAM_START+0x46
ROM:2944 36 68                       ld      (hl), #0x68 ; 'h'
ROM:2946 23                          inc     hl
ROM:2947 36 69                       ld      (hl), #0x69 ; 'i'
ROM:2949 01 1F 00                    ld      bc, #31
ROM:294C 09                          add     hl, bc                                  ; next row
ROM:294D 36 6A                       ld      (hl), #0x6A ; 'j'
ROM:294F 23                          inc     hl
ROM:2950 36 6B                       ld      (hl), #0x6B ; 'k'
ROM:2952 C9                          ret
ROM:2953             ; ---------------------------------------------------------------------------
ROM:2953
ROM:2953             alligator_mouth_open_2:                                         ; ...
ROM:2953 21 46 A8                    ld      hl, # VRAM_START+0x46
ROM:2956 36 D0                       ld      (hl), #0xD0 ; 'Ð'
ROM:2958 23                          inc     hl
ROM:2959 36 D1                       ld      (hl), #0xD1 ; 'Ñ'
ROM:295B 01 1F 00                    ld      bc, #31
ROM:295E 09                          add     hl, bc                                  ; next row
ROM:295F 36 D2                       ld      (hl), #0xD2 ; 'Ò'
ROM:2961 23                          inc     hl
ROM:2962 36 D3                       ld      (hl), #0xD3 ; 'Ó'
ROM:2964 AF                          xor     a
ROM:2965 32 3F 83                    ld      (alligator_anim_timer), a               ; reset timer
ROM:2968 C9                          ret
ROM:2968             ; End of function sub_291D
ROM:2968
ROM:2968             ; ---------------------------------------------------------------------------
ROM:2969 FF FF FF FF+                .db 0xFF, 0xFF, 0xFF, 0xFF, 0xFF, 0xFF, 0xFF
ROM:2970             ; ---------------------------------------------------------------------------
ROM:2970             ; this is snake code apparently!!!
ROM:2970
ROM:2970             loc_2970:                                                       ; ...
ROM:2970 3A B7 83                    ld      a, (curr_level)
ROM:2973 FE 03                       cp      #3                                      ; level < 3?
ROM:2975 38 2A                       jr      C, loc_29A1                             ; yes, go (no snakes)
ROM:2977 3A FD 83                    ld      a, (curr_player)
ROM:297A 3D                          dec     a                                       ; player 1?
ROM:297B 20 06                       jr      NZ, loc_2983                            ; no, skip
ROM:297D DD 21 40 84                 ld      ix, #p1_something_data
ROM:2981 18 04                       jr      loc_2987
ROM:2983             ; ---------------------------------------------------------------------------
ROM:2983
ROM:2983             loc_2983:                                                       ; ...
ROM:2983 DD 21 60 84                 ld      ix, #p2_something_data
ROM:2987
ROM:2987             loc_2987:                                                       ; ...
ROM:2987 FD 21 48 80                 ld      iy, # spr_shadow+8                      ; sprite2, base0 (Y)
ROM:298B CD B9 29                    call    add_snake
ROM:298E 3A B7 83                    ld      a, (curr_level)
ROM:2991 FE 06                       cp      #6                                      ; level < 6?
ROM:2993             ; ***
ROM:2993             ; *** BUG: jumps into the middle of an instruction
ROM:2993             ; ***      it should jump to $29A1!!!
ROM:2993             ; ***
ROM:2993 38 07                       jr      C, loc_299A+2                           ; yes, go (only 1 snake)
ROM:2995 11 10 00                    ld      de, #0x10
ROM:2998 DD 19                       add     ix, de
ROM:299A
ROM:299A             loc_299A:                                                       ; ...
ROM:299A FD 21 50 80                 ld      iy, # spr_shadow+0x10                   ; sprite4, base0 (Y)
ROM:299E CD B9 29                    call    add_snake                               ; add 2nd snake
ROM:29A1
ROM:29A1             loc_29A1:                                                       ; ...
ROM:29A1 3A FD 83                    ld      a, (curr_player)
ROM:29A4 3D                          dec     a                                       ; player 1?
ROM:29A5 20 06                       jr      NZ, loc_29AD                            ; no, skip
ROM:29A7 DD 21 80 84                 ld      ix, #p1_more_data
ROM:29AB 18 04                       jr      loc_29B1
ROM:29AD             ; ---------------------------------------------------------------------------
ROM:29AD
ROM:29AD             loc_29AD:                                                       ; ...
ROM:29AD DD 21 90 84                 ld      ix, #p2_more_data
ROM:29B1
ROM:29B1             loc_29B1:                                                       ; ...
ROM:29B1 FD 21 58 80                 ld      iy, # spr_shadow+0x18                   ; sprite6, base0 (Y)
ROM:29B5 CD 83 2B                    call    sub_2B83
ROM:29B8 C9                          ret
ROM:29B9
ROM:29B9             ; =============== S U B R O U T I N E =======================================
ROM:29B9
ROM:29B9
ROM:29B9             add_snake:                                                      ; ...
ROM:29B9 CD 6A 2A                    call    sub_2A6A
ROM:29BC CD C9 29                    call    sub_29C9
ROM:29BF CD F9 29                    call    sub_29F9
ROM:29C2 CD F3 2A                    call    sub_2AF3
ROM:29C5 CD 58 2B                    call    sub_2B58
ROM:29C8 C9                          ret
ROM:29C8             ; End of function add_snake
ROM:29C8
ROM:29C9
ROM:29C9             ; =============== S U B R O U T I N E =======================================
ROM:29C9
ROM:29C9
ROM:29C9             sub_29C9:                                                       ; ...
ROM:29C9 DD 35 08                    dec     8(ix)
ROM:29CC C0                          ret     NZ
ROM:29CD DD 36 08 0C                 ld      8(ix), #0xC
ROM:29D1 DD 7E 06                    ld      a, 6(ix)
ROM:29D4 B7                          or      a
ROM:29D5 C8                          ret     Z
ROM:29D6 3D                          dec     a
ROM:29D7 20 02                       jr      NZ, loc_29DB
ROM:29D9 3E 04                       ld      a, #4
ROM:29DB
ROM:29DB             loc_29DB:                                                       ; ...
ROM:29DB DD 77 06                    ld      6(ix), a
ROM:29DE 6F                          ld      l, a
ROM:29DF 26 00                       ld      h, #0
ROM:29E1 11 D5 2C                    ld      de, #locret_2CD5                        ; table at $2CD6
ROM:29E4 19                          add     hl, de
ROM:29E5 7E                          ld      a, (hl)
ROM:29E6 DD B6 05                    or      5(ix)
ROM:29E9 FD 77 01                    ld      1(iy), a
ROM:29EC 3C                          inc     a
ROM:29ED FD 77 05                    ld      5(iy), a
ROM:29F0 FD 36 02 04                 ld      2(iy), #4
ROM:29F4 FD 36 06 04                 ld      6(iy), #4
ROM:29F8 C9                          ret
ROM:29F8             ; End of function sub_29C9
ROM:29F8
ROM:29F9
ROM:29F9             ; =============== S U B R O U T I N E =======================================
ROM:29F9
ROM:29F9
ROM:29F9             sub_29F9:                                                       ; ...
ROM:29F9 DD 7E 06                    ld      a, 6(ix)
ROM:29FC B7                          or      a
ROM:29FD C8                          ret     Z
ROM:29FE 3A 2C 84                    ld      a, (byte_842C)
ROM:2A01 B7                          or      a
ROM:2A02 C0                          ret     NZ
ROM:2A03 DD 35 09                    dec     9(ix)
ROM:2A06 C0                          ret     NZ
ROM:2A07 DD 36 09 08                 ld      9(ix), #8
ROM:2A0B FD 7E 03                    ld      a, 3(iy)
ROM:2A0E FE 60                       cp      #0x60 ; '`'
ROM:2A10 30 2A                       jr      NC, loc_2A3C
ROM:2A12 DD 36 07 01                 ld      7(ix), #1
ROM:2A16 DD 7E 05                    ld      a, 5(ix)
ROM:2A19 B7                          or      a
ROM:2A1A C2 2D 2A                    jp      NZ, loc_2A2D
ROM:2A1D 3A 14 80                    ld      a, (obj_shadow_plus_7+0xD)              ; row10, scroll (middle logs)
ROM:2A20 DD 96 00                    sub     0(ix)
ROM:2A23 D8                          ret     C
ROM:2A24 FD BE 00                    cp      0(iy)
ROM:2A27 30 2A                       jr      NC, loc_2A53
ROM:2A29 DD 34 02                    inc     2(ix)
ROM:2A2C C9                          ret
ROM:2A2D             ; ---------------------------------------------------------------------------
ROM:2A2D
ROM:2A2D             loc_2A2D:                                                       ; ...
ROM:2A2D 3A 14 80                    ld      a, (obj_shadow_plus_7+0xD)              ; row10, scroll (middle logs)
ROM:2A30 DD 96 01                    sub     1(ix)
ROM:2A33 FD BE 00                    cp      0(iy)
ROM:2A36 38 1B                       jr      C, loc_2A53
ROM:2A38 DD 35 02                    dec     2(ix)
ROM:2A3B C9                          ret
ROM:2A3C             ; ---------------------------------------------------------------------------
ROM:2A3C
ROM:2A3C             loc_2A3C:                                                       ; ...
ROM:2A3C DD 36 07 01                 ld      7(ix), #1
ROM:2A40 DD 7E 05                    ld      a, 5(ix)
ROM:2A43 B7                          or      a
ROM:2A44 28 04                       jr      Z, loc_2A4A
ROM:2A46 3E 02                       ld      a, #2
ROM:2A48 18 02                       jr      loc_2A4C
ROM:2A4A             ; ---------------------------------------------------------------------------
ROM:2A4A
ROM:2A4A             loc_2A4A:                                                       ; ...
ROM:2A4A 3E FE                       ld      a, #0xFE ; 'þ'
ROM:2A4C
ROM:2A4C             loc_2A4C:                                                       ; ...
ROM:2A4C DD 86 03                    add     a, 3(ix)
ROM:2A4F DD 77 03                    ld      3(ix), a
ROM:2A52 C9                          ret
ROM:2A53             ; ---------------------------------------------------------------------------
ROM:2A53
ROM:2A53             loc_2A53:                                                       ; ...
ROM:2A53 DD 7E 05                    ld      a, 5(ix)
ROM:2A56 EE 80                       xor     #0x80 ; '€'
ROM:2A58 DD 77 05                    ld      5(ix), a
ROM:2A5B FD 7E 04                    ld      a, 4(iy)
ROM:2A5E FD 77 00                    ld      0(iy), a
ROM:2A61 FD 7E 01                    ld      a, 1(iy)
ROM:2A64 EE 80                       xor     #0x80 ; '€'
ROM:2A66 FD 77 01                    ld      1(iy), a
ROM:2A69 C9                          ret
ROM:2A69             ; End of function sub_29F9
ROM:2A69
ROM:2A6A
ROM:2A6A             ; =============== S U B R O U T I N E =======================================
ROM:2A6A
ROM:2A6A
ROM:2A6A             sub_2A6A:                                                       ; ...
ROM:2A6A 3A B7 83                    ld      a, (curr_level)
ROM:2A6D FE 03                       cp      #3                                      ; level < 3?
ROM:2A6F D8                          ret     C                                       ; yes, exit
ROM:2A70 4F                          ld      c, a
ROM:2A71 DD 35 0A                    dec     0xA(ix)
ROM:2A74 C0                          ret     NZ
ROM:2A75 DD 7E 06                    ld      a, 6(ix)
ROM:2A78 B7                          or      a
ROM:2A79 C0                          ret     NZ
ROM:2A7A CD EE 0A                    call    sub_AEE
ROM:2A7D 47                          ld      b, a
ROM:2A7E 79                          ld      a, c
ROM:2A7F 87                          add     a, a
ROM:2A80 87                          add     a, a
ROM:2A81 87                          add     a, a
ROM:2A82 C6 80                       add     a, #0x80 ; '€'
ROM:2A84 B8                          cp      b
ROM:2A85 D8                          ret     C
ROM:2A86 CD EE 0A                    call    sub_AEE
ROM:2A89 E6 03                       and     #3
ROM:2A8B 28 1D                       jr      Z, loc_2AAA
ROM:2A8D 0E 40                       ld      c, #0x40 ; '@'
ROM:2A8F 21 76 82                    ld      hl, #unk_8276
ROM:2A92 7E                          ld      a, (hl)
ROM:2A93 0F                          rrca
ROM:2A94 0F                          rrca
ROM:2A95 C6 24                       add     a, #0x24 ; '$'
ROM:2A97 57                          ld      d, a
ROM:2A98 2C                          inc     l
ROM:2A99 2C                          inc     l
ROM:2A9A 46                          ld      b, (hl)
ROM:2A9B 3A 14 80                    ld      a, (obj_shadow_plus_7+0xD)              ; row10, scroll (middle logs)
ROM:2A9E D6 10                       sub     #0x10
ROM:2AA0 38 08                       jr      C, loc_2AAA
ROM:2AA2
ROM:2AA2             loc_2AA2:                                                       ; ...
ROM:2AA2 91                          sub     c
ROM:2AA3 38 19                       jr      C, loc_2ABE
ROM:2AA5 92                          sub     d
ROM:2AA6 38 02                       jr      C, loc_2AAA
ROM:2AA8 10 F8                       djnz    loc_2AA2
ROM:2AAA
ROM:2AAA             loc_2AAA:                                                       ; ...
ROM:2AAA DD 36 04 7E                 ld      4(ix), #0x7E ; '~'
ROM:2AAE CD EE 0A                    call    sub_AEE
ROM:2AB1 0F                          rrca
ROM:2AB2 38 1E                       jr      C, loc_2AD2
ROM:2AB4 DD 36 05 00                 ld      5(ix), #0
ROM:2AB8 DD 36 03 F0                 ld      3(ix), #0xF0 ; 'ð'
ROM:2ABC 18 1C                       jr      loc_2ADA
ROM:2ABE             ; ---------------------------------------------------------------------------
ROM:2ABE
ROM:2ABE             loc_2ABE:                                                       ; ...
ROM:2ABE 81                          add     a, c
ROM:2ABF 47                          ld      b, a
ROM:2AC0 3A 14 80                    ld      a, (obj_shadow_plus_7+0xD)              ; row10, scroll (middle logs)
ROM:2AC3 DD 77 02                    ld      2(ix), a
ROM:2AC6 90                          sub     b
ROM:2AC7 DD 77 01                    ld      1(ix), a
ROM:2ACA 81                          add     a, c
ROM:2ACB DD 77 00                    ld      0(ix), a
ROM:2ACE DD 36 04 4E                 ld      4(ix), #0x4E ; 'N'
ROM:2AD2
ROM:2AD2             loc_2AD2:                                                       ; ...
ROM:2AD2 DD 36 05 80                 ld      5(ix), #0x80 ; '€'
ROM:2AD6 DD 36 03 00                 ld      3(ix), #0
ROM:2ADA
ROM:2ADA             loc_2ADA:                                                       ; ...
ROM:2ADA DD 36 06 01                 ld      6(ix), #1
ROM:2ADE DD 36 08 0B                 ld      8(ix), #0xB
ROM:2AE2 DD 36 09 08                 ld      9(ix), #8
ROM:2AE2             ; End of function sub_2A6A
ROM:2AE2
ROM:2AE6
ROM:2AE6             ; =============== S U B R O U T I N E =======================================
ROM:2AE6
ROM:2AE6
ROM:2AE6             sub_2AE6:                                                       ; ...
ROM:2AE6 3A 71 83                    ld      a, (byte_8371)
ROM:2AE9 B7                          or      a
ROM:2AEA C0                          ret     NZ
ROM:2AEB 3C                          inc     a
ROM:2AEC 32 71 83                    ld      (byte_8371), a
ROM:2AEF 3E 90                       ld      a, #0x90 ; ''
ROM:2AF1 DF                          rst     add_snd_to_q
ROM:2AF2 C9                          ret
ROM:2AF2             ; End of function sub_2AE6
ROM:2AF2
ROM:2AF3
ROM:2AF3             ; =============== S U B R O U T I N E =======================================
ROM:2AF3
ROM:2AF3
ROM:2AF3             sub_2AF3:                                                       ; ...
ROM:2AF3 DD 7E 06                    ld      a, 6(ix)
ROM:2AF6 B7                          or      a
ROM:2AF7 C8                          ret     Z
ROM:2AF8 CD E6 2A                    call    sub_2AE6
ROM:2AFB DD 7E 04                    ld      a, 4(ix)
ROM:2AFE FE 60                       cp      #0x60 ; '`'
ROM:2B00 30 0C                       jr      NC, loc_2B0E
ROM:2B02 3A 14 80                    ld      a, (obj_shadow_plus_7+0xD)              ; row10, scroll (middle logs)
ROM:2B05 DD 96 02                    sub     2(ix)
ROM:2B08 4F                          ld      c, a
ROM:2B09 FD 77 00                    ld      0(iy), a
ROM:2B0C 18 06                       jr      loc_2B14
ROM:2B0E             ; ---------------------------------------------------------------------------
ROM:2B0E
ROM:2B0E             loc_2B0E:                                                       ; ...
ROM:2B0E DD 4E 03                    ld      c, 3(ix)
ROM:2B11 FD 71 00                    ld      0(iy), c
ROM:2B14
ROM:2B14             loc_2B14:                                                       ; ...
ROM:2B14 DD 7E 04                    ld      a, 4(ix)
ROM:2B17 FD 77 03                    ld      3(iy), a
ROM:2B1A FD 77 07                    ld      7(iy), a
ROM:2B1D DD 7E 05                    ld      a, 5(ix)
ROM:2B20 B7                          or      a
ROM:2B21 20 0A                       jr      NZ, loc_2B2D
ROM:2B23 3E 0F                       ld      a, #0xF
ROM:2B25 81                          add     a, c
ROM:2B26 FD 77 04                    ld      4(iy), a
ROM:2B29 3C                          inc     a
ROM:2B2A C0                          ret     NZ
ROM:2B2B 18 09                       jr      loc_2B36
ROM:2B2D             ; ---------------------------------------------------------------------------
ROM:2B2D
ROM:2B2D             loc_2B2D:                                                       ; ...
ROM:2B2D 3E F1                       ld      a, #0xF1 ; 'ñ'
ROM:2B2F 81                          add     a, c
ROM:2B30 FD 77 04                    ld      4(iy), a
ROM:2B33 79                          ld      a, c
ROM:2B34 B7                          or      a
ROM:2B35 C0                          ret     NZ
ROM:2B36
ROM:2B36             loc_2B36:                                                       ; ...
ROM:2B36 DD 7E 07                    ld      a, 7(ix)
ROM:2B39 B7                          or      a
ROM:2B3A C8                          ret     Z
ROM:2B3B DD E5                       push    ix
ROM:2B3D E1                          pop     hl
ROM:2B3E 54                          ld      d, h
ROM:2B3F 5D                          ld      e, l
ROM:2B40 1C                          inc     e
ROM:2B41 01 0F 00                    ld      bc, #0xF
ROM:2B44 70                          ld      (hl), b
ROM:2B45 ED B0                       ldir
ROM:2B47 01 07 00                    ld      bc, #7
ROM:2B4A FD E5                       push    iy
ROM:2B4C E1                          pop     hl
ROM:2B4D 54                          ld      d, h
ROM:2B4E 5D                          ld      e, l
ROM:2B4F 1C                          inc     e
ROM:2B50 70                          ld      (hl), b
ROM:2B51 ED B0                       ldir
ROM:2B53 DD 36 0A 20                 ld      0xA(ix), #0x20 ; ' '
ROM:2B57 C9                          ret
ROM:2B57             ; End of function sub_2AF3
ROM:2B57
ROM:2B58
ROM:2B58             ; =============== S U B R O U T I N E =======================================
ROM:2B58
ROM:2B58
ROM:2B58             sub_2B58:                                                       ; ...
ROM:2B58 DD 7E 06                    ld      a, 6(ix)
ROM:2B5B B7                          or      a
ROM:2B5C C8                          ret     Z
ROM:2B5D DD 7E 04                    ld      a, 4(ix)
ROM:2B60 C6 02                       add     a, #2
ROM:2B62 21 47 80                    ld      hl, # spr_shadow+7                      ; sprite1, base3 (frog X)
ROM:2B65 BE                          cp      (hl)
ROM:2B66 C0                          ret     NZ
ROM:2B67 DD 7E 05                    ld      a, 5(ix)
ROM:2B6A B7                          or      a
ROM:2B6B FD 7E 00                    ld      a, 0(iy)
ROM:2B6E 21 44 80                    ld      hl, # spr_shadow+4                      ; sprite1, base0 (frog Y)
ROM:2B71 28 02                       jr      Z, loc_2B75
ROM:2B73 C6 10                       add     a, #16
ROM:2B75
ROM:2B75             loc_2B75:                                                       ; ...
ROM:2B75 96                          sub     (hl)
ROM:2B76 D8                          ret     C
ROM:2B77 FE 10                       cp      #16
ROM:2B79 D0                          ret     NC
ROM:2B7A 3E 01                       ld      a, #1
ROM:2B7C 32 04 80                    ld      (frog_dead), a
ROM:2B7F 32 2C 84                    ld      (byte_842C), a
ROM:2B82 C9                          ret
ROM:2B82             ; End of function sub_2B58
ROM:2B82
ROM:2B83
ROM:2B83             ; =============== S U B R O U T I N E =======================================
ROM:2B83
ROM:2B83
ROM:2B83             sub_2B83:                                                       ; ...
ROM:2B83 CD 13 2C                    call    sub_2C13
ROM:2B86 CD AB 2B                    call    sub_2BAB
ROM:2B89 CD 93 2B                    call    sub_2B93
ROM:2B8C CD A8 2C                    call    sub_2CA8
ROM:2B8F CD FB 2B                    call    sub_2BFB
ROM:2B92 C9                          ret
ROM:2B92             ; End of function sub_2B83
ROM:2B92
ROM:2B93
ROM:2B93             ; =============== S U B R O U T I N E =======================================
ROM:2B93
ROM:2B93
ROM:2B93             sub_2B93:                                                       ; ...
ROM:2B93 DD 7E 06                    ld      a, 6(ix)
ROM:2B96 B7                          or      a
ROM:2B97 C8                          ret     Z
ROM:2B98 DD 6E 0B                    ld      l, 0xB(ix)
ROM:2B9B 26 80                       ld      h, #0x80 ; '€'
ROM:2B9D 7E                          ld      a, (hl)
ROM:2B9E DD 96 02                    sub     2(ix)
ROM:2BA1 FD 77 00                    ld      0(iy), a
ROM:2BA4 DD 7E 04                    ld      a, 4(ix)
ROM:2BA7 FD 77 03                    ld      3(iy), a
ROM:2BAA C9                          ret
ROM:2BAA             ; End of function sub_2B93
ROM:2BAA
ROM:2BAB
ROM:2BAB             ; =============== S U B R O U T I N E =======================================
ROM:2BAB
ROM:2BAB
ROM:2BAB             sub_2BAB:                                                       ; ...
ROM:2BAB DD 7E 06                    ld      a, 6(ix)
ROM:2BAE B7                          or      a
ROM:2BAF C8                          ret     Z
ROM:2BB0 DD 35 09                    dec     9(ix)
ROM:2BB3 C0                          ret     NZ
ROM:2BB4 DD 36 09 08                 ld      9(ix), #8
ROM:2BB8 DD 6E 0B                    ld      l, 0xB(ix)
ROM:2BBB 26 80                       ld      h, #0x80 ; '€'
ROM:2BBD DD 7E 05                    ld      a, 5(ix)
ROM:2BC0 B7                          or      a
ROM:2BC1 28 0D                       jr      Z, loc_2BD0
ROM:2BC3 7E                          ld      a, (hl)
ROM:2BC4 DD 96 00                    sub     0(ix)
ROM:2BC7 FD BE 00                    cp      0(iy)
ROM:2BCA 30 11                       jr      NC, loc_2BDD
ROM:2BCC DD 34 02                    inc     2(ix)
ROM:2BCF C9                          ret
ROM:2BD0             ; ---------------------------------------------------------------------------
ROM:2BD0
ROM:2BD0             loc_2BD0:                                                       ; ...
ROM:2BD0 7E                          ld      a, (hl)
ROM:2BD1 DD 96 01                    sub     1(ix)
ROM:2BD4 FD BE 00                    cp      0(iy)
ROM:2BD7 38 04                       jr      C, loc_2BDD
ROM:2BD9 DD 35 02                    dec     2(ix)
ROM:2BDC C9                          ret
ROM:2BDD             ; ---------------------------------------------------------------------------
ROM:2BDD
ROM:2BDD             loc_2BDD:                                                       ; ...
ROM:2BDD 3A 04 80                    ld      a, (frog_dead)
ROM:2BE0 B7                          or      a                                       ; dead?
ROM:2BE1 C0                          ret     NZ                                      ; yes, exit
ROM:2BE2 DD E5                       push    ix
ROM:2BE4 E1                          pop     hl
ROM:2BE5 54                          ld      d, h
ROM:2BE6 5D                          ld      e, l
ROM:2BE7 1C                          inc     e
ROM:2BE8 01 0F 00                    ld      bc, #0xF
ROM:2BEB 70                          ld      (hl), b
ROM:2BEC ED B0                       ldir
ROM:2BEE 21 58 80                    ld      hl, # spr_shadow+0x18                   ; sprite6 base0
ROM:2BF1 11 59 80                    ld      de, # spr_shadow+0x19                   ; sprite6 flip/code
ROM:2BF4 01 03 00                    ld      bc, #3
ROM:2BF7 70                          ld      (hl), b
ROM:2BF8 ED B0                       ldir                                            ; clear sprite6
ROM:2BFA C9                          ret
ROM:2BFA             ; End of function sub_2BAB
ROM:2BFA
ROM:2BFB
ROM:2BFB             ; =============== S U B R O U T I N E =======================================
ROM:2BFB
ROM:2BFB
ROM:2BFB             sub_2BFB:                                                       ; ...
ROM:2BFB DD 7E 06                    ld      a, 6(ix)
ROM:2BFE B7                          or      a
ROM:2BFF C8                          ret     Z
ROM:2C00 21 D9 2C                    ld      hl, # byte_2CD6+3
ROM:2C03 4F                          ld      c, a
ROM:2C04 06 00                       ld      b, #0
ROM:2C06 09                          add     hl, bc
ROM:2C07 7E                          ld      a, (hl)
ROM:2C08 DD B6 05                    or      5(ix)
ROM:2C0B FD 77 01                    ld      1(iy), a
ROM:2C0E FD 36 02 02                 ld      2(iy), #2
ROM:2C12 C9                          ret
ROM:2C12             ; End of function sub_2BFB
ROM:2C12
ROM:2C13
ROM:2C13             ; =============== S U B R O U T I N E =======================================
ROM:2C13
ROM:2C13
ROM:2C13             sub_2C13:                                                       ; ...
ROM:2C13 3A B7 83                    ld      a, (curr_level)
ROM:2C16 FE 03                       cp      #3                                      ; level < 3?
ROM:2C18 D8                          ret     C                                       ; yes, exit
ROM:2C19 4F                          ld      c, a                                    ; C=level
ROM:2C1A DD 7E 06                    ld      a, 6(ix)
ROM:2C1D B7                          or      a
ROM:2C1E C0                          ret     NZ
ROM:2C1F CD EE 0A                    call    sub_AEE
ROM:2C22 47                          ld      b, a
ROM:2C23 79                          ld      a, c                                    ; level
ROM:2C24 87                          add     a, a                                    ; x2
ROM:2C25 87                          add     a, a                                    ; x4
ROM:2C26 87                          add     a, a                                    ; x8
ROM:2C27 C6 80                       add     a, #0x80 ; '€'                          ; x8+128
ROM:2C29 B8                          cp      b
ROM:2C2A D8                          ret     C
ROM:2C2B 0E 40                       ld      c, #0x40 ; '@'
ROM:2C2D CD EE 0A                    call    sub_AEE
ROM:2C30 E6 07                       and     #7
ROM:2C32 FE 05                       cp      #5
ROM:2C34 D0                          ret     NC
ROM:2C35 4F                          ld      c, a
ROM:2C36 0F                          rrca
ROM:2C37 0F                          rrca
ROM:2C38 0F                          rrca
ROM:2C39 0F                          rrca
ROM:2C3A C6 30                       add     a, #0x30 ; '0'
ROM:2C3C DD 77 04                    ld      4(ix), a
ROM:2C3F CD EE 0A                    call    sub_AEE
ROM:2C42 47                          ld      b, a
ROM:2C43 79                          ld      a, c
ROM:2C44 87                          add     a, a
ROM:2C45 5F                          ld      e, a
ROM:2C46 16 00                       ld      d, #0
ROM:2C48 21 E6 2C                    ld      hl, # byte_2CD6+0x10
ROM:2C4B 19                          add     hl, de
ROM:2C4C 5E                          ld      e, (hl)
ROM:2C4D 2C                          inc     l
ROM:2C4E 6E                          ld      l, (hl)
ROM:2C4F 26 80                       ld      h, #0x80 ; '€'
ROM:2C51 DD 75 0B                    ld      0xB(ix), l
ROM:2C54 7E                          ld      a, (hl)
ROM:2C55 57                          ld      d, a
ROM:2C56 79                          ld      a, c
ROM:2C57 87                          add     a, a
ROM:2C58 4F                          ld      c, a
ROM:2C59 06 00                       ld      b, #0
ROM:2C5B 21 DC 2C                    ld      hl, # byte_2CD6+6
ROM:2C5E 09                          add     hl, bc
ROM:2C5F 4E                          ld      c, (hl)
ROM:2C60 2C                          inc     l
ROM:2C61 66                          ld      h, (hl)
ROM:2C62 69                          ld      l, c
ROM:2C63 7E                          ld      a, (hl)
ROM:2C64 0F                          rrca
ROM:2C65 0F                          rrca
ROM:2C66 D6 10                       sub     #0x10
ROM:2C68 4F                          ld      c, a
ROM:2C69 2C                          inc     l
ROM:2C6A 2C                          inc     l
ROM:2C6B 46                          ld      b, (hl)
ROM:2C6C 7A                          ld      a, d
ROM:2C6D
ROM:2C6D             loc_2C6D:                                                       ; ...
ROM:2C6D 93                          sub     e
ROM:2C6E D8                          ret     C
ROM:2C6F 91                          sub     c
ROM:2C70 38 02                       jr      C, loc_2C74
ROM:2C72 10 F9                       djnz    loc_2C6D
ROM:2C74
ROM:2C74             loc_2C74:                                                       ; ...
ROM:2C74 81                          add     a, c
ROM:2C75 47                          ld      b, a
ROM:2C76 DD 6E 0B                    ld      l, 0xB(ix)
ROM:2C79 26 80                       ld      h, #0x80 ; '€'
ROM:2C7B 7E                          ld      a, (hl)
ROM:2C7C DD 77 02                    ld      2(ix), a
ROM:2C7F 90                          sub     b
ROM:2C80 DD 77 01                    ld      1(ix), a
ROM:2C83 81                          add     a, c
ROM:2C84 DD 77 00                    ld      0(ix), a
ROM:2C87 CD EE 0A                    call    sub_AEE
ROM:2C8A 0F                          rrca
ROM:2C8B 38 0A                       jr      C, loc_2C97
ROM:2C8D DD 36 05 80                 ld      5(ix), #0x80 ; '€'
ROM:2C91 DD 36 03 F0                 ld      3(ix), #0xF0 ; 'ð'
ROM:2C95 18 08                       jr      loc_2C9F
ROM:2C97             ; ---------------------------------------------------------------------------
ROM:2C97
ROM:2C97             loc_2C97:                                                       ; ...
ROM:2C97 DD 36 05 00                 ld      5(ix), #0
ROM:2C9B DD 36 03 00                 ld      3(ix), #0
ROM:2C9F
ROM:2C9F             loc_2C9F:                                                       ; ...
ROM:2C9F DD 36 06 01                 ld      6(ix), #1
ROM:2CA3 DD 36 09 08                 ld      9(ix), #8
ROM:2CA7 C9                          ret
ROM:2CA7             ; End of function sub_2C13
ROM:2CA7
ROM:2CA8
ROM:2CA8             ; =============== S U B R O U T I N E =======================================
ROM:2CA8
ROM:2CA8
ROM:2CA8             sub_2CA8:                                                       ; ...
ROM:2CA8 DD 7E 06                    ld      a, 6(ix)
ROM:2CAB B7                          or      a
ROM:2CAC C8                          ret     Z
ROM:2CAD DD 7E 04                    ld      a, 4(ix)
ROM:2CB0 21 47 80                    ld      hl, # spr_shadow+7                      ; sprite1 base3 (frog X)
ROM:2CB3 BE                          cp      (hl)
ROM:2CB4 C0                          ret     NZ
ROM:2CB5 DD 7E 05                    ld      a, 5(ix)
ROM:2CB8 B7                          or      a
ROM:2CB9 FD 7E 00                    ld      a, 0(iy)
ROM:2CBC 21 44 80                    ld      hl, # spr_shadow+4                      ; sprite1 base0 (frog Y)
ROM:2CBF 20 04                       jr      NZ, loc_2CC5
ROM:2CC1 C6 14                       add     a, #0x14
ROM:2CC3 18 02                       jr      loc_2CC7
ROM:2CC5             ; ---------------------------------------------------------------------------
ROM:2CC5
ROM:2CC5             loc_2CC5:                                                       ; ...
ROM:2CC5 D6 04                       sub     #4
ROM:2CC7
ROM:2CC7             loc_2CC7:                                                       ; ...
ROM:2CC7 96                          sub     (hl)
ROM:2CC8 D8                          ret     C
ROM:2CC9 FE 10                       cp      #0x10
ROM:2CCB D0                          ret     NC
ROM:2CCC 3E 01                       ld      a, #1
ROM:2CCE 32 04 80                    ld      (frog_dead), a
ROM:2CD1 DD 36 06 02                 ld      6(ix), #2
ROM:2CD5
ROM:2CD5             locret_2CD5:                                                    ; ...
ROM:2CD5 C9                          ret
ROM:2CD5             ; End of function sub_2CA8
ROM:2CD5
ROM:2CD5             ; ---------------------------------------------------------------------------
ROM:2CD6 2C 2E 30 2E+byte_2CD6:      .db 0x2C, 0x2E, 0x30, 0x2E, 0x27, 0x38, 0x70, 0x82, 0x73, 0x82, 0x76 ; ...
ROM:2CD6 27 38 70 82+                .db 0x82, 0x79, 0x82, 0x7C, 0x82, 0x50, 0xC, 0x30, 0x10, 0x70, 0x14
ROM:2CD6 73 82 76 82+                .db 0x40, 0x18, 0x40, 0x1C
ROM:2CF0
ROM:2CF0             ; =============== S U B R O U T I N E =======================================
ROM:2CF0
ROM:2CF0
ROM:2CF0             handle_coins:                                                   ; ...
ROM:2CF0
ROM:2CF0             ; FUNCTION CHUNK AT ROM:2D42 SIZE 0000000B BYTES
ROM:2CF0             ; FUNCTION CHUNK AT ROM:2D57 SIZE 00000031 BYTES
ROM:2CF0
ROM:2CF0 21 E2 83                    ld      hl, #coin1_2_service
ROM:2CF3 7E                          ld      a, (hl)
ROM:2CF4 B7                          or      a
ROM:2CF5 3A 00 E0                    ld      a, (ppi8255_0_PA)                       ; IN0 (controls)
ROM:2CF8 2F                          cpl                                             ; active hi
ROM:2CF9 20 04                       jr      NZ, loc_2CFF                            ; still active, skip
ROM:2CFB E6 C4                       and     #0xC4 ; 'Ä'                             ; coin1/2/service
ROM:2CFD 77                          ld      (hl), a                                 ; store
ROM:2CFE C9                          ret
ROM:2CFF             ; ---------------------------------------------------------------------------
ROM:2CFF
ROM:2CFF             loc_2CFF:                                                       ; ...
ROM:2CFF E6 C4                       and     #0xC4 ; 'Ä'                             ; coin1/2/service only
ROM:2D01 C0                          ret     NZ                                      ; still active, skip
ROM:2D02 3C                          inc     a
ROM:2D03 CD 94 07                    call    __send_sound_cmd
ROM:2D06 AF                          xor     a
ROM:2D07 ED 5B D4 83                 ld      de, (coinage)
ROM:2D0B CB 76                       bit     6, (hl)                                 ; coin2
ROM:2D0D C2 2B 2D                    jp      NZ, loc_2D2B                            ; active, go
ROM:2D10 CB 56                       bit     2, (hl)                                 ; service
ROM:2D12 77                          ld      (hl), a                                 ; clear
ROM:2D13 20 09                       jr      NZ, loc_2D1E                            ; active, go
ROM:2D15 3C                          inc     a
ROM:2D16 32 18 B8                    ld      (__coincnt0), a
ROM:2D19 3E 04                       ld      a, #4
ROM:2D1B 32 7E 83                    ld      (coin_debounce_0), a
ROM:2D1E
ROM:2D1E             loc_2D1E:                                                       ; ...
ROM:2D1E 21 23 2D                    ld      hl, #coin1_jmp_tbl
ROM:2D21 19                          add     hl, de                                  ; offset for coinage
ROM:2D22 E9                          jp      (hl)
ROM:2D23             ; ---------------------------------------------------------------------------
ROM:2D23
ROM:2D23             coin1_jmp_tbl:                                                  ; ...
ROM:2D23 18 24                       jr      coin1_credit1
ROM:2D25             ; ---------------------------------------------------------------------------
ROM:2D25 18 1B                       jr      coin2_credit1
ROM:2D27             ; ---------------------------------------------------------------------------
ROM:2D27 18 19                       jr      coin2_credit1
ROM:2D29             ; ---------------------------------------------------------------------------
ROM:2D29 18 1E                       jr      coin1_credit1
ROM:2D2B             ; ---------------------------------------------------------------------------
ROM:2D2B
ROM:2D2B             loc_2D2B:                                                       ; ...
ROM:2D2B 77                          ld      (hl), a
ROM:2D2C 3C                          inc     a
ROM:2D2D 32 1C B8                    ld      (__coincnt1), a
ROM:2D30 3E 04                       ld      a, #4
ROM:2D32 32 7F 83                    ld      (coin_debounce_1), a
ROM:2D35 21 3A 2D                    ld      hl, #coin2_jmp_tbl
ROM:2D38 19                          add     hl, de
ROM:2D39 E9                          jp      (hl)
ROM:2D39             ; End of function handle_coins
ROM:2D39
ROM:2D3A             ; ---------------------------------------------------------------------------
ROM:2D3A
ROM:2D3A             coin2_jmp_tbl:                                                  ; ...
ROM:2D3A 18 0D                       jr      coin1_credit1
ROM:2D3C             ; ---------------------------------------------------------------------------
ROM:2D3C 18 04                       jr      coin2_credit1
ROM:2D3E             ; ---------------------------------------------------------------------------
ROM:2D3E 18 11                       jr      coin1_credit3
ROM:2D40             ; ---------------------------------------------------------------------------
ROM:2D40 18 13                       jr      coin1_credit6
ROM:2D42             ; ---------------------------------------------------------------------------
ROM:2D42             ; START OF FUNCTION CHUNK FOR handle_coins
ROM:2D42
ROM:2D42             coin2_credit1:                                                  ; ...
ROM:2D42 21 E3 83                    ld      hl, #tmp_coin_cnt
ROM:2D45 34                          inc     (hl)
ROM:2D46 CB 46                       bit     0, (hl)                                 ; odd?
ROM:2D48 C0                          ret     NZ                                      ; yes, return
ROM:2D49
ROM:2D49             coin1_credit1:                                                  ; ...
ROM:2D49 0E 01                       ld      c, #1                                   ; add 1 credit
ROM:2D4B 18 0A                       jr      inc_credits
ROM:2D4B             ; END OF FUNCTION CHUNK FOR handle_coins
ROM:2D4B             ; ---------------------------------------------------------------------------
ROM:2D4D 0E 02 18 06                 .db 0xE, 2, 0x18, 6
ROM:2D51             ; ---------------------------------------------------------------------------
ROM:2D51
ROM:2D51             coin1_credit3:                                                  ; ...
ROM:2D51 0E 03                       ld      c, #3
ROM:2D53 18 02                       jr      inc_credits
ROM:2D55             ; ---------------------------------------------------------------------------
ROM:2D55
ROM:2D55             coin1_credit6:                                                  ; ...
ROM:2D55 0E 06                       ld      c, #6
ROM:2D57             ; START OF FUNCTION CHUNK FOR handle_coins
ROM:2D57
ROM:2D57             inc_credits:                                                    ; ...
ROM:2D57 3A E1 83                    ld      a, (num_credits)
ROM:2D5A 81                          add     a, c                                    ; add new credit(s)
ROM:2D5B 27                          daa
ROM:2D5C 30 02                       jr      NC, update_credits                      ; no overflow
ROM:2D5E 3E 99                       ld      a, #0x99 ; '™'                          ; max=99
ROM:2D60
ROM:2D60             update_credits:                                                 ; ...
ROM:2D60 32 E1 83                    ld      (num_credits), a                        ; store credits
ROM:2D63 3A FE 83                    ld      a, (f_in_game)
ROM:2D66 B7                          or      a                                       ; in game?
ROM:2D67 C0                          ret     NZ                                      ; yes, exit
ROM:2D68 3A D6 83                    ld      a, (attract_mode_part)                  ; attract mode part
ROM:2D6B FE 05                       cp      #5
ROM:2D6D CC B9 0D                    call    Z, print_one_or_two_players
ROM:2D70 3E 05                       ld      a, #5                                   ; point table header
ROM:2D72 32 D6 83                    ld      (attract_mode_part), a
ROM:2D75 AF                          xor     a
ROM:2D76 32 D8 83                    ld      (timer_83d8), a
ROM:2D79 21 40 80                    ld      hl, #spr_shadow
ROM:2D7C 11 41 80                    ld      de, # spr_shadow+1
ROM:2D7F 01 1F 00                    ld      bc, #31
ROM:2D82 70                          ld      (hl), b
ROM:2D83 ED B0                       ldir
ROM:2D85 C3 67 0B                    jp      check_and_print_credits
ROM:2D85             ; END OF FUNCTION CHUNK FOR handle_coins
ROM:2D88             ; ---------------------------------------------------------------------------
ROM:2D88             ; START OF FUNCTION CHUNK FOR handle_attract_screens
ROM:2D88
ROM:2D88             display_insert_coin_screen:                                     ; ...
ROM:2D88 21 D8 83                    ld      hl, #timer_83d8
ROM:2D8B 36 FF                       ld      (hl), #0xFF
ROM:2D8D CD 66 07                    call    cls
ROM:2D90 AF                          xor     a
ROM:2D91 32 9B 82                    ld      (byte_829B), a
ROM:2D94 32 21 80                    ld      (obj_shadow_plus_7+0x1A), a
ROM:2D97 3E 05                       ld      a, #5
ROM:2D99 32 1B 80                    ld      (obj_shadow_plus_7+0x14), a
ROM:2D9C 3E 03                       ld      a, #3
ROM:2D9E 32 2B 80                    ld      (obj_shadow_plus_7+0x24), a
ROM:2DA1 11 5C 2F                    ld      de, #aINSERT_COINS                      ; "INSERT COIN"
ROM:2DA4 21 8D AA                    ld      hl, # VRAM_START+0x28D
ROM:2DA7 06 0B                       ld      b, #11                                  ; 11 chars
ROM:2DA9 EF                          rst     print_B_chars
ROM:2DAA 3A E4 83                    ld      a, (starting_lives)
ROM:2DAD FE 0A                       cp      #10                                     ; too many?
ROM:2DAF D0                          ret     NC                                      ; yes, exit
ROM:2DB0 21 15 AB                    ld      hl, # VRAM_START+0x315
ROM:2DB3 CD A9 0B                    call    print_bcd_digit
ROM:2DB6 11 AE 2F                    ld      de, #a_FROGS                            ; " FROGS "
ROM:2DB9 06 07                       ld      b, #7                                   ; 7 chars
ROM:2DBB EF                          rst     print_B_chars
ROM:2DBC 11 73 2F                    ld      de, #a_PER
ROM:2DBF 06 04                       ld      b, #4                                   ; 4 chars
ROM:2DC1 EF                          rst     print_B_chars
ROM:2DC2 11 92 2F                    ld      de, # aWO_+2                            ; " PLAYER"
ROM:2DC5 06 07                       ld      b, #7                                   ; 7 chars
ROM:2DC7 EF                          rst     print_B_chars
ROM:2DC8 C9                          ret
ROM:2DC8             ; END OF FUNCTION CHUNK FOR handle_attract_screens
ROM:2DC8             ; ---------------------------------------------------------------------------
ROM:2DC9 FF FF FF FF+                .db 0xFF, 0xFF, 0xFF, 0xFF, 0xFF, 0xFF, 0xFF, 0xFF, 0xFF, 0xFF, 0xFF
ROM:2DC9 FF FF FF FF+                .db 0xFF, 0xFF, 0xFF, 0xFF, 0xFF, 0xFF, 0xFF, 0xFF, 0xFF, 0xFF, 0xFF
ROM:2DC9 FF FF FF FF+                .db 0xFF, 0xFF, 0xFF, 0xFF, 0xFF, 0xFF, 0xFF, 0xFF, 0xFF, 0xFF, 0xFF
ROM:2DC9 FF FF FF FF+                .db 0xFF, 0xFF, 0xFF, 0xFF, 0xFF, 0xFF, 0xFF, 0xFF, 0xFF, 0xFF, 0xFF
ROM:2DC9 FF FF FF FF+                .db 0xFF, 0xFF, 0xFF, 0xFF, 0xFF, 0xFF, 0xFF, 0xFF, 0xFF, 0xFF, 0xFF
ROM:2E00 03 05 07 FF lives_tbl:      .db 3, 5, 7, 0xFF
ROM:2E04 00                          .db    0
ROM:2E05 02                          .db    2
ROM:2E06 04                          .db    4
ROM:2E07 06                          .db    6
ROM:2E08 00 20       bonus_frog_score:.dw 0x2000                                     ; ...
ROM:2E0A 00 00       high_score_tbl_ROM:.dw 0                                        ; ...
ROM:2E0A                                                                             ; P2 score
ROM:2E0C 58 01                       .dw 0x158                                       ; P1 score
ROM:2E0E 63 04                       .dw 0x463                                       ; High Score (4630)
ROM:2E10 63 04                       .dw 0x463                                       ; 1st score (4630)
ROM:2E12 05 02                       .dw 0x205                                       ; 2nd score (2050)
ROM:2E14 97 01                       .dw 0x197                                       ; 3rd score (1970)
ROM:2E16 58 01                       .dw 0x158                                       ; 4th score (1580)
ROM:2E18 27 01                       .dw 0x127                                       ; 5th score (1270)
ROM:2E1A 05                          .db    5
ROM:2E1B 00 1F 20 21+byte_2E1B:      .db 0, 0x1F, 0x20, 0x21, 0x20, 0x25, 0x26, 0x27, 0x26, 0x2C, 0x2D ; ...
ROM:2E1B 20 25 26 27+                .db 0x2E, 0x2D, 0x2F, 0x30, 0x31, 0x30, 0x2C, 0x2E, 0x30, 0x2E, 0x2D
ROM:2E1B 26 2C 2D 2E+                .db 0x2F, 0x31, 0x2F, 0x25, 0x26, 0x27, 0x2C, 0x2D, 0x2E, 0x2F, 0x30
ROM:2E1B 2D 2F 30 31+                .db 0x31, 0x2C, 0x2E, 0x30, 0x2D, 0x2F, 0x31, 4, 4, 4, 8, 8, 8, 8
ROM:2E1B 30 2C 2E 30+                .db 8, 8, 0x10, 0x10, 0x10, 2, 3, 3, 5, 5, 6, 8, 9, 0x54, 0x58, 0x5A
ROM:2E1B 2E 2D 2F 31+                .db 0x5E, 0x56, 0x5C, 3, 3, 6, 8, 0x10, 0x18, 0x30, 0x50, 0x60, 0x80
ROM:2E1B 2F 25 26 27+                .db 0xC0
ROM:2E68 E0          unk_2E68:       .db 0xE0 ; à                                    ; ...
ROM:2E69             ; all values are incremented before use
ROM:2E69 05 02 02 02+attract_mode_frog_move_data:.db 5, 2, 2, 2, 8, 8, 5, 8, 2, 8, 8, 8, 0xE, 8, 8, 0xE, 8, 0xE, 8
ROM:2E69 08 08 05 08+                .db 0xE, 8, 0xE, 8, 5, 5, 8, 5, 2, 0xB, 5, 8, 0xFF
ROM:2E89 C0 02 00 03+                .db 0xC0, 2, 0, 3, 0, 3, 0x80, 1, 0x80, 2, 0x80, 2, 0, 2, 0, 2, 0x80
ROM:2E89 00 03 80 01+                .db 3, 0xE0, 2, 0x20, 2, 0x20, 2, 0x20, 2, 0, 3, 0x80, 2, 0xC0, 2
ROM:2E89 80 02 80 02+                .db 0xC0, 2, 0x80, 3, 0x20, 2, 0x20, 2
ROM:2EB1 10 39 40 D7+byte_2EB1:      .db 0x10, 0x39, 0x40, 0xD7, 0xA7, 0xF, 0x3C, 0x36, 0x10, 0x39, 0x40 ; ...
ROM:2EB1 A7 0F 3C 36+                .db 0xD7, 0xA7, 0xF, 0x3C, 0x36, 0x10, 0x39, 0x40, 0xD7, 0xA7, 0xF
ROM:2EB1 10 39 40 D7+                .db 0x3C, 0x36, 0x10, 0x39, 0x40, 0xD7, 0xA7, 0xF, 0x3C, 0x36
ROM:2ED1 10 16 1F 22+a_FOR_EACH_STEP:.db 0x10, 0x16, 0x1F, 0x22, 0x10, 0x15, 0x11, 0x13, 0x18, 0x10, 0x23 ; ...
ROM:2ED1 10 15 11 13+                .db 0x24, 0x15, 0x20                            ; " FOR EACH STEP"
ROM:2EDF 2B 25 20    aUP:            .db 0x2B, 0x25, 0x20                            ; ...
ROM:2EDF                                                                             ; "-UP"
ROM:2EE2 18 19 2B 23+aHI_SCORE:      .db 0x18, 0x19, 0x2B, 0x23, 0x13, 0x1F, 0x22, 0x15 ; ...
ROM:2EE2 13 1F 22 15                                                                 ; "HI-SCORE"
ROM:2EEA 10 22 11 1E+                .db 0x10, 0x22, 0x11, 0x1E, 0x1B, 0x19, 0x1E, 0x17 ; " RANKING"
ROM:2EF2 10 23 24    aST:            .db 0x10, 0x23, 0x24                            ; " ST"
ROM:2EF5 10 1E 14    aND:            .db 0x10, 0x1E, 0x14                            ; " ND"
ROM:2EF8 10 22 14    aRD:            .db 0x10, 0x22, 0x14                            ; " RD"
ROM:2EFB 10 24 18    aTH:            .db 0x10, 0x24, 0x18                            ; " TH"
ROM:2EFE 10 24 18    aTH2:           .db 0x10, 0x24, 0x18                            ; " TH"
ROM:2F01 2B 20 1F 19+aPOINT_TABLE:   .db 0x2B, 0x20, 0x1F, 0x19, 0x1E, 0x24, 0x10, 0x24, 0x11, 0x12, 0x1C ; ...
ROM:2F01 1E 24 10 24+                .db 0x15, 0x2B                                  ; "-POINT TABLE-"
ROM:2F0E 17 11 1D 15+aGAME_OVER:     .db 0x17, 0x11, 0x1D, 0x15, 0x10, 0x1F, 0x26, 0x15, 0x22 ; ...
ROM:2F0E 10 1F 26 15+                                                                ; "GAME OVER"
ROM:2F17 11 22 22 19+aARRIVED_HOME_SAFELY:.db 0x11, 0x22, 0x22, 0x19, 0x26, 0x15, 0x14, 0x10, 0x18, 0x1F, 0x1D ; ...
ROM:2F17 26 15 14 10+                .db 0x15, 0x10, 0x23, 0x11, 0x16, 0x15, 0x1C, 0x29 ; "ARRIVED HOME SAFELY"
ROM:2F2A 19 1E 24 1F+aINTO_FIYE_HOMES:.db 0x19, 0x1E, 0x24, 0x1F, 0x10, 0x16, 0x19, 0x29, 0x15, 0x10, 0x18 ; ...
ROM:2F2A 10 16 19 29+                .db 0x1F, 0x1D, 0x15, 0x23                      ; "INTO FIYE HOMES"
ROM:2F39 10 12 29 10+aBY_SAVING_:    .db 0x10, 0x12, 0x29, 0x10, 0x23, 0x11, 0x26, 0x19, 0x1E, 0x17 ; ...
ROM:2F39 23 11 26 19+                                                                ; "BY SAVING "
ROM:2F43 10 16 1F 22+a_FOR_EVERY:    .db 0x10, 0x16, 0x1F, 0x22, 0x10, 0x15, 0x26, 0x15, 0x22, 0x29 ; ...
ROM:2F43 10 15 26 15+                                                                ; " FOR EVERY"
ROM:2F4D 1B 1F 1E 11+aKONAMI_1981:   .db 0x1B, 0x1F, 0x1E, 0x11, 0x1D, 0x19, 0x10, 0x10, 0x4E, 0x10, 0x10 ; ...
ROM:2F4D 1D 19 10 10+                .db 1, 9, 8, 1                                  ; "KONAMI...1981"
ROM:2F5C 19 1E 23 15+aINSERT_COINS:  .db 0x19, 0x1E, 0x23, 0x15, 0x22, 0x24, 0x10, 0x13, 0x1F, 0x19, 0x1E ; ...
ROM:2F5C 22 24 10 13+                .db 0x23                                        ; "INSERT COINS"
ROM:2F68 13 22 15 14+aCREDIT:        .db 0x13, 0x22, 0x15, 0x14, 0x19, 0x24          ; ...
ROM:2F68 19 24                                                                       ; "CREDIT"
ROM:2F6E 24 19 1D 15 aTIME:          .db 0x24, 0x19, 0x1D, 0x15                      ; ...
ROM:2F6E                                                                             ; "TIME"
ROM:2F72 10                          .db 0x10
ROM:2F73 10 20 15 22 a_PER:          .db 0x10, 0x20, 0x15, 0x22                      ; ...
ROM:2F73                                                                             ; " PER"
ROM:2F77 20 25 23 18 aPUSH:          .db 0x20, 0x25, 0x23, 0x18                      ; ...
ROM:2F77                                                                             ; "PUSH"
ROM:2F7B 10          unk_2F7B:       .db 0x10                                        ; ...
ROM:2F7B                                                                             ; " "
ROM:2F7C 23 24 11 22+aSTART_BUTTON:  .db 0x23, 0x24, 0x11, 0x22, 0x24, 0x10, 0x12, 0x25, 0x24, 0x24, 0x1F ; "START BUTTON"
ROM:2F7C 24 10 12 25+                .db 0x1E
ROM:2F88 1F 1E 15 10 aONE_:          .db 0x1F, 0x1E, 0x15, 0x10                      ; ...
ROM:2F88                                                                             ; "ONE "
ROM:2F8C 1F 22 10 24 aOR_T:          .db 0x1F, 0x22, 0x10, 0x24                      ; "OR T"
ROM:2F90 27 1F 10    aWO_:           .db 0x27, 0x1F, 0x10                            ; ...
ROM:2F90                                                                             ; "WO "
ROM:2F93 20 1C 11 29+aPLAYER_ONLY:   .db 0x20, 0x1C, 0x11, 0x29, 0x15, 0x22, 0x10, 0x1F, 0x1E, 0x1C, 0x29 ; ...
ROM:2F93 15 22 10 1F+                                                                ; "PLAYER ONLY"
ROM:2F9E 20 1C 25 23+aPLUS_BONUS:    .db 0x20, 0x1C, 0x25, 0x23, 0x10, 0x12, 0x1F, 0x1E, 0x25, 0x23 ; ...
ROM:2FA8 10 15 28 24+a_EXTRA:        .db 0x10, 0x15, 0x28, 0x24, 0x22, 0x11          ; ...
ROM:2FA8 22 11                                                                       ; " EXTRA"
ROM:2FAE 10 16 22 1F+a_FROGS:        .db 0x10, 0x16, 0x22, 0x1F, 0x17, 0x23          ; ...
ROM:2FAE 17 23                                                                       ; " FROG"
ROM:2FB4 10 11 16 24+a_AFTER:        .db 0x10, 0x11, 0x16, 0x24, 0x15, 0x22          ; " AFTER"
ROM:2FBA 10 20 24 23 a_PTS:          .db 0x10, 0x20, 0x24, 0x23                      ; ...
ROM:2FBA                                                                             ; " PTS"
ROM:2FBE 10 28 10 22+a_X_REMAINING_SECOND:.db 0x10, 0x28, 0x10, 0x22, 0x15, 0x1D, 0x11, 0x19, 0x1E, 0x19, 0x1E ; " X REMAINING SECOND"
ROM:2FBE 15 1D 11 19+                .db 0x17, 0x10, 0x23, 0x15, 0x13, 0x1F, 0x1E, 0x14
ROM:2FD1 FF FF FF FF+                .db 0xFF, 0xFF, 0xFF, 0xFF, 0xFF, 0xFF, 0xFF, 0xFF, 0xFF, 0xFF, 0xFF
ROM:2FD1 FF FF FF FF+                .db 0xFF, 0xFF, 0xFF, 0xFF, 0xFF, 0xFF, 0xFF, 0xFF, 0xFF, 0xFF, 0xFF
ROM:2FD1 FF FF FF FF+                .db 0xFF, 0xFF, 0xFF, 0xFF, 0xFF, 0xFF, 0xFF, 0xFF, 0xFF, 0xFF, 0xFF
ROM:2FD1 FF FF FF FF+                .db 0xFF, 0xFF, 0xFF, 0xFF, 0xFF, 0xFF, 0xFF, 0xFF, 0xFF, 0xFF, 0xFF
ROM:2FD1 FF FF FF FF+                .db 0xFF, 0xFF, 0xFF
ROM:2FD1 FF FF FF FF+; end of 'ROM'
ROM:2FD1 FF FF FF FF+
RAM:8000             ; ===========================================================================
RAM:8000
RAM:8000             ; Segment type: Regular
RAM:8000                             .org 0x8000
RAM:8000 ?? ??       word_8000:      .ds 2                                           ; ...
RAM:8002 ??                          .ds 1
RAM:8003 ??          byte_8003:      .ds 1                                           ; ...
RAM:8004 ??          frog_dead:      .ds 1                                           ; ...
RAM:8005 ??                          .ds 1
RAM:8006 ??                          .ds 1
RAM:8007 ?? ?? ?? ??+obj_shadow_plus_7:.ds 0x39                                      ; ...
RAM:8040 ?? ?? ?? ??+spr_shadow:     .ds 0x20                                        ; ...
RAM:8060 ??                          .ds 1
RAM:8061 ??                          .ds 1
RAM:8062 ??                          .ds 1
RAM:8063 ??                          .ds 1
RAM:8064 ??                          .ds 1
RAM:8065 ??                          .ds 1
RAM:8066 ??                          .ds 1
RAM:8067 ??                          .ds 1
RAM:8068 ??                          .ds 1
RAM:8069 ??                          .ds 1
RAM:806A ??                          .ds 1
RAM:806B ??                          .ds 1
RAM:806C ??                          .ds 1
RAM:806D ??                          .ds 1
RAM:806E ??                          .ds 1
RAM:806F ??                          .ds 1
RAM:8070 ??                          .ds 1
RAM:8071 ??          byte_8071:      .ds 1                                           ; ...
RAM:8072 ??                          .ds 1
RAM:8073 ??                          .ds 1
RAM:8074 ??                          .ds 1
RAM:8075 ??                          .ds 1
RAM:8076 ??                          .ds 1
RAM:8077 ??                          .ds 1
RAM:8078 ??                          .ds 1
RAM:8079 ??                          .ds 1
RAM:807A ??                          .ds 1
RAM:807B ??                          .ds 1
RAM:807C ??                          .ds 1
RAM:807D ??                          .ds 1
RAM:807E ??                          .ds 1
RAM:807F ??                          .ds 1
RAM:8080 ??                          .ds 1
RAM:8081 ??                          .ds 1
RAM:8082 ??                          .ds 1
RAM:8083 ??                          .ds 1
RAM:8084 ??                          .ds 1
RAM:8085 ??                          .ds 1
RAM:8086 ??                          .ds 1
RAM:8087 ??                          .ds 1
RAM:8088 ??                          .ds 1
RAM:8089 ??                          .ds 1
RAM:808A ??                          .ds 1
RAM:808B ??                          .ds 1
RAM:808C ??                          .ds 1
RAM:808D ??                          .ds 1
RAM:808E ??                          .ds 1
RAM:808F ??                          .ds 1
RAM:8090 ??                          .ds 1
RAM:8091 ??                          .ds 1
RAM:8092 ??                          .ds 1
RAM:8093 ??                          .ds 1
RAM:8094 ??                          .ds 1
RAM:8095 ??                          .ds 1
RAM:8096 ??                          .ds 1
RAM:8097 ??                          .ds 1
RAM:8098 ??                          .ds 1
RAM:8099 ??                          .ds 1
RAM:809A ??                          .ds 1
RAM:809B ??                          .ds 1
RAM:809C ??                          .ds 1
RAM:809D ??                          .ds 1
RAM:809E ??                          .ds 1
RAM:809F ??                          .ds 1
RAM:80A0 ??                          .ds 1
RAM:80A1 ??                          .ds 1
RAM:80A2 ??                          .ds 1
RAM:80A3 ??                          .ds 1
RAM:80A4 ??                          .ds 1
RAM:80A5 ??                          .ds 1
RAM:80A6 ??                          .ds 1
RAM:80A7 ??                          .ds 1
RAM:80A8 ??                          .ds 1
RAM:80A9 ??                          .ds 1
RAM:80AA ??                          .ds 1
RAM:80AB ??                          .ds 1
RAM:80AC ??                          .ds 1
RAM:80AD ??                          .ds 1
RAM:80AE ??                          .ds 1
RAM:80AF ??                          .ds 1
RAM:80B0 ??                          .ds 1
RAM:80B1 ??                          .ds 1
RAM:80B2 ??                          .ds 1
RAM:80B3 ??                          .ds 1
RAM:80B4 ??                          .ds 1
RAM:80B5 ??                          .ds 1
RAM:80B6 ??                          .ds 1
RAM:80B7 ??                          .ds 1
RAM:80B8 ??                          .ds 1
RAM:80B9 ??                          .ds 1
RAM:80BA ??                          .ds 1
RAM:80BB ??                          .ds 1
RAM:80BC ??                          .ds 1
RAM:80BD ??                          .ds 1
RAM:80BE ??                          .ds 1
RAM:80BF ??                          .ds 1
RAM:80C0 ??                          .ds 1
RAM:80C1 ??                          .ds 1
RAM:80C2 ??                          .ds 1
RAM:80C3 ??                          .ds 1
RAM:80C4 ??                          .ds 1
RAM:80C5 ??                          .ds 1
RAM:80C6 ??                          .ds 1
RAM:80C7 ??                          .ds 1
RAM:80C8 ??                          .ds 1
RAM:80C9 ??                          .ds 1
RAM:80CA ??                          .ds 1
RAM:80CB ??                          .ds 1
RAM:80CC ??                          .ds 1
RAM:80CD ??                          .ds 1
RAM:80CE ??                          .ds 1
RAM:80CF ??                          .ds 1
RAM:80D0 ??                          .ds 1
RAM:80D1 ??                          .ds 1
RAM:80D2 ??                          .ds 1
RAM:80D3 ??                          .ds 1
RAM:80D4 ??                          .ds 1
RAM:80D5 ??                          .ds 1
RAM:80D6 ??                          .ds 1
RAM:80D7 ??                          .ds 1
RAM:80D8 ??                          .ds 1
RAM:80D9 ??                          .ds 1
RAM:80DA ??                          .ds 1
RAM:80DB ??                          .ds 1
RAM:80DC ??                          .ds 1
RAM:80DD ??                          .ds 1
RAM:80DE ??                          .ds 1
RAM:80DF ??                          .ds 1
RAM:80E0 ??                          .ds 1
RAM:80E1 ??                          .ds 1
RAM:80E2 ??                          .ds 1
RAM:80E3 ??                          .ds 1
RAM:80E4 ??                          .ds 1
RAM:80E5 ??                          .ds 1
RAM:80E6 ??                          .ds 1
RAM:80E7 ??                          .ds 1
RAM:80E8 ??                          .ds 1
RAM:80E9 ??                          .ds 1
RAM:80EA ??                          .ds 1
RAM:80EB ??                          .ds 1
RAM:80EC ??                          .ds 1
RAM:80ED ??                          .ds 1
RAM:80EE ??                          .ds 1
RAM:80EF ??                          .ds 1
RAM:80F0 ??                          .ds 1
RAM:80F1 ??                          .ds 1
RAM:80F2 ??                          .ds 1
RAM:80F3 ??                          .ds 1
RAM:80F4 ??                          .ds 1
RAM:80F5 ??                          .ds 1
RAM:80F6 ??                          .ds 1
RAM:80F7 ??                          .ds 1
RAM:80F8 ??                          .ds 1
RAM:80F9 ??                          .ds 1
RAM:80FA ??                          .ds 1
RAM:80FB ??                          .ds 1
RAM:80FC ??                          .ds 1
RAM:80FD ??                          .ds 1
RAM:80FE ??                          .ds 1
RAM:80FF             ; current player game stats (183 bytes)
RAM:80FF             ; - copied from p1_game_stats/p2_game_stats
RAM:80FF ??          row_to_scroll:  .ds 1                                           ; ...
RAM:8100 ??          unk_8100:       .ds 1                                           ; ...
RAM:8101 ??          unk_8101:       .ds 1                                           ; ...
RAM:8102 ??                          .ds 1
RAM:8103 ??                          .ds 1
RAM:8104 ??                          .ds 1
RAM:8105 ??                          .ds 1
RAM:8106 ??                          .ds 1
RAM:8107 ??          unk_8107:       .ds 1                                           ; ...
RAM:8108 ??          unk_8108:       .ds 1                                           ; ...
RAM:8109 ??          byte_8109:      .ds 1                                           ; ...
RAM:810A ??                          .ds 1
RAM:810B ??                          .ds 1
RAM:810C ??                          .ds 1
RAM:810D ??                          .ds 1
RAM:810E ??                          .ds 1
RAM:810F ??                          .ds 1
RAM:8110 ??          turtle_duo_timer:.ds 1                                          ; ...
RAM:8111 ??          turtle_trio_timer:.ds 1                                         ; ...
RAM:8112 ??          unk_8112:       .ds 1                                           ; ...
RAM:8113 ??                          .ds 1
RAM:8114 ??                          .ds 1
RAM:8115 ??                          .ds 1
RAM:8116 ??                          .ds 1
RAM:8117 ??                          .ds 1
RAM:8118 ??          byte_8118:      .ds 1                                           ; ...
RAM:8119 ??          turtle_trio_data_2ix:.ds 1                                      ; ...
RAM:811A ??          turtle_duo_data_2ix:.ds 1                                       ; ...
RAM:811B ??          unk_811B:       .ds 1                                           ; ...
RAM:811C ??          unk_811C:       .ds 1                                           ; ...
RAM:811D ??                          .ds 1
RAM:811E ??                          .ds 1
RAM:811F ??                          .ds 1
RAM:8120 ??          alligator_home_num:.ds 1                                        ; ...
RAM:8121 ??          creature_home_num:.ds 1                                         ; ...
RAM:8122 ??          creature_home_timer:.ds 1                                       ; ...
RAM:8123 ??          creature_next_home_num:.ds 1                                    ; ...
RAM:8124 ??          byte_8124:      .ds 1                                           ; ...
RAM:8125 ??                          .ds 1
RAM:8126 ??                          .ds 1
RAM:8127 ??                          .ds 1
RAM:8128 ??                          .ds 1
RAM:8129 ??                          .ds 1
RAM:812A ??                          .ds 1
RAM:812B ??                          .ds 1
RAM:812C ??                          .ds 1
RAM:812D ??          unk_812D:       .ds 1                                           ; ...
RAM:812E ??                          .ds 1
RAM:812F ??                          .ds 1
RAM:8130 ??                          .ds 1
RAM:8131 ??                          .ds 1
RAM:8132 ??                          .ds 1
RAM:8133 ??                          .ds 1
RAM:8134 ??          f_got_lady_frog:.ds 1                                           ; ...
RAM:8135 ??          byte_8135:      .ds 1                                           ; ...
RAM:8136 ??          unk_8136:       .ds 1                                           ; ...
RAM:8137 ??                          .ds 1
RAM:8138 ??                          .ds 1
RAM:8139 ??                          .ds 1
RAM:813A ??                          .ds 1
RAM:813B ??                          .ds 1
RAM:813C ??                          .ds 1
RAM:813D ??          lady_frog_active:.ds 1                                          ; ...
RAM:813E ??                          .ds 1
RAM:813F ??          unk_813F:       .ds 1                                           ; ...
RAM:8140 ??          byte_8140:      .ds 1                                           ; ...
RAM:8141 ??                          .ds 1
RAM:8142 ??                          .ds 1
RAM:8143 ??                          .ds 1
RAM:8144 ??                          .ds 1
RAM:8145 ??          byte_8145:      .ds 1                                           ; ...
RAM:8146 ??          byte_8146:      .ds 1                                           ; ...
RAM:8147 ??          byte_8147:      .ds 1                                           ; ...
RAM:8148 ??          unk_8148:       .ds 1                                           ; ...
RAM:8149 ??                          .ds 1
RAM:814A ??                          .ds 1
RAM:814B ??                          .ds 1
RAM:814C ??                          .ds 1
RAM:814D ??                          .ds 1
RAM:814E ??          byte_814E:      .ds 1                                           ; ...
RAM:814F ??          byte_814F:      .ds 1                                           ; ...
RAM:8150 ??          f_alligator:    .ds 1                                           ; ...
RAM:8151 ??          unk_8151:       .ds 1                                           ; ...
RAM:8152 ??                          .ds 1
RAM:8153 ??                          .ds 1
RAM:8154 ??                          .ds 1
RAM:8155 ??                          .ds 1
RAM:8156 ??                          .ds 1
RAM:8157 ??                          .ds 1
RAM:8158 ??                          .ds 1
RAM:8159 ??                          .ds 1
RAM:815A ??          unk_815A:       .ds 1                                           ; ...
RAM:815B ??          byte_815B:      .ds 1                                           ; ...
RAM:815C ??                          .ds 1
RAM:815D ??                          .ds 1
RAM:815E ??                          .ds 1
RAM:815F ??                          .ds 1
RAM:8160 ??                          .ds 1
RAM:8161 ??                          .ds 1
RAM:8162 ??                          .ds 1
RAM:8163 ??                          .ds 1
RAM:8164 ??                          .ds 1
RAM:8165 ??                          .ds 1
RAM:8166 ??                          .ds 1
RAM:8167 ??                          .ds 1
RAM:8168 ??                          .ds 1
RAM:8169 ??                          .ds 1
RAM:816A ??                          .ds 1
RAM:816B ??                          .ds 1
RAM:816C ??                          .ds 1
RAM:816D ??                          .ds 1
RAM:816E ??                          .ds 1
RAM:816F ??                          .ds 1
RAM:8170 ??                          .ds 1
RAM:8171 ??                          .ds 1
RAM:8172 ??                          .ds 1
RAM:8173 ??                          .ds 1
RAM:8174 ??                          .ds 1
RAM:8175 ??                          .ds 1
RAM:8176 ??                          .ds 1
RAM:8177 ??                          .ds 1
RAM:8178 ??                          .ds 1
RAM:8179 ??                          .ds 1
RAM:817A ??                          .ds 1
RAM:817B ??                          .ds 1
RAM:817C ??                          .ds 1
RAM:817D ??                          .ds 1
RAM:817E ??                          .ds 1
RAM:817F ??                          .ds 1
RAM:8180 ??                          .ds 1
RAM:8181 ??                          .ds 1
RAM:8182 ??                          .ds 1
RAM:8183 ??                          .ds 1
RAM:8184 ??                          .ds 1
RAM:8185 ??                          .ds 1
RAM:8186 ??                          .ds 1
RAM:8187 ??                          .ds 1
RAM:8188 ??                          .ds 1
RAM:8189 ??                          .ds 1
RAM:818A ??                          .ds 1
RAM:818B ??                          .ds 1
RAM:818C ??                          .ds 1
RAM:818D ??                          .ds 1
RAM:818E ??                          .ds 1
RAM:818F ??                          .ds 1
RAM:8190 ??                          .ds 1
RAM:8191 ??                          .ds 1
RAM:8192 ??                          .ds 1
RAM:8193 ??                          .ds 1
RAM:8194 ??                          .ds 1
RAM:8195 ??                          .ds 1
RAM:8196 ??                          .ds 1
RAM:8197 ??                          .ds 1
RAM:8198 ??                          .ds 1
RAM:8199 ??                          .ds 1
RAM:819A ??                          .ds 1
RAM:819B ??          byte_819B:      .ds 1                                           ; ...
RAM:819C ??          unk_819C:       .ds 1                                           ; ...
RAM:819D ??          unk_819D:       .ds 1                                           ; ...
RAM:819E ??          unk_819E:       .ds 1                                           ; ...
RAM:819F ??          unk_819F:       .ds 1                                           ; ...
RAM:81A0 ??                          .ds 1
RAM:81A1 ??          unk_81A1:       .ds 1                                           ; ...
RAM:81A2 ??          byte_81A2:      .ds 1                                           ; ...
RAM:81A3 ??          unk_81A3:       .ds 1                                           ; ...
RAM:81A4 ??          unk_81A4:       .ds 1                                           ; ...
RAM:81A5 ??          unk_81A5:       .ds 1                                           ; ...
RAM:81A6 ??          unk_81A6:       .ds 1                                           ; ...
RAM:81A7 ??          unk_81A7:       .ds 1                                           ; ...
RAM:81A8 ??          unk_81A8:       .ds 1                                           ; ...
RAM:81A9 ??          unk_81A9:       .ds 1                                           ; ...
RAM:81AA ??          unk_81AA:       .ds 1                                           ; ...
RAM:81AB ??          unk_81AB:       .ds 1                                           ; ...
RAM:81AC ??          unk_81AC:       .ds 1                                           ; ...
RAM:81AD ??          unk_81AD:       .ds 1                                           ; ...
RAM:81AE ??          unk_81AE:       .ds 1                                           ; ...
RAM:81AF ??          unk_81AF:       .ds 1                                           ; ...
RAM:81B0 ??          unk_81B0:       .ds 1                                           ; ...
RAM:81B1 ??          byte_81B1:      .ds 1                                           ; ...
RAM:81B2 ??          byte_81B2:      .ds 1                                           ; ...
RAM:81B3 ?? ??       word_81B3:      .ds 2                                           ; ...
RAM:81B5 ??                          .ds 1
RAM:81B6 ??                          .ds 1
RAM:81B7 ??                          .ds 1
RAM:81B8 ??                          .ds 1
RAM:81B9 ??                          .ds 1
RAM:81BA ??                          .ds 1
RAM:81BB ??                          .ds 1
RAM:81BC ??                          .ds 1
RAM:81BD ??                          .ds 1
RAM:81BE ??                          .ds 1
RAM:81BF ??                          .ds 1
RAM:81C0 ??                          .ds 1
RAM:81C1 ??                          .ds 1
RAM:81C2 ??                          .ds 1
RAM:81C3 ??                          .ds 1
RAM:81C4 ??                          .ds 1
RAM:81C5 ??                          .ds 1
RAM:81C6 ??                          .ds 1
RAM:81C7 ??                          .ds 1
RAM:81C8 ??                          .ds 1
RAM:81C9 ??                          .ds 1
RAM:81CA ??                          .ds 1
RAM:81CB ??                          .ds 1
RAM:81CC ??                          .ds 1
RAM:81CD ??                          .ds 1
RAM:81CE ??                          .ds 1
RAM:81CF ??                          .ds 1
RAM:81D0 ??                          .ds 1
RAM:81D1 ??                          .ds 1
RAM:81D2 ??                          .ds 1
RAM:81D3 ??                          .ds 1
RAM:81D4 ??                          .ds 1
RAM:81D5 ??                          .ds 1
RAM:81D6 ??                          .ds 1
RAM:81D7 ??                          .ds 1
RAM:81D8 ??                          .ds 1
RAM:81D9 ??                          .ds 1
RAM:81DA ??                          .ds 1
RAM:81DB ??                          .ds 1
RAM:81DC ??                          .ds 1
RAM:81DD ??                          .ds 1
RAM:81DE ??                          .ds 1
RAM:81DF ??                          .ds 1
RAM:81E0 ??                          .ds 1
RAM:81E1 ??                          .ds 1
RAM:81E2 ??                          .ds 1
RAM:81E3 ??                          .ds 1
RAM:81E4 ??                          .ds 1
RAM:81E5 ??                          .ds 1
RAM:81E6 ??                          .ds 1
RAM:81E7 ??                          .ds 1
RAM:81E8 ??                          .ds 1
RAM:81E9 ??                          .ds 1
RAM:81EA ??                          .ds 1
RAM:81EB ??                          .ds 1
RAM:81EC ??                          .ds 1
RAM:81ED ??                          .ds 1
RAM:81EE ??                          .ds 1
RAM:81EF ??                          .ds 1
RAM:81F0 ??                          .ds 1
RAM:81F1 ??                          .ds 1
RAM:81F2 ??                          .ds 1
RAM:81F3 ??                          .ds 1
RAM:81F4 ??                          .ds 1
RAM:81F5 ??                          .ds 1
RAM:81F6 ??                          .ds 1
RAM:81F7 ??                          .ds 1
RAM:81F8 ??                          .ds 1
RAM:81F9 ??                          .ds 1
RAM:81FA ??                          .ds 1
RAM:81FB ??                          .ds 1
RAM:81FC ??                          .ds 1
RAM:81FD ??                          .ds 1
RAM:81FE ??                          .ds 1
RAM:81FF ??                          .ds 1
RAM:8200 ??                          .ds 1
RAM:8201 ??                          .ds 1
RAM:8202 ??                          .ds 1
RAM:8203 ??                          .ds 1
RAM:8204 ??                          .ds 1
RAM:8205 ??                          .ds 1
RAM:8206 ??                          .ds 1
RAM:8207 ??                          .ds 1
RAM:8208 ??                          .ds 1
RAM:8209 ??                          .ds 1
RAM:820A ??                          .ds 1
RAM:820B ??                          .ds 1
RAM:820C ??                          .ds 1
RAM:820D ??                          .ds 1
RAM:820E ??                          .ds 1
RAM:820F ??                          .ds 1
RAM:8210 ??                          .ds 1
RAM:8211 ??                          .ds 1
RAM:8212 ??                          .ds 1
RAM:8213 ??                          .ds 1
RAM:8214 ??                          .ds 1
RAM:8215 ??                          .ds 1
RAM:8216 ??                          .ds 1
RAM:8217 ??                          .ds 1
RAM:8218 ??                          .ds 1
RAM:8219 ??                          .ds 1
RAM:821A ??                          .ds 1
RAM:821B ??                          .ds 1
RAM:821C ??                          .ds 1
RAM:821D ??                          .ds 1
RAM:821E ??                          .ds 1
RAM:821F ??                          .ds 1
RAM:8220 ??                          .ds 1
RAM:8221 ??                          .ds 1
RAM:8222 ??                          .ds 1
RAM:8223 ??                          .ds 1
RAM:8224 ??                          .ds 1
RAM:8225 ??                          .ds 1
RAM:8226 ??                          .ds 1
RAM:8227 ??                          .ds 1
RAM:8228 ??                          .ds 1
RAM:8229 ??                          .ds 1
RAM:822A ??                          .ds 1
RAM:822B ??                          .ds 1
RAM:822C ??                          .ds 1
RAM:822D ??                          .ds 1
RAM:822E ??                          .ds 1
RAM:822F ??                          .ds 1
RAM:8230 ??                          .ds 1
RAM:8231 ??                          .ds 1
RAM:8232 ??                          .ds 1
RAM:8233 ??                          .ds 1
RAM:8234 ??                          .ds 1
RAM:8235 ??                          .ds 1
RAM:8236 ??                          .ds 1
RAM:8237 ??                          .ds 1
RAM:8238 ??                          .ds 1
RAM:8239 ??                          .ds 1
RAM:823A ??                          .ds 1
RAM:823B ??                          .ds 1
RAM:823C ??                          .ds 1
RAM:823D ??                          .ds 1
RAM:823E ??                          .ds 1
RAM:823F ??                          .ds 1
RAM:8240 ??                          .ds 1
RAM:8241 ??                          .ds 1
RAM:8242 ??                          .ds 1
RAM:8243 ??                          .ds 1
RAM:8244 ??                          .ds 1
RAM:8245 ??                          .ds 1
RAM:8246 ??                          .ds 1
RAM:8247 ??          byte_8247:      .ds 1                                           ; ...
RAM:8248 ??          byte_8248:      .ds 1                                           ; ...
RAM:8249 ??          byte_8249:      .ds 1                                           ; ...
RAM:824A ??          byte_824A:      .ds 1                                           ; ...
RAM:824B ??          byte_824B:      .ds 1                                           ; ...
RAM:824C ??          byte_824C:      .ds 1                                           ; ...
RAM:824D ??          byte_824D:      .ds 1                                           ; ...
RAM:824E ??          byte_824E:      .ds 1                                           ; ...
RAM:824F ??          byte_824F:      .ds 1                                           ; ...
RAM:8250 ??          byte_8250:      .ds 1                                           ; ...
RAM:8251 ??          byte_8251:      .ds 1                                           ; ...
RAM:8252 ??          byte_8252:      .ds 1                                           ; ...
RAM:8253 ??          byte_8253:      .ds 1                                           ; ...
RAM:8254 ??          byte_8254:      .ds 1                                           ; ...
RAM:8255 ??          byte_8255:      .ds 1                                           ; ...
RAM:8256 ??          byte_8256:      .ds 1                                           ; ...
RAM:8257 ??          byte_8257:      .ds 1                                           ; ...
RAM:8258 ??          byte_8258:      .ds 1                                           ; ...
RAM:8259 ??          byte_8259:      .ds 1                                           ; ...
RAM:825A ??          byte_825A:      .ds 1                                           ; ...
RAM:825B ??          byte_825B:      .ds 1                                           ; ...
RAM:825C ??          p1_frogs_home_2:.ds 1                                           ; ...
RAM:825D ??          p2_frogs_home_2:.ds 1                                           ; ...
RAM:825E ?? ?? ?? ??+p1_frog_home_array:.ds 5                                        ; ...
RAM:8263 ?? ?? ?? ??+p2_frog_home_array:.ds 5                                        ; ...
RAM:8268 ??          byte_8268:      .ds 1                                           ; ...
RAM:8269 ??          farthest_fwd:   .ds 1                                           ; ...
RAM:826A ??          byte_826A:      .ds 1                                           ; ...
RAM:826B ??                          .ds 1
RAM:826C ??          byte_826C:      .ds 1                                           ; ...
RAM:826D ??          byte_826D:      .ds 1                                           ; ...
RAM:826E ??          byte_826E:      .ds 1                                           ; ...
RAM:826F ??                          .ds 1
RAM:8270             ; data table (33 bytes) depending on #frogs home
RAM:8270 ??          unk_8270:       .ds 1                                           ; ...
RAM:8271 ??                          .ds 1
RAM:8272 ??                          .ds 1
RAM:8273 ?? ?? ??    turtle_duo_data:.ds 3                                           ; ...
RAM:8276 ??          unk_8276:       .ds 1                                           ; ...
RAM:8277 ??                          .ds 1
RAM:8278 ??                          .ds 1
RAM:8279 ??          unk_8279:       .ds 1                                           ; ...
RAM:827A ??                          .ds 1
RAM:827B ??                          .ds 1
RAM:827C ?? ?? ??    turtle_trio_data:.ds 3                                          ; ...
RAM:827F ??                          .ds 1
RAM:8280 ??                          .ds 1
RAM:8281 ??                          .ds 1
RAM:8282 ??          unk_8282:       .ds 1                                           ; ...
RAM:8283 ??                          .ds 1
RAM:8284 ??                          .ds 1
RAM:8285 ??          unk_8285:       .ds 1                                           ; ...
RAM:8286 ??                          .ds 1
RAM:8287 ??                          .ds 1
RAM:8288 ??          unk_8288:       .ds 1                                           ; ...
RAM:8289 ??                          .ds 1
RAM:828A ??                          .ds 1
RAM:828B ??          unk_828B:       .ds 1                                           ; ...
RAM:828C ??                          .ds 1
RAM:828D ??                          .ds 1
RAM:828E ??          unk_828E:       .ds 1                                           ; ...
RAM:828F ??                          .ds 1
RAM:8290 ??                          .ds 1
RAM:8291             ; end of table
RAM:8291 ??                          .ds 1
RAM:8292 ??                          .ds 1
RAM:8293 ??          p1_frogs_home:  .ds 1                                           ; ...
RAM:8294 ??          p2_frogs_home:  .ds 1                                           ; ...
RAM:8295 ??          byte_8295:      .ds 1                                           ; ...
RAM:8296 ??                          .ds 1
RAM:8297 ??          display_frog_home_timer:.ds 1                                   ; ...
RAM:8298 ??          byte_8298:      .ds 1                                           ; ...
RAM:8299 ??          attract_frog_move_timer:.ds 1                                   ; ...
RAM:829A ??          attract_mode_frog_move_cnt:.ds 1                                ; ...
RAM:829B ??          byte_829B:      .ds 1                                           ; ...
RAM:829C ??          byte_829C:      .ds 1                                           ; ...
RAM:829D ?? ??       word_829D:      .ds 2                                           ; ...
RAM:829F ??                          .ds 1
RAM:82A0 ??                          .ds 1
RAM:82A1 ??                          .ds 1
RAM:82A2 ??                          .ds 1
RAM:82A3 ??                          .ds 1
RAM:82A4 ??                          .ds 1
RAM:82A5 ??                          .ds 1
RAM:82A6 ??                          .ds 1
RAM:82A7 ??                          .ds 1
RAM:82A8 ??                          .ds 1
RAM:82A9 ??                          .ds 1
RAM:82AA ??                          .ds 1
RAM:82AB ??                          .ds 1
RAM:82AC ??                          .ds 1
RAM:82AD ??                          .ds 1
RAM:82AE ??                          .ds 1
RAM:82AF ??                          .ds 1
RAM:82B0 ??                          .ds 1
RAM:82B1 ??                          .ds 1
RAM:82B2 ??                          .ds 1
RAM:82B3 ??                          .ds 1
RAM:82B4 ??                          .ds 1
RAM:82B5 ??                          .ds 1
RAM:82B6 ??                          .ds 1
RAM:82B7 ??                          .ds 1
RAM:82B8 ??                          .ds 1
RAM:82B9 ??                          .ds 1
RAM:82BA ??                          .ds 1
RAM:82BB ??                          .ds 1
RAM:82BC ??                          .ds 1
RAM:82BD ??                          .ds 1
RAM:82BE ??                          .ds 1
RAM:82BF ??                          .ds 1
RAM:82C0 ??                          .ds 1
RAM:82C1 ??                          .ds 1
RAM:82C2 ??                          .ds 1
RAM:82C3 ??                          .ds 1
RAM:82C4 ??                          .ds 1
RAM:82C5 ??                          .ds 1
RAM:82C6 ??                          .ds 1
RAM:82C7 ??                          .ds 1
RAM:82C8 ??                          .ds 1
RAM:82C9 ??                          .ds 1
RAM:82CA ??                          .ds 1
RAM:82CB ??                          .ds 1
RAM:82CC ??                          .ds 1
RAM:82CD ??                          .ds 1
RAM:82CE ??                          .ds 1
RAM:82CF ??                          .ds 1
RAM:82D0 ??                          .ds 1
RAM:82D1 ??                          .ds 1
RAM:82D2 ??                          .ds 1
RAM:82D3 ??                          .ds 1
RAM:82D4 ??                          .ds 1
RAM:82D5 ??                          .ds 1
RAM:82D6 ??                          .ds 1
RAM:82D7 ??                          .ds 1
RAM:82D8 ??                          .ds 1
RAM:82D9 ??                          .ds 1
RAM:82DA ??                          .ds 1
RAM:82DB ??                          .ds 1
RAM:82DC ??                          .ds 1
RAM:82DD ??                          .ds 1
RAM:82DE ??                          .ds 1
RAM:82DF ??                          .ds 1
RAM:82E0 ??                          .ds 1
RAM:82E1 ??                          .ds 1
RAM:82E2 ??                          .ds 1
RAM:82E3 ??                          .ds 1
RAM:82E4 ??                          .ds 1
RAM:82E5 ??                          .ds 1
RAM:82E6 ??                          .ds 1
RAM:82E7 ??                          .ds 1
RAM:82E8 ??                          .ds 1
RAM:82E9 ??                          .ds 1
RAM:82EA ??                          .ds 1
RAM:82EB ??                          .ds 1
RAM:82EC ??                          .ds 1
RAM:82ED ??                          .ds 1
RAM:82EE ??                          .ds 1
RAM:82EF ??                          .ds 1
RAM:82F0 ??                          .ds 1
RAM:82F1 ??                          .ds 1
RAM:82F2 ??                          .ds 1
RAM:82F3 ??                          .ds 1
RAM:82F4 ??                          .ds 1
RAM:82F5 ??                          .ds 1
RAM:82F6 ??                          .ds 1
RAM:82F7 ??                          .ds 1
RAM:82F8 ??                          .ds 1
RAM:82F9 ??                          .ds 1
RAM:82FA ??                          .ds 1
RAM:82FB ??                          .ds 1
RAM:82FC ??                          .ds 1
RAM:82FD ??                          .ds 1
RAM:82FE ??                          .ds 1
RAM:82FF ??                          .ds 1
RAM:8300 ??          snd_q_cnt:      .ds 1                                           ; ...
RAM:8301 ?? ?? ?? ??+snd_q:          .ds 47                                          ; ...
RAM:8330 ??                          .ds 1
RAM:8331 ??                          .ds 1
RAM:8332 ??                          .ds 1
RAM:8333 ??                          .ds 1
RAM:8334 ??                          .ds 1
RAM:8335 ??                          .ds 1
RAM:8336 ??                          .ds 1
RAM:8337 ??                          .ds 1
RAM:8338 ??                          .ds 1
RAM:8339 ??                          .ds 1
RAM:833A ??                          .ds 1
RAM:833B ??                          .ds 1
RAM:833C ??                          .ds 1
RAM:833D ??          byte_833D:      .ds 1                                           ; ...
RAM:833E ??          byte_833E:      .ds 1                                           ; ...
RAM:833F ??          alligator_anim_timer:.ds 1                                      ; ...
RAM:8340 ??          byte_8340:      .ds 1                                           ; ...
RAM:8341 ??                          .ds 1
RAM:8342 ??                          .ds 1
RAM:8343 ??                          .ds 1
RAM:8344 ??                          .ds 1
RAM:8345 ??                          .ds 1
RAM:8346 ??                          .ds 1
RAM:8347 ??                          .ds 1
RAM:8348 ??                          .ds 1
RAM:8349 ??                          .ds 1
RAM:834A ??                          .ds 1
RAM:834B ??                          .ds 1
RAM:834C ??                          .ds 1
RAM:834D ??                          .ds 1
RAM:834E ??                          .ds 1
RAM:834F ??                          .ds 1
RAM:8350 ??                          .ds 1
RAM:8351 ??                          .ds 1
RAM:8352 ??                          .ds 1
RAM:8353 ??                          .ds 1
RAM:8354 ??                          .ds 1
RAM:8355 ??                          .ds 1
RAM:8356 ??                          .ds 1
RAM:8357 ??                          .ds 1
RAM:8358 ??                          .ds 1
RAM:8359 ??                          .ds 1
RAM:835A ??                          .ds 1
RAM:835B ??                          .ds 1
RAM:835C ??                          .ds 1
RAM:835D ??                          .ds 1
RAM:835E ??                          .ds 1
RAM:835F ??                          .ds 1
RAM:8360 ??                          .ds 1
RAM:8361 ??                          .ds 1
RAM:8362 ??                          .ds 1
RAM:8363 ??                          .ds 1
RAM:8364 ??                          .ds 1
RAM:8365 ??                          .ds 1
RAM:8366 ??                          .ds 1
RAM:8367 ??                          .ds 1
RAM:8368 ??                          .ds 1
RAM:8369 ??                          .ds 1
RAM:836A ??                          .ds 1
RAM:836B ??                          .ds 1
RAM:836C ??                          .ds 1
RAM:836D ??                          .ds 1
RAM:836E ??                          .ds 1
RAM:836F ??                          .ds 1
RAM:8370 ??          num_players:    .ds 1                                           ; ...
RAM:8371 ??          byte_8371:      .ds 1                                           ; ...
RAM:8372 ??                          .ds 1
RAM:8373 ??                          .ds 1
RAM:8374 ??                          .ds 1
RAM:8375 ??                          .ds 1
RAM:8376 ??                          .ds 1
RAM:8377 ??                          .ds 1
RAM:8378 ??                          .ds 1
RAM:8379 ??                          .ds 1
RAM:837A ??                          .ds 1
RAM:837B ??                          .ds 1
RAM:837C ??                          .ds 1
RAM:837D ??                          .ds 1
RAM:837E ??          coin_debounce_0:.ds 1                                           ; ...
RAM:837F ??          coin_debounce_1:.ds 1                                           ; ...
RAM:8380 ??          byte_8380:      .ds 1                                           ; ...
RAM:8381 ??          byte_8381:      .ds 1                                           ; ...
RAM:8382 ?? ??       word_8382:      .ds 2                                           ; ...
RAM:8384 ??          byte_8384:      .ds 1                                           ; ...
RAM:8385 ??                          .ds 1
RAM:8386 ??                          .ds 1
RAM:8387 ??                          .ds 1
RAM:8388 ??                          .ds 1
RAM:8389 ??                          .ds 1
RAM:838A ??                          .ds 1
RAM:838B ??                          .ds 1
RAM:838C ??                          .ds 1
RAM:838D ??                          .ds 1
RAM:838E ??                          .ds 1
RAM:838F ??                          .ds 1
RAM:8390 ??                          .ds 1
RAM:8391 ??                          .ds 1
RAM:8392 ??                          .ds 1
RAM:8393 ??                          .ds 1
RAM:8394 ??                          .ds 1
RAM:8395 ??                          .ds 1
RAM:8396 ??                          .ds 1
RAM:8397 ??                          .ds 1
RAM:8398 ??                          .ds 1
RAM:8399 ??                          .ds 1
RAM:839A ??          unk_839A:       .ds 1                                           ; ...
RAM:839B ??                          .ds 1
RAM:839C ??                          .ds 1
RAM:839D ??                          .ds 1
RAM:839E ??          unk_839E:       .ds 1                                           ; ...
RAM:839F ??                          .ds 1
RAM:83A0 ??          unk_83A0:       .ds 1                                           ; ...
RAM:83A1 ??          unk_83A1:       .ds 1                                           ; ...
RAM:83A2 ??                          .ds 1
RAM:83A3 ??                          .ds 1
RAM:83A4 ??                          .ds 1
RAM:83A5 ??                          .ds 1
RAM:83A6 ??                          .ds 1
RAM:83A7 ??                          .ds 1
RAM:83A8 ??                          .ds 1
RAM:83A9 ??                          .ds 1
RAM:83AA ??                          .ds 1
RAM:83AB ??                          .ds 1
RAM:83AC ??                          .ds 1
RAM:83AD ??                          .ds 1
RAM:83AE ??          byte_83AE:      .ds 1                                           ; ...
RAM:83AF ??          unk_83AF:       .ds 1                                           ; ...
RAM:83B0 ??                          .ds 1
RAM:83B1 ??                          .ds 1
RAM:83B2 ??                          .ds 1
RAM:83B3 ??          byte_83B3:      .ds 1                                           ; ...
RAM:83B4 ??          f_bottom_row_cleared:.ds 1                                      ; ...
RAM:83B5 ??          byte_83B5:      .ds 1                                           ; ...
RAM:83B6 ??          byte_83B6:      .ds 1                                           ; ...
RAM:83B7 ??          curr_level:     .ds 1                                           ; ...
RAM:83B8 ??          p1_level:       .ds 1                                           ; ...
RAM:83B9 ??          p2_level:       .ds 1
RAM:83BA ??          byte_83BA:      .ds 1                                           ; ...
RAM:83BB ??          byte_83BB:      .ds 1                                           ; ...
RAM:83BC ??          byte_83BC:      .ds 1                                           ; ...
RAM:83BD ?? ??       word_83BD:      .ds 2                                           ; ...
RAM:83BF ??          byte_83BF:      .ds 1                                           ; ...
RAM:83C0 ??                          .ds 1
RAM:83C1 ??                          .ds 1
RAM:83C2 ??          cocktail_cabinet:.ds 1                                          ; ...
RAM:83C3 ??          byte_83C3:      .ds 1                                           ; ...
RAM:83C4 ??          byte_83C4:      .ds 1                                           ; ...
RAM:83C5 ?? ??       word_83C5:      .ds 2                                           ; ...
RAM:83C7 ?? ??       word_83C7:      .ds 2                                           ; ...
RAM:83C9 ??          unk_83C9:       .ds 1                                           ; ...
RAM:83CA ??          unk_83CA:       .ds 1                                           ; ...
RAM:83CB ??          flip_screen:    .ds 1                                           ; ...
RAM:83CC ??          byte_83CC:      .ds 1                                           ; ...
RAM:83CD ??          byte_83CD:      .ds 1                                           ; ...
RAM:83CE ??          byte_83CE:      .ds 1                                           ; ...
RAM:83CF ??          f_game_over:    .ds 1                                           ; ...
RAM:83D0 ??                          .ds 1
RAM:83D1 ??                          .ds 1
RAM:83D2 ?? ??       word_83D2:      .ds 2                                           ; ...
RAM:83D4 ??          coinage:        .ds 1                                           ; ...
RAM:83D5 ??                          .ds 1
RAM:83D6             ; attract mode part
RAM:83D6             ; 0 = in gameplay
RAM:83D6             ; 1 = start gameplay
RAM:83D6             ; 2 = insert coin screen
RAM:83D6             ; 3 = high score table
RAM:83D6             ; 4 = point table contents
RAM:83D6             ; 5 = point table header
RAM:83D6 ??          attract_mode_part:.ds 1                                         ; ...
RAM:83D7 ??          tmp_83D7:       .ds 1                                           ; ...
RAM:83D8 ??          timer_83d8:     .ds 1                                           ; ...
RAM:83D9 ??          __soundCrtl_shadow:.ds 1                                        ; ...
RAM:83DA ?? ??       word_83DA:      .ds 2                                           ; ...
RAM:83DC ??          game_timer_lsb: .ds 1                                           ; ...
RAM:83DD ??          game_timer_msb: .ds 1
RAM:83DE ??          game_time_BCD:  .ds 1                                           ; ...
RAM:83DF ??          byte_83DF:      .ds 1                                           ; ...
RAM:83E0 ??          byte_83E0:      .ds 1                                           ; ...
RAM:83E1 ??          num_credits:    .ds 1                                           ; ...
RAM:83E2 ??          coin1_2_service:.ds 1                                           ; ...
RAM:83E3 ??          tmp_coin_cnt:   .ds 1                                           ; ...
RAM:83E4 ??          starting_lives: .ds 1                                           ; ...
RAM:83E5 ??          p1_num_frogs_left:.ds 1                                         ; ...
RAM:83E6 ??          p2_num_frogs_left:.ds 1                                         ; ...
RAM:83E7 ??          p1_got_bonus:   .ds 1                                           ; ...
RAM:83E8 ??          p2_got_bonus:   .ds 1                                           ; ...
RAM:83E9 ??                          .ds 1
RAM:83EA ??          byte_83EA:      .ds 1                                           ; ...
RAM:83EB ?? ??       p2_score:       .ds 2                                           ; ...
RAM:83ED ?? ??       p1_score:       .ds 2                                           ; ...
RAM:83EF ?? ??       hi_score:       .ds 2                                           ; ...
RAM:83F1 ?? ??       score_1st:      .ds 2                                           ; ...
RAM:83F3 ?? ??       score_2nd:      .ds 2
RAM:83F5 ?? ??       score_3rd:      .ds 2
RAM:83F7 ?? ??       score_4th:      .ds 2                                           ; ...
RAM:83F9 ?? ??       score_5th:      .ds 2                                           ; ...
RAM:83FB ?? ??       word_83FB:      .ds 2                                           ; ...
RAM:83FD ??          curr_player:    .ds 1                                           ; ...
RAM:83FE ??          f_in_game:      .ds 1                                           ; ...
RAM:83FF ??                          .ds 1
RAM:8400 ??          unk_8400:       .ds 1                                           ; ...
RAM:8401 ??                          .ds 1
RAM:8402 ??                          .ds 1
RAM:8403 ??                          .ds 1
RAM:8404 ??                          .ds 1
RAM:8405 ??                          .ds 1
RAM:8406 ??                          .ds 1
RAM:8407 ??                          .ds 1
RAM:8408 ??                          .ds 1
RAM:8409 ??                          .ds 1
RAM:840A ??                          .ds 1
RAM:840B ??                          .ds 1
RAM:840C ??                          .ds 1
RAM:840D ??                          .ds 1
RAM:840E ??                          .ds 1
RAM:840F ??                          .ds 1
RAM:8410 ??                          .ds 1
RAM:8411 ??                          .ds 1
RAM:8412 ??                          .ds 1
RAM:8413 ??                          .ds 1
RAM:8414 ??                          .ds 1
RAM:8415 ??                          .ds 1
RAM:8416 ??                          .ds 1
RAM:8417 ??                          .ds 1
RAM:8418 ??                          .ds 1
RAM:8419 ??                          .ds 1
RAM:841A ??                          .ds 1
RAM:841B ??                          .ds 1
RAM:841C ??                          .ds 1
RAM:841D ??                          .ds 1
RAM:841E ??                          .ds 1
RAM:841F ??                          .ds 1
RAM:8420 ??          unk_8420:       .ds 1                                           ; ...
RAM:8421 ??          unk_8421:       .ds 1                                           ; ...
RAM:8422 ??                          .ds 1
RAM:8423 ??                          .ds 1
RAM:8424 ??                          .ds 1
RAM:8425 ??                          .ds 1
RAM:8426 ??                          .ds 1
RAM:8427 ??                          .ds 1
RAM:8428 ??                          .ds 1
RAM:8429 ??                          .ds 1
RAM:842A ??                          .ds 1
RAM:842B ??                          .ds 1
RAM:842C ??          byte_842C:      .ds 1                                           ; ...
RAM:842D ??          byte_842D:      .ds 1                                           ; ...
RAM:842E ??                          .ds 1
RAM:842F ??          byte_842F:      .ds 1                                           ; ...
RAM:8430 ??                          .ds 1
RAM:8431 ??                          .ds 1
RAM:8432 ??                          .ds 1
RAM:8433 ??                          .ds 1
RAM:8434 ??                          .ds 1
RAM:8435 ??                          .ds 1
RAM:8436 ??                          .ds 1
RAM:8437 ??                          .ds 1
RAM:8438 ??                          .ds 1
RAM:8439 ??                          .ds 1
RAM:843A ??                          .ds 1
RAM:843B ??                          .ds 1
RAM:843C ??                          .ds 1
RAM:843D ??                          .ds 1
RAM:843E ??                          .ds 1
RAM:843F ??                          .ds 1
RAM:8440 ??          p1_something_data:.ds 1                                         ; ...
RAM:8441 ??          unk_8441:       .ds 1                                           ; ...
RAM:8442 ??                          .ds 1
RAM:8443 ??                          .ds 1
RAM:8444 ??                          .ds 1
RAM:8445 ??                          .ds 1
RAM:8446 ??                          .ds 1
RAM:8447 ??                          .ds 1
RAM:8448 ??                          .ds 1
RAM:8449 ??                          .ds 1
RAM:844A ??                          .ds 1
RAM:844B ??                          .ds 1
RAM:844C ??                          .ds 1
RAM:844D ??                          .ds 1
RAM:844E ??                          .ds 1
RAM:844F ??                          .ds 1
RAM:8450 ??                          .ds 1
RAM:8451 ??                          .ds 1
RAM:8452 ??                          .ds 1
RAM:8453 ??                          .ds 1
RAM:8454 ??                          .ds 1
RAM:8455 ??                          .ds 1
RAM:8456 ??                          .ds 1
RAM:8457 ??                          .ds 1
RAM:8458 ??                          .ds 1
RAM:8459 ??                          .ds 1
RAM:845A ??                          .ds 1
RAM:845B ??                          .ds 1
RAM:845C ??                          .ds 1
RAM:845D ??                          .ds 1
RAM:845E ??                          .ds 1
RAM:845F ??                          .ds 1
RAM:8460 ??          p2_something_data:.ds 1                                         ; ...
RAM:8461 ??                          .ds 1
RAM:8462 ??                          .ds 1
RAM:8463 ??                          .ds 1
RAM:8464 ??                          .ds 1
RAM:8465 ??                          .ds 1
RAM:8466 ??                          .ds 1
RAM:8467 ??                          .ds 1
RAM:8468 ??                          .ds 1
RAM:8469 ??                          .ds 1
RAM:846A ??                          .ds 1
RAM:846B ??                          .ds 1
RAM:846C ??                          .ds 1
RAM:846D ??                          .ds 1
RAM:846E ??                          .ds 1
RAM:846F ??                          .ds 1
RAM:8470 ??                          .ds 1
RAM:8471 ??                          .ds 1
RAM:8472 ??                          .ds 1
RAM:8473 ??                          .ds 1
RAM:8474 ??                          .ds 1
RAM:8475 ??                          .ds 1
RAM:8476 ??                          .ds 1
RAM:8477 ??                          .ds 1
RAM:8478 ??                          .ds 1
RAM:8479 ??                          .ds 1
RAM:847A ??                          .ds 1
RAM:847B ??                          .ds 1
RAM:847C ??                          .ds 1
RAM:847D ??                          .ds 1
RAM:847E ??                          .ds 1
RAM:847F ??                          .ds 1
RAM:8480 ??          p1_more_data:   .ds 1                                           ; ...
RAM:8481 ??                          .ds 1
RAM:8482 ??                          .ds 1
RAM:8483 ??                          .ds 1
RAM:8484 ??                          .ds 1
RAM:8485 ??                          .ds 1
RAM:8486 ??                          .ds 1
RAM:8487 ??                          .ds 1
RAM:8488 ??                          .ds 1
RAM:8489 ??                          .ds 1
RAM:848A ??                          .ds 1
RAM:848B ??                          .ds 1
RAM:848C ??                          .ds 1
RAM:848D ??                          .ds 1
RAM:848E ??                          .ds 1
RAM:848F ??                          .ds 1
RAM:8490 ??          p2_more_data:   .ds 1                                           ; ...
RAM:8491 ??                          .ds 1
RAM:8492 ??                          .ds 1
RAM:8493 ??                          .ds 1
RAM:8494 ??                          .ds 1
RAM:8495 ??                          .ds 1
RAM:8496 ??                          .ds 1
RAM:8497 ??                          .ds 1
RAM:8498 ??                          .ds 1
RAM:8499 ??                          .ds 1
RAM:849A ??                          .ds 1
RAM:849B ??                          .ds 1
RAM:849C ??                          .ds 1
RAM:849D ??                          .ds 1
RAM:849E ??                          .ds 1
RAM:849F ??                          .ds 1
RAM:84A0 ??                          .ds 1
RAM:84A1 ??                          .ds 1
RAM:84A2 ??                          .ds 1
RAM:84A3 ??                          .ds 1
RAM:84A4 ??                          .ds 1
RAM:84A5 ??                          .ds 1
RAM:84A6 ??                          .ds 1
RAM:84A7 ??                          .ds 1
RAM:84A8 ??                          .ds 1
RAM:84A9 ??                          .ds 1
RAM:84AA ??                          .ds 1
RAM:84AB ??                          .ds 1
RAM:84AC ??                          .ds 1
RAM:84AD ??                          .ds 1
RAM:84AE ??                          .ds 1
RAM:84AF ??                          .ds 1
RAM:84B0 ??                          .ds 1
RAM:84B1 ??                          .ds 1
RAM:84B2 ??                          .ds 1
RAM:84B3 ??                          .ds 1
RAM:84B4 ??                          .ds 1
RAM:84B5 ??                          .ds 1
RAM:84B6 ??                          .ds 1
RAM:84B7 ??                          .ds 1
RAM:84B8 ??                          .ds 1
RAM:84B9 ??                          .ds 1
RAM:84BA ??                          .ds 1
RAM:84BB ??                          .ds 1
RAM:84BC ??                          .ds 1
RAM:84BD ??                          .ds 1
RAM:84BE ??                          .ds 1
RAM:84BF ??                          .ds 1
RAM:84C0 ??                          .ds 1
RAM:84C1 ??                          .ds 1
RAM:84C2 ??                          .ds 1
RAM:84C3 ??                          .ds 1
RAM:84C4 ??                          .ds 1
RAM:84C5 ??                          .ds 1
RAM:84C6 ??                          .ds 1
RAM:84C7 ??                          .ds 1
RAM:84C8 ??                          .ds 1
RAM:84C9 ??                          .ds 1
RAM:84CA ??                          .ds 1
RAM:84CB ??                          .ds 1
RAM:84CC ??                          .ds 1
RAM:84CD ??                          .ds 1
RAM:84CE ??                          .ds 1
RAM:84CF ??                          .ds 1
RAM:84D0 ??                          .ds 1
RAM:84D1 ??                          .ds 1
RAM:84D2 ??                          .ds 1
RAM:84D3 ??                          .ds 1
RAM:84D4 ??                          .ds 1
RAM:84D5 ??                          .ds 1
RAM:84D6 ??                          .ds 1
RAM:84D7 ??                          .ds 1
RAM:84D8 ??                          .ds 1
RAM:84D9 ??                          .ds 1
RAM:84DA ??                          .ds 1
RAM:84DB ??                          .ds 1
RAM:84DC ??                          .ds 1
RAM:84DD ??                          .ds 1
RAM:84DE ??                          .ds 1
RAM:84DF ??                          .ds 1
RAM:84E0 ??                          .ds 1
RAM:84E1 ??                          .ds 1
RAM:84E2 ??                          .ds 1
RAM:84E3 ??                          .ds 1
RAM:84E4 ??                          .ds 1
RAM:84E5 ??                          .ds 1
RAM:84E6 ??                          .ds 1
RAM:84E7 ??                          .ds 1
RAM:84E8 ??                          .ds 1
RAM:84E9 ??                          .ds 1
RAM:84EA ??                          .ds 1
RAM:84EB ??                          .ds 1
RAM:84EC ??                          .ds 1
RAM:84ED ??                          .ds 1
RAM:84EE ??                          .ds 1
RAM:84EF ??                          .ds 1
RAM:84F0 ??                          .ds 1
RAM:84F1 ??                          .ds 1
RAM:84F2 ??                          .ds 1
RAM:84F3 ??                          .ds 1
RAM:84F4 ??                          .ds 1
RAM:84F5 ??                          .ds 1
RAM:84F6 ??                          .ds 1
RAM:84F7 ??                          .ds 1
RAM:84F8 ??                          .ds 1
RAM:84F9 ??                          .ds 1
RAM:84FA ??                          .ds 1
RAM:84FB ??                          .ds 1
RAM:84FC ??                          .ds 1
RAM:84FD ??                          .ds 1
RAM:84FE ??                          .ds 1
RAM:84FF ??                          .ds 1
RAM:8500             ; copied to current player stats area
RAM:8500 ?? ?? ?? ??+p2_game_stats:  .ds 0xB7                                        ; ...
RAM:85B7 ??                          .ds 1
RAM:85B8 ??                          .ds 1
RAM:85B9 ??                          .ds 1
RAM:85BA ??                          .ds 1
RAM:85BB ??                          .ds 1
RAM:85BC ??                          .ds 1
RAM:85BD ??                          .ds 1
RAM:85BE ??                          .ds 1
RAM:85BF ??                          .ds 1
RAM:85C0             ; register values for rows 3-24
RAM:85C0 ?? ?? ?? ??+p1_row_register_shadow:.ds 0x2C                                 ; ...
RAM:85EC ??                          .ds 1
RAM:85ED ??                          .ds 1
RAM:85EE ??                          .ds 1
RAM:85EF ??                          .ds 1
RAM:85F0 ??                          .ds 1
RAM:85F1 ??                          .ds 1
RAM:85F2 ??                          .ds 1
RAM:85F3 ??                          .ds 1
RAM:85F4 ??                          .ds 1
RAM:85F5 ??                          .ds 1
RAM:85F6 ??                          .ds 1
RAM:85F7 ??                          .ds 1
RAM:85F8 ??                          .ds 1
RAM:85F9 ??                          .ds 1
RAM:85FA ??                          .ds 1
RAM:85FB ??                          .ds 1
RAM:85FC ??                          .ds 1
RAM:85FD ??                          .ds 1
RAM:85FE ??                          .ds 1
RAM:85FF ??                          .ds 1
RAM:8600             ; copied to current player stats area
RAM:8600 ?? ?? ?? ??+p1_game_stats:  .ds 0xB7                                        ; ...
RAM:86B7 ??                          .ds 1
RAM:86B8 ??                          .ds 1
RAM:86B9 ??                          .ds 1
RAM:86BA ??                          .ds 1
RAM:86BB ??                          .ds 1
RAM:86BC ??                          .ds 1
RAM:86BD ??                          .ds 1
RAM:86BE ??                          .ds 1
RAM:86BF ??                          .ds 1
RAM:86C0             ; register values for rows 3-24
RAM:86C0 ?? ?? ?? ??+p2_row_register_shadow:.ds 0x2C                                 ; ...
RAM:86EC ??                          .ds 1
RAM:86ED ??                          .ds 1
RAM:86EE ??                          .ds 1
RAM:86EF ??                          .ds 1
RAM:86F0 ??                          .ds 1
RAM:86F1 ??                          .ds 1
RAM:86F2 ??                          .ds 1
RAM:86F3 ??                          .ds 1
RAM:86F4 ??                          .ds 1
RAM:86F5 ??                          .ds 1
RAM:86F6 ??                          .ds 1
RAM:86F7 ??                          .ds 1
RAM:86F8 ??                          .ds 1
RAM:86F9 ??                          .ds 1
RAM:86FA ??                          .ds 1
RAM:86FB ??                          .ds 1
RAM:86FC ??                          .ds 1
RAM:86FD ??                          .ds 1
RAM:86FE ??                          .ds 1
RAM:86FF ??                          .ds 1
RAM:8700 ??                          .ds 1
RAM:8701 ??                          .ds 1
RAM:8702 ??                          .ds 1
RAM:8703 ??                          .ds 1
RAM:8704 ??                          .ds 1
RAM:8705 ??                          .ds 1
RAM:8706 ??                          .ds 1
RAM:8707 ??                          .ds 1
RAM:8708 ??                          .ds 1
RAM:8709 ??                          .ds 1
RAM:870A ??                          .ds 1
RAM:870B ??                          .ds 1
RAM:870C ??                          .ds 1
RAM:870D ??                          .ds 1
RAM:870E ??                          .ds 1
RAM:870F ??                          .ds 1
RAM:8710 ??                          .ds 1
RAM:8711 ??                          .ds 1
RAM:8712 ??                          .ds 1
RAM:8713 ??                          .ds 1
RAM:8714 ??                          .ds 1
RAM:8715 ??                          .ds 1
RAM:8716 ??                          .ds 1
RAM:8717 ??                          .ds 1
RAM:8718 ??                          .ds 1
RAM:8719 ??                          .ds 1
RAM:871A ??                          .ds 1
RAM:871B ??                          .ds 1
RAM:871C ??                          .ds 1
RAM:871D ??                          .ds 1
RAM:871E ??                          .ds 1
RAM:871F ??                          .ds 1
RAM:8720 ??                          .ds 1
RAM:8721 ??                          .ds 1
RAM:8722 ??                          .ds 1
RAM:8723 ??                          .ds 1
RAM:8724 ??                          .ds 1
RAM:8725 ??                          .ds 1
RAM:8726 ??                          .ds 1
RAM:8727 ??                          .ds 1
RAM:8728 ??                          .ds 1
RAM:8729 ??                          .ds 1
RAM:872A ??                          .ds 1
RAM:872B ??                          .ds 1
RAM:872C ??                          .ds 1
RAM:872D ??                          .ds 1
RAM:872E ??                          .ds 1
RAM:872F ??                          .ds 1
RAM:8730 ??                          .ds 1
RAM:8731 ??                          .ds 1
RAM:8732 ??                          .ds 1
RAM:8733 ??                          .ds 1
RAM:8734 ??                          .ds 1
RAM:8735 ??                          .ds 1
RAM:8736 ??                          .ds 1
RAM:8737 ??                          .ds 1
RAM:8738 ??                          .ds 1
RAM:8739 ??                          .ds 1
RAM:873A ??                          .ds 1
RAM:873B ??                          .ds 1
RAM:873C ??                          .ds 1
RAM:873D ??                          .ds 1
RAM:873E ??                          .ds 1
RAM:873F ??                          .ds 1
RAM:8740 ??                          .ds 1
RAM:8741 ??                          .ds 1
RAM:8742 ??                          .ds 1
RAM:8743 ??                          .ds 1
RAM:8744 ??                          .ds 1
RAM:8745 ??                          .ds 1
RAM:8746 ??                          .ds 1
RAM:8747 ??                          .ds 1
RAM:8748 ??                          .ds 1
RAM:8749 ??                          .ds 1
RAM:874A ??                          .ds 1
RAM:874B ??                          .ds 1
RAM:874C ??                          .ds 1
RAM:874D ??                          .ds 1
RAM:874E ??                          .ds 1
RAM:874F ??                          .ds 1
RAM:8750 ??                          .ds 1
RAM:8751 ??                          .ds 1
RAM:8752 ??                          .ds 1
RAM:8753 ??                          .ds 1
RAM:8754 ??                          .ds 1
RAM:8755 ??                          .ds 1
RAM:8756 ??                          .ds 1
RAM:8757 ??                          .ds 1
RAM:8758 ??                          .ds 1
RAM:8759 ??                          .ds 1
RAM:875A ??                          .ds 1
RAM:875B ??                          .ds 1
RAM:875C ??                          .ds 1
RAM:875D ??                          .ds 1
RAM:875E ??                          .ds 1
RAM:875F ??                          .ds 1
RAM:8760 ??                          .ds 1
RAM:8761 ??                          .ds 1
RAM:8762 ??                          .ds 1
RAM:8763 ??                          .ds 1
RAM:8764 ??                          .ds 1
RAM:8765 ??                          .ds 1
RAM:8766 ??                          .ds 1
RAM:8767 ??                          .ds 1
RAM:8768 ??                          .ds 1
RAM:8769 ??                          .ds 1
RAM:876A ??                          .ds 1
RAM:876B ??                          .ds 1
RAM:876C ??                          .ds 1
RAM:876D ??                          .ds 1
RAM:876E ??                          .ds 1
RAM:876F ??                          .ds 1
RAM:8770 ??                          .ds 1
RAM:8771 ??                          .ds 1
RAM:8772 ??                          .ds 1
RAM:8773 ??                          .ds 1
RAM:8774 ??                          .ds 1
RAM:8775 ??                          .ds 1
RAM:8776 ??                          .ds 1
RAM:8777 ??                          .ds 1
RAM:8778 ??                          .ds 1
RAM:8779 ??                          .ds 1
RAM:877A ??                          .ds 1
RAM:877B ??                          .ds 1
RAM:877C ??                          .ds 1
RAM:877D ??                          .ds 1
RAM:877E ??                          .ds 1
RAM:877F ??                          .ds 1
RAM:8780 ??                          .ds 1
RAM:8781 ??                          .ds 1
RAM:8782 ??                          .ds 1
RAM:8783 ??                          .ds 1
RAM:8784 ??                          .ds 1
RAM:8785 ??                          .ds 1
RAM:8786 ??                          .ds 1
RAM:8787 ??                          .ds 1
RAM:8788 ??                          .ds 1
RAM:8789 ??                          .ds 1
RAM:878A ??                          .ds 1
RAM:878B ??                          .ds 1
RAM:878C ??                          .ds 1
RAM:878D ??                          .ds 1
RAM:878E ??                          .ds 1
RAM:878F ??                          .ds 1
RAM:8790 ??                          .ds 1
RAM:8791 ??                          .ds 1
RAM:8792 ??                          .ds 1
RAM:8793 ??                          .ds 1
RAM:8794 ??                          .ds 1
RAM:8795 ??                          .ds 1
RAM:8796 ??                          .ds 1
RAM:8797 ??                          .ds 1
RAM:8798 ??                          .ds 1
RAM:8799 ??                          .ds 1
RAM:879A ??                          .ds 1
RAM:879B ??                          .ds 1
RAM:879C ??                          .ds 1
RAM:879D ??                          .ds 1
RAM:879E ??                          .ds 1
RAM:879F ??                          .ds 1
RAM:87A0 ??                          .ds 1
RAM:87A1 ??                          .ds 1
RAM:87A2 ??                          .ds 1
RAM:87A3 ??                          .ds 1
RAM:87A4 ??                          .ds 1
RAM:87A5 ??                          .ds 1
RAM:87A6 ??                          .ds 1
RAM:87A7 ??                          .ds 1
RAM:87A8 ??                          .ds 1
RAM:87A9 ??                          .ds 1
RAM:87AA ??                          .ds 1
RAM:87AB ??                          .ds 1
RAM:87AC ??                          .ds 1
RAM:87AD ??                          .ds 1
RAM:87AE ??                          .ds 1
RAM:87AF ??                          .ds 1
RAM:87B0 ??                          .ds 1
RAM:87B1 ??                          .ds 1
RAM:87B2 ??                          .ds 1
RAM:87B3 ??                          .ds 1
RAM:87B4 ??                          .ds 1
RAM:87B5 ??                          .ds 1
RAM:87B6 ??                          .ds 1
RAM:87B7 ??                          .ds 1
RAM:87B8 ??                          .ds 1
RAM:87B9 ??                          .ds 1
RAM:87BA ??                          .ds 1
RAM:87BB ??                          .ds 1
RAM:87BC ??                          .ds 1
RAM:87BD ??                          .ds 1
RAM:87BE ??                          .ds 1
RAM:87BF ??                          .ds 1
RAM:87C0 ??                          .ds 1
RAM:87C1 ??                          .ds 1
RAM:87C2 ??                          .ds 1
RAM:87C3 ??                          .ds 1
RAM:87C4 ??                          .ds 1
RAM:87C5 ??                          .ds 1
RAM:87C6 ??                          .ds 1
RAM:87C7 ??                          .ds 1
RAM:87C8 ??                          .ds 1
RAM:87C9 ??                          .ds 1
RAM:87CA ??                          .ds 1
RAM:87CB ??                          .ds 1
RAM:87CC ??                          .ds 1
RAM:87CD ??                          .ds 1
RAM:87CE ??                          .ds 1
RAM:87CF ??                          .ds 1
RAM:87D0 ??                          .ds 1
RAM:87D1 ??                          .ds 1
RAM:87D2 ??                          .ds 1
RAM:87D3 ??                          .ds 1
RAM:87D4 ??                          .ds 1
RAM:87D5 ??                          .ds 1
RAM:87D6 ??                          .ds 1
RAM:87D7 ??                          .ds 1
RAM:87D8 ??                          .ds 1
RAM:87D9 ??                          .ds 1
RAM:87DA ??                          .ds 1
RAM:87DB ??                          .ds 1
RAM:87DC ??                          .ds 1
RAM:87DD ??                          .ds 1
RAM:87DE ??                          .ds 1
RAM:87DF ??                          .ds 1
RAM:87E0 ??                          .ds 1
RAM:87E1 ??                          .ds 1
RAM:87E2 ??                          .ds 1
RAM:87E3 ??                          .ds 1
RAM:87E4 ??                          .ds 1
RAM:87E5 ??                          .ds 1
RAM:87E6 ??                          .ds 1
RAM:87E7 ??                          .ds 1
RAM:87E8 ??                          .ds 1
RAM:87E9 ??                          .ds 1
RAM:87EA ??                          .ds 1
RAM:87EB ??                          .ds 1
RAM:87EC ??                          .ds 1
RAM:87ED ??                          .ds 1
RAM:87EE ??                          .ds 1
RAM:87EF ??                          .ds 1
RAM:87F0 ??                          .ds 1
RAM:87F1 ??                          .ds 1
RAM:87F2 ??                          .ds 1
RAM:87F3 ??                          .ds 1
RAM:87F4 ??                          .ds 1
RAM:87F5 ??                          .ds 1
RAM:87F6 ??                          .ds 1
RAM:87F7 ??                          .ds 1
RAM:87F8 ??                          .ds 1
RAM:87F9 ??                          .ds 1
RAM:87FA ??                          .ds 1
RAM:87FB ??                          .ds 1
RAM:87FC ??                          .ds 1
RAM:87FD ??                          .ds 1
RAM:87FE ??                          .ds 1
RAM:87FF ??                          .ds 1
RAM:87FF             ; end of 'RAM'
RAM:87FF
WDOG:8800             ; ===========================================================================
WDOG:8800
WDOG:8800             ; Segment type: Regular
WDOG:8800                             .org 0x8800
WDOG:8800 ?? ?? ?? ??+watchdog:       .ds 0x20                                        ; ...
WDOG:8800 ?? ?? ?? ??+; end of 'WDOG'
WDOG:8800 ?? ?? ?? ??+
VRAM:A800             ; ===========================================================================
VRAM:A800
VRAM:A800             ; Segment type: Regular
VRAM:A800                             .org 0xA800
VRAM:A800 ?? ?? ?? ??+VRAM_START:     .ds 0x400                                       ; ...
VRAM:A800 ?? ?? ?? ??+; end of 'VRAM'
VRAM:A800 ?? ?? ?? ??+
OBJRAM:B000             ;
OBJRAM:B000             ; OBJRAM ($40 bytes)
OBJRAM:B000             ; even addresses are scroll values
OBJRAM:B000             ; - top and bottom 4 bits are swapped
OBJRAM:B000             ; odd addresses are colour base
OBJRAM:B000             ; SPRAM ($C0 bytes)
OBJRAM:B000             ; [0]      base0 - top and bottom 4 bits are swapped
OBJRAM:B000             ; [1][7]   flipy
OBJRAM:B000             ; [1][6]   flipx
OBJRAM:B000             ; [1][5:0] code
OBJRAM:B000             ; [2][2:0] colour
OBJRAM:B000             ; [3]      base3
OBJRAM:B000             ; sx=base3+1, sy=240-(base0-(sprnum<3))
OBJRAM:B000             ;
OBJRAM:B000             ; ===========================================================================
OBJRAM:B000
OBJRAM:B000             ; Segment type: Regular
OBJRAM:B000                             .org 0xB000
OBJRAM:B000 ?? ?? ?? ??+OBJRAM_START:   .ds 0x40                                        ; ...
OBJRAM:B040             ; Sprite Allocation
OBJRAM:B040             ; 0 - lady frog & '200' pts
OBJRAM:B040             ; 1 - player frog
OBJRAM:B040             ; 2 - 1st snake (level 3+)
OBJRAM:B040             ; 3 -
OBJRAM:B040             ; 4 - 2nd snake (level 6+)
OBJRAM:B040             ; 5 -
OBJRAM:B040             ; 6 -
OBJRAM:B040             ; 7 - '200' pts
OBJRAM:B040
OBJRAM:B040 ?? ?? ?? ??+SPRAM_START:    .ds 0xC0                                        ; ...
OBJRAM:B040 ?? ?? ?? ??+; end of 'OBJRAM'
OBJRAM:B040 ?? ?? ?? ??+
IO:B100             ; ===========================================================================
IO:B100
IO:B100             ; Segment type: Regular
IO:B100                             .org 0xB100
IO:B100 ??                          .ds 1
IO:B101 ??                          .ds 1
IO:B102 ??                          .ds 1
IO:B103 ??                          .ds 1
IO:B104 ??                          .ds 1
IO:B105 ??                          .ds 1
IO:B106 ??                          .ds 1
IO:B107 ??                          .ds 1
IO:B108 ??                          .ds 1
IO:B109 ??                          .ds 1
IO:B10A ??                          .ds 1
IO:B10B ??                          .ds 1
IO:B10C ??                          .ds 1
IO:B10D ??                          .ds 1
IO:B10E ??                          .ds 1
IO:B10F ??                          .ds 1
IO:B110 ??                          .ds 1
IO:B111 ??                          .ds 1
IO:B112 ??                          .ds 1
IO:B113 ??                          .ds 1
IO:B114 ??                          .ds 1
IO:B115 ??                          .ds 1
IO:B116 ??                          .ds 1
IO:B117 ??                          .ds 1
IO:B118 ??                          .ds 1
IO:B119 ??                          .ds 1
IO:B11A ??                          .ds 1
IO:B11B ??                          .ds 1
IO:B11C ??                          .ds 1
IO:B11D ??                          .ds 1
IO:B11E ??                          .ds 1
IO:B11F ??                          .ds 1
IO:B120 ??                          .ds 1
IO:B121 ??                          .ds 1
IO:B122 ??                          .ds 1
IO:B123 ??                          .ds 1
IO:B124 ??                          .ds 1
IO:B125 ??                          .ds 1
IO:B126 ??                          .ds 1
IO:B127 ??                          .ds 1
IO:B128 ??                          .ds 1
IO:B129 ??                          .ds 1
IO:B12A ??                          .ds 1
IO:B12B ??                          .ds 1
IO:B12C ??                          .ds 1
IO:B12D ??                          .ds 1
IO:B12E ??                          .ds 1
IO:B12F ??                          .ds 1
IO:B130 ??                          .ds 1
IO:B131 ??                          .ds 1
IO:B132 ??                          .ds 1
IO:B133 ??                          .ds 1
IO:B134 ??                          .ds 1
IO:B135 ??                          .ds 1
IO:B136 ??                          .ds 1
IO:B137 ??                          .ds 1
IO:B138 ??                          .ds 1
IO:B139 ??                          .ds 1
IO:B13A ??                          .ds 1
IO:B13B ??                          .ds 1
IO:B13C ??                          .ds 1
IO:B13D ??                          .ds 1
IO:B13E ??                          .ds 1
IO:B13F ??                          .ds 1
IO:B140 ??                          .ds 1
IO:B141 ??                          .ds 1
IO:B142 ??                          .ds 1
IO:B143 ??                          .ds 1
IO:B144 ??                          .ds 1
IO:B145 ??                          .ds 1
IO:B146 ??                          .ds 1
IO:B147 ??                          .ds 1
IO:B148 ??                          .ds 1
IO:B149 ??                          .ds 1
IO:B14A ??                          .ds 1
IO:B14B ??                          .ds 1
IO:B14C ??                          .ds 1
IO:B14D ??                          .ds 1
IO:B14E ??                          .ds 1
IO:B14F ??                          .ds 1
IO:B150 ??                          .ds 1
IO:B151 ??                          .ds 1
IO:B152 ??                          .ds 1
IO:B153 ??                          .ds 1
IO:B154 ??                          .ds 1
IO:B155 ??                          .ds 1
IO:B156 ??                          .ds 1
IO:B157 ??                          .ds 1
IO:B158 ??                          .ds 1
IO:B159 ??                          .ds 1
IO:B15A ??                          .ds 1
IO:B15B ??                          .ds 1
IO:B15C ??                          .ds 1
IO:B15D ??                          .ds 1
IO:B15E ??                          .ds 1
IO:B15F ??                          .ds 1
IO:B160 ??                          .ds 1
IO:B161 ??                          .ds 1
IO:B162 ??                          .ds 1
IO:B163 ??                          .ds 1
IO:B164 ??                          .ds 1
IO:B165 ??                          .ds 1
IO:B166 ??                          .ds 1
IO:B167 ??                          .ds 1
IO:B168 ??                          .ds 1
IO:B169 ??                          .ds 1
IO:B16A ??                          .ds 1
IO:B16B ??                          .ds 1
IO:B16C ??                          .ds 1
IO:B16D ??                          .ds 1
IO:B16E ??                          .ds 1
IO:B16F ??                          .ds 1
IO:B170 ??                          .ds 1
IO:B171 ??                          .ds 1
IO:B172 ??                          .ds 1
IO:B173 ??                          .ds 1
IO:B174 ??                          .ds 1
IO:B175 ??                          .ds 1
IO:B176 ??                          .ds 1
IO:B177 ??                          .ds 1
IO:B178 ??                          .ds 1
IO:B179 ??                          .ds 1
IO:B17A ??                          .ds 1
IO:B17B ??                          .ds 1
IO:B17C ??                          .ds 1
IO:B17D ??                          .ds 1
IO:B17E ??                          .ds 1
IO:B17F ??                          .ds 1
IO:B180 ??                          .ds 1
IO:B181 ??                          .ds 1
IO:B182 ??                          .ds 1
IO:B183 ??                          .ds 1
IO:B184 ??                          .ds 1
IO:B185 ??                          .ds 1
IO:B186 ??                          .ds 1
IO:B187 ??                          .ds 1
IO:B188 ??                          .ds 1
IO:B189 ??                          .ds 1
IO:B18A ??                          .ds 1
IO:B18B ??                          .ds 1
IO:B18C ??                          .ds 1
IO:B18D ??                          .ds 1
IO:B18E ??                          .ds 1
IO:B18F ??                          .ds 1
IO:B190 ??                          .ds 1
IO:B191 ??                          .ds 1
IO:B192 ??                          .ds 1
IO:B193 ??                          .ds 1
IO:B194 ??                          .ds 1
IO:B195 ??                          .ds 1
IO:B196 ??                          .ds 1
IO:B197 ??                          .ds 1
IO:B198 ??                          .ds 1
IO:B199 ??                          .ds 1
IO:B19A ??                          .ds 1
IO:B19B ??                          .ds 1
IO:B19C ??                          .ds 1
IO:B19D ??                          .ds 1
IO:B19E ??                          .ds 1
IO:B19F ??                          .ds 1
IO:B1A0 ??                          .ds 1
IO:B1A1 ??                          .ds 1
IO:B1A2 ??                          .ds 1
IO:B1A3 ??                          .ds 1
IO:B1A4 ??                          .ds 1
IO:B1A5 ??                          .ds 1
IO:B1A6 ??                          .ds 1
IO:B1A7 ??                          .ds 1
IO:B1A8 ??                          .ds 1
IO:B1A9 ??                          .ds 1
IO:B1AA ??                          .ds 1
IO:B1AB ??                          .ds 1
IO:B1AC ??                          .ds 1
IO:B1AD ??                          .ds 1
IO:B1AE ??                          .ds 1
IO:B1AF ??                          .ds 1
IO:B1B0 ??                          .ds 1
IO:B1B1 ??                          .ds 1
IO:B1B2 ??                          .ds 1
IO:B1B3 ??                          .ds 1
IO:B1B4 ??                          .ds 1
IO:B1B5 ??                          .ds 1
IO:B1B6 ??                          .ds 1
IO:B1B7 ??                          .ds 1
IO:B1B8 ??                          .ds 1
IO:B1B9 ??                          .ds 1
IO:B1BA ??                          .ds 1
IO:B1BB ??                          .ds 1
IO:B1BC ??                          .ds 1
IO:B1BD ??                          .ds 1
IO:B1BE ??                          .ds 1
IO:B1BF ??                          .ds 1
IO:B1C0 ??                          .ds 1
IO:B1C1 ??                          .ds 1
IO:B1C2 ??                          .ds 1
IO:B1C3 ??                          .ds 1
IO:B1C4 ??                          .ds 1
IO:B1C5 ??                          .ds 1
IO:B1C6 ??                          .ds 1
IO:B1C7 ??                          .ds 1
IO:B1C8 ??                          .ds 1
IO:B1C9 ??                          .ds 1
IO:B1CA ??                          .ds 1
IO:B1CB ??                          .ds 1
IO:B1CC ??                          .ds 1
IO:B1CD ??                          .ds 1
IO:B1CE ??                          .ds 1
IO:B1CF ??                          .ds 1
IO:B1D0 ??                          .ds 1
IO:B1D1 ??                          .ds 1
IO:B1D2 ??                          .ds 1
IO:B1D3 ??                          .ds 1
IO:B1D4 ??                          .ds 1
IO:B1D5 ??                          .ds 1
IO:B1D6 ??                          .ds 1
IO:B1D7 ??                          .ds 1
IO:B1D8 ??                          .ds 1
IO:B1D9 ??                          .ds 1
IO:B1DA ??                          .ds 1
IO:B1DB ??                          .ds 1
IO:B1DC ??                          .ds 1
IO:B1DD ??                          .ds 1
IO:B1DE ??                          .ds 1
IO:B1DF ??                          .ds 1
IO:B1E0 ??                          .ds 1
IO:B1E1 ??                          .ds 1
IO:B1E2 ??                          .ds 1
IO:B1E3 ??                          .ds 1
IO:B1E4 ??                          .ds 1
IO:B1E5 ??                          .ds 1
IO:B1E6 ??                          .ds 1
IO:B1E7 ??                          .ds 1
IO:B1E8 ??                          .ds 1
IO:B1E9 ??                          .ds 1
IO:B1EA ??                          .ds 1
IO:B1EB ??                          .ds 1
IO:B1EC ??                          .ds 1
IO:B1ED ??                          .ds 1
IO:B1EE ??                          .ds 1
IO:B1EF ??                          .ds 1
IO:B1F0 ??                          .ds 1
IO:B1F1 ??                          .ds 1
IO:B1F2 ??                          .ds 1
IO:B1F3 ??                          .ds 1
IO:B1F4 ??                          .ds 1
IO:B1F5 ??                          .ds 1
IO:B1F6 ??                          .ds 1
IO:B1F7 ??                          .ds 1
IO:B1F8 ??                          .ds 1
IO:B1F9 ??                          .ds 1
IO:B1FA ??                          .ds 1
IO:B1FB ??                          .ds 1
IO:B1FC ??                          .ds 1
IO:B1FD ??                          .ds 1
IO:B1FE ??                          .ds 1
IO:B1FF ??                          .ds 1
IO:B200 ??                          .ds 1
IO:B201 ??                          .ds 1
IO:B202 ??                          .ds 1
IO:B203 ??                          .ds 1
IO:B204 ??                          .ds 1
IO:B205 ??                          .ds 1
IO:B206 ??                          .ds 1
IO:B207 ??                          .ds 1
IO:B208 ??                          .ds 1
IO:B209 ??                          .ds 1
IO:B20A ??                          .ds 1
IO:B20B ??                          .ds 1
IO:B20C ??                          .ds 1
IO:B20D ??                          .ds 1
IO:B20E ??                          .ds 1
IO:B20F ??                          .ds 1
IO:B210 ??                          .ds 1
IO:B211 ??                          .ds 1
IO:B212 ??                          .ds 1
IO:B213 ??                          .ds 1
IO:B214 ??                          .ds 1
IO:B215 ??                          .ds 1
IO:B216 ??                          .ds 1
IO:B217 ??                          .ds 1
IO:B218 ??                          .ds 1
IO:B219 ??                          .ds 1
IO:B21A ??                          .ds 1
IO:B21B ??                          .ds 1
IO:B21C ??                          .ds 1
IO:B21D ??                          .ds 1
IO:B21E ??                          .ds 1
IO:B21F ??                          .ds 1
IO:B220 ??                          .ds 1
IO:B221 ??                          .ds 1
IO:B222 ??                          .ds 1
IO:B223 ??                          .ds 1
IO:B224 ??                          .ds 1
IO:B225 ??                          .ds 1
IO:B226 ??                          .ds 1
IO:B227 ??                          .ds 1
IO:B228 ??                          .ds 1
IO:B229 ??                          .ds 1
IO:B22A ??                          .ds 1
IO:B22B ??                          .ds 1
IO:B22C ??                          .ds 1
IO:B22D ??                          .ds 1
IO:B22E ??                          .ds 1
IO:B22F ??                          .ds 1
IO:B230 ??                          .ds 1
IO:B231 ??                          .ds 1
IO:B232 ??                          .ds 1
IO:B233 ??                          .ds 1
IO:B234 ??                          .ds 1
IO:B235 ??                          .ds 1
IO:B236 ??                          .ds 1
IO:B237 ??                          .ds 1
IO:B238 ??                          .ds 1
IO:B239 ??                          .ds 1
IO:B23A ??                          .ds 1
IO:B23B ??                          .ds 1
IO:B23C ??                          .ds 1
IO:B23D ??                          .ds 1
IO:B23E ??                          .ds 1
IO:B23F ??                          .ds 1
IO:B240 ??                          .ds 1
IO:B241 ??                          .ds 1
IO:B242 ??                          .ds 1
IO:B243 ??                          .ds 1
IO:B244 ??                          .ds 1
IO:B245 ??                          .ds 1
IO:B246 ??                          .ds 1
IO:B247 ??                          .ds 1
IO:B248 ??                          .ds 1
IO:B249 ??                          .ds 1
IO:B24A ??                          .ds 1
IO:B24B ??                          .ds 1
IO:B24C ??                          .ds 1
IO:B24D ??                          .ds 1
IO:B24E ??                          .ds 1
IO:B24F ??                          .ds 1
IO:B250 ??                          .ds 1
IO:B251 ??                          .ds 1
IO:B252 ??                          .ds 1
IO:B253 ??                          .ds 1
IO:B254 ??                          .ds 1
IO:B255 ??                          .ds 1
IO:B256 ??                          .ds 1
IO:B257 ??                          .ds 1
IO:B258 ??                          .ds 1
IO:B259 ??                          .ds 1
IO:B25A ??                          .ds 1
IO:B25B ??                          .ds 1
IO:B25C ??                          .ds 1
IO:B25D ??                          .ds 1
IO:B25E ??                          .ds 1
IO:B25F ??                          .ds 1
IO:B260 ??                          .ds 1
IO:B261 ??                          .ds 1
IO:B262 ??                          .ds 1
IO:B263 ??                          .ds 1
IO:B264 ??                          .ds 1
IO:B265 ??                          .ds 1
IO:B266 ??                          .ds 1
IO:B267 ??                          .ds 1
IO:B268 ??                          .ds 1
IO:B269 ??                          .ds 1
IO:B26A ??                          .ds 1
IO:B26B ??                          .ds 1
IO:B26C ??                          .ds 1
IO:B26D ??                          .ds 1
IO:B26E ??                          .ds 1
IO:B26F ??                          .ds 1
IO:B270 ??                          .ds 1
IO:B271 ??                          .ds 1
IO:B272 ??                          .ds 1
IO:B273 ??                          .ds 1
IO:B274 ??                          .ds 1
IO:B275 ??                          .ds 1
IO:B276 ??                          .ds 1
IO:B277 ??                          .ds 1
IO:B278 ??                          .ds 1
IO:B279 ??                          .ds 1
IO:B27A ??                          .ds 1
IO:B27B ??                          .ds 1
IO:B27C ??                          .ds 1
IO:B27D ??                          .ds 1
IO:B27E ??                          .ds 1
IO:B27F ??                          .ds 1
IO:B280 ??                          .ds 1
IO:B281 ??                          .ds 1
IO:B282 ??                          .ds 1
IO:B283 ??                          .ds 1
IO:B284 ??                          .ds 1
IO:B285 ??                          .ds 1
IO:B286 ??                          .ds 1
IO:B287 ??                          .ds 1
IO:B288 ??                          .ds 1
IO:B289 ??                          .ds 1
IO:B28A ??                          .ds 1
IO:B28B ??                          .ds 1
IO:B28C ??                          .ds 1
IO:B28D ??                          .ds 1
IO:B28E ??                          .ds 1
IO:B28F ??                          .ds 1
IO:B290 ??                          .ds 1
IO:B291 ??                          .ds 1
IO:B292 ??                          .ds 1
IO:B293 ??                          .ds 1
IO:B294 ??                          .ds 1
IO:B295 ??                          .ds 1
IO:B296 ??                          .ds 1
IO:B297 ??                          .ds 1
IO:B298 ??                          .ds 1
IO:B299 ??                          .ds 1
IO:B29A ??                          .ds 1
IO:B29B ??                          .ds 1
IO:B29C ??                          .ds 1
IO:B29D ??                          .ds 1
IO:B29E ??                          .ds 1
IO:B29F ??                          .ds 1
IO:B2A0 ??                          .ds 1
IO:B2A1 ??                          .ds 1
IO:B2A2 ??                          .ds 1
IO:B2A3 ??                          .ds 1
IO:B2A4 ??                          .ds 1
IO:B2A5 ??                          .ds 1
IO:B2A6 ??                          .ds 1
IO:B2A7 ??                          .ds 1
IO:B2A8 ??                          .ds 1
IO:B2A9 ??                          .ds 1
IO:B2AA ??                          .ds 1
IO:B2AB ??                          .ds 1
IO:B2AC ??                          .ds 1
IO:B2AD ??                          .ds 1
IO:B2AE ??                          .ds 1
IO:B2AF ??                          .ds 1
IO:B2B0 ??                          .ds 1
IO:B2B1 ??                          .ds 1
IO:B2B2 ??                          .ds 1
IO:B2B3 ??                          .ds 1
IO:B2B4 ??                          .ds 1
IO:B2B5 ??                          .ds 1
IO:B2B6 ??                          .ds 1
IO:B2B7 ??                          .ds 1
IO:B2B8 ??                          .ds 1
IO:B2B9 ??                          .ds 1
IO:B2BA ??                          .ds 1
IO:B2BB ??                          .ds 1
IO:B2BC ??                          .ds 1
IO:B2BD ??                          .ds 1
IO:B2BE ??                          .ds 1
IO:B2BF ??                          .ds 1
IO:B2C0 ??                          .ds 1
IO:B2C1 ??                          .ds 1
IO:B2C2 ??                          .ds 1
IO:B2C3 ??                          .ds 1
IO:B2C4 ??                          .ds 1
IO:B2C5 ??                          .ds 1
IO:B2C6 ??                          .ds 1
IO:B2C7 ??                          .ds 1
IO:B2C8 ??                          .ds 1
IO:B2C9 ??                          .ds 1
IO:B2CA ??                          .ds 1
IO:B2CB ??                          .ds 1
IO:B2CC ??                          .ds 1
IO:B2CD ??                          .ds 1
IO:B2CE ??                          .ds 1
IO:B2CF ??                          .ds 1
IO:B2D0 ??                          .ds 1
IO:B2D1 ??                          .ds 1
IO:B2D2 ??                          .ds 1
IO:B2D3 ??                          .ds 1
IO:B2D4 ??                          .ds 1
IO:B2D5 ??                          .ds 1
IO:B2D6 ??                          .ds 1
IO:B2D7 ??                          .ds 1
IO:B2D8 ??                          .ds 1
IO:B2D9 ??                          .ds 1
IO:B2DA ??                          .ds 1
IO:B2DB ??                          .ds 1
IO:B2DC ??                          .ds 1
IO:B2DD ??                          .ds 1
IO:B2DE ??                          .ds 1
IO:B2DF ??                          .ds 1
IO:B2E0 ??                          .ds 1
IO:B2E1 ??                          .ds 1
IO:B2E2 ??                          .ds 1
IO:B2E3 ??                          .ds 1
IO:B2E4 ??                          .ds 1
IO:B2E5 ??                          .ds 1
IO:B2E6 ??                          .ds 1
IO:B2E7 ??                          .ds 1
IO:B2E8 ??                          .ds 1
IO:B2E9 ??                          .ds 1
IO:B2EA ??                          .ds 1
IO:B2EB ??                          .ds 1
IO:B2EC ??                          .ds 1
IO:B2ED ??                          .ds 1
IO:B2EE ??                          .ds 1
IO:B2EF ??                          .ds 1
IO:B2F0 ??                          .ds 1
IO:B2F1 ??                          .ds 1
IO:B2F2 ??                          .ds 1
IO:B2F3 ??                          .ds 1
IO:B2F4 ??                          .ds 1
IO:B2F5 ??                          .ds 1
IO:B2F6 ??                          .ds 1
IO:B2F7 ??                          .ds 1
IO:B2F8 ??                          .ds 1
IO:B2F9 ??                          .ds 1
IO:B2FA ??                          .ds 1
IO:B2FB ??                          .ds 1
IO:B2FC ??                          .ds 1
IO:B2FD ??                          .ds 1
IO:B2FE ??                          .ds 1
IO:B2FF ??                          .ds 1
IO:B300 ??                          .ds 1
IO:B301 ??                          .ds 1
IO:B302 ??                          .ds 1
IO:B303 ??                          .ds 1
IO:B304 ??                          .ds 1
IO:B305 ??                          .ds 1
IO:B306 ??                          .ds 1
IO:B307 ??                          .ds 1
IO:B308 ??                          .ds 1
IO:B309 ??                          .ds 1
IO:B30A ??                          .ds 1
IO:B30B ??                          .ds 1
IO:B30C ??                          .ds 1
IO:B30D ??                          .ds 1
IO:B30E ??                          .ds 1
IO:B30F ??                          .ds 1
IO:B310 ??                          .ds 1
IO:B311 ??                          .ds 1
IO:B312 ??                          .ds 1
IO:B313 ??                          .ds 1
IO:B314 ??                          .ds 1
IO:B315 ??                          .ds 1
IO:B316 ??                          .ds 1
IO:B317 ??                          .ds 1
IO:B318 ??                          .ds 1
IO:B319 ??                          .ds 1
IO:B31A ??                          .ds 1
IO:B31B ??                          .ds 1
IO:B31C ??                          .ds 1
IO:B31D ??                          .ds 1
IO:B31E ??                          .ds 1
IO:B31F ??                          .ds 1
IO:B320 ??                          .ds 1
IO:B321 ??                          .ds 1
IO:B322 ??                          .ds 1
IO:B323 ??                          .ds 1
IO:B324 ??                          .ds 1
IO:B325 ??                          .ds 1
IO:B326 ??                          .ds 1
IO:B327 ??                          .ds 1
IO:B328 ??                          .ds 1
IO:B329 ??                          .ds 1
IO:B32A ??                          .ds 1
IO:B32B ??                          .ds 1
IO:B32C ??                          .ds 1
IO:B32D ??                          .ds 1
IO:B32E ??                          .ds 1
IO:B32F ??                          .ds 1
IO:B330 ??                          .ds 1
IO:B331 ??                          .ds 1
IO:B332 ??                          .ds 1
IO:B333 ??                          .ds 1
IO:B334 ??                          .ds 1
IO:B335 ??                          .ds 1
IO:B336 ??                          .ds 1
IO:B337 ??                          .ds 1
IO:B338 ??                          .ds 1
IO:B339 ??                          .ds 1
IO:B33A ??                          .ds 1
IO:B33B ??                          .ds 1
IO:B33C ??                          .ds 1
IO:B33D ??                          .ds 1
IO:B33E ??                          .ds 1
IO:B33F ??                          .ds 1
IO:B340 ??                          .ds 1
IO:B341 ??                          .ds 1
IO:B342 ??                          .ds 1
IO:B343 ??                          .ds 1
IO:B344 ??                          .ds 1
IO:B345 ??                          .ds 1
IO:B346 ??                          .ds 1
IO:B347 ??                          .ds 1
IO:B348 ??                          .ds 1
IO:B349 ??                          .ds 1
IO:B34A ??                          .ds 1
IO:B34B ??                          .ds 1
IO:B34C ??                          .ds 1
IO:B34D ??                          .ds 1
IO:B34E ??                          .ds 1
IO:B34F ??                          .ds 1
IO:B350 ??                          .ds 1
IO:B351 ??                          .ds 1
IO:B352 ??                          .ds 1
IO:B353 ??                          .ds 1
IO:B354 ??                          .ds 1
IO:B355 ??                          .ds 1
IO:B356 ??                          .ds 1
IO:B357 ??                          .ds 1
IO:B358 ??                          .ds 1
IO:B359 ??                          .ds 1
IO:B35A ??                          .ds 1
IO:B35B ??                          .ds 1
IO:B35C ??                          .ds 1
IO:B35D ??                          .ds 1
IO:B35E ??                          .ds 1
IO:B35F ??                          .ds 1
IO:B360 ??                          .ds 1
IO:B361 ??                          .ds 1
IO:B362 ??                          .ds 1
IO:B363 ??                          .ds 1
IO:B364 ??                          .ds 1
IO:B365 ??                          .ds 1
IO:B366 ??                          .ds 1
IO:B367 ??                          .ds 1
IO:B368 ??                          .ds 1
IO:B369 ??                          .ds 1
IO:B36A ??                          .ds 1
IO:B36B ??                          .ds 1
IO:B36C ??                          .ds 1
IO:B36D ??                          .ds 1
IO:B36E ??                          .ds 1
IO:B36F ??                          .ds 1
IO:B370 ??                          .ds 1
IO:B371 ??                          .ds 1
IO:B372 ??                          .ds 1
IO:B373 ??                          .ds 1
IO:B374 ??                          .ds 1
IO:B375 ??                          .ds 1
IO:B376 ??                          .ds 1
IO:B377 ??                          .ds 1
IO:B378 ??                          .ds 1
IO:B379 ??                          .ds 1
IO:B37A ??                          .ds 1
IO:B37B ??                          .ds 1
IO:B37C ??                          .ds 1
IO:B37D ??                          .ds 1
IO:B37E ??                          .ds 1
IO:B37F ??                          .ds 1
IO:B380 ??                          .ds 1
IO:B381 ??                          .ds 1
IO:B382 ??                          .ds 1
IO:B383 ??                          .ds 1
IO:B384 ??                          .ds 1
IO:B385 ??                          .ds 1
IO:B386 ??                          .ds 1
IO:B387 ??                          .ds 1
IO:B388 ??                          .ds 1
IO:B389 ??                          .ds 1
IO:B38A ??                          .ds 1
IO:B38B ??                          .ds 1
IO:B38C ??                          .ds 1
IO:B38D ??                          .ds 1
IO:B38E ??                          .ds 1
IO:B38F ??                          .ds 1
IO:B390 ??                          .ds 1
IO:B391 ??                          .ds 1
IO:B392 ??                          .ds 1
IO:B393 ??                          .ds 1
IO:B394 ??                          .ds 1
IO:B395 ??                          .ds 1
IO:B396 ??                          .ds 1
IO:B397 ??                          .ds 1
IO:B398 ??                          .ds 1
IO:B399 ??                          .ds 1
IO:B39A ??                          .ds 1
IO:B39B ??                          .ds 1
IO:B39C ??                          .ds 1
IO:B39D ??                          .ds 1
IO:B39E ??                          .ds 1
IO:B39F ??                          .ds 1
IO:B3A0 ??                          .ds 1
IO:B3A1 ??                          .ds 1
IO:B3A2 ??                          .ds 1
IO:B3A3 ??                          .ds 1
IO:B3A4 ??                          .ds 1
IO:B3A5 ??                          .ds 1
IO:B3A6 ??                          .ds 1
IO:B3A7 ??                          .ds 1
IO:B3A8 ??                          .ds 1
IO:B3A9 ??                          .ds 1
IO:B3AA ??                          .ds 1
IO:B3AB ??                          .ds 1
IO:B3AC ??                          .ds 1
IO:B3AD ??                          .ds 1
IO:B3AE ??                          .ds 1
IO:B3AF ??                          .ds 1
IO:B3B0 ??                          .ds 1
IO:B3B1 ??                          .ds 1
IO:B3B2 ??                          .ds 1
IO:B3B3 ??                          .ds 1
IO:B3B4 ??                          .ds 1
IO:B3B5 ??                          .ds 1
IO:B3B6 ??                          .ds 1
IO:B3B7 ??                          .ds 1
IO:B3B8 ??                          .ds 1
IO:B3B9 ??                          .ds 1
IO:B3BA ??                          .ds 1
IO:B3BB ??                          .ds 1
IO:B3BC ??                          .ds 1
IO:B3BD ??                          .ds 1
IO:B3BE ??                          .ds 1
IO:B3BF ??                          .ds 1
IO:B3C0 ??                          .ds 1
IO:B3C1 ??                          .ds 1
IO:B3C2 ??                          .ds 1
IO:B3C3 ??                          .ds 1
IO:B3C4 ??                          .ds 1
IO:B3C5 ??                          .ds 1
IO:B3C6 ??                          .ds 1
IO:B3C7 ??                          .ds 1
IO:B3C8 ??                          .ds 1
IO:B3C9 ??                          .ds 1
IO:B3CA ??                          .ds 1
IO:B3CB ??                          .ds 1
IO:B3CC ??                          .ds 1
IO:B3CD ??                          .ds 1
IO:B3CE ??                          .ds 1
IO:B3CF ??                          .ds 1
IO:B3D0 ??                          .ds 1
IO:B3D1 ??                          .ds 1
IO:B3D2 ??                          .ds 1
IO:B3D3 ??                          .ds 1
IO:B3D4 ??                          .ds 1
IO:B3D5 ??                          .ds 1
IO:B3D6 ??                          .ds 1
IO:B3D7 ??                          .ds 1
IO:B3D8 ??                          .ds 1
IO:B3D9 ??                          .ds 1
IO:B3DA ??                          .ds 1
IO:B3DB ??                          .ds 1
IO:B3DC ??                          .ds 1
IO:B3DD ??                          .ds 1
IO:B3DE ??                          .ds 1
IO:B3DF ??                          .ds 1
IO:B3E0 ??                          .ds 1
IO:B3E1 ??                          .ds 1
IO:B3E2 ??                          .ds 1
IO:B3E3 ??                          .ds 1
IO:B3E4 ??                          .ds 1
IO:B3E5 ??                          .ds 1
IO:B3E6 ??                          .ds 1
IO:B3E7 ??                          .ds 1
IO:B3E8 ??                          .ds 1
IO:B3E9 ??                          .ds 1
IO:B3EA ??                          .ds 1
IO:B3EB ??                          .ds 1
IO:B3EC ??                          .ds 1
IO:B3ED ??                          .ds 1
IO:B3EE ??                          .ds 1
IO:B3EF ??                          .ds 1
IO:B3F0 ??                          .ds 1
IO:B3F1 ??                          .ds 1
IO:B3F2 ??                          .ds 1
IO:B3F3 ??                          .ds 1
IO:B3F4 ??                          .ds 1
IO:B3F5 ??                          .ds 1
IO:B3F6 ??                          .ds 1
IO:B3F7 ??                          .ds 1
IO:B3F8 ??                          .ds 1
IO:B3F9 ??                          .ds 1
IO:B3FA ??                          .ds 1
IO:B3FB ??                          .ds 1
IO:B3FC ??                          .ds 1
IO:B3FD ??                          .ds 1
IO:B3FE ??                          .ds 1
IO:B3FF ??                          .ds 1
IO:B400 ??                          .ds 1
IO:B401 ??                          .ds 1
IO:B402 ??                          .ds 1
IO:B403 ??                          .ds 1
IO:B404 ??                          .ds 1
IO:B405 ??                          .ds 1
IO:B406 ??                          .ds 1
IO:B407 ??                          .ds 1
IO:B408 ??                          .ds 1
IO:B409 ??                          .ds 1
IO:B40A ??                          .ds 1
IO:B40B ??                          .ds 1
IO:B40C ??                          .ds 1
IO:B40D ??                          .ds 1
IO:B40E ??                          .ds 1
IO:B40F ??                          .ds 1
IO:B410 ??                          .ds 1
IO:B411 ??                          .ds 1
IO:B412 ??                          .ds 1
IO:B413 ??                          .ds 1
IO:B414 ??                          .ds 1
IO:B415 ??                          .ds 1
IO:B416 ??                          .ds 1
IO:B417 ??                          .ds 1
IO:B418 ??                          .ds 1
IO:B419 ??                          .ds 1
IO:B41A ??                          .ds 1
IO:B41B ??                          .ds 1
IO:B41C ??                          .ds 1
IO:B41D ??                          .ds 1
IO:B41E ??                          .ds 1
IO:B41F ??                          .ds 1
IO:B420 ??                          .ds 1
IO:B421 ??                          .ds 1
IO:B422 ??                          .ds 1
IO:B423 ??                          .ds 1
IO:B424 ??                          .ds 1
IO:B425 ??                          .ds 1
IO:B426 ??                          .ds 1
IO:B427 ??                          .ds 1
IO:B428 ??                          .ds 1
IO:B429 ??                          .ds 1
IO:B42A ??                          .ds 1
IO:B42B ??                          .ds 1
IO:B42C ??                          .ds 1
IO:B42D ??                          .ds 1
IO:B42E ??                          .ds 1
IO:B42F ??                          .ds 1
IO:B430 ??                          .ds 1
IO:B431 ??                          .ds 1
IO:B432 ??                          .ds 1
IO:B433 ??                          .ds 1
IO:B434 ??                          .ds 1
IO:B435 ??                          .ds 1
IO:B436 ??                          .ds 1
IO:B437 ??                          .ds 1
IO:B438 ??                          .ds 1
IO:B439 ??                          .ds 1
IO:B43A ??                          .ds 1
IO:B43B ??                          .ds 1
IO:B43C ??                          .ds 1
IO:B43D ??                          .ds 1
IO:B43E ??                          .ds 1
IO:B43F ??                          .ds 1
IO:B440 ??                          .ds 1
IO:B441 ??                          .ds 1
IO:B442 ??                          .ds 1
IO:B443 ??                          .ds 1
IO:B444 ??                          .ds 1
IO:B445 ??                          .ds 1
IO:B446 ??                          .ds 1
IO:B447 ??                          .ds 1
IO:B448 ??                          .ds 1
IO:B449 ??                          .ds 1
IO:B44A ??                          .ds 1
IO:B44B ??                          .ds 1
IO:B44C ??                          .ds 1
IO:B44D ??                          .ds 1
IO:B44E ??                          .ds 1
IO:B44F ??                          .ds 1
IO:B450 ??                          .ds 1
IO:B451 ??                          .ds 1
IO:B452 ??                          .ds 1
IO:B453 ??                          .ds 1
IO:B454 ??                          .ds 1
IO:B455 ??                          .ds 1
IO:B456 ??                          .ds 1
IO:B457 ??                          .ds 1
IO:B458 ??                          .ds 1
IO:B459 ??                          .ds 1
IO:B45A ??                          .ds 1
IO:B45B ??                          .ds 1
IO:B45C ??                          .ds 1
IO:B45D ??                          .ds 1
IO:B45E ??                          .ds 1
IO:B45F ??                          .ds 1
IO:B460 ??                          .ds 1
IO:B461 ??                          .ds 1
IO:B462 ??                          .ds 1
IO:B463 ??                          .ds 1
IO:B464 ??                          .ds 1
IO:B465 ??                          .ds 1
IO:B466 ??                          .ds 1
IO:B467 ??                          .ds 1
IO:B468 ??                          .ds 1
IO:B469 ??                          .ds 1
IO:B46A ??                          .ds 1
IO:B46B ??                          .ds 1
IO:B46C ??                          .ds 1
IO:B46D ??                          .ds 1
IO:B46E ??                          .ds 1
IO:B46F ??                          .ds 1
IO:B470 ??                          .ds 1
IO:B471 ??                          .ds 1
IO:B472 ??                          .ds 1
IO:B473 ??                          .ds 1
IO:B474 ??                          .ds 1
IO:B475 ??                          .ds 1
IO:B476 ??                          .ds 1
IO:B477 ??                          .ds 1
IO:B478 ??                          .ds 1
IO:B479 ??                          .ds 1
IO:B47A ??                          .ds 1
IO:B47B ??                          .ds 1
IO:B47C ??                          .ds 1
IO:B47D ??                          .ds 1
IO:B47E ??                          .ds 1
IO:B47F ??                          .ds 1
IO:B480 ??                          .ds 1
IO:B481 ??                          .ds 1
IO:B482 ??                          .ds 1
IO:B483 ??                          .ds 1
IO:B484 ??                          .ds 1
IO:B485 ??                          .ds 1
IO:B486 ??                          .ds 1
IO:B487 ??                          .ds 1
IO:B488 ??                          .ds 1
IO:B489 ??                          .ds 1
IO:B48A ??                          .ds 1
IO:B48B ??                          .ds 1
IO:B48C ??                          .ds 1
IO:B48D ??                          .ds 1
IO:B48E ??                          .ds 1
IO:B48F ??                          .ds 1
IO:B490 ??                          .ds 1
IO:B491 ??                          .ds 1
IO:B492 ??                          .ds 1
IO:B493 ??                          .ds 1
IO:B494 ??                          .ds 1
IO:B495 ??                          .ds 1
IO:B496 ??                          .ds 1
IO:B497 ??                          .ds 1
IO:B498 ??                          .ds 1
IO:B499 ??                          .ds 1
IO:B49A ??                          .ds 1
IO:B49B ??                          .ds 1
IO:B49C ??                          .ds 1
IO:B49D ??                          .ds 1
IO:B49E ??                          .ds 1
IO:B49F ??                          .ds 1
IO:B4A0 ??                          .ds 1
IO:B4A1 ??                          .ds 1
IO:B4A2 ??                          .ds 1
IO:B4A3 ??                          .ds 1
IO:B4A4 ??                          .ds 1
IO:B4A5 ??                          .ds 1
IO:B4A6 ??                          .ds 1
IO:B4A7 ??                          .ds 1
IO:B4A8 ??                          .ds 1
IO:B4A9 ??                          .ds 1
IO:B4AA ??                          .ds 1
IO:B4AB ??                          .ds 1
IO:B4AC ??                          .ds 1
IO:B4AD ??                          .ds 1
IO:B4AE ??                          .ds 1
IO:B4AF ??                          .ds 1
IO:B4B0 ??                          .ds 1
IO:B4B1 ??                          .ds 1
IO:B4B2 ??                          .ds 1
IO:B4B3 ??                          .ds 1
IO:B4B4 ??                          .ds 1
IO:B4B5 ??                          .ds 1
IO:B4B6 ??                          .ds 1
IO:B4B7 ??                          .ds 1
IO:B4B8 ??                          .ds 1
IO:B4B9 ??                          .ds 1
IO:B4BA ??                          .ds 1
IO:B4BB ??                          .ds 1
IO:B4BC ??                          .ds 1
IO:B4BD ??                          .ds 1
IO:B4BE ??                          .ds 1
IO:B4BF ??                          .ds 1
IO:B4C0 ??                          .ds 1
IO:B4C1 ??                          .ds 1
IO:B4C2 ??                          .ds 1
IO:B4C3 ??                          .ds 1
IO:B4C4 ??                          .ds 1
IO:B4C5 ??                          .ds 1
IO:B4C6 ??                          .ds 1
IO:B4C7 ??                          .ds 1
IO:B4C8 ??                          .ds 1
IO:B4C9 ??                          .ds 1
IO:B4CA ??                          .ds 1
IO:B4CB ??                          .ds 1
IO:B4CC ??                          .ds 1
IO:B4CD ??                          .ds 1
IO:B4CE ??                          .ds 1
IO:B4CF ??                          .ds 1
IO:B4D0 ??                          .ds 1
IO:B4D1 ??                          .ds 1
IO:B4D2 ??                          .ds 1
IO:B4D3 ??                          .ds 1
IO:B4D4 ??                          .ds 1
IO:B4D5 ??                          .ds 1
IO:B4D6 ??                          .ds 1
IO:B4D7 ??                          .ds 1
IO:B4D8 ??                          .ds 1
IO:B4D9 ??                          .ds 1
IO:B4DA ??                          .ds 1
IO:B4DB ??                          .ds 1
IO:B4DC ??                          .ds 1
IO:B4DD ??                          .ds 1
IO:B4DE ??                          .ds 1
IO:B4DF ??                          .ds 1
IO:B4E0 ??                          .ds 1
IO:B4E1 ??                          .ds 1
IO:B4E2 ??                          .ds 1
IO:B4E3 ??                          .ds 1
IO:B4E4 ??                          .ds 1
IO:B4E5 ??                          .ds 1
IO:B4E6 ??                          .ds 1
IO:B4E7 ??                          .ds 1
IO:B4E8 ??                          .ds 1
IO:B4E9 ??                          .ds 1
IO:B4EA ??                          .ds 1
IO:B4EB ??                          .ds 1
IO:B4EC ??                          .ds 1
IO:B4ED ??                          .ds 1
IO:B4EE ??                          .ds 1
IO:B4EF ??                          .ds 1
IO:B4F0 ??                          .ds 1
IO:B4F1 ??                          .ds 1
IO:B4F2 ??                          .ds 1
IO:B4F3 ??                          .ds 1
IO:B4F4 ??                          .ds 1
IO:B4F5 ??                          .ds 1
IO:B4F6 ??                          .ds 1
IO:B4F7 ??                          .ds 1
IO:B4F8 ??                          .ds 1
IO:B4F9 ??                          .ds 1
IO:B4FA ??                          .ds 1
IO:B4FB ??                          .ds 1
IO:B4FC ??                          .ds 1
IO:B4FD ??                          .ds 1
IO:B4FE ??                          .ds 1
IO:B4FF ??                          .ds 1
IO:B500 ??                          .ds 1
IO:B501 ??                          .ds 1
IO:B502 ??                          .ds 1
IO:B503 ??                          .ds 1
IO:B504 ??                          .ds 1
IO:B505 ??                          .ds 1
IO:B506 ??                          .ds 1
IO:B507 ??                          .ds 1
IO:B508 ??                          .ds 1
IO:B509 ??                          .ds 1
IO:B50A ??                          .ds 1
IO:B50B ??                          .ds 1
IO:B50C ??                          .ds 1
IO:B50D ??                          .ds 1
IO:B50E ??                          .ds 1
IO:B50F ??                          .ds 1
IO:B510 ??                          .ds 1
IO:B511 ??                          .ds 1
IO:B512 ??                          .ds 1
IO:B513 ??                          .ds 1
IO:B514 ??                          .ds 1
IO:B515 ??                          .ds 1
IO:B516 ??                          .ds 1
IO:B517 ??                          .ds 1
IO:B518 ??                          .ds 1
IO:B519 ??                          .ds 1
IO:B51A ??                          .ds 1
IO:B51B ??                          .ds 1
IO:B51C ??                          .ds 1
IO:B51D ??                          .ds 1
IO:B51E ??                          .ds 1
IO:B51F ??                          .ds 1
IO:B520 ??                          .ds 1
IO:B521 ??                          .ds 1
IO:B522 ??                          .ds 1
IO:B523 ??                          .ds 1
IO:B524 ??                          .ds 1
IO:B525 ??                          .ds 1
IO:B526 ??                          .ds 1
IO:B527 ??                          .ds 1
IO:B528 ??                          .ds 1
IO:B529 ??                          .ds 1
IO:B52A ??                          .ds 1
IO:B52B ??                          .ds 1
IO:B52C ??                          .ds 1
IO:B52D ??                          .ds 1
IO:B52E ??                          .ds 1
IO:B52F ??                          .ds 1
IO:B530 ??                          .ds 1
IO:B531 ??                          .ds 1
IO:B532 ??                          .ds 1
IO:B533 ??                          .ds 1
IO:B534 ??                          .ds 1
IO:B535 ??                          .ds 1
IO:B536 ??                          .ds 1
IO:B537 ??                          .ds 1
IO:B538 ??                          .ds 1
IO:B539 ??                          .ds 1
IO:B53A ??                          .ds 1
IO:B53B ??                          .ds 1
IO:B53C ??                          .ds 1
IO:B53D ??                          .ds 1
IO:B53E ??                          .ds 1
IO:B53F ??                          .ds 1
IO:B540 ??                          .ds 1
IO:B541 ??                          .ds 1
IO:B542 ??                          .ds 1
IO:B543 ??                          .ds 1
IO:B544 ??                          .ds 1
IO:B545 ??                          .ds 1
IO:B546 ??                          .ds 1
IO:B547 ??                          .ds 1
IO:B548 ??                          .ds 1
IO:B549 ??                          .ds 1
IO:B54A ??                          .ds 1
IO:B54B ??                          .ds 1
IO:B54C ??                          .ds 1
IO:B54D ??                          .ds 1
IO:B54E ??                          .ds 1
IO:B54F ??                          .ds 1
IO:B550 ??                          .ds 1
IO:B551 ??                          .ds 1
IO:B552 ??                          .ds 1
IO:B553 ??                          .ds 1
IO:B554 ??                          .ds 1
IO:B555 ??                          .ds 1
IO:B556 ??                          .ds 1
IO:B557 ??                          .ds 1
IO:B558 ??                          .ds 1
IO:B559 ??                          .ds 1
IO:B55A ??                          .ds 1
IO:B55B ??                          .ds 1
IO:B55C ??                          .ds 1
IO:B55D ??                          .ds 1
IO:B55E ??                          .ds 1
IO:B55F ??                          .ds 1
IO:B560 ??                          .ds 1
IO:B561 ??                          .ds 1
IO:B562 ??                          .ds 1
IO:B563 ??                          .ds 1
IO:B564 ??                          .ds 1
IO:B565 ??                          .ds 1
IO:B566 ??                          .ds 1
IO:B567 ??                          .ds 1
IO:B568 ??                          .ds 1
IO:B569 ??                          .ds 1
IO:B56A ??                          .ds 1
IO:B56B ??                          .ds 1
IO:B56C ??                          .ds 1
IO:B56D ??                          .ds 1
IO:B56E ??                          .ds 1
IO:B56F ??                          .ds 1
IO:B570 ??                          .ds 1
IO:B571 ??                          .ds 1
IO:B572 ??                          .ds 1
IO:B573 ??                          .ds 1
IO:B574 ??                          .ds 1
IO:B575 ??                          .ds 1
IO:B576 ??                          .ds 1
IO:B577 ??                          .ds 1
IO:B578 ??                          .ds 1
IO:B579 ??                          .ds 1
IO:B57A ??                          .ds 1
IO:B57B ??                          .ds 1
IO:B57C ??                          .ds 1
IO:B57D ??                          .ds 1
IO:B57E ??                          .ds 1
IO:B57F ??                          .ds 1
IO:B580 ??                          .ds 1
IO:B581 ??                          .ds 1
IO:B582 ??                          .ds 1
IO:B583 ??                          .ds 1
IO:B584 ??                          .ds 1
IO:B585 ??                          .ds 1
IO:B586 ??                          .ds 1
IO:B587 ??                          .ds 1
IO:B588 ??                          .ds 1
IO:B589 ??                          .ds 1
IO:B58A ??                          .ds 1
IO:B58B ??                          .ds 1
IO:B58C ??                          .ds 1
IO:B58D ??                          .ds 1
IO:B58E ??                          .ds 1
IO:B58F ??                          .ds 1
IO:B590 ??                          .ds 1
IO:B591 ??                          .ds 1
IO:B592 ??                          .ds 1
IO:B593 ??                          .ds 1
IO:B594 ??                          .ds 1
IO:B595 ??                          .ds 1
IO:B596 ??                          .ds 1
IO:B597 ??                          .ds 1
IO:B598 ??                          .ds 1
IO:B599 ??                          .ds 1
IO:B59A ??                          .ds 1
IO:B59B ??                          .ds 1
IO:B59C ??                          .ds 1
IO:B59D ??                          .ds 1
IO:B59E ??                          .ds 1
IO:B59F ??                          .ds 1
IO:B5A0 ??                          .ds 1
IO:B5A1 ??                          .ds 1
IO:B5A2 ??                          .ds 1
IO:B5A3 ??                          .ds 1
IO:B5A4 ??                          .ds 1
IO:B5A5 ??                          .ds 1
IO:B5A6 ??                          .ds 1
IO:B5A7 ??                          .ds 1
IO:B5A8 ??                          .ds 1
IO:B5A9 ??                          .ds 1
IO:B5AA ??                          .ds 1
IO:B5AB ??                          .ds 1
IO:B5AC ??                          .ds 1
IO:B5AD ??                          .ds 1
IO:B5AE ??                          .ds 1
IO:B5AF ??                          .ds 1
IO:B5B0 ??                          .ds 1
IO:B5B1 ??                          .ds 1
IO:B5B2 ??                          .ds 1
IO:B5B3 ??                          .ds 1
IO:B5B4 ??                          .ds 1
IO:B5B5 ??                          .ds 1
IO:B5B6 ??                          .ds 1
IO:B5B7 ??                          .ds 1
IO:B5B8 ??                          .ds 1
IO:B5B9 ??                          .ds 1
IO:B5BA ??                          .ds 1
IO:B5BB ??                          .ds 1
IO:B5BC ??                          .ds 1
IO:B5BD ??                          .ds 1
IO:B5BE ??                          .ds 1
IO:B5BF ??                          .ds 1
IO:B5C0 ??                          .ds 1
IO:B5C1 ??                          .ds 1
IO:B5C2 ??                          .ds 1
IO:B5C3 ??                          .ds 1
IO:B5C4 ??                          .ds 1
IO:B5C5 ??                          .ds 1
IO:B5C6 ??                          .ds 1
IO:B5C7 ??                          .ds 1
IO:B5C8 ??                          .ds 1
IO:B5C9 ??                          .ds 1
IO:B5CA ??                          .ds 1
IO:B5CB ??                          .ds 1
IO:B5CC ??                          .ds 1
IO:B5CD ??                          .ds 1
IO:B5CE ??                          .ds 1
IO:B5CF ??                          .ds 1
IO:B5D0 ??                          .ds 1
IO:B5D1 ??                          .ds 1
IO:B5D2 ??                          .ds 1
IO:B5D3 ??                          .ds 1
IO:B5D4 ??                          .ds 1
IO:B5D5 ??                          .ds 1
IO:B5D6 ??                          .ds 1
IO:B5D7 ??                          .ds 1
IO:B5D8 ??                          .ds 1
IO:B5D9 ??                          .ds 1
IO:B5DA ??                          .ds 1
IO:B5DB ??                          .ds 1
IO:B5DC ??                          .ds 1
IO:B5DD ??                          .ds 1
IO:B5DE ??                          .ds 1
IO:B5DF ??                          .ds 1
IO:B5E0 ??                          .ds 1
IO:B5E1 ??                          .ds 1
IO:B5E2 ??                          .ds 1
IO:B5E3 ??                          .ds 1
IO:B5E4 ??                          .ds 1
IO:B5E5 ??                          .ds 1
IO:B5E6 ??                          .ds 1
IO:B5E7 ??                          .ds 1
IO:B5E8 ??                          .ds 1
IO:B5E9 ??                          .ds 1
IO:B5EA ??                          .ds 1
IO:B5EB ??                          .ds 1
IO:B5EC ??                          .ds 1
IO:B5ED ??                          .ds 1
IO:B5EE ??                          .ds 1
IO:B5EF ??                          .ds 1
IO:B5F0 ??                          .ds 1
IO:B5F1 ??                          .ds 1
IO:B5F2 ??                          .ds 1
IO:B5F3 ??                          .ds 1
IO:B5F4 ??                          .ds 1
IO:B5F5 ??                          .ds 1
IO:B5F6 ??                          .ds 1
IO:B5F7 ??                          .ds 1
IO:B5F8 ??                          .ds 1
IO:B5F9 ??                          .ds 1
IO:B5FA ??                          .ds 1
IO:B5FB ??                          .ds 1
IO:B5FC ??                          .ds 1
IO:B5FD ??                          .ds 1
IO:B5FE ??                          .ds 1
IO:B5FF ??                          .ds 1
IO:B600 ??                          .ds 1
IO:B601 ??                          .ds 1
IO:B602 ??                          .ds 1
IO:B603 ??                          .ds 1
IO:B604 ??                          .ds 1
IO:B605 ??                          .ds 1
IO:B606 ??                          .ds 1
IO:B607 ??                          .ds 1
IO:B608 ??                          .ds 1
IO:B609 ??                          .ds 1
IO:B60A ??                          .ds 1
IO:B60B ??                          .ds 1
IO:B60C ??                          .ds 1
IO:B60D ??                          .ds 1
IO:B60E ??                          .ds 1
IO:B60F ??                          .ds 1
IO:B610 ??                          .ds 1
IO:B611 ??                          .ds 1
IO:B612 ??                          .ds 1
IO:B613 ??                          .ds 1
IO:B614 ??                          .ds 1
IO:B615 ??                          .ds 1
IO:B616 ??                          .ds 1
IO:B617 ??                          .ds 1
IO:B618 ??                          .ds 1
IO:B619 ??                          .ds 1
IO:B61A ??                          .ds 1
IO:B61B ??                          .ds 1
IO:B61C ??                          .ds 1
IO:B61D ??                          .ds 1
IO:B61E ??                          .ds 1
IO:B61F ??                          .ds 1
IO:B620 ??                          .ds 1
IO:B621 ??                          .ds 1
IO:B622 ??                          .ds 1
IO:B623 ??                          .ds 1
IO:B624 ??                          .ds 1
IO:B625 ??                          .ds 1
IO:B626 ??                          .ds 1
IO:B627 ??                          .ds 1
IO:B628 ??                          .ds 1
IO:B629 ??                          .ds 1
IO:B62A ??                          .ds 1
IO:B62B ??                          .ds 1
IO:B62C ??                          .ds 1
IO:B62D ??                          .ds 1
IO:B62E ??                          .ds 1
IO:B62F ??                          .ds 1
IO:B630 ??                          .ds 1
IO:B631 ??                          .ds 1
IO:B632 ??                          .ds 1
IO:B633 ??                          .ds 1
IO:B634 ??                          .ds 1
IO:B635 ??                          .ds 1
IO:B636 ??                          .ds 1
IO:B637 ??                          .ds 1
IO:B638 ??                          .ds 1
IO:B639 ??                          .ds 1
IO:B63A ??                          .ds 1
IO:B63B ??                          .ds 1
IO:B63C ??                          .ds 1
IO:B63D ??                          .ds 1
IO:B63E ??                          .ds 1
IO:B63F ??                          .ds 1
IO:B640 ??                          .ds 1
IO:B641 ??                          .ds 1
IO:B642 ??                          .ds 1
IO:B643 ??                          .ds 1
IO:B644 ??                          .ds 1
IO:B645 ??                          .ds 1
IO:B646 ??                          .ds 1
IO:B647 ??                          .ds 1
IO:B648 ??                          .ds 1
IO:B649 ??                          .ds 1
IO:B64A ??                          .ds 1
IO:B64B ??                          .ds 1
IO:B64C ??                          .ds 1
IO:B64D ??                          .ds 1
IO:B64E ??                          .ds 1
IO:B64F ??                          .ds 1
IO:B650 ??                          .ds 1
IO:B651 ??                          .ds 1
IO:B652 ??                          .ds 1
IO:B653 ??                          .ds 1
IO:B654 ??                          .ds 1
IO:B655 ??                          .ds 1
IO:B656 ??                          .ds 1
IO:B657 ??                          .ds 1
IO:B658 ??                          .ds 1
IO:B659 ??                          .ds 1
IO:B65A ??                          .ds 1
IO:B65B ??                          .ds 1
IO:B65C ??                          .ds 1
IO:B65D ??                          .ds 1
IO:B65E ??                          .ds 1
IO:B65F ??                          .ds 1
IO:B660 ??                          .ds 1
IO:B661 ??                          .ds 1
IO:B662 ??                          .ds 1
IO:B663 ??                          .ds 1
IO:B664 ??                          .ds 1
IO:B665 ??                          .ds 1
IO:B666 ??                          .ds 1
IO:B667 ??                          .ds 1
IO:B668 ??                          .ds 1
IO:B669 ??                          .ds 1
IO:B66A ??                          .ds 1
IO:B66B ??                          .ds 1
IO:B66C ??                          .ds 1
IO:B66D ??                          .ds 1
IO:B66E ??                          .ds 1
IO:B66F ??                          .ds 1
IO:B670 ??                          .ds 1
IO:B671 ??                          .ds 1
IO:B672 ??                          .ds 1
IO:B673 ??                          .ds 1
IO:B674 ??                          .ds 1
IO:B675 ??                          .ds 1
IO:B676 ??                          .ds 1
IO:B677 ??                          .ds 1
IO:B678 ??                          .ds 1
IO:B679 ??                          .ds 1
IO:B67A ??                          .ds 1
IO:B67B ??                          .ds 1
IO:B67C ??                          .ds 1
IO:B67D ??                          .ds 1
IO:B67E ??                          .ds 1
IO:B67F ??                          .ds 1
IO:B680 ??                          .ds 1
IO:B681 ??                          .ds 1
IO:B682 ??                          .ds 1
IO:B683 ??                          .ds 1
IO:B684 ??                          .ds 1
IO:B685 ??                          .ds 1
IO:B686 ??                          .ds 1
IO:B687 ??                          .ds 1
IO:B688 ??                          .ds 1
IO:B689 ??                          .ds 1
IO:B68A ??                          .ds 1
IO:B68B ??                          .ds 1
IO:B68C ??                          .ds 1
IO:B68D ??                          .ds 1
IO:B68E ??                          .ds 1
IO:B68F ??                          .ds 1
IO:B690 ??                          .ds 1
IO:B691 ??                          .ds 1
IO:B692 ??                          .ds 1
IO:B693 ??                          .ds 1
IO:B694 ??                          .ds 1
IO:B695 ??                          .ds 1
IO:B696 ??                          .ds 1
IO:B697 ??                          .ds 1
IO:B698 ??                          .ds 1
IO:B699 ??                          .ds 1
IO:B69A ??                          .ds 1
IO:B69B ??                          .ds 1
IO:B69C ??                          .ds 1
IO:B69D ??                          .ds 1
IO:B69E ??                          .ds 1
IO:B69F ??                          .ds 1
IO:B6A0 ??                          .ds 1
IO:B6A1 ??                          .ds 1
IO:B6A2 ??                          .ds 1
IO:B6A3 ??                          .ds 1
IO:B6A4 ??                          .ds 1
IO:B6A5 ??                          .ds 1
IO:B6A6 ??                          .ds 1
IO:B6A7 ??                          .ds 1
IO:B6A8 ??                          .ds 1
IO:B6A9 ??                          .ds 1
IO:B6AA ??                          .ds 1
IO:B6AB ??                          .ds 1
IO:B6AC ??                          .ds 1
IO:B6AD ??                          .ds 1
IO:B6AE ??                          .ds 1
IO:B6AF ??                          .ds 1
IO:B6B0 ??                          .ds 1
IO:B6B1 ??                          .ds 1
IO:B6B2 ??                          .ds 1
IO:B6B3 ??                          .ds 1
IO:B6B4 ??                          .ds 1
IO:B6B5 ??                          .ds 1
IO:B6B6 ??                          .ds 1
IO:B6B7 ??                          .ds 1
IO:B6B8 ??                          .ds 1
IO:B6B9 ??                          .ds 1
IO:B6BA ??                          .ds 1
IO:B6BB ??                          .ds 1
IO:B6BC ??                          .ds 1
IO:B6BD ??                          .ds 1
IO:B6BE ??                          .ds 1
IO:B6BF ??                          .ds 1
IO:B6C0 ??                          .ds 1
IO:B6C1 ??                          .ds 1
IO:B6C2 ??                          .ds 1
IO:B6C3 ??                          .ds 1
IO:B6C4 ??                          .ds 1
IO:B6C5 ??                          .ds 1
IO:B6C6 ??                          .ds 1
IO:B6C7 ??                          .ds 1
IO:B6C8 ??                          .ds 1
IO:B6C9 ??                          .ds 1
IO:B6CA ??                          .ds 1
IO:B6CB ??                          .ds 1
IO:B6CC ??                          .ds 1
IO:B6CD ??                          .ds 1
IO:B6CE ??                          .ds 1
IO:B6CF ??                          .ds 1
IO:B6D0 ??                          .ds 1
IO:B6D1 ??                          .ds 1
IO:B6D2 ??                          .ds 1
IO:B6D3 ??                          .ds 1
IO:B6D4 ??                          .ds 1
IO:B6D5 ??                          .ds 1
IO:B6D6 ??                          .ds 1
IO:B6D7 ??                          .ds 1
IO:B6D8 ??                          .ds 1
IO:B6D9 ??                          .ds 1
IO:B6DA ??                          .ds 1
IO:B6DB ??                          .ds 1
IO:B6DC ??                          .ds 1
IO:B6DD ??                          .ds 1
IO:B6DE ??                          .ds 1
IO:B6DF ??                          .ds 1
IO:B6E0 ??                          .ds 1
IO:B6E1 ??                          .ds 1
IO:B6E2 ??                          .ds 1
IO:B6E3 ??                          .ds 1
IO:B6E4 ??                          .ds 1
IO:B6E5 ??                          .ds 1
IO:B6E6 ??                          .ds 1
IO:B6E7 ??                          .ds 1
IO:B6E8 ??                          .ds 1
IO:B6E9 ??                          .ds 1
IO:B6EA ??                          .ds 1
IO:B6EB ??                          .ds 1
IO:B6EC ??                          .ds 1
IO:B6ED ??                          .ds 1
IO:B6EE ??                          .ds 1
IO:B6EF ??                          .ds 1
IO:B6F0 ??                          .ds 1
IO:B6F1 ??                          .ds 1
IO:B6F2 ??                          .ds 1
IO:B6F3 ??                          .ds 1
IO:B6F4 ??                          .ds 1
IO:B6F5 ??                          .ds 1
IO:B6F6 ??                          .ds 1
IO:B6F7 ??                          .ds 1
IO:B6F8 ??                          .ds 1
IO:B6F9 ??                          .ds 1
IO:B6FA ??                          .ds 1
IO:B6FB ??                          .ds 1
IO:B6FC ??                          .ds 1
IO:B6FD ??                          .ds 1
IO:B6FE ??                          .ds 1
IO:B6FF ??                          .ds 1
IO:B700 ??                          .ds 1
IO:B701 ??                          .ds 1
IO:B702 ??                          .ds 1
IO:B703 ??                          .ds 1
IO:B704 ??                          .ds 1
IO:B705 ??                          .ds 1
IO:B706 ??                          .ds 1
IO:B707 ??                          .ds 1
IO:B708 ??                          .ds 1
IO:B709 ??                          .ds 1
IO:B70A ??                          .ds 1
IO:B70B ??                          .ds 1
IO:B70C ??                          .ds 1
IO:B70D ??                          .ds 1
IO:B70E ??                          .ds 1
IO:B70F ??                          .ds 1
IO:B710 ??                          .ds 1
IO:B711 ??                          .ds 1
IO:B712 ??                          .ds 1
IO:B713 ??                          .ds 1
IO:B714 ??                          .ds 1
IO:B715 ??                          .ds 1
IO:B716 ??                          .ds 1
IO:B717 ??                          .ds 1
IO:B718 ??                          .ds 1
IO:B719 ??                          .ds 1
IO:B71A ??                          .ds 1
IO:B71B ??                          .ds 1
IO:B71C ??                          .ds 1
IO:B71D ??                          .ds 1
IO:B71E ??                          .ds 1
IO:B71F ??                          .ds 1
IO:B720 ??                          .ds 1
IO:B721 ??                          .ds 1
IO:B722 ??                          .ds 1
IO:B723 ??                          .ds 1
IO:B724 ??                          .ds 1
IO:B725 ??                          .ds 1
IO:B726 ??                          .ds 1
IO:B727 ??                          .ds 1
IO:B728 ??                          .ds 1
IO:B729 ??                          .ds 1
IO:B72A ??                          .ds 1
IO:B72B ??                          .ds 1
IO:B72C ??                          .ds 1
IO:B72D ??                          .ds 1
IO:B72E ??                          .ds 1
IO:B72F ??                          .ds 1
IO:B730 ??                          .ds 1
IO:B731 ??                          .ds 1
IO:B732 ??                          .ds 1
IO:B733 ??                          .ds 1
IO:B734 ??                          .ds 1
IO:B735 ??                          .ds 1
IO:B736 ??                          .ds 1
IO:B737 ??                          .ds 1
IO:B738 ??                          .ds 1
IO:B739 ??                          .ds 1
IO:B73A ??                          .ds 1
IO:B73B ??                          .ds 1
IO:B73C ??                          .ds 1
IO:B73D ??                          .ds 1
IO:B73E ??                          .ds 1
IO:B73F ??                          .ds 1
IO:B740 ??                          .ds 1
IO:B741 ??                          .ds 1
IO:B742 ??                          .ds 1
IO:B743 ??                          .ds 1
IO:B744 ??                          .ds 1
IO:B745 ??                          .ds 1
IO:B746 ??                          .ds 1
IO:B747 ??                          .ds 1
IO:B748 ??                          .ds 1
IO:B749 ??                          .ds 1
IO:B74A ??                          .ds 1
IO:B74B ??                          .ds 1
IO:B74C ??                          .ds 1
IO:B74D ??                          .ds 1
IO:B74E ??                          .ds 1
IO:B74F ??                          .ds 1
IO:B750 ??                          .ds 1
IO:B751 ??                          .ds 1
IO:B752 ??                          .ds 1
IO:B753 ??                          .ds 1
IO:B754 ??                          .ds 1
IO:B755 ??                          .ds 1
IO:B756 ??                          .ds 1
IO:B757 ??                          .ds 1
IO:B758 ??                          .ds 1
IO:B759 ??                          .ds 1
IO:B75A ??                          .ds 1
IO:B75B ??                          .ds 1
IO:B75C ??                          .ds 1
IO:B75D ??                          .ds 1
IO:B75E ??                          .ds 1
IO:B75F ??                          .ds 1
IO:B760 ??                          .ds 1
IO:B761 ??                          .ds 1
IO:B762 ??                          .ds 1
IO:B763 ??                          .ds 1
IO:B764 ??                          .ds 1
IO:B765 ??                          .ds 1
IO:B766 ??                          .ds 1
IO:B767 ??                          .ds 1
IO:B768 ??                          .ds 1
IO:B769 ??                          .ds 1
IO:B76A ??                          .ds 1
IO:B76B ??                          .ds 1
IO:B76C ??                          .ds 1
IO:B76D ??                          .ds 1
IO:B76E ??                          .ds 1
IO:B76F ??                          .ds 1
IO:B770 ??                          .ds 1
IO:B771 ??                          .ds 1
IO:B772 ??                          .ds 1
IO:B773 ??                          .ds 1
IO:B774 ??                          .ds 1
IO:B775 ??                          .ds 1
IO:B776 ??                          .ds 1
IO:B777 ??                          .ds 1
IO:B778 ??                          .ds 1
IO:B779 ??                          .ds 1
IO:B77A ??                          .ds 1
IO:B77B ??                          .ds 1
IO:B77C ??                          .ds 1
IO:B77D ??                          .ds 1
IO:B77E ??                          .ds 1
IO:B77F ??                          .ds 1
IO:B780 ??                          .ds 1
IO:B781 ??                          .ds 1
IO:B782 ??                          .ds 1
IO:B783 ??                          .ds 1
IO:B784 ??                          .ds 1
IO:B785 ??                          .ds 1
IO:B786 ??                          .ds 1
IO:B787 ??                          .ds 1
IO:B788 ??                          .ds 1
IO:B789 ??                          .ds 1
IO:B78A ??                          .ds 1
IO:B78B ??                          .ds 1
IO:B78C ??                          .ds 1
IO:B78D ??                          .ds 1
IO:B78E ??                          .ds 1
IO:B78F ??                          .ds 1
IO:B790 ??                          .ds 1
IO:B791 ??                          .ds 1
IO:B792 ??                          .ds 1
IO:B793 ??                          .ds 1
IO:B794 ??                          .ds 1
IO:B795 ??                          .ds 1
IO:B796 ??                          .ds 1
IO:B797 ??                          .ds 1
IO:B798 ??                          .ds 1
IO:B799 ??                          .ds 1
IO:B79A ??                          .ds 1
IO:B79B ??                          .ds 1
IO:B79C ??                          .ds 1
IO:B79D ??                          .ds 1
IO:B79E ??                          .ds 1
IO:B79F ??                          .ds 1
IO:B7A0 ??                          .ds 1
IO:B7A1 ??                          .ds 1
IO:B7A2 ??                          .ds 1
IO:B7A3 ??                          .ds 1
IO:B7A4 ??                          .ds 1
IO:B7A5 ??                          .ds 1
IO:B7A6 ??                          .ds 1
IO:B7A7 ??                          .ds 1
IO:B7A8 ??                          .ds 1
IO:B7A9 ??                          .ds 1
IO:B7AA ??                          .ds 1
IO:B7AB ??                          .ds 1
IO:B7AC ??                          .ds 1
IO:B7AD ??                          .ds 1
IO:B7AE ??                          .ds 1
IO:B7AF ??                          .ds 1
IO:B7B0 ??                          .ds 1
IO:B7B1 ??                          .ds 1
IO:B7B2 ??                          .ds 1
IO:B7B3 ??                          .ds 1
IO:B7B4 ??                          .ds 1
IO:B7B5 ??                          .ds 1
IO:B7B6 ??                          .ds 1
IO:B7B7 ??                          .ds 1
IO:B7B8 ??                          .ds 1
IO:B7B9 ??                          .ds 1
IO:B7BA ??                          .ds 1
IO:B7BB ??                          .ds 1
IO:B7BC ??                          .ds 1
IO:B7BD ??                          .ds 1
IO:B7BE ??                          .ds 1
IO:B7BF ??                          .ds 1
IO:B7C0 ??                          .ds 1
IO:B7C1 ??                          .ds 1
IO:B7C2 ??                          .ds 1
IO:B7C3 ??                          .ds 1
IO:B7C4 ??                          .ds 1
IO:B7C5 ??                          .ds 1
IO:B7C6 ??                          .ds 1
IO:B7C7 ??                          .ds 1
IO:B7C8 ??                          .ds 1
IO:B7C9 ??                          .ds 1
IO:B7CA ??                          .ds 1
IO:B7CB ??                          .ds 1
IO:B7CC ??                          .ds 1
IO:B7CD ??                          .ds 1
IO:B7CE ??                          .ds 1
IO:B7CF ??                          .ds 1
IO:B7D0 ??                          .ds 1
IO:B7D1 ??                          .ds 1
IO:B7D2 ??                          .ds 1
IO:B7D3 ??                          .ds 1
IO:B7D4 ??                          .ds 1
IO:B7D5 ??                          .ds 1
IO:B7D6 ??                          .ds 1
IO:B7D7 ??                          .ds 1
IO:B7D8 ??                          .ds 1
IO:B7D9 ??                          .ds 1
IO:B7DA ??                          .ds 1
IO:B7DB ??                          .ds 1
IO:B7DC ??                          .ds 1
IO:B7DD ??                          .ds 1
IO:B7DE ??                          .ds 1
IO:B7DF ??                          .ds 1
IO:B7E0 ??                          .ds 1
IO:B7E1 ??                          .ds 1
IO:B7E2 ??                          .ds 1
IO:B7E3 ??                          .ds 1
IO:B7E4 ??                          .ds 1
IO:B7E5 ??                          .ds 1
IO:B7E6 ??                          .ds 1
IO:B7E7 ??                          .ds 1
IO:B7E8 ??                          .ds 1
IO:B7E9 ??                          .ds 1
IO:B7EA ??                          .ds 1
IO:B7EB ??                          .ds 1
IO:B7EC ??                          .ds 1
IO:B7ED ??                          .ds 1
IO:B7EE ??                          .ds 1
IO:B7EF ??                          .ds 1
IO:B7F0 ??                          .ds 1
IO:B7F1 ??                          .ds 1
IO:B7F2 ??                          .ds 1
IO:B7F3 ??                          .ds 1
IO:B7F4 ??                          .ds 1
IO:B7F5 ??                          .ds 1
IO:B7F6 ??                          .ds 1
IO:B7F7 ??                          .ds 1
IO:B7F8 ??                          .ds 1
IO:B7F9 ??                          .ds 1
IO:B7FA ??                          .ds 1
IO:B7FB ??                          .ds 1
IO:B7FC ??                          .ds 1
IO:B7FD ??                          .ds 1
IO:B7FE ??                          .ds 1
IO:B7FF ??                          .ds 1
IO:B800 ??                          .ds 1
IO:B801 ??                          .ds 1
IO:B802 ??                          .ds 1
IO:B803 ??                          .ds 1
IO:B804 ??                          .ds 1
IO:B805 ??                          .ds 1
IO:B806 ??                          .ds 1
IO:B807 ??                          .ds 1
IO:B808 ??          irq_enable_w:   .ds 1                                           ; ...
IO:B809 ??                          .ds 1
IO:B80A ??                          .ds 1
IO:B80B ??                          .ds 1
IO:B80C ??          flip_screen_y_w:.ds 1                                           ; ...
IO:B80D ??                          .ds 1
IO:B80E ??                          .ds 1
IO:B80F ??                          .ds 1
IO:B810 ??          flip_screen_x_w:.ds 1                                           ; ...
IO:B811 ??                          .ds 1
IO:B812 ??                          .ds 1
IO:B813 ??                          .ds 1
IO:B814 ??                          .ds 1
IO:B815 ??                          .ds 1
IO:B816 ??                          .ds 1
IO:B817 ??                          .ds 1
IO:B818 ??          __coincnt0:     .ds 1                                           ; ...
IO:B819 ??                          .ds 1
IO:B81A ??                          .ds 1
IO:B81B ??                          .ds 1
IO:B81C ??          __coincnt1:     .ds 1                                           ; ...
IO:B81D ??                          .ds 1
IO:B81E ??                          .ds 1
IO:B81F ??                          .ds 1
IO:B81F             ; end of 'IO'
IO:B81F
PPI8255:C000             uint8_t galaxian_state::frogger_ppi8255_r(offs_t offset)
PPI8255:C000             {
PPI8255:C000                 // the decoding here is very simplistic, and you can address both simultaneously
PPI8255:C000                 uint8_t result = 0xff;
PPI8255:C000                 if (offset & 0x1000) result &= m_ppi8255[1]->read((offset >> 1) & 3);
PPI8255:C000                 if (offset & 0x2000) result &= m_ppi8255[0]->read((offset >> 1) & 3);
PPI8255:C000                 return result;
PPI8255:C000             }
PPI8255:C000
PPI8255:C000
PPI8255:C000             void galaxian_state::frogger_ppi8255_w(offs_t offset, uint8_t data)
PPI8255:C000             {
PPI8255:C000                 // the decoding here is very simplistic, and you can address both simultaneously
PPI8255:C000                 if (offset & 0x1000) m_ppi8255[1]->write((offset >> 1) & 3, data);
PPI8255:C000                 if (offset & 0x2000) m_ppi8255[0]->write((offset >> 1) & 3, data);
PPI8255:C000             }
PPI8255:C000
PPI8255:C000
PPI8255:C000                 I8255A(config, m_ppi8255[0]);
PPI8255:C000                 m_ppi8255[0]->in_pa_callback().set_ioport("IN0");
PPI8255:C000                 m_ppi8255[0]->in_pb_callback().set_ioport("IN1");
PPI8255:C000                 m_ppi8255[0]->in_pc_callback().set_ioport("IN2");
PPI8255:C000                 m_ppi8255[0]->out_pc_callback().set(FUNC(galaxian_state::konami_portc_0_w));
PPI8255:C000
PPI8255:C000                 I8255A(config, m_ppi8255[1]);
PPI8255:C000                 m_ppi8255[1]->out_pa_callback().set(m_soundlatch, FUNC(generic_latch_8_device::write));
PPI8255:C000                 m_ppi8255[1]->out_pb_callback().set(FUNC(galaxian_state::konami_sound_control_w));
PPI8255:C000                 m_ppi8255[1]->in_pc_callback().set_ioport("IN3");
PPI8255:C000                 m_ppi8255[1]->out_pc_callback().set(FUNC(galaxian_state::konami_portc_1_w));
PPI8255:C000
PPI8255:C000             ; ===========================================================================
PPI8255:C000
PPI8255:C000             ; Segment type: Regular
PPI8255:C000                             .org 0xC000
PPI8255:C000 ?? ?? ?? ??+                .ds 0x1000
PPI8255:D000             ; PPI8255[1]
PPI8255:D000 ??          ppi8255_1_PA:   .ds 1                                           ; generic_latch_8_device
PPI8255:D001 ??                          .ds 1
PPI8255:D002 ??          ppi8255_1_PB:   .ds 1                                           ; konami_sound_control_w
PPI8255:D003 ??                          .ds 1
PPI8255:D004 ??          ppi8255_1_PC:   .ds 1                                           ; IN3
PPI8255:D005 ??                          .ds 1
PPI8255:D006 ??          ppi8255_1_CTRL: .ds 1                                           ; ...
PPI8255:D007 ??                          .ds 1
PPI8255:D008 ?? ?? ?? ??+                .ds 0xFF8
PPI8255:E000             ; PPI8255[0]
PPI8255:E000 ??          ppi8255_0_PA:   .ds 1                                           ; IN0
PPI8255:E001 ??                          .ds 1
PPI8255:E002 ??          ppi8255_0_PB:   .ds 1                                           ; IN1
PPI8255:E003 ??                          .ds 1
PPI8255:E004 ??          ppi8255_0_PC:   .ds 1                                           ; IN2
PPI8255:E005 ??                          .ds 1
PPI8255:E006 ??          ppi8255_0_CTRL: .ds 1                                           ; ...
PPI8255:E007 ??                          .ds 1
PPI8255:E008 ?? ?? ?? ??+                .ds 0xFF8
PPI8255:F000             ; PPI8255[1] & PPI8255[0]
PPI8255:F000 ??                          .ds 1
PPI8255:F001 ??                          .ds 1
PPI8255:F002 ??                          .ds 1
PPI8255:F003 ??                          .ds 1
PPI8255:F004 ??                          .ds 1
PPI8255:F005 ??                          .ds 1
PPI8255:F006 ??                          .ds 1
PPI8255:F007 ??                          .ds 1
PPI8255:F008 ?? ?? ?? ??+                .ds 0xFF8
PPI8255:F008 ?? ?? ?? ??+; end of 'PPI8255'
PPI8255:F008 ?? ?? ?? ??+
PPI8255:F008 ?? ?? ?? ??+; end of file
