ROM:0000             ; +---------------------------------------------+
ROM:0000             ; | Super Xevious MAIN ROM Disassembly v1.00rc1 |
ROM:0000             ; | - by tcdev (msmcdoug@gmail.com)             |
ROM:0000             ; | (to be read in conjunction with Xevious RE) |
ROM:0000             ; +---------------------------------------------+
ROM:0000             ;
ROM:0000             ; File Name   : C:\dev\pace\pacedev.net\sw\re\platform\arcade\xevious\re\sxevious\main.bin
ROM:0000             ; Format      : Binary file
ROM:0000             ; Base Address: 0000h Range: 0000h - 4000h Loaded length: 00004000h
ROM:0000
ROM:0000             ; Processor       : z80 []
ROM:0000             ; Target assembler: ASxxxx by Alan R. Baldwin v1.5
ROM:0000                    .area   idaseg (ABS)
ROM:0000                    .hd64 ; this is needed only for HD64180
ROM:0000
ROM:0000             ; ===========================================================================
ROM:0000
ROM:0000             ; Segment type: Pure code
ROM:0000
ROM:0000             RESET:
ROM:0000 3E 10                       ld      a, #0x10
ROM:0002 32 00 71                    ld      (_06xx_ctrl_w), a
ROM:0005 C3 30 01                    jp      START
ROM:0008
ROM:0008             ; =============== S U B R O U T I N E =======================================
ROM:0008
ROM:0008
ROM:0008             HL_plus_equals_2A:
ROM:0008
ROM:0008             ; FUNCTION CHUNK AT ROM:136C SIZE 0000006C BYTES
ROM:0008
ROM:0008 87                          add     a, a
ROM:0009 D2 4F 00                    jp      NC, HL_plus_equals_A_cont
ROM:000C 25                          dec     h
ROM:000D C3 4F 00                    jp      HL_plus_equals_A_cont
ROM:0010             ; ---------------------------------------------------------------------------
ROM:0010
ROM:0010             HL_plus_equals_A:
ROM:0010 A7                          and     a
ROM:0011 F2 4F 00                    jp      P, HL_plus_equals_A_cont
ROM:0014 25                          dec     h
ROM:0015 C3 4F 00                    jp      HL_plus_equals_A_cont
ROM:0018             ; ---------------------------------------------------------------------------
ROM:0018
ROM:0018             abs_A:
ROM:0018 A7                          and     a
ROM:0019 F0                          ret     P
ROM:001A ED 44                       neg
ROM:001C C9                          ret
ROM:001D             ; ---------------------------------------------------------------------------
ROM:001D
ROM:001D             exit_caller:
ROM:001D 33                          inc     sp
ROM:001E 33                          inc     sp
ROM:001F
ROM:001F             null_fn:
ROM:001F C9                          ret
ROM:0020             ; ---------------------------------------------------------------------------
ROM:0020
ROM:0020             add_to_score:
ROM:0020 06 03                       ld      b, #3
ROM:0022 21 80 81                    ld      hl, #curr_player_score_lsb
ROM:0025 AF                          xor     a
ROM:0026 18 2C                       jr      add_to_score_cont
ROM:0028             ; ---------------------------------------------------------------------------
ROM:0028
ROM:0028             HL_plus_equals_8A:
ROM:0028 EB                          ex      de, hl
ROM:0029 CD 2A 01                    call    HL_equals_2A
ROM:002C 29                          add     hl, hl
ROM:002D 29                          add     hl, hl
ROM:002E 19                          add     hl, de
ROM:002F C9                          ret
ROM:0030             ; ---------------------------------------------------------------------------
ROM:0030
ROM:0030             save_PC_to_fn_tbl_and_ret:
ROM:0030 E1                          pop     hl
ROM:0031 DD 75 00                    ld      0(ix), l
ROM:0034 DD 74 01                    ld      1(ix), h
ROM:0037 C9                          ret
ROM:0038             ; ---------------------------------------------------------------------------
ROM:0038
ROM:0038             IM1_IRQ:
ROM:0038 E5                          push    hl
ROM:0039 D5                          push    de
ROM:003A C5                          push    bc
ROM:003B F5                          push    af
ROM:003C 32 30 68                    ld      (watchdog), a
ROM:003F 21 20 68                    ld      hl, #main_irq_ena_ack
ROM:0042 36 00                       ld      (hl), #0
ROM:0044 36 01                       ld      (hl), #1
ROM:0046 CD 96 00                    call    update_sprite_hw_and_other_things
ROM:0049 F1                          pop     af
ROM:004A C1                          pop     bc
ROM:004B D1                          pop     de
ROM:004C E1                          pop     hl
ROM:004D FB                          ei
ROM:004E C9                          ret
ROM:004F             ; ---------------------------------------------------------------------------
ROM:004F
ROM:004F             HL_plus_equals_A_cont:
ROM:004F 85                          add     a, l
ROM:0050 6F                          ld      l, a
ROM:0051 D0                          ret     NC
ROM:0052 24                          inc     h
ROM:0053 C9                          ret
ROM:0054             ; ---------------------------------------------------------------------------
ROM:0054
ROM:0054             add_to_score_cont:
ROM:0054 1A                          ld      a, (de)
ROM:0055 8E                          adc     a, (hl)
ROM:0056 27                          daa
ROM:0057 77                          ld      (hl), a
ROM:0058 13                          inc     de
ROM:0059 23                          inc     hl
ROM:005A 10 F8                       djnz    add_to_score_cont
ROM:005C DC 3B 13                    call    C, set_score_to_9999990
ROM:005F CD 43 13                    call    check_1_2_for_new_high_score_and_update
ROM:0062 C3 6C 13                    jp      check_for_extra_solvalou
ROM:0062             ; End of function HL_plus_equals_2A
ROM:0062
ROM:0062             ; ---------------------------------------------------------------------------
ROM:0065 FF                          .db 0xFF
ROM:0066             ; ---------------------------------------------------------------------------
ROM:0066
ROM:0066             NMI:
ROM:0066 D9                          exx
ROM:0067 ED A0                       ldi
ROM:0069 EA 93 00                    jp      PE, nmi_exit_2
ROM:006C 08                          ex      af, af'
ROM:006D 3E 10                       ld      a, #0x10
ROM:006F 32 00 71                    ld      (_06xx_ctrl_w), a
ROM:0072 2A 04 80                    ld      hl, (start_of_06xx_queue)
ROM:0075 7E                          ld      a, (hl)
ROM:0076 A7                          and     a
ROM:0077 28 19                       jr      Z, nmi_exit_1
ROM:0079 36 00                       ld      (hl), #0
ROM:007B 2C                          inc     l
ROM:007C 2C                          inc     l
ROM:007D 4E                          ld      c, (hl)
ROM:007E 2C                          inc     l
ROM:007F 46                          ld      b, (hl)
ROM:0080 2C                          inc     l
ROM:0081 5E                          ld      e, (hl)
ROM:0082 2C                          inc     l
ROM:0083 56                          ld      d, (hl)
ROM:0084 2C                          inc     l
ROM:0085 D5                          push    de
ROM:0086 5E                          ld      e, (hl)
ROM:0087 2C                          inc     l
ROM:0088 56                          ld      d, (hl)
ROM:0089 2C                          inc     l
ROM:008A 22 04 80                    ld      (start_of_06xx_queue), hl
ROM:008D EB                          ex      de, hl
ROM:008E D1                          pop     de
ROM:008F 32 00 71                    ld      (_06xx_ctrl_w), a
ROM:0092
ROM:0092             nmi_exit_1:
ROM:0092 08                          ex      af, af'
ROM:0093
ROM:0093             nmi_exit_2:
ROM:0093 D9                          exx
ROM:0094 ED 45                       retn
ROM:0096
ROM:0096             ; =============== S U B R O U T I N E =======================================
ROM:0096
ROM:0096
ROM:0096             update_sprite_hw_and_other_things:
ROM:0096 21 00 82                    ld      hl, #spriteram_2_shadow
ROM:0099 11 80 87                    ld      de, #spriteram_2
ROM:009C 01 40 00                    ld      bc, #0x40 ; '@'
ROM:009F ED B0                       ldir
ROM:00A1 21 00 83                    ld      hl, #spriteram_3_shadow
ROM:00A4 11 80 97                    ld      de, #spriteram_3
ROM:00A7 01 40 00                    ld      bc, #0x40 ; '@'
ROM:00AA ED B0                       ldir
ROM:00AC 21 00 81                    ld      hl, #spriteram_shadow
ROM:00AF 11 80 A7                    ld      de, #spriteram
ROM:00B2 01 40 00                    ld      bc, #0x40 ; '@'
ROM:00B5 ED B0                       ldir
ROM:00B7 2A 20 80                    ld      hl, (cocktail)
ROM:00BA 7D                          ld      a, l
ROM:00BB A4                          and     h
ROM:00BC 32 03 80                    ld      (flip_screen_flag), a
ROM:00BF 32 70 D0                    ld      (flip_screen_hw), a
ROM:00C2 3A AD 85                    ld      a, (maincpu_inited)
ROM:00C5 A7                          and     a
ROM:00C6 28 14                       jr      Z, loc_DC
ROM:00C8 3A 18 80                    ld      a, (unk_8018)
ROM:00CB FE BB                       cp      #0xBB ; '»'
ROM:00CD
ROM:00CD             loc_CD:
ROM:00CD 28 FE                       jr      Z, loc_CD
ROM:00CF CD 17 01                    call    read_dipswitches
ROM:00D2 7D                          ld      a, l
ROM:00D3 07                          rlca
ROM:00D4 E6 01                       and     #1
ROM:00D6 C0                          ret     NZ
ROM:00D7 3E 01                       ld      a, #1
ROM:00D9 32 02 80                    ld      (vb_semaphore_sub), a
ROM:00DC
ROM:00DC             loc_DC:
ROM:00DC 3E 01                       ld      a, #1
ROM:00DE 32 00 80                    ld      (vb_semaphore_main), a
ROM:00E1 21 18 80                    ld      hl, #unk_8018
ROM:00E4 01 03 71                    ld      bc, #0x7103
ROM:00E7
ROM:00E7             do_06xx_xfer_ex_de_hl:
ROM:00E7 11 00 70                    ld      de, #_06xx_data_w
ROM:00EA EB                          ex      de, hl
ROM:00EA             ; End of function update_sprite_hw_and_other_things
ROM:00EA
ROM:00EB             ; START OF FUNCTION CHUNK FOR do_06xx_xfer
ROM:00EB
ROM:00EB             do_06xx_xfer_cont:
ROM:00EB 3A 00 71                    ld      a, (_06xx_ctrl_w)
ROM:00EE E6 E0                       and     #0xE0 ; 'à'
ROM:00F0 78                          ld      a, b
ROM:00F1 06 00                       ld      b, #0
ROM:00F3 20 05                       jr      NZ, queue_06xx_xfer
ROM:00F5 D9                          exx
ROM:00F6 32 00 71                    ld      (_06xx_ctrl_w), a
ROM:00F9 C9                          ret
ROM:00FA             ; ---------------------------------------------------------------------------
ROM:00FA
ROM:00FA             queue_06xx_xfer:
ROM:00FA E5                          push    hl
ROM:00FB 2A 06 80                    ld      hl, (end_of_06xx_queue)
ROM:00FE 77                          ld      (hl), a
ROM:00FF 2C                          inc     l
ROM:0100 2C                          inc     l
ROM:0101 71                          ld      (hl), c
ROM:0102 2C                          inc     l
ROM:0103 70                          ld      (hl), b
ROM:0104 2C                          inc     l
ROM:0105 73                          ld      (hl), e
ROM:0106 2C                          inc     l
ROM:0107 72                          ld      (hl), d
ROM:0108 2C                          inc     l
ROM:0109 D1                          pop     de
ROM:010A 73                          ld      (hl), e
ROM:010B 2C                          inc     l
ROM:010C 72                          ld      (hl), d
ROM:010D 2C                          inc     l
ROM:010E 22 06 80                    ld      (end_of_06xx_queue), hl
ROM:0111 C9                          ret
ROM:0111             ; END OF FUNCTION CHUNK FOR do_06xx_xfer
ROM:0112
ROM:0112             ; =============== S U B R O U T I N E =======================================
ROM:0112
ROM:0112
ROM:0112             do_06xx_xfer:
ROM:0112
ROM:0112             ; FUNCTION CHUNK AT ROM:00EB SIZE 00000027 BYTES
ROM:0112
ROM:0112 11 00 70                    ld      de, #_06xx_data_w
ROM:0115 18 D4                       jr      do_06xx_xfer_cont
ROM:0115             ; End of function do_06xx_xfer
ROM:0115
ROM:0117
ROM:0117             ; =============== S U B R O U T I N E =======================================
ROM:0117
ROM:0117
ROM:0117             read_dipswitches:
ROM:0117 11 00 68                    ld      de, #dsw_r__sound_w
ROM:011A 06 08                       ld      b, #8
ROM:011C
ROM:011C             loc_11C:
ROM:011C 1A                          ld      a, (de)
ROM:011D 1F                          rra
ROM:011E CB 1D                       rr      l
ROM:0120 1F                          rra
ROM:0121 CB 1C                       rr      h
ROM:0123 13                          inc     de
ROM:0124 10 F6                       djnz    loc_11C
ROM:0126 22 16 80                    ld      (dswb), hl
ROM:0129 C9                          ret
ROM:0129             ; End of function read_dipswitches
ROM:0129
ROM:012A
ROM:012A             ; =============== S U B R O U T I N E =======================================
ROM:012A
ROM:012A
ROM:012A             HL_equals_2A:
ROM:012A 21 00 00                    ld      hl, #0
ROM:012D C3 08 00                    jp      HL_plus_equals_2A
ROM:012D             ; End of function HL_equals_2A
ROM:012D
ROM:0130             ; ---------------------------------------------------------------------------
ROM:0130
ROM:0130             START:
ROM:0130 F3                          di
ROM:0131 ED 56                       im      1
ROM:0133 AF                          xor     a
ROM:0134 32 30 68                    ld      (watchdog), a
ROM:0137 32 0A 80                    ld      (unk_800A), a
ROM:013A 32 10 D0                    ld      (fg_scroll_x), a
ROM:013D 32 30 D0                    ld      (fg_scroll_y), a
ROM:0140 32 20 68                    ld      (main_irq_ena_ack), a
ROM:0143 32 21 68                    ld      (_sub_irq_ena_ack), a
ROM:0146 32 22 68                    ld      (_sub2_nmi_ena), a
ROM:0149 32 23 68                    ld      (_sub_sub2_reset), a
ROM:014C 01 20 00                    ld      bc, #0x20 ; ' '
ROM:014F 21 00 68                    ld      hl, #dsw_r__sound_w
ROM:0152
ROM:0152             zero_snd_registers:
ROM:0152 70                          ld      (hl), b
ROM:0153 23                          inc     hl
ROM:0154 0D                          dec     c
ROM:0155 20 FB                       jr      NZ, zero_snd_registers
ROM:0157 31 00 D0                    ld      sp, #0xD000
ROM:015A 06 00                       ld      b, #0
ROM:015C 58                          ld      e, b
ROM:015D
ROM:015D             RAM_test:
ROM:015D FD 21 3F 03                 ld      iy, #ram_test_iteration_tbl
ROM:0161
ROM:0161             test_an_iteration_of_RAM_blocks:
ROM:0161 DD 21 33 03                 ld      ix, #ram_test_block_msb_tbl
ROM:0165 21 00 00                    ld      hl, #0
ROM:0168
ROM:0168             test_RAM_block:
ROM:0168 DD 56 00                    ld      d, 0(ix)
ROM:016B DD 4E 01                    ld      c, 1(ix)
ROM:016E 15                          dec     d
ROM:016F 28 2D                       jr      Z, next_iteration_of_RAM_test
ROM:0171 FD 35 00                    dec     0(iy)
ROM:0174 20 0E                       jr      NZ, loc_184
ROM:0176
ROM:0176             write_RAM_block:
ROM:0176 32 30 68                    ld      (watchdog), a
ROM:0179 78                          ld      a, b
ROM:017A 86                          add     a, (hl)
ROM:017B 12                          ld      (de), a
ROM:017C 23                          inc     hl
ROM:017D 13                          inc     de
ROM:017E 79                          ld      a, c
ROM:017F BA                          cp      d
ROM:0180 20 F4                       jr      NZ, write_RAM_block
ROM:0182 18 14                       jr      loc_198
ROM:0184             ; ---------------------------------------------------------------------------
ROM:0184
ROM:0184             loc_184:
ROM:0184 EB                          ex      de, hl
ROM:0185
ROM:0185             read_RAM_block:
ROM:0185 32 30 68                    ld      (watchdog), a
ROM:0188 1A                          ld      a, (de)
ROM:0189 80                          add     a, b
ROM:018A BE                          cp      (hl)
ROM:018B 20 1E                       jr      NZ, RAM_test_error
ROM:018D 23                          inc     hl
ROM:018E 13                          inc     de
ROM:018F 79                          ld      a, c
ROM:0190 BC                          cp      h
ROM:0191 20 F2                       jr      NZ, read_RAM_block
ROM:0193 EB                          ex      de, hl
ROM:0194 FE CF                       cp      #0xCF ; 'Ï'
ROM:0196 28 0A                       jr      Z, done_RAM_test
ROM:0198
ROM:0198             loc_198:
ROM:0198 DD 23                       inc     ix
ROM:019A DD 23                       inc     ix
ROM:019C 18 CA                       jr      test_RAM_block
ROM:019E             ; ---------------------------------------------------------------------------
ROM:019E
ROM:019E             next_iteration_of_RAM_test:
ROM:019E FD 23                       inc     iy
ROM:01A0 18 BF                       jr      test_an_iteration_of_RAM_blocks
ROM:01A2             ; ---------------------------------------------------------------------------
ROM:01A2
ROM:01A2             done_RAM_test:
ROM:01A2 78                          ld      a, b
ROM:01A3 C6 11                       add     a, #0x11
ROM:01A5 38 0D                       jr      C, done_all_RAM_tests
ROM:01A7 47                          ld      b, a
ROM:01A8 C3 5D 01                    jp      RAM_test
ROM:01AB             ; ---------------------------------------------------------------------------
ROM:01AB
ROM:01AB             RAM_test_error:
ROM:01AB 7C                          ld      a, h
ROM:01AC CB 3F                       srl     a
ROM:01AE CB 3F                       srl     a
ROM:01B0 CB 3F                       srl     a
ROM:01B2 CB 3F                       srl     a
ROM:01B4
ROM:01B4             done_all_RAM_tests:
ROM:01B4 32 00 85                    ld      (RAM_test_result_final_score), a
ROM:01B7 AF                          xor     a
ROM:01B8 32 AD 85                    ld      (maincpu_inited), a
ROM:01BB CD 69 03                    call    clear_tile_memory
ROM:01BE 11 40 03                    ld      de, #unk_340
ROM:01C1
ROM:01C1             display_self_test_msgs:
ROM:01C1 32 30 68                    ld      (watchdog), a
ROM:01C4 13                          inc     de
ROM:01C5 1A                          ld      a, (de)
ROM:01C6 6F                          ld      l, a
ROM:01C7 13                          inc     de
ROM:01C8 1A                          ld      a, (de)
ROM:01C9 67                          ld      h, a
ROM:01CA A7                          and     a
ROM:01CB 28 0D                       jr      Z, check_RAM_test_result
ROM:01CD 13                          inc     de
ROM:01CE
ROM:01CE             display_self_test_msg_string:
ROM:01CE 1A                          ld      a, (de)
ROM:01CF A7                          and     a
ROM:01D0 28 EF                       jr      Z, display_self_test_msgs
ROM:01D2 77                          ld      (hl), a
ROM:01D3 13                          inc     de
ROM:01D4 01 C0 FF                    ld      bc, #0xFFC0
ROM:01D7 09                          add     hl, bc
ROM:01D8 18 F4                       jr      display_self_test_msg_string
ROM:01DA             ; ---------------------------------------------------------------------------
ROM:01DA
ROM:01DA             check_RAM_test_result:
ROM:01DA 3A 00 85                    ld      a, (RAM_test_result_final_score)
ROM:01DD FE 10                       cp      #0x10
ROM:01DF 28 08                       jr      Z, RAM_test_ok
ROM:01E1 32 CF C4                    ld      (fg_videoram+0x4CF), a
ROM:01E4
ROM:01E4             RAM_test_failed:
ROM:01E4 32 30 68                    ld      (watchdog), a
ROM:01E7 18 FB                       jr      RAM_test_failed
ROM:01E9             ; ---------------------------------------------------------------------------
ROM:01E9
ROM:01E9             RAM_test_ok:
ROM:01E9 3E 18                       ld      a, #0x18
ROM:01EB 32 CF C4                    ld      (fg_videoram+0x4CF), a
ROM:01EE 3E 14                       ld      a, #0x14
ROM:01F0 32 8F C4                    ld      (fg_videoram+0x48F), a
ROM:01F3 31 80 A7                    ld      sp, #spriteram
ROM:01F6 AF                          xor     a
ROM:01F7 21 00 80                    ld      hl, #vb_semaphore_main
ROM:01FA 11 01 80                    ld      de, #countup_timer_1
ROM:01FD 01 FF 03                    ld      bc, #0x3FF
ROM:0200 77                          ld      (hl), a
ROM:0201 ED B0                       ldir
ROM:0203 32 30 68                    ld      (watchdog), a
ROM:0206 21 80 87                    ld      hl, #spriteram_2
ROM:0209
ROM:0209             zero_spriteram_2:
ROM:0209 77                          ld      (hl), a
ROM:020A 2C                          inc     l
ROM:020B 20 FC                       jr      NZ, zero_spriteram_2
ROM:020D 21 80 97                    ld      hl, #spriteram_3
ROM:0210
ROM:0210             zero_spriteram_3:
ROM:0210 77                          ld      (hl), a
ROM:0211 2C                          inc     l
ROM:0212 20 FC                       jr      NZ, zero_spriteram_3
ROM:0214 21 80 A7                    ld      hl, #spriteram
ROM:0217
ROM:0217             zero_spriteram:
ROM:0217 77                          ld      (hl), a
ROM:0218 2C                          inc     l
ROM:0219 20 FC                       jr      NZ, zero_spriteram
ROM:021B 32 AD 85                    ld      (maincpu_inited), a
ROM:021E 21 00 92                    ld      hl, #stack_frame_buffer
ROM:0221 22 04 80                    ld      (start_of_06xx_queue), hl
ROM:0224 22 06 80                    ld      (end_of_06xx_queue), hl
ROM:0227
ROM:0227             zero_stack_frame_buffer:
ROM:0227 77                          ld      (hl), a
ROM:0228 2C                          inc     l
ROM:0229 20 FC                       jr      NZ, zero_stack_frame_buffer
ROM:022B 3E 01                       ld      a, #1
ROM:022D 32 20 68                    ld      (main_irq_ena_ack), a
ROM:0230 32 22 68                    ld      (_sub2_nmi_ena), a
ROM:0233 32 23 68                    ld      (_sub_sub2_reset), a
ROM:0236 21 57 03                    ld      hl, #_06xx_init_data_1
ROM:0239 01 06 A1                    ld      bc, #0xA106
ROM:023C CD 12 01                    call    do_06xx_xfer
ROM:023F FB                          ei
ROM:0240 11 74 85                    ld      de, #main_rom_cksum_tbl
ROM:0243 21 00 00                    ld      hl, #0
ROM:0246 0E 10                       ld      c, #0x10
ROM:0248
ROM:0248             calc_ROM_cksums:
ROM:0248 06 00                       ld      b, #0
ROM:024A
ROM:024A             calc_4kB_cksum:
ROM:024A 78                          ld      a, b
ROM:024B 86                          add     a, (hl)
ROM:024C 12                          ld      (de), a
ROM:024D 23                          inc     hl
ROM:024E 47                          ld      b, a
ROM:024F 79                          ld      a, c
ROM:0250 BC                          cp      h
ROM:0251 20 F7                       jr      NZ, calc_4kB_cksum
ROM:0253 13                          inc     de
ROM:0254 79                          ld      a, c
ROM:0255 C6 10                       add     a, #0x10
ROM:0257 4F                          ld      c, a
ROM:0258 FE 50                       cp      #0x50 ; 'P'
ROM:025A 20 EC                       jr      NZ, calc_ROM_cksums
ROM:025C 06 07                       ld      b, #7
ROM:025E 21 71 85                    ld      hl, #rom_cksum_tbl
ROM:0261
ROM:0261             check_ROM_cksum_results:
ROM:0261 7E                          ld      a, (hl)
ROM:0262 A7                          and     a
ROM:0263 20 15                       jr      NZ, ROM_test_failed
ROM:0265 23                          inc     hl
ROM:0266 05                          dec     b
ROM:0267 20 F8                       jr      NZ, check_ROM_cksum_results
ROM:0269 3E 18                       ld      a, #0x18
ROM:026B 32 D1 C4                    ld      (fg_videoram+0x4D1), a
ROM:026E 3E 14                       ld      a, #0x14
ROM:0270 32 91 C4                    ld      (fg_videoram+0x491), a
ROM:0273 3E 0F                       ld      a, #0xF
ROM:0275 32 AC 85                    ld      (unk_85AC), a
ROM:0278 18 06                       jr      display_dipswitches
ROM:027A             ; ---------------------------------------------------------------------------
ROM:027A
ROM:027A             ROM_test_failed:
ROM:027A 78                          ld      a, b
ROM:027B 32 D1 C4                    ld      (fg_videoram+0x4D1), a
ROM:027E
ROM:027E             loc_27E:
ROM:027E 18 FE                       jr      loc_27E
ROM:0280             ; ---------------------------------------------------------------------------
ROM:0280
ROM:0280             display_dipswitches:
ROM:0280 16 08                       ld      d, #8
ROM:0282 21 00 68                    ld      hl, #dsw_r__sound_w
ROM:0285 DD 21 D5 C4                 ld      ix, # fg_videoram+0x4D5
ROM:0289 FD 21 95 C4                 ld      iy, # fg_videoram+0x495
ROM:028D
ROM:028D             read_dsw_block:
ROM:028D 01 00 00                    ld      bc, #0
ROM:0290 7E                          ld      a, (hl)
ROM:0291 1F                          rra
ROM:0292 3F                          ccf
ROM:0293 CB 11                       rl      c
ROM:0295 1F                          rra
ROM:0296 3F                          ccf
ROM:0297 CB 10                       rl      b
ROM:0299 DD 70 00                    ld      0(ix), b
ROM:029C FD 71 00                    ld      0(iy), c
ROM:029F DD 23                       inc     ix
ROM:02A1 FD 23                       inc     iy
ROM:02A3 23                          inc     hl
ROM:02A4 15                          dec     d
ROM:02A5 20 E6                       jr      NZ, read_dsw_block
ROM:02A7 3A AC 85                    ld      a, (unk_85AC)
ROM:02AA 32 D3 C4                    ld      (fg_videoram+0x4D3), a
ROM:02AD 3A 18 80                    ld      a, (unk_8018)
ROM:02B0 87                          add     a, a
ROM:02B1 38 26                       jr      C, cls_for_wireframe
ROM:02B3 FE FE                       cp      #0xFE ; 'þ'
ROM:02B5 20 07                       jr      NZ, loc_2BE
ROM:02B7 3A 19 80                    ld      a, (P1_inputs)
ROM:02BA 3C                          inc     a
ROM:02BB CA 80 02                    jp      Z, display_dipswitches
ROM:02BE
ROM:02BE             loc_2BE:
ROM:02BE 3A AC 85                    ld      a, (unk_85AC)
ROM:02C1 3C                          inc     a
ROM:02C2 FE 10                       cp      #0x10
ROM:02C4 20 01                       jr      NZ, loc_2C7
ROM:02C6 AF                          xor     a
ROM:02C7
ROM:02C7             loc_2C7:
ROM:02C7 32 AC 85                    ld      (unk_85AC), a
ROM:02CA 32 D3 C4                    ld      (fg_videoram+0x4D3), a
ROM:02CD 26 A0                       ld      h, #0xA0 ; ' '
ROM:02CF 6F                          ld      l, a
ROM:02D0 3E 01                       ld      a, #1
ROM:02D2 77                          ld      (hl), a
ROM:02D3 CD 5D 03                    call    delay_65536_cycles
ROM:02D6 C3 80 02                    jp      display_dipswitches
ROM:02D9             ; ---------------------------------------------------------------------------
ROM:02D9
ROM:02D9             cls_for_wireframe:
ROM:02D9 CD 69 03                    call    clear_tile_memory
ROM:02DC 3E 27                       ld      a, #0x27 ; '''
ROM:02DE 0E 18                       ld      c, #24
ROM:02E0 21 C4 C6                    ld      hl, # fg_videoram+0x6C4
ROM:02E3
ROM:02E3             display_wireframe:
ROM:02E3 06 22                       ld      b, #0x22 ; '"'
ROM:02E5 E5                          push    hl
ROM:02E6 D1                          pop     de
ROM:02E7
ROM:02E7             wireframe_col:
ROM:02E7 12                          ld      (de), a
ROM:02E8 13                          inc     de
ROM:02E9 05                          dec     b
ROM:02EA 20 FB                       jr      NZ, wireframe_col
ROM:02EC 06 40                       ld      b, #0x40 ; '@'
ROM:02EE
ROM:02EE             calc_next_col_addr:
ROM:02EE 2B                          dec     hl
ROM:02EF 05                          dec     b
ROM:02F0 20 FC                       jr      NZ, calc_next_col_addr
ROM:02F2 0D                          dec     c
ROM:02F3 20 EE                       jr      NZ, display_wireframe
ROM:02F5 21 C5 B6                    ld      hl, # fg_colorram+0x6C5
ROM:02F8 3E 64                       ld      a, #0x64 ; 'd'
ROM:02FA CD 1D 03                    call    fill_12x17_every_2nd_byte
ROM:02FD 21 84 B6                    ld      hl, # fg_colorram+0x684
ROM:0300 3E A4                       ld      a, #0xA4 ; '¤'
ROM:0302 CD 1D 03                    call    fill_12x17_every_2nd_byte
ROM:0305 21 85 B6                    ld      hl, # fg_colorram+0x685
ROM:0308 3E E4                       ld      a, #0xE4 ; 'ä'
ROM:030A CD 1D 03                    call    fill_12x17_every_2nd_byte
ROM:030D CD 5D 03                    call    delay_65536_cycles
ROM:0310
ROM:0310             wait_for_8018:
ROM:0310 3A 18 80                    ld      a, (unk_8018)
ROM:0313 CB 7F                       bit     7, a
ROM:0315 28 F9                       jr      Z, wait_for_8018
ROM:0317 CD 5D 03                    call    delay_65536_cycles
ROM:031A C3 8A 03                    jp      self_test_ok
ROM:031D
ROM:031D             ; =============== S U B R O U T I N E =======================================
ROM:031D
ROM:031D
ROM:031D             fill_12x17_every_2nd_byte:
ROM:031D 0E 0C                       ld      c, #0xC
ROM:031F
ROM:031F             loc_31F:
ROM:031F E5                          push    hl
ROM:0320 D1                          pop     de
ROM:0321 06 11                       ld      b, #0x11
ROM:0323
ROM:0323             loc_323:
ROM:0323 12                          ld      (de), a
ROM:0324 13                          inc     de
ROM:0325 13                          inc     de
ROM:0326 05                          dec     b
ROM:0327 20 FA                       jr      NZ, loc_323
ROM:0329 06 80                       ld      b, #0x80 ; '€'
ROM:032B
ROM:032B             loc_32B:
ROM:032B 2B                          dec     hl
ROM:032C 05                          dec     b
ROM:032D 20 FC                       jr      NZ, loc_32B
ROM:032F 0D                          dec     c
ROM:0330 20 ED                       jr      NZ, loc_31F
ROM:0332 C9                          ret
ROM:0332             ; End of function fill_12x17_every_2nd_byte
ROM:0332
ROM:0332             ; ---------------------------------------------------------------------------
ROM:0333 79          ram_test_block_msb_tbl:.db 0x79 ; y
ROM:0334 80                          .db 0x80 ; €
ROM:0335 83                          .db 0x83 ; ƒ
ROM:0336 88                          .db 0x88 ; ˆ
ROM:0337 91                          .db 0x91 ; ‘
ROM:0338 92                          .db 0x92 ; ’
ROM:0339 95                          .db 0x95 ; •
ROM:033A 97                          .db 0x97 ; —
ROM:033B A1                          .db 0xA1 ; ¡
ROM:033C A8                          .db 0xA8 ; ¨
ROM:033D B1                          .db 0xB1 ; ±
ROM:033E CF                          .db 0xCF ; Ï
ROM:033F 01          ram_test_iteration_tbl:.db    1
ROM:0340 00          unk_340:        .db    0
ROM:0341             ; self_test_msg_tbl
ROM:0341 CF C5                       .dw 0xC5CF
ROM:0343 1B 0A 16                    .db 0x1B, 0xA, 0x16                             ; "RAM"
ROM:0346 00                          .db    0
ROM:0347 D1 C5                       .dw 0xC5D1
ROM:0349 1B 18 16                    .db 0x1B, 0x18, 0x16                            ; "ROM"
ROM:034C 00                          .db    0
ROM:034D 53 C6                       .dw 0xC653
ROM:034F 1C 18 1E 17+                .db 0x1C, 0x18, 0x1E, 0x17, 0xD                 ; "SOUND"
ROM:0354 00                          .db    0
ROM:0355 00                          .db    0
ROM:0356 00                          .db    0
ROM:0357 05 05 05 05+_06xx_init_data_1:.db 5, 5, 5, 5, 5, 5
ROM:035D
ROM:035D             ; =============== S U B R O U T I N E =======================================
ROM:035D
ROM:035D
ROM:035D             delay_65536_cycles:
ROM:035D E5                          push    hl
ROM:035E 21 00 00                    ld      hl, #0
ROM:0361
ROM:0361             loc_361:
ROM:0361 2D                          dec     l
ROM:0362 20 FD                       jr      NZ, loc_361
ROM:0364 25                          dec     h
ROM:0365 20 FA                       jr      NZ, loc_361
ROM:0367 E1                          pop     hl
ROM:0368 C9                          ret
ROM:0368             ; End of function delay_65536_cycles
ROM:0368
ROM:0369
ROM:0369             ; =============== S U B R O U T I N E =======================================
ROM:0369
ROM:0369
ROM:0369             clear_tile_memory:
ROM:0369 21 80 97                    ld      hl, #spriteram_3
ROM:036C 01 98 24                    ld      bc, #0x2498
ROM:036F CD 7F 03                    call    fill_mem_with_B
ROM:0372 21 00 78                    ld      hl, #main_2_fn_tbl_1
ROM:0375 0E 80                       ld      c, #0x80 ; '€'
ROM:0377 CD 7F 03                    call    fill_mem_with_B
ROM:037A 21 00 B0                    ld      hl, #fg_colorram
ROM:037D 0E CF                       ld      c, #0xCF ; 'Ï'
ROM:037D             ; End of function clear_tile_memory
ROM:037D
ROM:037F
ROM:037F             ; =============== S U B R O U T I N E =======================================
ROM:037F
ROM:037F
ROM:037F             fill_mem_with_B:
ROM:037F 32 30 68                    ld      (watchdog), a
ROM:0382 78                          ld      a, b
ROM:0383 77                          ld      (hl), a
ROM:0384 23                          inc     hl
ROM:0385 7C                          ld      a, h
ROM:0386 B9                          cp      c
ROM:0387 20 F6                       jr      NZ, fill_mem_with_B
ROM:0389 C9                          ret
ROM:0389             ; End of function fill_mem_with_B
ROM:0389
ROM:038A             ; ---------------------------------------------------------------------------
ROM:038A
ROM:038A             self_test_ok:
ROM:038A 21 DC 03                    ld      hl, #byte_3DC
ROM:038D 11 60 85                    ld      de, #unk_8560
ROM:0390 01 08 00                    ld      bc, #8
ROM:0393 ED B0                       ldir
ROM:0395 16 08                       ld      d, #8
ROM:0397 21 00 68                    ld      hl, #dsw_r__sound_w
ROM:039A
ROM:039A             read_coinage:
ROM:039A 7E                          ld      a, (hl)
ROM:039B 1F                          rra
ROM:039C CB 19                       rr      c
ROM:039E 1F                          rra
ROM:039F CB 18                       rr      b
ROM:03A1 23                          inc     hl
ROM:03A2 15                          dec     d
ROM:03A3 20 F5                       jr      NZ, read_coinage
ROM:03A5 21 CC 03                    ld      hl, #coinage_tbl
ROM:03A8 78                          ld      a, b
ROM:03A9 E6 03                       and     #3
ROM:03AB CB 27                       sla     a
ROM:03AD 85                          add     a, l
ROM:03AE 6F                          ld      l, a
ROM:03AF 7E                          ld      a, (hl)
ROM:03B0 32 63 85                    ld      (coinage_a_coins), a
ROM:03B3 23                          inc     hl
ROM:03B4 7E                          ld      a, (hl)
ROM:03B5 32 64 85                    ld      (coinage_a_credits), a
ROM:03B8 21 D4 03                    ld      hl, #coinage_tbl_2                      ; *** DIFFERENT
ROM:03BB 79                          ld      a, c
ROM:03BC 1F                          rra
ROM:03BD E6 06                       and     #6
ROM:03BF 85                          add     a, l
ROM:03C0 6F                          ld      l, a
ROM:03C1 7E                          ld      a, (hl)
ROM:03C2 32 65 85                    ld      (coinage_b_coins), a
ROM:03C5 23                          inc     hl
ROM:03C6 7E                          ld      a, (hl)
ROM:03C7 32 66 85                    ld      (coinage_b_credits), a
ROM:03CA 18 18                       jr      loc_3E4
ROM:03CA             ; ---------------------------------------------------------------------------
ROM:03CC 02 03 02 01+coinage_tbl:    .db 2, 3
ROM:03CC 01 02 01 01                 .db 2, 1
ROM:03CC                             .db 1, 2
ROM:03CC                             .db 1, 1
ROM:03D4 01 06 01 03+coinage_tbl_2:  .db 1, 6, 1, 3, 1, 2, 1, 1
ROM:03DC 01 01 01 01+byte_3DC:       .db 1, 1, 1, 1, 1, 4, 2, 2
ROM:03E4             ; ---------------------------------------------------------------------------
ROM:03E4
ROM:03E4             loc_3E4:
ROM:03E4 F3                          di
ROM:03E5 3E 10                       ld      a, #0x10
ROM:03E7 32 00 71                    ld      (_06xx_ctrl_w), a
ROM:03EA AF                          xor     a
ROM:03EB 32 30 68                    ld      (watchdog), a
ROM:03EE 32 0A 80                    ld      (unk_800A), a
ROM:03F1 32 10 D0                    ld      (fg_scroll_x), a
ROM:03F4 32 30 D0                    ld      (fg_scroll_y), a
ROM:03F7 32 20 68                    ld      (main_irq_ena_ack), a
ROM:03FA 32 21 68                    ld      (_sub_irq_ena_ack), a
ROM:03FD 32 22 68                    ld      (_sub2_nmi_ena), a
ROM:0400 32 23 68                    ld      (_sub_sub2_reset), a
ROM:0403 21 00 80                    ld      hl, #vb_semaphore_main
ROM:0406 11 01 80                    ld      de, #countup_timer_1
ROM:0409 01 FF 01                    ld      bc, #0x1FF
ROM:040C 36 00                       ld      (hl), #0
ROM:040E ED B0                       ldir
ROM:0410 21 00 92                    ld      hl, #0x9200
ROM:0413 22 04 80                    ld      (start_of_06xx_queue), hl
ROM:0416 22 06 80                    ld      (end_of_06xx_queue), hl
ROM:0419
ROM:0419             init_stack_frame_buffer:
ROM:0419 36 00                       ld      (hl), #0
ROM:041B 2C                          inc     l
ROM:041C 20 FB                       jr      NZ, init_stack_frame_buffer
ROM:041E 21 76 04                    ld      hl, #main_fn_tbl_ROM
ROM:0421 11 80 82                    ld      de, #main_fn_tbl_RAM
ROM:0424 01 40 00                    ld      bc, #0x40 ; '@'
ROM:0427 ED B0                       ldir
ROM:0429 3E 01                       ld      a, #1
ROM:042B 32 20 68                    ld      (main_irq_ena_ack), a
ROM:042E 32 22 68                    ld      (_sub2_nmi_ena), a
ROM:0431 32 23 68                    ld      (_sub_sub2_reset), a
ROM:0434 32 AD 85                    ld      (maincpu_inited), a
ROM:0437 21 60 85                    ld      hl, #unk_8560
ROM:043A 01 08 A1                    ld      bc, #0xA108
ROM:043D CD 12 01                    call    do_06xx_xfer
ROM:0440             ; new to sxevious
ROM:0440 21 70 04                    ld      hl, #msg_row_tbl                        ; *** DIFFERENT
ROM:0443 11 A9 80                    ld      de, #byte_80A9
ROM:0446 01 06 00                    ld      bc, #6
ROM:0449 ED B0                       ldir
ROM:044B FB                          ei
ROM:044C
ROM:044C             restart_main_loop:
ROM:044C 2A 00 80                    ld      hl, (vb_semaphore_main)
ROM:044F 2D                          dec     l
ROM:0450 20 FA                       jr      NZ, restart_main_loop
ROM:0452 24                          inc     h
ROM:0453 22 00 80                    ld      (vb_semaphore_main), hl
ROM:0456 DD 21 80 82                 ld      ix, #main_fn_tbl_RAM
ROM:045A 06 20                       ld      b, #32
ROM:045C
ROM:045C             main_loop:
ROM:045C C5                          push    bc
ROM:045D CD 69 04                    call    jp_next_fn
ROM:0460 C1                          pop     bc
ROM:0461 DD 23                       inc     ix
ROM:0463 DD 23                       inc     ix
ROM:0465 10 F5                       djnz    main_loop
ROM:0467 18 E3                       jr      restart_main_loop
ROM:0469
ROM:0469             ; =============== S U B R O U T I N E =======================================
ROM:0469
ROM:0469
ROM:0469             jp_next_fn:
ROM:0469 DD 6E 00                    ld      l, 0(ix)
ROM:046C DD 66 01                    ld      h, 1(ix)
ROM:046F E9                          jp      (hl)
ROM:046F             ; End of function jp_next_fn
ROM:046F
ROM:046F             ; ---------------------------------------------------------------------------
ROM:0470 15          msg_row_tbl:    .db 0x15                                        ; "INSERT COIN"
ROM:0471 19                          .db 0x19
ROM:0472 14                          .db 0x14
ROM:0473 0B                          .db  0xB
ROM:0474 0A                          .db  0xA
ROM:0475 14                          .db 0x14                                        ; "ONE PLAYER ONLY"/"ONE OR TWO PLAYERS"
ROM:0476 B6 04       main_fn_tbl_ROM:.dw main_fn_0__main_thread
ROM:0478 4A 14                       .dw main_fn_1__handle_solvalou
ROM:047A 00 30                       .dw main_fn_2__handle_objects
ROM:047C D0 33                       .dw main_fn_3__init_bacura
ROM:047E B3 33                       .dw main_fn_4__spawn_flying_enemies
ROM:0480 E5 33                       .dw main_fn_5__inc_num_bacura
ROM:0482 A1 0E                       .dw main_fn_6__sound_update
ROM:0484 42 3C                       .dw main_fn_7__protection_check
ROM:0486 87 3C                       .dw main_fn_8__check_fn_7_code
ROM:0488 1F 00                       .dw null_fn
ROM:048A 1F 00                       .dw null_fn
ROM:048C 1F 00                       .dw null_fn
ROM:048E 1F 00                       .dw null_fn
ROM:0490 1F 00                       .dw null_fn
ROM:0492 1F 00                       .dw null_fn
ROM:0494 1F 00                       .dw null_fn
ROM:0496 1F 00                       .dw null_fn
ROM:0498 1F 00                       .dw null_fn
ROM:049A 1F 00                       .dw null_fn
ROM:049C 1F 00                       .dw null_fn
ROM:049E 1F 00                       .dw null_fn
ROM:04A0 1F 00                       .dw null_fn
ROM:04A2 1F 00                       .dw null_fn
ROM:04A4 1F 00                       .dw null_fn
ROM:04A6 1F 00                       .dw null_fn
ROM:04A8 1F 00                       .dw null_fn
ROM:04AA 1F 00                       .dw null_fn
ROM:04AC 1F 00                       .dw null_fn
ROM:04AE 1F 00                       .dw null_fn
ROM:04B0 1F 00                       .dw null_fn
ROM:04B2 47 16                       .dw main_fn_30__handle_shooting
ROM:04B4 82 17                       .dw main_fn_31__handle_bombing
ROM:04B6             ; ---------------------------------------------------------------------------
ROM:04B6
ROM:04B6             main_fn_0__main_thread:
ROM:04B6 CD FC 06                    call    zero_share1
ROM:04B9 CD 28 07                    call    clear_fg_to_transparent
ROM:04BC CD 45 07                    call    clear_bg_to_black
ROM:04BF CD 07 11                    call    init_high_score_table
ROM:04C2 3A 17 80                    ld      a, (dswa_0115)
ROM:04C5 07                          rlca
ROM:04C6 2F                          cpl
ROM:04C7 E6 01                       and     #1
ROM:04C9 32 20 80                    ld      (cocktail), a
ROM:04CC 3E 01                       ld      a, #1
ROM:04CE 32 2A 80                    ld      (scroll_disabled), a
ROM:04D1 3E F8                       ld      a, #0xF8 ; 'ø'
ROM:04D3 32 14 80                    ld      (scroll_delta), a
ROM:04D6
ROM:04D6             main_thread_main_loop:
ROM:04D6 21 69 0C                    ld      hl, #unk_C69
ROM:04D9 01 02 61                    ld      bc, #0x6102
ROM:04DC F3                          di
ROM:04DD CD 12 01                    call    do_06xx_xfer
ROM:04E0 FB                          ei
ROM:04E1 AF                          xor     a
ROM:04E2 32 23 80                    ld      (is_real_game), a
ROM:04E5 3A 29 80                    ld      a, (num_credits)
ROM:04E8 A7                          and     a
ROM:04E9 20 1B                       jr      NZ, coined_up
ROM:04EB 3E 02                       ld      a, #2
ROM:04ED 32 28 80                    ld      (attract_mode_stage), a
ROM:04F0 F7                          rst     save_PC_to_fn_tbl_and_ret
ROM:04F1
ROM:04F1             attract_mode_main_loop:
ROM:04F1 3A 28 80                    ld      a, (attract_mode_stage)
ROM:04F4 3D                          dec     a
ROM:04F5 21 9B 0C                    ld      hl, #attract_mode_jump_tbl
ROM:04F8 CF                          rst     HL_plus_equals_2A
ROM:04F9 5E                          ld      e, (hl)
ROM:04FA 23                          inc     hl
ROM:04FB 56                          ld      d, (hl)
ROM:04FC EB                          ex      de, hl
ROM:04FD E9                          jp      (hl)
ROM:04FE             ; ---------------------------------------------------------------------------
ROM:04FE
ROM:04FE             flash_insert_coin_and_check_credits:
ROM:04FE CD BA 08                    call    display_insert_coin_flashing
ROM:0501
ROM:0501             check_credits:
ROM:0501 3A 29 80                    ld      a, (num_credits)
ROM:0504 A7                          and     a
ROM:0505 C8                          ret     Z
ROM:0506
ROM:0506             coined_up:
ROM:0506 CD 0B 07                    call    zero_obj_state_tbl
ROM:0509 AF                          xor     a
ROM:050A 32 28 80                    ld      (attract_mode_stage), a
ROM:050D 3C                          inc     a
ROM:050E 32 2A 80                    ld      (scroll_disabled), a
ROM:0511 CD 28 07                    call    clear_fg_to_transparent
ROM:0514 CD 45 07                    call    clear_bg_to_black
ROM:0517 CD 72 08                    call    display_push_start_button
ROM:051A CD 30 0E                    call    display_all_scores
ROM:051D CD F7 07                    call    display_copyright_msgs
ROM:0520 CD E1 08                    call    display_xevious_logo_flashing
ROM:0523 F7                          rst     save_PC_to_fn_tbl_and_ret
ROM:0524 CD 32 08                    call    display_credits
ROM:0527 CD 54 08                    call    display_1_only_or_1_2_players
ROM:052A 3A 1B 80                    ld      a, (start_pressed)
ROM:052D A7                          and     a
ROM:052E C8                          ret     Z
ROM:052F 32 23 80                    ld      (is_real_game), a
ROM:0532 AF                          xor     a
ROM:0533 32 21 80                    ld      (curr_player), a
ROM:0536 32 1B 80                    ld      (start_pressed), a
ROM:0539 21 80 81                    ld      hl, #curr_player_score_lsb
ROM:053C 77                          ld      (hl), a
ROM:053D 2C                          inc     l
ROM:053E 77                          ld      (hl), a
ROM:053F 2C                          inc     l
ROM:0540 77                          ld      (hl), a
ROM:0541 2C                          inc     l
ROM:0542 EB                          ex      de, hl
ROM:0543 21 65 0C                    ld      hl, #starting_solvalou_tbl
ROM:0546 3A 17 80                    ld      a, (dswa_0115)
ROM:0549 07                          rlca
ROM:054A 07                          rlca
ROM:054B 07                          rlca
ROM:054C E6 03                       and     #3
ROM:054E D7                          rst     HL_plus_equals_A
ROM:054F 7E                          ld      a, (hl)
ROM:0550 EB                          ex      de, hl
ROM:0551 77                          ld      (hl), a
ROM:0552 2C                          inc     l
ROM:0553 2C                          inc     l
ROM:0554 2C                          inc     l
ROM:0555 2C                          inc     l
ROM:0556 36 00                       ld      (hl), #0                                ; init area (=1)
ROM:0558 2C                          inc     l
ROM:0559 36 00                       ld      (hl), #0
ROM:055B 2C                          inc     l
ROM:055C EB                          ex      de, hl
ROM:055D 3A 17 80                    ld      a, (dswa_0115)
ROM:0560 07                          rlca
ROM:0561 07                          rlca
ROM:0562 07                          rlca
ROM:0563 E6 03                       and     #3
ROM:0565 EE 03                       xor     #3
ROM:0567 28 02                       jr      Z, loc_56B
ROM:0569 3E 01                       ld      a, #1
ROM:056B
ROM:056B             loc_56B:
ROM:056B 21 6B 0C                    ld      hl, #first_bonus_life_tbls
ROM:056E CF                          rst     HL_plus_equals_2A
ROM:056F 4E                          ld      c, (hl)
ROM:0570 23                          inc     hl
ROM:0571 7E                          ld      a, (hl)
ROM:0572 67                          ld      h, a
ROM:0573 69                          ld      l, c
ROM:0574 3A 17 80                    ld      a, (dswa_0115)
ROM:0577 2F                          cpl
ROM:0578 0F                          rrca
ROM:0579 0F                          rrca
ROM:057A E6 07                       and     #7
ROM:057C CF                          rst     HL_plus_equals_2A
ROM:057D EB                          ex      de, hl
ROM:057E 1A                          ld      a, (de)
ROM:057F 77                          ld      (hl), a
ROM:0580 2C                          inc     l
ROM:0581 13                          inc     de
ROM:0582 1A                          ld      a, (de)
ROM:0583 77                          ld      (hl), a
ROM:0584 2C                          inc     l
ROM:0585 36 01                       ld      (hl), #1
ROM:0587 2C                          inc     l
ROM:0588 3A 17 80                    ld      a, (dswa_0115)
ROM:058B 2F                          cpl
ROM:058C 0F                          rrca
ROM:058D 0F                          rrca
ROM:058E E6 07                       and     #7
ROM:0590 FE 07                       cp      #7
ROM:0592 3E 00                       ld      a, #0
ROM:0594 20 01                       jr      NZ, loc_597
ROM:0596 3C                          inc     a
ROM:0597
ROM:0597             loc_597:
ROM:0597 77                          ld      (hl), a
ROM:0598 3A 22 80                    ld      a, (two_player_game)
ROM:059B A7                          and     a
ROM:059C 28 10                       jr      Z, main_gameplay_loop
ROM:059E 21 80 81                    ld      hl, #curr_player_score_lsb
ROM:05A1 11 C0 81                    ld      de, #other_player_score_lsb
ROM:05A4 01 40 00                    ld      bc, #0x40 ; '@'
ROM:05A7 ED B0                       ldir
ROM:05A9 3E 01                       ld      a, #1
ROM:05AB 32 01 A0                    ld      (unk_A001), a
ROM:05AE
ROM:05AE             main_gameplay_loop:
ROM:05AE 21 83 81                    ld      hl, #curr_player_solvalou_left
ROM:05B1 35                          dec     (hl)
ROM:05B2 3A 87 81                    ld      a, (area)
ROM:05B5 4F                          ld      c, a
ROM:05B6 21 63 3F                    ld      hl, #area_offset_in_map_tbl
ROM:05B9 D7                          rst     HL_plus_equals_A
ROM:05BA 7E                          ld      a, (hl)
ROM:05BB 32 13 80                    ld      (area_offset_in_map), a
ROM:05BE 21 00 0D                    ld      hl, #0xD00
ROM:05C1 22 10 80                    ld      (scroll_cntr), hl
ROM:05C4 79                          ld      a, c
ROM:05C5 21 00 A4                    ld      hl, #area_object_tbl_tbl_RAM
ROM:05C8 CF                          rst     HL_plus_equals_2A
ROM:05C9 7E                          ld      a, (hl)
ROM:05CA 32 85 81                    ld      (area_obj_ptr_lsb), a
ROM:05CD 23                          inc     hl
ROM:05CE 7E                          ld      a, (hl)
ROM:05CF 32 86 81                    ld      (area_obj_ptr_msb), a
ROM:05D2 AF                          xor     a
ROM:05D3 32 2B 80                    ld      (num_flying_enemies), a
ROM:05D6 32 2C 80                    ld      (flying_enemy_type_tbl_offset), a
ROM:05D9 32 2D 80                    ld      (num_bacura), a
ROM:05DC 32 22 84                    ld      (bacura_inc_cnt), a
ROM:05DF 32 44 80                    ld      (solvalou_exploding), a
ROM:05E2 CD 28 07                    call    clear_fg_to_transparent
ROM:05E5 CD 62 07                    call    fill_bg_with_forest
ROM:05E8 CD 30 0E                    call    display_all_scores
ROM:05EB CD BE 0F                    call    display_solvalou_left
ROM:05EE 21 82 17                    ld      hl, #main_fn_31__handle_bombing
ROM:05F1 22 BE 82                    ld      (main_fn_tbl_RAM+0x3E), hl
ROM:05F4 21 4A 14                    ld      hl, #main_fn_1__handle_solvalou
ROM:05F7 22 82 82                    ld      (main_fn_tbl_RAM+2), hl
ROM:05FA AF                          xor     a
ROM:05FB 32 2A 80                    ld      (scroll_disabled), a
ROM:05FE 3C                          inc     a
ROM:05FF 32 01 A0                    ld      (unk_A001), a
ROM:0602 3E A0                       ld      a, #0xA0 ; ' '
ROM:0604 32 41 80                    ld      (countdown_timer_1), a
ROM:0607 CD 9A 07                    call    display_player_start_msgs
ROM:060A F7                          rst     save_PC_to_fn_tbl_and_ret
ROM:060B 21 41 80                    ld      hl, #countdown_timer_1
ROM:060E 35                          dec     (hl)
ROM:060F C0                          ret     NZ
ROM:0610 CD D2 07                    call    wipe_player_start_msgs
ROM:0613 F7                          rst     save_PC_to_fn_tbl_and_ret
ROM:0614 3A 2A 80                    ld      a, (scroll_disabled)
ROM:0617 A7                          and     a
ROM:0618 C8                          ret     Z
ROM:0619 CD 62 07                    call    fill_bg_with_forest
ROM:061C 3E 40                       ld      a, #0x40 ; '@'
ROM:061E 32 41 80                    ld      (countdown_timer_1), a
ROM:0621 3A 11 80                    ld      a, (scroll_cntr+1)
ROM:0624 D6 0E                       sub     #14
ROM:0626 FE 36                       cp      #54
ROM:0628 30 0B                       jr      NC, loc_635
ROM:062A 21 87 81                    ld      hl, #area
ROM:062D 34                          inc     (hl)
ROM:062E 3E 10                       ld      a, #16
ROM:0630 BE                          cp      (hl)
ROM:0631 20 02                       jr      NZ, loc_635
ROM:0633 36 06                       ld      (hl), #6
ROM:0635
ROM:0635             loc_635:
ROM:0635 3A 16 80                    ld      a, (dswb)
ROM:0638 2F                          cpl
ROM:0639 07                          rlca
ROM:063A 07                          rlca
ROM:063B 07                          rlca
ROM:063C E6 03                       and     #3
ROM:063E 21 8F 0C                    ld      hl, #enemy_AI_dec_value
ROM:0641 D7                          rst     HL_plus_equals_A
ROM:0642 4E                          ld      c, (hl)
ROM:0643 3A 88 81                    ld      a, (enemy_AI_level)
ROM:0646 91                          sub     c
ROM:0647 30 01                       jr      NC, loc_64A
ROM:0649 AF                          xor     a
ROM:064A
ROM:064A             loc_64A:
ROM:064A 32 88 81                    ld      (enemy_AI_level), a
ROM:064D F7                          rst     save_PC_to_fn_tbl_and_ret
ROM:064E 21 41 80                    ld      hl, #countdown_timer_1
ROM:0651 35                          dec     (hl)
ROM:0652 C0                          ret     NZ
ROM:0653 21 40 79                    ld      hl, # obj_state_tbl+0x40
ROM:0656 11 41 79                    ld      de, # obj_state_tbl+0x41
ROM:0659 01 0D 00                    ld      bc, #13
ROM:065C 36 00                       ld      (hl), #0
ROM:065E ED B0                       ldir
ROM:0660 3A 83 81                    ld      a, (curr_player_solvalou_left)
ROM:0663 A7                          and     a
ROM:0664 20 37                       jr      NZ, main_gameplay_loop_cont
ROM:0666 C3 71 11                    jp      check_for_high_score
ROM:0669             ; ---------------------------------------------------------------------------
ROM:0669
ROM:0669             game_over:
ROM:0669 3A 22 80                    ld      a, (two_player_game)
ROM:066C A7                          and     a
ROM:066D 28 1A                       jr      Z, loc_689
ROM:066F CD 28 07                    call    clear_fg_to_transparent
ROM:0672 CD 62 07                    call    fill_bg_with_forest
ROM:0675 CD 30 0E                    call    display_all_scores
ROM:0678 CD A3 08                    call    display_game_over_player_1_2
ROM:067B 3E 80                       ld      a, #128
ROM:067D 32 41 80                    ld      (countdown_timer_1), a
ROM:0680 F7                          rst     save_PC_to_fn_tbl_and_ret
ROM:0681 21 41 80                    ld      hl, #countdown_timer_1
ROM:0684 35                          dec     (hl)
ROM:0685 C0                          ret     NZ
ROM:0686 CD 82 08                    call    wipe_game_over_player_1_2
ROM:0689
ROM:0689             loc_689:
ROM:0689 3A C3 81                    ld      a, (other_player_solvalou_left)
ROM:068C A7                          and     a
ROM:068D 28 17                       jr      Z, game_over_1_player
ROM:068F
ROM:068F             next_player:
ROM:068F CD 88 07                    call    swap_curr_other_player
ROM:0692 3A 21 80                    ld      a, (curr_player)
ROM:0695 EE 01                       xor     #1
ROM:0697 32 21 80                    ld      (curr_player), a
ROM:069A C3 AE 05                    jp      main_gameplay_loop
ROM:069D             ; ---------------------------------------------------------------------------
ROM:069D
ROM:069D             main_gameplay_loop_cont:
ROM:069D 3A C3 81                    ld      a, (other_player_solvalou_left)
ROM:06A0 A7                          and     a
ROM:06A1 20 EC                       jr      NZ, next_player
ROM:06A3 C3 AE 05                    jp      main_gameplay_loop
ROM:06A6             ; ---------------------------------------------------------------------------
ROM:06A6
ROM:06A6             game_over_1_player:
ROM:06A6 CD 28 07                    call    clear_fg_to_transparent
ROM:06A9 CD 62 07                    call    fill_bg_with_forest
ROM:06AC CD 30 0E                    call    display_all_scores
ROM:06AF CD 96 08                    call    display_game_over
ROM:06B2 3E 80                       ld      a, #128
ROM:06B4 32 41 80                    ld      (countdown_timer_1), a
ROM:06B7 F7                          rst     save_PC_to_fn_tbl_and_ret
ROM:06B8 21 41 80                    ld      hl, #countdown_timer_1
ROM:06BB 35                          dec     (hl)
ROM:06BC C0                          ret     NZ
ROM:06BD CD 82 08                    call    wipe_game_over_player_1_2
ROM:06C0 3A 21 80                    ld      a, (curr_player)
ROM:06C3 A7                          and     a
ROM:06C4 CA D6 04                    jp      Z, main_thread_main_loop
ROM:06C7 CD 88 07                    call    swap_curr_other_player
ROM:06CA AF                          xor     a
ROM:06CB 32 21 80                    ld      (curr_player), a
ROM:06CE C3 D6 04                    jp      main_thread_main_loop
ROM:06D1             ; ---------------------------------------------------------------------------
ROM:06D1             ; UNUSED
ROM:06D1 21 00 78                    ld      hl, #main_2_fn_tbl_1
ROM:06D4 11 00 10                    ld      de, #0x1000
ROM:06D7
ROM:06D7             loc_6D7:
ROM:06D7 36 00                       ld      (hl), #0
ROM:06D9 23                          inc     hl
ROM:06DA 1B                          dec     de
ROM:06DB 7B                          ld      a, e
ROM:06DC B2                          or      d
ROM:06DD 20 F8                       jr      NZ, loc_6D7
ROM:06DF 21 00 90                    ld      hl, #0x9000
ROM:06E2 11 00 08                    ld      de, #0x800
ROM:06E5
ROM:06E5             loc_6E5:
ROM:06E5 36 00                       ld      (hl), #0
ROM:06E7 23                          inc     hl
ROM:06E8 1B                          dec     de
ROM:06E9 7B                          ld      a, e
ROM:06EA B2                          or      d
ROM:06EB 20 F8                       jr      NZ, loc_6E5
ROM:06ED 21 00 A0                    ld      hl, #0xA000
ROM:06F0 11 00 08                    ld      de, #0x800
ROM:06F3
ROM:06F3             loc_6F3:
ROM:06F3 36 00                       ld      (hl), #0
ROM:06F5 23                          inc     hl
ROM:06F6 1B                          dec     de
ROM:06F7 7B                          ld      a, e
ROM:06F8 B2                          or      d
ROM:06F9 20 F8                       jr      NZ, loc_6F3
ROM:06FB C9                          ret
ROM:06FC
ROM:06FC             ; =============== S U B R O U T I N E =======================================
ROM:06FC
ROM:06FC
ROM:06FC             zero_share1:
ROM:06FC 21 00 78                    ld      hl, #main_2_fn_tbl_1
ROM:06FF 11 00 08                    ld      de, #0x800
ROM:0702
ROM:0702             loc_702:
ROM:0702 36 00                       ld      (hl), #0
ROM:0704 23                          inc     hl
ROM:0705 1B                          dec     de
ROM:0706 7B                          ld      a, e
ROM:0707 B2                          or      d
ROM:0708 20 F8                       jr      NZ, loc_702
ROM:070A C9                          ret
ROM:070A             ; End of function zero_share1
ROM:070A
ROM:070B
ROM:070B             ; =============== S U B R O U T I N E =======================================
ROM:070B
ROM:070B
ROM:070B             zero_obj_state_tbl:
ROM:070B 21 00 79                    ld      hl, #obj_state_tbl
ROM:070E 11 40 00                    ld      de, #64
ROM:0711
ROM:0711             loc_711:
ROM:0711 36 00                       ld      (hl), #0
ROM:0713 23                          inc     hl
ROM:0714 1B                          dec     de
ROM:0715 7B                          ld      a, e
ROM:0716 B2                          or      d
ROM:0717 20 F8                       jr      NZ, loc_711
ROM:0719 21 74 79                    ld      hl, # obj_state_tbl+0x74
ROM:071C 11 06 00                    ld      de, #6
ROM:071F
ROM:071F             loc_71F:
ROM:071F 36 00                       ld      (hl), #0
ROM:0721 23                          inc     hl
ROM:0722 1B                          dec     de
ROM:0723 7B                          ld      a, e
ROM:0724 B2                          or      d
ROM:0725 20 F8                       jr      NZ, loc_71F
ROM:0727 C9                          ret
ROM:0727             ; End of function zero_obj_state_tbl
ROM:0727
ROM:0728
ROM:0728             ; =============== S U B R O U T I N E =======================================
ROM:0728
ROM:0728
ROM:0728             clear_fg_to_transparent:
ROM:0728 21 00 B0                    ld      hl, #fg_colorram
ROM:072B 11 00 08                    ld      de, #0x800
ROM:072E
ROM:072E             loc_72E:
ROM:072E 36 24                       ld      (hl), #0x24 ; '$'
ROM:0730 23                          inc     hl
ROM:0731 1B                          dec     de
ROM:0732 7B                          ld      a, e
ROM:0733 B2                          or      d
ROM:0734 20 F8                       jr      NZ, loc_72E
ROM:0736 21 00 C0                    ld      hl, #fg_videoram
ROM:0739 11 00 08                    ld      de, #0x800
ROM:073C
ROM:073C             loc_73C:
ROM:073C 36 24                       ld      (hl), #0x24 ; '$'
ROM:073E 23                          inc     hl
ROM:073F 1B                          dec     de
ROM:0740 7B                          ld      a, e
ROM:0741 B2                          or      d
ROM:0742 20 F8                       jr      NZ, loc_73C
ROM:0744 C9                          ret
ROM:0744             ; End of function clear_fg_to_transparent
ROM:0744
ROM:0745
ROM:0745             ; =============== S U B R O U T I N E =======================================
ROM:0745
ROM:0745
ROM:0745             clear_bg_to_black:
ROM:0745 21 00 B8                    ld      hl, #bg_colorram
ROM:0748 11 00 08                    ld      de, #0x800
ROM:074B
ROM:074B             loc_74B:
ROM:074B 36 03                       ld      (hl), #3
ROM:074D 23                          inc     hl
ROM:074E 1B                          dec     de
ROM:074F 7B                          ld      a, e
ROM:0750 B2                          or      d
ROM:0751 20 F8                       jr      NZ, loc_74B
ROM:0753 21 00 C8                    ld      hl, #bg_videoram
ROM:0756 11 00 08                    ld      de, #0x800
ROM:0759
ROM:0759             loc_759:
ROM:0759 36 00                       ld      (hl), #0
ROM:075B 23                          inc     hl
ROM:075C 1B                          dec     de
ROM:075D 7B                          ld      a, e
ROM:075E B2                          or      d
ROM:075F 20 F8                       jr      NZ, loc_759
ROM:0761 C9                          ret
ROM:0761             ; End of function clear_bg_to_black
ROM:0761
ROM:0762
ROM:0762             ; =============== S U B R O U T I N E =======================================
ROM:0762
ROM:0762
ROM:0762             fill_bg_with_forest:
ROM:0762 21 00 B8                    ld      hl, #bg_colorram
ROM:0765 11 00 08                    ld      de, #0x800
ROM:0768
ROM:0768             loc_768:
ROM:0768 36 00                       ld      (hl), #0
ROM:076A 23                          inc     hl
ROM:076B 1B                          dec     de
ROM:076C 7B                          ld      a, e
ROM:076D B2                          or      d
ROM:076E 20 F8                       jr      NZ, loc_768
ROM:0770 21 00 C8                    ld      hl, #bg_videoram
ROM:0773 3E 88                       ld      a, #0x88 ; 'ˆ'
ROM:0775 06 1C                       ld      b, #0x1C
ROM:0777
ROM:0777             loc_777:
ROM:0777 77                          ld      (hl), a
ROM:0778 23                          inc     hl
ROM:0779 3C                          inc     a
ROM:077A 10 FB                       djnz    loc_777
ROM:077C 21 00 C8                    ld      hl, #bg_videoram
ROM:077F 11 1C C8                    ld      de, # bg_videoram+0x1C
ROM:0782 01 E4 07                    ld      bc, #0x7E4
ROM:0785 ED B0                       ldir
ROM:0787 C9                          ret
ROM:0787             ; End of function fill_bg_with_forest
ROM:0787
ROM:0788
ROM:0788             ; =============== S U B R O U T I N E =======================================
ROM:0788
ROM:0788
ROM:0788             swap_curr_other_player:
ROM:0788 06 40                       ld      b, #0x40 ; '@'
ROM:078A 21 80 81                    ld      hl, #curr_player_score_lsb
ROM:078D 11 C0 81                    ld      de, #other_player_score_lsb
ROM:0790
ROM:0790             loc_790:
ROM:0790 4E                          ld      c, (hl)
ROM:0791 1A                          ld      a, (de)
ROM:0792 77                          ld      (hl), a
ROM:0793 79                          ld      a, c
ROM:0794 12                          ld      (de), a
ROM:0795 2C                          inc     l
ROM:0796 1C                          inc     e
ROM:0797 10 F7                       djnz    loc_790
ROM:0799 C9                          ret
ROM:0799             ; End of function swap_curr_other_player
ROM:0799
ROM:079A
ROM:079A             ; =============== S U B R O U T I N E =======================================
ROM:079A
ROM:079A
ROM:079A             display_player_start_msgs:
ROM:079A 3A 21 80                    ld      a, (curr_player)
ROM:079D 21 40 0C                    ld      hl, #player_1_2_str_tbl
ROM:07A0 CF                          rst     HL_plus_equals_2A
ROM:07A1 5E                          ld      e, (hl)
ROM:07A2 23                          inc     hl
ROM:07A3 56                          ld      d, (hl)
ROM:07A4 21 17 12                    ld      hl, #0x1217
ROM:07A7 06 0A                       ld      b, #10
ROM:07A9 0E C0                       ld      c, #0xC0 ; 'À'
ROM:07AB CD FC 13                    call    display_string
ROM:07AE 21 19 10                    ld      hl, #0x1019
ROM:07B1 11 3A 0C                    ld      de, #strREADY
ROM:07B4 06 06                       ld      b, #6
ROM:07B6 0E C0                       ld      c, #0xC0 ; 'À'
ROM:07B8 CD FC 13                    call    display_string
ROM:07BB 11 58 0C                    ld      de, #strSOLVALOU_LEFT
ROM:07BE 21 1B 13                    ld      hl, #0x131B
ROM:07C1 06 0D                       ld      b, #0xD
ROM:07C3 0E C0                       ld      c, #0xC0 ; 'À'
ROM:07C5 CD FC 13                    call    display_string
ROM:07C8 21 1B 15                    ld      hl, #0x151B
ROM:07CB 3A 83 81                    ld      a, (curr_player_solvalou_left)
ROM:07CE CD 2C 14                    call    display_char
ROM:07D1 C9                          ret
ROM:07D1             ; End of function display_player_start_msgs
ROM:07D1
ROM:07D2
ROM:07D2             ; =============== S U B R O U T I N E =======================================
ROM:07D2
ROM:07D2
ROM:07D2             wipe_player_start_msgs:
ROM:07D2 21 17 12                    ld      hl, #0x1217
ROM:07D5 06 0A                       ld      b, #0xA
ROM:07D7 3E 24                       ld      a, #0x24 ; '$'
ROM:07D9 0E C0                       ld      c, #0xC0 ; 'À'
ROM:07DB CD 3A 14                    call    display_char_B_times
ROM:07DE 21 19 10                    ld      hl, #0x1019
ROM:07E1 06 06                       ld      b, #6
ROM:07E3 3E 24                       ld      a, #0x24 ; '$'
ROM:07E5 0E C0                       ld      c, #0xC0 ; 'À'
ROM:07E7 CD 3A 14                    call    display_char_B_times
ROM:07EA 06 10                       ld      b, #0x10
ROM:07EC 21 1B 15                    ld      hl, #0x151B
ROM:07EF 3E 24                       ld      a, #0x24 ; '$'
ROM:07F1 0E C0                       ld      c, #0xC0 ; 'À'
ROM:07F3 CD 3A 14                    call    display_char_B_times
ROM:07F6 C9                          ret
ROM:07F6             ; End of function wipe_player_start_msgs
ROM:07F6
ROM:07F7
ROM:07F7             ; =============== S U B R O U T I N E =======================================
ROM:07F7
ROM:07F7
ROM:07F7             display_copyright_msgs:
ROM:07F7 21 19 15                    ld      hl, #0x1519                             ; *** START OF DIFFERENT
ROM:07FA 11 7D 3F                    ld      de, #strCOPYRIGHTII
ROM:07FD 06 11                       ld      b, #17
ROM:07FF 0E C0                       ld      c, #0xC0 ; 'À'
ROM:0801 CD FC 13                    call    display_string
ROM:0804 21 1B 15                    ld      hl, #0x151B
ROM:0807 11 8E 3F                    ld      de, #strCOPYRIGHTIV
ROM:080A 06 11                       ld      b, #17
ROM:080C CD FC 13                    call    display_string
ROM:080F 21 1D 16                    ld      hl, #0x161D
ROM:0812 11 9F 3F                    ld      de, #strALLRIGHTSRESERVED
ROM:0815 06 13                       ld      b, #19
ROM:0817 CD FC 13                    call    display_string
ROM:081A 21 20 10                    ld      hl, #0x1020
ROM:081D 11 C5 3F                    ld      de, #strNAMCO
ROM:0820 06 07                       ld      b, #7
ROM:0822 CD FC 13                    call    display_string
ROM:0825 21 20 10                    ld      hl, #0x1020
ROM:0828 06 07                       ld      b, #7
ROM:082A 0E B0                       ld      c, #0xB0 ; '°'
ROM:082C 3E 1A                       ld      a, #0x1A
ROM:082E CD 3A 14                    call    display_char_B_times
ROM:0831 C9                          ret                                             ; *** END OF DIFFERENT
ROM:0831             ; End of function display_copyright_msgs
ROM:0831
ROM:0832
ROM:0832             ; =============== S U B R O U T I N E =======================================
ROM:0832
ROM:0832
ROM:0832             display_credits:
ROM:0832 21 23 09                    ld      hl, #0x923
ROM:0835 11 34 0C                    ld      de, #strCREDIT
ROM:0838 06 06                       ld      b, #6
ROM:083A 0E C0                       ld      c, #0xC0 ; 'À'
ROM:083C CD FC 13                    call    display_string
ROM:083F 25                          dec     h
ROM:0840 3A 29 80                    ld      a, (num_credits)
ROM:0843 0F                          rrca
ROM:0844 0F                          rrca
ROM:0845 0F                          rrca
ROM:0846 0F                          rrca
ROM:0847 E6 0F                       and     #0xF
ROM:0849 CD 2C 14                    call    display_char
ROM:084C 3A 29 80                    ld      a, (num_credits)
ROM:084F E6 0F                       and     #0xF
ROM:0851 C3 2C 14                    jp      display_char
ROM:0851             ; End of function display_credits
ROM:0851
ROM:0854
ROM:0854             ; =============== S U B R O U T I N E =======================================
ROM:0854
ROM:0854
ROM:0854             display_1_only_or_1_2_players:
ROM:0854 3A 29 80                    ld      a, (num_credits)
ROM:0857 FE 01                       cp      #1
ROM:0859 28 01                       jr      Z, loc_85C
ROM:085B AF                          xor     a
ROM:085C
ROM:085C             loc_85C:
ROM:085C 21 0C 0C                    ld      hl, #one_only_one_or_two_str_tbl
ROM:085F CF                          rst     HL_plus_equals_2A
ROM:0860 5E                          ld      e, (hl)
ROM:0861 23                          inc     hl
ROM:0862 56                          ld      d, (hl)
ROM:0863 26 15                       ld      h, #0x15
ROM:0865 3A AE 80                    ld      a, (byte_80AE)                          ; *** DIFFERENT
ROM:0868 C6 02                       add     a, #2
ROM:086A 6F                          ld      l, a
ROM:086B 06 12                       ld      b, #18
ROM:086D 0E C0                       ld      c, #0xC0 ; 'À'
ROM:086F C3 FC 13                    jp      display_string
ROM:086F             ; End of function display_1_only_or_1_2_players
ROM:086F
ROM:0872
ROM:0872             ; =============== S U B R O U T I N E =======================================
ROM:0872
ROM:0872
ROM:0872             display_push_start_button:
ROM:0872 26 15                       ld      h, #0x15
ROM:0874 3A AE 80                    ld      a, (byte_80AE)                          ; *** DIFFERENT
ROM:0877 6F                          ld      l, a
ROM:0878 11 FB 0B                    ld      de, #0xBFB
ROM:087B 06 11                       ld      b, #0x11
ROM:087D 0E C0                       ld      c, #0xC0 ; 'À'
ROM:087F C3 FC 13                    jp      display_string
ROM:087F             ; End of function display_push_start_button
ROM:087F
ROM:0882
ROM:0882             ; =============== S U B R O U T I N E =======================================
ROM:0882
ROM:0882
ROM:0882             wipe_game_over_player_1_2:
ROM:0882 21 18 11                    ld      hl, #0x1118
ROM:0885 06 09                       ld      b, #9
ROM:0887 0E C0                       ld      c, #0xC0 ; 'À'
ROM:0889 3E 24                       ld      a, #0x24 ; '$'
ROM:088B CD 3A 14                    call    display_char_B_times
ROM:088E 21 1A 12                    ld      hl, #0x121A
ROM:0891 06 0A                       ld      b, #10
ROM:0893 C3 3A 14                    jp      display_char_B_times
ROM:0893             ; End of function wipe_game_over_player_1_2
ROM:0893
ROM:0896
ROM:0896             ; =============== S U B R O U T I N E =======================================
ROM:0896
ROM:0896
ROM:0896             display_game_over:
ROM:0896 21 18 11                    ld      hl, #0x1118
ROM:0899 11 F2 0B                    ld      de, #strGAME_OVER
ROM:089C 06 09                       ld      b, #9
ROM:089E 0E C0                       ld      c, #0xC0 ; 'À'
ROM:08A0 C3 FC 13                    jp      display_string
ROM:08A0             ; End of function display_game_over
ROM:08A0
ROM:08A3
ROM:08A3             ; =============== S U B R O U T I N E =======================================
ROM:08A3
ROM:08A3
ROM:08A3             display_game_over_player_1_2:
ROM:08A3 CD 96 08                    call    display_game_over
ROM:08A6 3A 21 80                    ld      a, (curr_player)
ROM:08A9 21 40 0C                    ld      hl, #player_1_2_str_tbl
ROM:08AC CF                          rst     HL_plus_equals_2A
ROM:08AD 5E                          ld      e, (hl)
ROM:08AE 23                          inc     hl
ROM:08AF 56                          ld      d, (hl)
ROM:08B0 21 1A 12                    ld      hl, #0x121A
ROM:08B3 06 0A                       ld      b, #10
ROM:08B5 0E C0                       ld      c, #0xC0 ; 'À'
ROM:08B7 C3 FC 13                    jp      display_string
ROM:08B7             ; End of function display_game_over_player_1_2
ROM:08B7
ROM:08BA
ROM:08BA             ; =============== S U B R O U T I N E =======================================
ROM:08BA
ROM:08BA
ROM:08BA             display_insert_coin_flashing:
ROM:08BA 3A 01 80                    ld      a, (countup_timer_1)
ROM:08BD 4F                          ld      c, a
ROM:08BE E6 0F                       and     #0xF
ROM:08C0 C0                          ret     NZ
ROM:08C1 79                          ld      a, c
ROM:08C2 0F                          rrca
ROM:08C3 0F                          rrca
ROM:08C4 0F                          rrca
ROM:08C5 0F                          rrca
ROM:08C6 E6 01                       and     #1
ROM:08C8 26 12                       ld      h, #0x12
ROM:08CA 3A A9 80                    ld      a, (byte_80A9)                          ; *** DIFFERENT
ROM:08CD 6F                          ld      l, a
ROM:08CE 06 0B                       ld      b, #11
ROM:08D0 28 08                       jr      Z, wipe_insert_coin
ROM:08D2 11 E7 0B                    ld      de, #strINSERT_COIN
ROM:08D5 0E C0                       ld      c, #0xC0 ; 'À'
ROM:08D7 C3 FC 13                    jp      display_string
ROM:08DA             ; ---------------------------------------------------------------------------
ROM:08DA
ROM:08DA             wipe_insert_coin:                                               ; *** DIFFERENT (see above)
ROM:08DA 0E C0                       ld      c, #0xC0 ; 'À'
ROM:08DC 3E 24                       ld      a, #0x24 ; '$'
ROM:08DE C3 3A 14                    jp      display_char_B_times
ROM:08DE             ; End of function display_insert_coin_flashing
ROM:08DE
ROM:08E1
ROM:08E1             ; =============== S U B R O U T I N E =======================================
ROM:08E1
ROM:08E1
ROM:08E1             display_xevious_logo_flashing:
ROM:08E1 CD 22 0A                    call    display_SUPER                           ; *** NEW SUBROUTINE
ROM:08E4 21 04 00                    ld      hl, #4
ROM:08E7 22 0C 80                    ld      (bg_scroll_x_shadow), hl
ROM:08EA 0E C8                       ld      c, #0xC8 ; 'È'
ROM:08EC 21 09 15                    ld      hl, #0x1509
ROM:08EF 11 FA 0A                    ld      de, #xevious_logo_flashing_pt1
ROM:08F2 06 12                       ld      b, #0x12
ROM:08F4 CD FC 13                    call    display_string
ROM:08F7 21 0A 16                    ld      hl, #0x160A
ROM:08FA 11 0C 0B                    ld      de, #xevious_logo_flashing_pt2
ROM:08FD 06 13                       ld      b, #0x13
ROM:08FF CD FC 13                    call    display_string
ROM:0902 21 0B 15                    ld      hl, #0x150B
ROM:0905 11 1F 0B                    ld      de, #xevious_logo_flashing_pt3
ROM:0908 06 12                       ld      b, #0x12
ROM:090A CD FC 13                    call    display_string
ROM:090D 21 0C 16                    ld      hl, #0x160C
ROM:0910 11 31 0B                    ld      de, #xevious_logo_flashing_pt4
ROM:0913 06 13                       ld      b, #0x13
ROM:0915 CD FC 13                    call    display_string
ROM:0918 21 0D 17                    ld      hl, #0x170D
ROM:091B 11 44 0B                    ld      de, #xevious_logo_flashing_pt5
ROM:091E 06 14                       ld      b, #0x14
ROM:0920 CD FC 13                    call    display_string
ROM:0923 21 0E 17                    ld      hl, #0x170E
ROM:0926 11 58 0B                    ld      de, #xevious_logo_flashing_pt6
ROM:0929 06 13                       ld      b, #0x13
ROM:092B CD FC 13                    call    display_string
ROM:092E 21 0F 17                    ld      hl, #0x170F
ROM:0931 11 6B 0B                    ld      de, #xevious_logo_flashing_pt7
ROM:0934 06 11                       ld      b, #0x11
ROM:0936 CD FC 13                    call    display_string
ROM:0939 21 10 15                    ld      hl, #0x1510
ROM:093C 3E F9                       ld      a, #0xF9 ; 'ù'
ROM:093E CD 2C 14                    call    display_char
ROM:0941 0E B8                       ld      c, #0xB8 ; '¸'
ROM:0943 21 09 15                    ld      hl, #0x1509
ROM:0946 3E 0D                       ld      a, #0xD
ROM:0948 06 12                       ld      b, #0x12
ROM:094A CD 3A 14                    call    display_char_B_times
ROM:094D 21 0A 16                    ld      hl, #0x160A
ROM:0950 3E 0D                       ld      a, #0xD
ROM:0952 06 13                       ld      b, #0x13
ROM:0954 CD 3A 14                    call    display_char_B_times
ROM:0957 21 0B 15                    ld      hl, #0x150B
ROM:095A 3E 11                       ld      a, #0x11
ROM:095C 06 02                       ld      b, #2
ROM:095E CD 3A 14                    call    display_char_B_times
ROM:0961 3E 15                       ld      a, #0x15
ROM:0963 06 0F                       ld      b, #0xF
ROM:0965 CD 3A 14                    call    display_char_B_times
ROM:0968 3E 11                       ld      a, #0x11
ROM:096A CD 2C 14                    call    display_char
ROM:096D 21 0C 16                    ld      hl, #0x160C
ROM:0970 3E 13                       ld      a, #0x13
ROM:0972 06 02                       ld      b, #2
ROM:0974 CD 3A 14                    call    display_char_B_times
ROM:0977 3E 17                       ld      a, #0x17
ROM:0979 06 10                       ld      b, #0x10
ROM:097B CD 3A 14                    call    display_char_B_times
ROM:097E 3E 13                       ld      a, #0x13
ROM:0980 CD 2C 14                    call    display_char
ROM:0983 21 0D 17                    ld      hl, #0x170D
ROM:0986 3E 13                       ld      a, #0x13
ROM:0988 06 02                       ld      b, #2
ROM:098A CD 3A 14                    call    display_char_B_times
ROM:098D 3E 17                       ld      a, #0x17
ROM:098F 06 10                       ld      b, #0x10
ROM:0991 CD 3A 14                    call    display_char_B_times
ROM:0994 3E 0F                       ld      a, #0xF
ROM:0996 CD 2C 14                    call    display_char
ROM:0999 3E 13                       ld      a, #0x13
ROM:099B CD 2C 14                    call    display_char
ROM:099E 21 0E 17                    ld      hl, #0x170E
ROM:09A1 3E 13                       ld      a, #0x13
ROM:09A3 CD 2C 14                    call    display_char
ROM:09A6 3E 19                       ld      a, #0x19
ROM:09A8 06 11                       ld      b, #0x11
ROM:09AA CD 3A 14                    call    display_char_B_times
ROM:09AD 3E 18                       ld      a, #0x18
ROM:09AF CD 2C 14                    call    display_char
ROM:09B2 21 0F 17                    ld      hl, #0x170F
ROM:09B5 3E 18                       ld      a, #0x18
ROM:09B7 06 02                       ld      b, #2
ROM:09B9 CD 3A 14                    call    display_char_B_times
ROM:09BC 3E 19                       ld      a, #0x19
ROM:09BE CD 2C 14                    call    display_char
ROM:09C1 3E 18                       ld      a, #0x18
ROM:09C3 06 0E                       ld      b, #0xE
ROM:09C5 CD 3A 14                    call    display_char_B_times
ROM:09C8 21 10 15                    ld      hl, #0x1510
ROM:09CB 3E 18                       ld      a, #0x18
ROM:09CD CD 2C 14                    call    display_char
ROM:09D0 0E C0                       ld      c, #0xC0 ; 'À'
ROM:09D2 21 0B 15                    ld      hl, #0x150B
ROM:09D5 11 BB 0A                    ld      de, #xevious_logo_flashing_pt8
ROM:09D8 06 11                       ld      b, #0x11
ROM:09DA CD FC 13                    call    display_string
ROM:09DD 21 0C 13                    ld      hl, #0x130C
ROM:09E0 11 CC 0A                    ld      de, #xevious_logo_flashing_pt9
ROM:09E3 06 0E                       ld      b, #0xE
ROM:09E5 CD FC 13                    call    display_string
ROM:09E8 21 0D 14                    ld      hl, #0x140D
ROM:09EB 11 DA 0A                    ld      de, #xevious_logo_flashing_pt10
ROM:09EE 06 10                       ld      b, #0x10
ROM:09F0 CD FC 13                    call    display_string
ROM:09F3 21 0E 15                    ld      hl, #0x150E
ROM:09F6 11 EA 0A                    ld      de, #xevious_logo_flashing_pt11
ROM:09F9 06 10                       ld      b, #0x10
ROM:09FB CD FC 13                    call    display_string
ROM:09FE 3E 1A                       ld      a, #0x1A
ROM:0A00
ROM:0A00             set_colour_xevious_flashing_logo:
ROM:0A00 0E B0                       ld      c, #0xB0 ; '°'
ROM:0A02 21 0B 15                    ld      hl, #0x150B
ROM:0A05 06 11                       ld      b, #0x11
ROM:0A07 CD 3A 14                    call    display_char_B_times
ROM:0A0A 21 0C 13                    ld      hl, #0x130C
ROM:0A0D 06 0E                       ld      b, #0xE
ROM:0A0F CD 3A 14                    call    display_char_B_times
ROM:0A12 21 0D 14                    ld      hl, #0x140D
ROM:0A15 06 10                       ld      b, #0x10
ROM:0A17 CD 3A 14                    call    display_char_B_times
ROM:0A1A 21 0E 15                    ld      hl, #0x150E
ROM:0A1D 06 10                       ld      b, #0x10
ROM:0A1F C3 3A 14                    jp      display_char_B_times
ROM:0A1F             ; End of function display_xevious_logo_flashing
ROM:0A1F
ROM:0A22
ROM:0A22             ; =============== S U B R O U T I N E =======================================
ROM:0A22
ROM:0A22
ROM:0A22             display_SUPER:
ROM:0A22 21 09 16                    ld      hl, #0x1609                             ; *** NEW SUBROUTINE
ROM:0A25 11 3B 0A                    ld      de, #strSUPER
ROM:0A28 0E C0                       ld      c, #0xC0 ; 'À'
ROM:0A2A 06 05                       ld      b, #5
ROM:0A2C CD FC 13                    call    display_string
ROM:0A2F 21 09 16                    ld      hl, #0x1609
ROM:0A32 0E B0                       ld      c, #0xB0 ; '°'
ROM:0A34 06 05                       ld      b, #5
ROM:0A36 3E 1A                       ld      a, #0x1A
ROM:0A38 C3 3A 14                    jp      display_char_B_times
ROM:0A38             ; End of function display_SUPER
ROM:0A38
ROM:0A38             ; ---------------------------------------------------------------------------
ROM:0A3B 1C 1E 19 0E+strSUPER:       .db 0x1C, 0x1E, 0x19, 0xE, 0x1B                 ; "SUPER"
ROM:0A40
ROM:0A40             ; =============== S U B R O U T I N E =======================================
ROM:0A40
ROM:0A40
ROM:0A40             display_xevious_logo_yellow:
ROM:0A40 CD 22 0A                    call    display_SUPER
ROM:0A43 21 0A 16                    ld      hl, #0x160A
ROM:0A46 11 7C 0B                    ld      de, #xevious_logo_yellow_pt1
ROM:0A49 0E C0                       ld      c, #0xC0 ; 'À'
ROM:0A4B 06 13                       ld      b, #0x13
ROM:0A4D CD FC 13                    call    display_string
ROM:0A50 21 0B 15                    ld      hl, #0x150B
ROM:0A53 11 8F 0B                    ld      de, #xevious_logo_yellow_pt2
ROM:0A56 06 12                       ld      b, #0x12
ROM:0A58 CD FC 13                    call    display_string
ROM:0A5B 21 0C 15                    ld      hl, #0x150C
ROM:0A5E 11 A1 0B                    ld      de, #xevious_logo_yellow_pt3
ROM:0A61 06 12                       ld      b, #0x12
ROM:0A63 CD FC 13                    call    display_string
ROM:0A66 21 0D 16                    ld      hl, #0x160D
ROM:0A69 11 B3 0B                    ld      de, #xevious_logo_yellow_pt4
ROM:0A6C 06 13                       ld      b, #0x13
ROM:0A6E CD FC 13                    call    display_string
ROM:0A71 21 0E 17                    ld      hl, #0x170E
ROM:0A74 11 C6 0B                    ld      de, #xevious_logo_yellow_pt5
ROM:0A77 06 14                       ld      b, #0x14
ROM:0A79 CD FC 13                    call    display_string
ROM:0A7C 21 0F 17                    ld      hl, #0x170F
ROM:0A7F 11 DA 0B                    ld      de, #xevious_logo_yellow_pt6
ROM:0A82 06 0D                       ld      b, #0xD
ROM:0A84 CD FC 13                    call    display_string
ROM:0A87 3E 1B                       ld      a, #0x1B
ROM:0A89 21 0A 16                    ld      hl, #0x160A
ROM:0A8C 0E B0                       ld      c, #0xB0 ; '°'
ROM:0A8E 06 13                       ld      b, #0x13
ROM:0A90 CD 3A 14                    call    display_char_B_times
ROM:0A93 21 0B 15                    ld      hl, #0x150B
ROM:0A96 06 12                       ld      b, #0x12
ROM:0A98 CD 3A 14                    call    display_char_B_times
ROM:0A9B 21 0C 15                    ld      hl, #0x150C
ROM:0A9E 06 12                       ld      b, #0x12
ROM:0AA0 CD 3A 14                    call    display_char_B_times
ROM:0AA3 21 0D 16                    ld      hl, #0x160D
ROM:0AA6 06 13                       ld      b, #0x13
ROM:0AA8 CD 3A 14                    call    display_char_B_times
ROM:0AAB 21 0E 17                    ld      hl, #0x170E
ROM:0AAE 06 14                       ld      b, #0x14
ROM:0AB0 CD 3A 14                    call    display_char_B_times
ROM:0AB3 21 0F 17                    ld      hl, #0x170F
ROM:0AB6 06 0D                       ld      b, #0xD
ROM:0AB8 C3 3A 14                    jp      display_char_B_times
ROM:0AB8             ; End of function display_xevious_logo_yellow
ROM:0AB8
ROM:0AB8             ; ---------------------------------------------------------------------------
ROM:0ABB 2A 51 52 53+xevious_logo_flashing_pt8:.db 0x2A, 0x51, 0x52, 0x53, 0x52, 0x54, 0x55, 0x56, 0x24
ROM:0ABB 52 54 55 56+                .db 0x57, 0x58, 0x59, 0x5A, 0x5B, 0x5C, 0x5D, 0x52
ROM:0ACC 5E 5F 2A 60+xevious_logo_flashing_pt9:.db 0x5E, 0x5F, 0x2A, 0x60, 0x61, 0x62, 0x63, 0x64, 0x65
ROM:0ACC 61 62 63 64+                .db 0x66, 0x67, 0x68, 0x69, 0x6A
ROM:0ADA 6B 6C 6D 6E+xevious_logo_flashing_pt10:.db 0x6B, 0x6C, 0x6D, 0x6E, 0x6F, 0x70, 0x71, 0x72, 0x73
ROM:0ADA 6F 70 71 72+                .db 0x74, 0x75, 0x76, 0x77, 0x78, 0x79, 0x7A
ROM:0AEA 7B 7C 7D 7E+xevious_logo_flashing_pt11:.db 0x7B, 0x7C, 0x7D, 0x7E, 0x7F, 0x80, 0x81, 0x82, 0x83
ROM:0AEA 7F 80 81 82+                .db 0x84, 0x85, 0x86, 0x87, 0x7F, 0x88, 0x89
ROM:0AFA C0 C1 C2 C3+xevious_logo_flashing_pt1:.db 0xC0, 0xC1, 0xC2, 0xC3, 0xC2, 0xC4, 0xC5, 0xC1, 0xC6
ROM:0AFA C2 C4 C5 C1+                .db 0xC7, 0xC1, 0xC8, 0xC1, 0xC9, 0xCA, 0xCB, 0xCA, 0xCC
ROM:0B0C CD CE CF D0+xevious_logo_flashing_pt2:.db 0xCD, 0xCE, 0xCF, 0xD0, 0xD1, 0xD2, 0xD3, 0xD4, 0xD5
ROM:0B0C D1 D2 D3 D4+                .db 0xD6, 0xD7, 0xD8, 0xD9, 0xDA, 0xDB, 0xDC, 0xDD, 0xDE
ROM:0B0C D5 D6 D7 D8+                .db 0xDF
ROM:0B1F E0 E1 E2 E3+xevious_logo_flashing_pt3:.db 0xE0, 0xE1, 0xE2, 0xE3, 0xE4, 0xE5, 0xE6, 0xE7, 0xE8
ROM:0B1F E4 E5 E6 E7+                .db 0xE9, 0xEA, 0xEB, 0xEC, 0xED, 0xEE, 0xEF, 0xF0, 0xF1
ROM:0B31 F2 F3 F4 F5+xevious_logo_flashing_pt4:.db 0xF2, 0xF3, 0xF4, 0xF5, 0xF6, 0xF7, 0xF8, 0xF9, 0xFA
ROM:0B31 F6 F7 F8 F9+                .db 0xFB, 0xFC, 0xFD, 0xFE, 0xFF, 0xA0, 0xA1, 0xA2, 0xA3
ROM:0B31 FA FB FC FD+                .db 0xA4
ROM:0B44 A5 A6 A7 A8+xevious_logo_flashing_pt5:.db 0xA5, 0xA6, 0xA7, 0xA8, 0xA9, 0xAA, 0xAB, 0xAC, 0xAD
ROM:0B44 A9 AA AB AC+                .db 0xAE, 0xAF, 0xB0, 0xB1, 0xB2, 0xB3, 0xB4, 0xB5, 0xB6
ROM:0B44 AD AE AF B0+                .db 0xB7, 0xB8
ROM:0B58 B9 BA BB BB+xevious_logo_flashing_pt6:.db 0xB9, 0xBA, 0xBB, 0xBB, 0xBB, 0xBB, 0xBB, 0xBB, 0xBC
ROM:0B58 BB BB BB BB+                .db 0xBD, 0xBD, 0xBD, 0xBE, 0xBB, 0xBB, 0xBB, 0xBB, 0xBF
ROM:0B58 BC BD BD BD+                .db 0xF0
ROM:0B6B F1 F2 BB F3+xevious_logo_flashing_pt7:.db 0xF1, 0xF2, 0xBB, 0xF3, 0xF4, 0xF4, 0xF4, 0xF4, 0xF5
ROM:0B6B F4 F4 F4 F4+                .db 0xF6, 0xF6, 0xF6, 0xF7, 0xF4, 0xF4, 0xF4, 0xF8
ROM:0B7C 8A 8B 8C 8D+xevious_logo_yellow_pt1:.db 0x8A, 0x8B, 0x8C, 0x8D, 0x8E, 0x8D, 0x8F, 0x90, 0x87
ROM:0B7C 8E 8D 8F 90+                .db 0x91, 0x92, 0x93, 0x94, 0x87, 0x95, 0x96, 0x97, 0x98
ROM:0B7C 87 91 92 93+                .db 0x99
ROM:0B8F 9A 9B 9C 9D+xevious_logo_yellow_pt2:.db 0x9A, 0x9B, 0x9C, 0x9D, 0x9C, 0x9E, 0x9F, 0xA0, 0xA1
ROM:0B8F 9C 9E 9F A0+                .db 0xA2, 0xA3, 0xA4, 0xA5, 0xA6, 0xA7, 0xA8, 0xA9, 0xAA
ROM:0BA1 AB AC AD AE+xevious_logo_yellow_pt3:.db 0xAB, 0xAC, 0xAD, 0xAE, 0xAF, 0xB0, 0xB1, 0xB2, 0xB3
ROM:0BA1 AF B0 B1 B2+                .db 0xB4, 0xB5, 0xB6, 0xB7, 0xB8, 0xA7, 0xB9, 0x9A, 0xBA
ROM:0BB3 AB BB AA 9A+xevious_logo_yellow_pt4:.db 0xAB, 0xBB, 0xAA, 0x9A, 0xBC, 0xBD, 0xBE, 0xBF, 0xC0
ROM:0BB3 BC BD BE BF+                .db 0xC1, 0xC2, 0x9A, 0xC3, 0xAA, 0xC4, 0xC5, 0xC6, 0xC7
ROM:0BB3 C0 C1 C2 9A+                .db 0xC8
ROM:0BC6 AB BB C9 CA+xevious_logo_yellow_pt5:.db 0xAB, 0xBB, 0xC9, 0xCA, 0xCA, 0xCB, 0xCC, 0xCD, 0xCE
ROM:0BC6 CA CB CC CD+                .db 0xCF, 0xD0, 0xD1, 0xD2, 0xCB, 0xCA, 0xCA, 0xD3, 0xD4
ROM:0BC6 CE CF D0 D1+                .db 0xD5, 0xD6
ROM:0BDA D7 AA 24 24+xevious_logo_yellow_pt6:.db 0xD7, 0xAA, 0x24, 0x24, 0x24, 0x24, 0x24, 0x24, 0xD8
ROM:0BDA 24 24 24 24+                .db 0xD9, 0xD9, 0xD9, 0xDA
ROM:0BE7 12 17 1C 0E+strINSERT_COIN: .db 0x12, 0x17, 0x1C, 0xE, 0x1B, 0x1D, 0x24, 0xC, 0x18
ROM:0BE7 1B 1D 24 0C+                .db 0x12, 0x17
ROM:0BF2 10 0A 16 0E+strGAME_OVER:   .db 0x10, 0xA, 0x16, 0xE, 0x24, 0x18, 0x1F, 0xE, 0x1B
ROM:0BFB 19 1E 1C 11+strPUSH_START_BUTTON:.db 0x19, 0x1E, 0x1C, 0x11, 0x24, 0x1C, 0x1D, 0xA, 0x1B
ROM:0BFB 24 1C 1D 0A+                .db 0x1D, 0x24, 0xB, 0x1E, 0x1D, 0x1D, 0x18, 0x17
ROM:0C0C 22 0C       one_only_one_or_two_str_tbl:.dw strONE_OR_TWO_PLAYERS
ROM:0C0E 10 0C                       .dw strONE_PLAYER_ONLY
ROM:0C10 24 18 17 0E+strONE_PLAYER_ONLY:.db 0x24, 0x18, 0x17, 0xE, 0x24, 0x19, 0x15, 0xA, 0x22
ROM:0C10 24 19 15 0A+                .db 0xE, 0x1B, 0x24, 0x18, 0x17, 0x15, 0x22, 0x24, 0x24
ROM:0C22 18 17 0E 24+strONE_OR_TWO_PLAYERS:.db 0x18, 0x17, 0xE, 0x24, 0x18, 0x1B, 0x24, 0x1D, 0x20
ROM:0C22 18 1B 24 1D+                .db 0x18, 0x24, 0x19, 0x15, 0xA, 0x22, 0xE, 0x1B, 0x1C
ROM:0C34 0C 1B 0E 0D+strCREDIT:      .db 0xC, 0x1B, 0xE, 0xD, 0x12, 0x1D
ROM:0C3A 1B 0E 0A 0D+strREADY:       .db 0x1B, 0xE, 0xA, 0xD, 0x22, 0x2C
ROM:0C40 44 0C       player_1_2_str_tbl:.dw strPLAYER_ONE
ROM:0C42 4E 0C                       .dw strPLAYER_TWO
ROM:0C44 19 15 0A 22+strPLAYER_ONE:  .db 0x19, 0x15, 0xA, 0x22, 0xE, 0x1B, 0x24, 0x18, 0x17
ROM:0C44 0E 1B 24 18+                .db 0xE
ROM:0C4E 19 15 0A 22+strPLAYER_TWO:  .db 0x19, 0x15, 0xA, 0x22, 0xE, 0x1B, 0x24, 0x1D, 0x20
ROM:0C4E 0E 1B 24 1D+                .db 0x18
ROM:0C58 1C 18 15 1F+strSOLVALOU_LEFT:.db 0x1C, 0x18, 0x15, 0x1F, 0xA, 0x15, 0x18, 0x1E, 0x24
ROM:0C58 0A 15 18 1E+                .db 0x15, 0xE, 0xF, 0x1D
ROM:0C65 05 02 01 03 starting_solvalou_tbl:.db 5, 2, 1, 3
ROM:0C69 02          unk_C69:        .db    2
ROM:0C6A 02                          .db    2
ROM:0C6B 6F 0C       first_bonus_life_tbls:.dw first_bonus_life_Ks_3
ROM:0C6D 7F 0C                       .dw first_bonus_life_Ks_125
ROM:0C6F 20 00       first_bonus_life_Ks_3:.dw 0x20
ROM:0C71 10 00                       .dw 0x10
ROM:0C73 20 00                       .dw 0x20
ROM:0C75 20 00                       .dw 0x20
ROM:0C77 20 00                       .dw 0x20
ROM:0C79 30 00                       .dw 0x30
ROM:0C7B 20 00                       .dw 0x20
ROM:0C7D FF FF                       .dw 0xFFFF
ROM:0C7F 20 00       first_bonus_life_Ks_125:.dw 0x20
ROM:0C81 10 00                       .dw 0x10
ROM:0C83 10 00                       .dw 0x10
ROM:0C85 20 00                       .dw 0x20
ROM:0C87 20 00                       .dw 0x20
ROM:0C89 20 00                       .dw 0x20
ROM:0C8B 20 00                       .dw 0x20
ROM:0C8D FF FF                       .dw 0xFFFF
ROM:0C8F 10 18 08 00 enemy_AI_dec_value:.db 0x10, 0x18, 8, 0
ROM:0C93 1A 17 18 07+xevious_flashing_logo_colour_tbl:.db 0x1A, 0x17, 0x18, 7, 0x3A, 0x1B, 0x1F, 0x15
ROM:0C9B 90 0D       attract_mode_jump_tbl:.dw attract_mode_gameplay
ROM:0C9D A3 0C                       .dw attract_mode_title_screen
ROM:0C9F 90 0D                       .dw attract_mode_gameplay
ROM:0CA1 FD 0D                       .dw attract_mode_high_score_table
ROM:0CA3             ; ---------------------------------------------------------------------------
ROM:0CA3
ROM:0CA3             attract_mode_title_screen:
ROM:0CA3 CD 45 07                    call    clear_bg_to_black
ROM:0CA6 CD 28 07                    call    clear_fg_to_transparent
ROM:0CA9 CD F7 07                    call    display_copyright_msgs
ROM:0CAC CD 30 0E                    call    display_all_scores
ROM:0CAF CD E1 08                    call    display_xevious_logo_flashing
ROM:0CB2 3E 40                       ld      a, #0x40 ; '@'
ROM:0CB4 32 41 80                    ld      (countdown_timer_1), a
ROM:0CB7 11 C0 0C                    ld      de, #0xCC0
ROM:0CBA DD 73 00                    ld      0(ix), e
ROM:0CBD DD 72 01                    ld      1(ix), d
ROM:0CC0 21 41 80                    ld      hl, #countdown_timer_1
ROM:0CC3 35                          dec     (hl)
ROM:0CC4 28 03                       jr      Z, animate_sparkle_appearing
ROM:0CC6 C3 FE 04                    jp      flash_insert_coin_and_check_credits
ROM:0CC9             ; ---------------------------------------------------------------------------
ROM:0CC9
ROM:0CC9             animate_sparkle_appearing:
ROM:0CC9 21 60 0D                    ld      hl, #0xD60
ROM:0CCC 22 1E 7A                    ld      (obj_x_tbl+0x1E), hl
ROM:0CCF 21 60 16                    ld      hl, #0x1660
ROM:0CD2 22 1E 7B                    ld      (obj_y_tbl+0x1E), hl
ROM:0CD5 21 30 0F                    ld      hl, #0xF30
ROM:0CD8 22 1E 7C                    ld      (obj_code_tbl+0x1E), hl
ROM:0CDB 21 02 80                    ld      hl, #0x8002
ROM:0CDE 22 1E 79                    ld      (obj_state_tbl+0x1E), hl
ROM:0CE1 AF                          xor     a
ROM:0CE2 32 1E 7D                    ld      (obj_timer_tbl+0x1E), a
ROM:0CE5 11 EE 0C                    ld      de, #loc_CEE
ROM:0CE8 DD 73 00                    ld      0(ix), e
ROM:0CEB DD 72 01                    ld      1(ix), d
ROM:0CEE
ROM:0CEE             loc_CEE:
ROM:0CEE 3A 1E 7D                    ld      a, (obj_timer_tbl+0x1E)
ROM:0CF1 3C                          inc     a
ROM:0CF2 32 1E 7D                    ld      (obj_timer_tbl+0x1E), a
ROM:0CF5 FE 10                       cp      #0x10
ROM:0CF7 28 0B                       jr      Z, animate_sparkle_moving
ROM:0CF9 0F                          rrca
ROM:0CFA E6 07                       and     #7
ROM:0CFC C6 30                       add     a, #0x30 ; '0'
ROM:0CFE 32 1E 7C                    ld      (obj_code_tbl+0x1E), a
ROM:0D01 C3 FE 04                    jp      flash_insert_coin_and_check_credits
ROM:0D04             ; ---------------------------------------------------------------------------
ROM:0D04
ROM:0D04             animate_sparkle_moving:
ROM:0D04 3E 78                       ld      a, #0x78 ; 'x'
ROM:0D06 32 1E 7D                    ld      (obj_timer_tbl+0x1E), a
ROM:0D09 11 12 0D                    ld      de, #loc_D12
ROM:0D0C DD 73 00                    ld      0(ix), e
ROM:0D0F DD 72 01                    ld      1(ix), d
ROM:0D12
ROM:0D12             loc_D12:
ROM:0D12 3A 1E 7D                    ld      a, (obj_timer_tbl+0x1E)
ROM:0D15 3C                          inc     a
ROM:0D16 32 1E 7D                    ld      (obj_timer_tbl+0x1E), a
ROM:0D19 28 13                       jr      Z, animate_sparkle_disappearing
ROM:0D1B E6 07                       and     #7
ROM:0D1D C6 38                       add     a, #0x38 ; '8'
ROM:0D1F 32 1E 7C                    ld      (obj_code_tbl+0x1E), a
ROM:0D22 2A 1E 7B                    ld      hl, (obj_y_tbl+0x1E)
ROM:0D25 3E F0                       ld      a, #0xF0 ; 'ð'
ROM:0D27 CF                          rst     HL_plus_equals_2A
ROM:0D28 22 1E 7B                    ld      (obj_y_tbl+0x1E), hl
ROM:0D2B C3 FE 04                    jp      flash_insert_coin_and_check_credits
ROM:0D2E             ; ---------------------------------------------------------------------------
ROM:0D2E
ROM:0D2E             animate_sparkle_disappearing:
ROM:0D2E 3E 10                       ld      a, #0x10
ROM:0D30 32 1E 7D                    ld      (obj_timer_tbl+0x1E), a
ROM:0D33 11 3C 0D                    ld      de, #loc_D3C
ROM:0D36 DD 73 00                    ld      0(ix), e
ROM:0D39 DD 72 01                    ld      1(ix), d
ROM:0D3C
ROM:0D3C             loc_D3C:
ROM:0D3C 3A 1E 7D                    ld      a, (obj_timer_tbl+0x1E)
ROM:0D3F 3D                          dec     a
ROM:0D40 32 1E 7D                    ld      (obj_timer_tbl+0x1E), a
ROM:0D43 28 0B                       jr      Z, animate_flashing_logo
ROM:0D45 0F                          rrca
ROM:0D46 E6 07                       and     #7
ROM:0D48 C6 30                       add     a, #0x30 ; '0'
ROM:0D4A 32 1E 7C                    ld      (obj_code_tbl+0x1E), a
ROM:0D4D C3 FE 04                    jp      flash_insert_coin_and_check_credits
ROM:0D50             ; ---------------------------------------------------------------------------
ROM:0D50
ROM:0D50             animate_flashing_logo:
ROM:0D50 AF                          xor     a
ROM:0D51 32 41 80                    ld      (countdown_timer_1), a
ROM:0D54 32 1E 79                    ld      (obj_state_tbl+0x1E), a
ROM:0D57 11 60 0D                    ld      de, #loc_D60
ROM:0D5A DD 73 00                    ld      0(ix), e
ROM:0D5D DD 72 01                    ld      1(ix), d
ROM:0D60
ROM:0D60             loc_D60:
ROM:0D60 3A 01 80                    ld      a, (countup_timer_1)
ROM:0D63 E6 01                       and     #1
ROM:0D65 C2 FE 04                    jp      NZ, flash_insert_coin_and_check_credits
ROM:0D68 21 41 80                    ld      hl, #countdown_timer_1
ROM:0D6B 35                          dec     (hl)
ROM:0D6C 28 0E                       jr      Z, exit_attract_mode_title_screen
ROM:0D6E 7E                          ld      a, (hl)
ROM:0D6F E6 07                       and     #7
ROM:0D71 21 93 0C                    ld      hl, #xevious_flashing_logo_colour_tbl
ROM:0D74 D7                          rst     HL_plus_equals_A
ROM:0D75 7E                          ld      a, (hl)
ROM:0D76 CD 00 0A                    call    set_colour_xevious_flashing_logo
ROM:0D79 C3 FE 04                    jp      flash_insert_coin_and_check_credits
ROM:0D7C             ; ---------------------------------------------------------------------------
ROM:0D7C
ROM:0D7C             exit_attract_mode_title_screen:
ROM:0D7C CD 0B 07                    call    zero_obj_state_tbl
ROM:0D7F 3E 03                       ld      a, #3
ROM:0D81 32 28 80                    ld      (attract_mode_stage), a
ROM:0D84 11 F1 04                    ld      de, #attract_mode_main_loop
ROM:0D87 DD 73 00                    ld      0(ix), e
ROM:0D8A DD 72 01                    ld      1(ix), d
ROM:0D8D C3 FE 04                    jp      flash_insert_coin_and_check_credits
ROM:0D90             ; ---------------------------------------------------------------------------
ROM:0D90
ROM:0D90             attract_mode_gameplay:
ROM:0D90 AF                          xor     a
ROM:0D91 32 21 80                    ld      (curr_player), a
ROM:0D94 32 87 81                    ld      (area), a
ROM:0D97 32 88 81                    ld      (enemy_AI_level), a
ROM:0D9A 21 63 3F                    ld      hl, #area_offset_in_map_tbl
ROM:0D9D D7                          rst     HL_plus_equals_A
ROM:0D9E 7E                          ld      a, (hl)
ROM:0D9F 32 13 80                    ld      (area_offset_in_map), a
ROM:0DA2 21 00 0D                    ld      hl, #0xD00
ROM:0DA5 22 10 80                    ld      (scroll_cntr), hl
ROM:0DA8 AF                          xor     a
ROM:0DA9 21 00 A4                    ld      hl, #area_object_tbl_tbl_RAM
ROM:0DAC CF                          rst     HL_plus_equals_2A
ROM:0DAD 7E                          ld      a, (hl)
ROM:0DAE 32 85 81                    ld      (area_obj_ptr_lsb), a
ROM:0DB1 23                          inc     hl
ROM:0DB2 7E                          ld      a, (hl)
ROM:0DB3 32 86 81                    ld      (area_obj_ptr_msb), a
ROM:0DB6 CD 28 07                    call    clear_fg_to_transparent
ROM:0DB9 CD 62 07                    call    fill_bg_with_forest
ROM:0DBC CD 30 0E                    call    display_all_scores
ROM:0DBF CD F7 07                    call    display_copyright_msgs
ROM:0DC2 CD 40 0A                    call    display_xevious_logo_yellow
ROM:0DC5 AF                          xor     a
ROM:0DC6 32 2B 80                    ld      (num_flying_enemies), a
ROM:0DC9 32 2C 80                    ld      (flying_enemy_type_tbl_offset), a
ROM:0DCC 32 2D 80                    ld      (num_bacura), a
ROM:0DCF 32 22 84                    ld      (bacura_inc_cnt), a
ROM:0DD2 32 2A 80                    ld      (scroll_disabled), a
ROM:0DD5 11 DE 0D                    ld      de, #loc_DDE
ROM:0DD8 DD 73 00                    ld      0(ix), e
ROM:0DDB DD 72 01                    ld      1(ix), d
ROM:0DDE
ROM:0DDE             loc_DDE:
ROM:0DDE 3A 2A 80                    ld      a, (scroll_disabled)
ROM:0DE1 A7                          and     a
ROM:0DE2 20 03                       jr      NZ, exit_attract_mode_gameplay
ROM:0DE4 C3 FE 04                    jp      flash_insert_coin_and_check_credits
ROM:0DE7             ; ---------------------------------------------------------------------------
ROM:0DE7
ROM:0DE7             exit_attract_mode_gameplay:
ROM:0DE7 CD 0B 07                    call    zero_obj_state_tbl
ROM:0DEA 3A 28 80                    ld      a, (attract_mode_stage)
ROM:0DED 3C                          inc     a
ROM:0DEE 32 28 80                    ld      (attract_mode_stage), a
ROM:0DF1 11 F1 04                    ld      de, #attract_mode_main_loop
ROM:0DF4 DD 73 00                    ld      0(ix), e
ROM:0DF7 DD 72 01                    ld      1(ix), d
ROM:0DFA C3 FE 04                    jp      flash_insert_coin_and_check_credits
ROM:0DFD             ; ---------------------------------------------------------------------------
ROM:0DFD
ROM:0DFD             attract_mode_high_score_table:
ROM:0DFD CD 00 10                    call    flash_logo_and_high_score_table
ROM:0E00 3E 40                       ld      a, #0x40 ; '@'
ROM:0E02 32 41 80                    ld      (countdown_timer_1), a
ROM:0E05 11 0E 0E                    ld      de, #loc_E0E
ROM:0E08 DD 73 00                    ld      0(ix), e
ROM:0E0B DD 72 01                    ld      1(ix), d
ROM:0E0E
ROM:0E0E             loc_E0E:
ROM:0E0E 3A 01 80                    ld      a, (countup_timer_1)
ROM:0E11 E6 07                       and     #7
ROM:0E13 C2 01 05                    jp      NZ, check_credits
ROM:0E16 21 41 80                    ld      hl, #countdown_timer_1
ROM:0E19 35                          dec     (hl)
ROM:0E1A 28 03                       jr      Z, exit_attract_mode_high_score_table
ROM:0E1C C3 01 05                    jp      check_credits
ROM:0E1F             ; ---------------------------------------------------------------------------
ROM:0E1F
ROM:0E1F             exit_attract_mode_high_score_table:
ROM:0E1F 3E 01                       ld      a, #1
ROM:0E21 32 28 80                    ld      (attract_mode_stage), a
ROM:0E24 11 F1 04                    ld      de, #attract_mode_main_loop
ROM:0E27 DD 73 00                    ld      0(ix), e
ROM:0E2A DD 72 01                    ld      1(ix), d
ROM:0E2D C3 FE 04                    jp      flash_insert_coin_and_check_credits
ROM:0E30
ROM:0E30             ; =============== S U B R O U T I N E =======================================
ROM:0E30
ROM:0E30
ROM:0E30             display_all_scores:
ROM:0E30 CD 40 14                    call    display_high_score
ROM:0E33 CD 04 14                    call    display_player_scores
ROM:0E36 C3 21 13                    jp      display_high_score_text
ROM:0E36             ; End of function display_all_scores
ROM:0E36
ROM:0E39
ROM:0E39             ; =============== S U B R O U T I N E =======================================
ROM:0E39
ROM:0E39
ROM:0E39             calc_dX_dY_ratio:
ROM:0E39 C5                          push    bc
ROM:0E3A 4F                          ld      c, a
ROM:0E3B AF                          xor     a
ROM:0E3C 06 10                       ld      b, #0x10
ROM:0E3E
ROM:0E3E             loc_E3E:
ROM:0E3E 29                          add     hl, hl
ROM:0E3F 17                          rla
ROM:0E40 38 03                       jr      C, loc_E45
ROM:0E42 B9                          cp      c
ROM:0E43 38 02                       jr      C, loc_E47
ROM:0E45
ROM:0E45             loc_E45:
ROM:0E45 91                          sub     c
ROM:0E46 23                          inc     hl
ROM:0E47
ROM:0E47             loc_E47:
ROM:0E47 10 F5                       djnz    loc_E3E
ROM:0E49 C1                          pop     bc
ROM:0E4A C9                          ret
ROM:0E4A             ; End of function calc_dX_dY_ratio
ROM:0E4A
ROM:0E4B
ROM:0E4B             ; =============== S U B R O U T I N E =======================================
ROM:0E4B
ROM:0E4B
ROM:0E4B             get_index_for_angle:
ROM:0E4B E5                          push    hl
ROM:0E4C CD 5D 0E                    call    get_index_for_quadrant_angle
ROM:0E4F E1                          pop     hl
ROM:0E50 CB 7D                       bit     7, l
ROM:0E52 28 03                       jr      Z, loc_E57
ROM:0E54 2F                          cpl
ROM:0E55 C6 81                       add     a, #0x81 ; ''
ROM:0E57
ROM:0E57             loc_E57:
ROM:0E57 CB 7C                       bit     7, h
ROM:0E59 C8                          ret     Z
ROM:0E5A ED 44                       neg
ROM:0E5C C9                          ret
ROM:0E5C             ; End of function get_index_for_angle
ROM:0E5C
ROM:0E5D
ROM:0E5D             ; =============== S U B R O U T I N E =======================================
ROM:0E5D
ROM:0E5D
ROM:0E5D             get_index_for_quadrant_angle:
ROM:0E5D
ROM:0E5D             ; FUNCTION CHUNK AT ROM:0E77 SIZE 00000009 BYTES
ROM:0E5D
ROM:0E5D 7C                          ld      a, h
ROM:0E5E DF                          rst     abs_A
ROM:0E5F 67                          ld      h, a
ROM:0E60 7D                          ld      a, l
ROM:0E61 DF                          rst     abs_A
ROM:0E62 6F                          ld      l, a
ROM:0E63 BC                          cp      h
ROM:0E64 38 11                       jr      C, swap_for_large_small
ROM:0E64             ; End of function get_index_for_quadrant_angle
ROM:0E64
ROM:0E66
ROM:0E66             ; =============== S U B R O U T I N E =======================================
ROM:0E66
ROM:0E66
ROM:0E66             get_index_for_abs_angle:
ROM:0E66 2E 00                       ld      l, #0
ROM:0E68 CD 39 0E                    call    calc_dX_dY_ratio
ROM:0E6B 29                          add     hl, hl
ROM:0E6C 29                          add     hl, hl
ROM:0E6D 29                          add     hl, hl
ROM:0E6E 29                          add     hl, hl
ROM:0E6F 29                          add     hl, hl
ROM:0E70 7C                          ld      a, h
ROM:0E71 21 80 0E                    ld      hl, #octant_angle_tbl
ROM:0E74 D7                          rst     HL_plus_equals_A
ROM:0E75 7E                          ld      a, (hl)
ROM:0E76 C9                          ret
ROM:0E76             ; End of function get_index_for_abs_angle
ROM:0E76
ROM:0E77             ; ---------------------------------------------------------------------------
ROM:0E77             ; START OF FUNCTION CHUNK FOR get_index_for_quadrant_angle
ROM:0E77
ROM:0E77             swap_for_large_small:
ROM:0E77 7C                          ld      a, h
ROM:0E78 65                          ld      h, l
ROM:0E79 CD 66 0E                    call    get_index_for_abs_angle
ROM:0E7C 2F                          cpl
ROM:0E7D C6 41                       add     a, #0x41 ; 'A'
ROM:0E7F C9                          ret
ROM:0E7F             ; END OF FUNCTION CHUNK FOR get_index_for_quadrant_angle
ROM:0E7F             ; ---------------------------------------------------------------------------
ROM:0E80 00 01 03 04+octant_angle_tbl:.db 0, 1, 3, 4, 5, 6, 8, 9, 0xA, 0xB, 0xC, 0xD, 0xF, 0x10
ROM:0E80 05 06 08 09+                .db 0x11, 0x12, 0x13, 0x14, 0x15, 0x16, 0x17, 0x18, 0x19
ROM:0E80 0A 0B 0C 0D+                .db 0x19, 0x1A, 0x1B, 0x1C, 0x1D, 0x1D, 0x1E, 0x1F, 0x1F
ROM:0E80 0F 10 11 12+                .db 0x20
ROM:0EA1             ; ---------------------------------------------------------------------------
ROM:0EA1
ROM:0EA1             main_fn_6__sound_update:
ROM:0EA1 CD AB 0E                    call    sub_EAB
ROM:0EA4 CD BE 0E                    call    sub_EBE
ROM:0EA7 CD D1 0E                    call    sub_ED1
ROM:0EAA C9                          ret
ROM:0EAB
ROM:0EAB             ; =============== S U B R O U T I N E =======================================
ROM:0EAB
ROM:0EAB
ROM:0EAB             sub_EAB:
ROM:0EAB 3A 85 80                    ld      a, (byte_8085)
ROM:0EAE A7                          and     a
ROM:0EAF C8                          ret     Z
ROM:0EB0 21 80 80                    ld      hl, #unk_8080
ROM:0EB3 01 07 68                    ld      bc, #0x6807
ROM:0EB6 CD 12 01                    call    do_06xx_xfer
ROM:0EB9 AF                          xor     a
ROM:0EBA 32 85 80                    ld      (byte_8085), a
ROM:0EBD C9                          ret
ROM:0EBD             ; End of function sub_EAB
ROM:0EBD
ROM:0EBE
ROM:0EBE             ; =============== S U B R O U T I N E =======================================
ROM:0EBE
ROM:0EBE
ROM:0EBE             sub_EBE:
ROM:0EBE 3A 95 80                    ld      a, (byte_8095)
ROM:0EC1 A7                          and     a
ROM:0EC2 C8                          ret     Z
ROM:0EC3 21 90 80                    ld      hl, #unk_8090
ROM:0EC6 01 07 68                    ld      bc, #0x6807
ROM:0EC9 CD 12 01                    call    do_06xx_xfer
ROM:0ECC AF                          xor     a
ROM:0ECD 32 95 80                    ld      (byte_8095), a
ROM:0ED0 C9                          ret
ROM:0ED0             ; End of function sub_EBE
ROM:0ED0
ROM:0ED1
ROM:0ED1             ; =============== S U B R O U T I N E =======================================
ROM:0ED1
ROM:0ED1
ROM:0ED1             sub_ED1:
ROM:0ED1 3A A6 80                    ld      a, (byte_80A6)
ROM:0ED4 A7                          and     a
ROM:0ED5 C8                          ret     Z
ROM:0ED6 21 A0 80                    ld      hl, #unk_80A0
ROM:0ED9 01 08 68                    ld      bc, #0x6808
ROM:0EDC CD 12 01                    call    do_06xx_xfer
ROM:0EDF AF                          xor     a
ROM:0EE0 32 A6 80                    ld      (byte_80A6), a
ROM:0EE3 C9                          ret
ROM:0EE3             ; End of function sub_ED1
ROM:0EE3
ROM:0EE4
ROM:0EE4             ; =============== S U B R O U T I N E =======================================
ROM:0EE4
ROM:0EE4
ROM:0EE4             pseudo_random_gen:
ROM:0EE4 E5                          push    hl
ROM:0EE5 2A 08 80                    ld      hl, (pseudo_random_seed)
ROM:0EE8 7D                          ld      a, l
ROM:0EE9 87                          add     a, a
ROM:0EEA 87                          add     a, a
ROM:0EEB 85                          add     a, l
ROM:0EEC 3C                          inc     a
ROM:0EED 6F                          ld      l, a
ROM:0EEE 7C                          ld      a, h
ROM:0EEF E6 84                       and     #0x84 ; '„'
ROM:0EF1 28 04                       jr      Z, loc_EF7
ROM:0EF3 EE 84                       xor     #0x84 ; '„'
ROM:0EF5 20 01                       jr      NZ, loc_EF8
ROM:0EF7
ROM:0EF7             loc_EF7:
ROM:0EF7 37                          scf
ROM:0EF8
ROM:0EF8             loc_EF8:
ROM:0EF8 7C                          ld      a, h
ROM:0EF9 8F                          adc     a, a
ROM:0EFA 67                          ld      h, a
ROM:0EFB 85                          add     a, l
ROM:0EFC 22 08 80                    ld      (pseudo_random_seed), hl
ROM:0EFF E1                          pop     hl
ROM:0F00 C9                          ret
ROM:0F00             ; End of function pseudo_random_gen
ROM:0F00
ROM:0F01             ; *** START OF NEW/MOVED CODE
ROM:0F01
ROM:0F01             ; =============== S U B R O U T I N E =======================================
ROM:0F01
ROM:0F01
ROM:0F01             display_bcd_value:
ROM:0F01 C5                          push    bc
ROM:0F02 47                          ld      b, a
ROM:0F03 1A                          ld      a, (de)
ROM:0F04 0F                          rrca
ROM:0F05 0F                          rrca
ROM:0F06 0F                          rrca
ROM:0F07 0F                          rrca
ROM:0F08 E6 0F                       and     #0xF
ROM:0F0A 20 07                       jr      NZ, loc_F13
ROM:0F0C 05                          dec     b
ROM:0F0D 3E 24                       ld      a, #0x24 ; '$'
ROM:0F0F F2 15 0F                    jp      P, loc_F15
ROM:0F12 AF                          xor     a
ROM:0F13
ROM:0F13             loc_F13:
ROM:0F13 06 00                       ld      b, #0
ROM:0F15
ROM:0F15             loc_F15:
ROM:0F15 CD 2C 14                    call    display_char
ROM:0F18 1A                          ld      a, (de)
ROM:0F19 E6 0F                       and     #0xF
ROM:0F1B 20 07                       jr      NZ, loc_F24
ROM:0F1D 05                          dec     b
ROM:0F1E 3E 24                       ld      a, #0x24 ; '$'
ROM:0F20 F2 26 0F                    jp      P, loc_F26
ROM:0F23 AF                          xor     a
ROM:0F24
ROM:0F24             loc_F24:
ROM:0F24 06 00                       ld      b, #0
ROM:0F26
ROM:0F26             loc_F26:
ROM:0F26 CD 2C 14                    call    display_char
ROM:0F29 78                          ld      a, b
ROM:0F2A C1                          pop     bc
ROM:0F2B 1B                          dec     de
ROM:0F2C 10 D3                       djnz    display_bcd_value
ROM:0F2E C9                          ret
ROM:0F2E             ; End of function display_bcd_value
ROM:0F2E
ROM:0F2F
ROM:0F2F             ; =============== S U B R O U T I N E =======================================
ROM:0F2F
ROM:0F2F
ROM:0F2F             calc_screen_addr:
ROM:0F2F 3A 03 80                    ld      a, (flip_screen_flag)
ROM:0F32 25                          dec     h
ROM:0F33 A7                          and     a
ROM:0F34 3E 04                       ld      a, #4
ROM:0F36 28 03                       jr      Z, loc_F3B
ROM:0F38 25                          dec     h
ROM:0F39 3E 18                       ld      a, #0x18
ROM:0F3B
ROM:0F3B             loc_F3B:
ROM:0F3B 85                          add     a, l
ROM:0F3C E6 3F                       and     #0x3F ; '?'
ROM:0F3E 6F                          ld      l, a
ROM:0F3F 3E 03                       ld      a, #3
ROM:0F41 84                          add     a, h
ROM:0F42 0F                          rrca
ROM:0F43 0F                          rrca
ROM:0F44 67                          ld      h, a
ROM:0F45 E6 C0                       and     #0xC0 ; 'À'
ROM:0F47 B5                          or      l
ROM:0F48 6F                          ld      l, a
ROM:0F49 7C                          ld      a, h
ROM:0F4A E6 07                       and     #7
ROM:0F4C 81                          add     a, c
ROM:0F4D 67                          ld      h, a
ROM:0F4E C9                          ret
ROM:0F4E             ; End of function calc_screen_addr
ROM:0F4E
ROM:0F4F
ROM:0F4F             ; =============== S U B R O U T I N E =======================================
ROM:0F4F
ROM:0F4F
ROM:0F4F             handle_crosshairs:
ROM:0F4F 3A 42 79                    ld      a, (obj_state_tbl+0x42)
ROM:0F52 FE 02                       cp      #2
ROM:0F54 28 02                       jr      Z, loc_F58
ROM:0F56 3E 01                       ld      a, #1
ROM:0F58
ROM:0F58             loc_F58:
ROM:0F58 C6 1F                       add     a, #0x1F
ROM:0F5A 4F                          ld      c, a
ROM:0F5B 06 00                       ld      b, #0
ROM:0F5D 3A 01 80                    ld      a, (countup_timer_1)
ROM:0F60 E6 04                       and     #4
ROM:0F62 28 1B                       jr      Z, update_crosshair
ROM:0F64 ED 5B 44 82                 ld      de, (spriteram_2_shadow+0x44)
ROM:0F68 3A 45 83                    ld      a, (spriteram_3_shadow+0x45)
ROM:0F6B 1F                          rra
ROM:0F6C CB 1A                       rr      d
ROM:0F6E FD 21 04 79                 ld      iy, # obj_state_tbl+4
ROM:0F72 06 0E                       ld      b, #14
ROM:0F74
ROM:0F74             loc_F74:
ROM:0F74 CD 9B 0F                    call    check_targeted_ground_object
ROM:0F77 38 1C                       jr      C, set_active_crosshair_colour
ROM:0F79 FD 2C                       inc     yl
ROM:0F7B FD 2C                       inc     yl
ROM:0F7D 10 F5                       djnz    loc_F74
ROM:0F7F
ROM:0F7F             update_crosshair:
ROM:0F7F 79                          ld      a, c
ROM:0F80 80                          add     a, b
ROM:0F81 32 45 7C                    ld      (obj_code_tbl+0x45), a
ROM:0F84 3E F4                       ld      a, #0xF4 ; 'ô'
ROM:0F86 2A 46 7A                    ld      hl, (obj_x_tbl+0x46)
ROM:0F89 84                          add     a, h
ROM:0F8A 67                          ld      h, a
ROM:0F8B 22 44 7A                    ld      (obj_x_tbl+0x44), hl
ROM:0F8E 2A 46 7B                    ld      hl, (obj_y_tbl+0x46)
ROM:0F91 22 44 7B                    ld      (obj_y_tbl+0x44), hl
ROM:0F94 C9                          ret
ROM:0F95             ; ---------------------------------------------------------------------------
ROM:0F95
ROM:0F95             set_active_crosshair_colour:
ROM:0F95 06 09                       ld      b, #9
ROM:0F97 18 E6                       jr      update_crosshair
ROM:0F97             ; End of function handle_crosshairs
ROM:0F97
ROM:0F99             ; ---------------------------------------------------------------------------
ROM:0F99             ; START OF FUNCTION CHUNK FOR check_targeted_ground_object
ROM:0F99
ROM:0F99             loc_F99:
ROM:0F99 A7                          and     a
ROM:0F9A C9                          ret
ROM:0F9A             ; END OF FUNCTION CHUNK FOR check_targeted_ground_object
ROM:0F9B
ROM:0F9B             ; =============== S U B R O U T I N E =======================================
ROM:0F9B
ROM:0F9B
ROM:0F9B             check_targeted_ground_object:
ROM:0F9B
ROM:0F9B             ; FUNCTION CHUNK AT ROM:0F99 SIZE 00000002 BYTES
ROM:0F9B
ROM:0F9B 3E 02                       ld      a, #2
ROM:0F9D FD BE 00                    cp      0(iy)
ROM:0FA0 20 F7                       jr      NZ, loc_F99
ROM:0FA2 3E 09                       ld      a, #9
ROM:0FA4 FD 84                       add     a, yh
ROM:0FA6 67                          ld      h, a
ROM:0FA7 FD 7D                       ld      a, yl
ROM:0FA9 6F                          ld      l, a
ROM:0FAA 7B                          ld      a, e
ROM:0FAB 96                          sub     (hl)
ROM:0FAC D6 0A                       sub     #0xA
ROM:0FAE C6 14                       add     a, #0x14
ROM:0FB0 D0                          ret     NC
ROM:0FB1 2C                          inc     l
ROM:0FB2 24                          inc     h
ROM:0FB3 7E                          ld      a, (hl)
ROM:0FB4 1F                          rra
ROM:0FB5 25                          dec     h
ROM:0FB6 7E                          ld      a, (hl)
ROM:0FB7 1F                          rra
ROM:0FB8 92                          sub     d
ROM:0FB9 D6 05                       sub     #5
ROM:0FBB C6 0A                       add     a, #0xA
ROM:0FBD C9                          ret
ROM:0FBD             ; End of function check_targeted_ground_object
ROM:0FBD
ROM:0FBD             ; END OF NEW/MOVED CODE
ROM:0FBE
ROM:0FBE             ; =============== S U B R O U T I N E =======================================
ROM:0FBE
ROM:0FBE
ROM:0FBE             display_solvalou_left:
ROM:0FBE 3A 83 81                    ld      a, (curr_player_solvalou_left)
ROM:0FC1 A7                          and     a
ROM:0FC2 C8                          ret     Z
ROM:0FC3 47                          ld      b, a
ROM:0FC4 C5                          push    bc
ROM:0FC5 3E 25                       ld      a, #0x25 ; '%'
ROM:0FC7 21 23 1B                    ld      hl, #0x1B23
ROM:0FCA E5                          push    hl
ROM:0FCB 0E C0                       ld      c, #0xC0 ; 'À'
ROM:0FCD CD 3A 14                    call    display_char_B_times
ROM:0FD0 E1                          pop     hl
ROM:0FD1 C1                          pop     bc
ROM:0FD2 0E B0                       ld      c, #0xB0 ; '°'
ROM:0FD4 3E 2A                       ld      a, #0x2A ; '*'
ROM:0FD6 C3 3A 14                    jp      display_char_B_times
ROM:0FD6             ; End of function display_solvalou_left
ROM:0FD6
ROM:0FD6             ; ---------------------------------------------------------------------------
ROM:0FD9 FF FF FF FF+                .db 0xFF, 0xFF, 0xFF, 0xFF, 0xFF, 0xFF, 0xFF, 0xFF, 0xFF
ROM:0FD9 FF FF FF FF+                .db 0xFF, 0xFF, 0xFF, 0xFF, 0xFF, 0xFF, 0xFF, 0xFF, 0xFF
ROM:0FD9 FF FF FF FF+                .db 0xFF, 0xFF, 0xFF, 0xFF, 0xFF, 0xFF, 0xFF, 0xFF, 0xFF
ROM:0FD9 FF FF FF FF+                .db 0xFF, 0xFF, 0xFF, 0xFF, 0xFF, 0xFF, 0xFF, 0xFF, 0xFF
ROM:0FD9 FF FF FF FF+                .db 0xFF, 0xFF, 0x57
ROM:1000
ROM:1000             ; =============== S U B R O U T I N E =======================================
ROM:1000
ROM:1000
ROM:1000             flash_logo_and_high_score_table:
ROM:1000 CD 28 07                    call    clear_fg_to_transparent
ROM:1003 CD 45 07                    call    clear_bg_to_black
ROM:1006 CD E1 08                    call    display_xevious_logo_flashing
ROM:1009 18 06                       jr      display_high_score_table
ROM:1009             ; End of function flash_logo_and_high_score_table
ROM:1009
ROM:100B
ROM:100B             ; =============== S U B R O U T I N E =======================================
ROM:100B
ROM:100B
ROM:100B             cls_display_high_score_table:
ROM:100B CD 28 07                    call    clear_fg_to_transparent
ROM:100E CD 62 07                    call    fill_bg_with_forest
ROM:1011
ROM:1011             display_high_score_table:
ROM:1011 CD 04 14                    call    display_player_scores
ROM:1014 CD 21 13                    call    display_high_score_text
ROM:1017 CD 40 14                    call    display_high_score
ROM:101A 21 15 16                    ld      hl, #0x1615
ROM:101D 11 E6 10                    ld      de, #strBest_Five_GOULZEHG              ; *** DIFFERENT
ROM:1020 0E C0                       ld      c, #0xC0 ; 'À'
ROM:1022 06 12                       ld      b, #0x12
ROM:1024 CD FC 13                    call    display_string
ROM:1027 2E 18                       ld      l, #0x18
ROM:1029 3A AA 80                    ld      a, (byte_80AA)                          ; *** DIFFERENT
ROM:102C 67                          ld      h, a
ROM:102D 11 F8 10                    ld      de, #str1st
ROM:1030 06 03                       ld      b, #3
ROM:1032 CD FC 13                    call    display_string
ROM:1035 3A AB 80                    ld      a, (byte_80AB)                          ; *** DIFFERENT
ROM:1038 67                          ld      h, a
ROM:1039 11 12 85                    ld      de, #high_score_1st_msb
ROM:103C CD 24 14                    call    display_score
ROM:103F 3A AC 80                    ld      a, (byte_80AC)                          ; *** DIFFERENT
ROM:1042 67                          ld      h, a
ROM:1043 11 13 85                    ld      de, #high_score_1st_name
ROM:1046 3A AD 80                    ld      a, (byte_80AD)                          ; *** DIFFERENT
ROM:1049 47                          ld      b, a
ROM:104A CD FC 13                    call    display_string
ROM:104D 2E 1A                       ld      l, #0x1A
ROM:104F 3A AA 80                    ld      a, (byte_80AA)                          ; *** DIFFERENT
ROM:1052 67                          ld      h, a
ROM:1053 11 FB 10                    ld      de, #str2nd
ROM:1056 06 03                       ld      b, #3
ROM:1058 CD FC 13                    call    display_string
ROM:105B 3A AB 80                    ld      a, (byte_80AB)                          ; *** DIFFERENT
ROM:105E 67                          ld      h, a
ROM:105F 11 22 85                    ld      de, #high_score_2nd_msb
ROM:1062 CD 24 14                    call    display_score
ROM:1065 3A AC 80                    ld      a, (byte_80AC)                          ; *** DIFFERENT
ROM:1068 67                          ld      h, a
ROM:1069 11 23 85                    ld      de, #high_score_2nd_name
ROM:106C 3A AD 80                    ld      a, (byte_80AD)                          ; *** DIFFERENT
ROM:106F 47                          ld      b, a
ROM:1070 CD FC 13                    call    display_string
ROM:1073 2E 1C                       ld      l, #0x1C
ROM:1075 3A AA 80                    ld      a, (byte_80AA)                          ; *** DIFFERENT
ROM:1078 67                          ld      h, a
ROM:1079 11 FE 10                    ld      de, #str3rd
ROM:107C 06 03                       ld      b, #3
ROM:107E CD FC 13                    call    display_string
ROM:1081 3A AB 80                    ld      a, (byte_80AB)                          ; *** DIFFERENT
ROM:1084 67                          ld      h, a
ROM:1085 11 32 85                    ld      de, #high_score_3rd_msb
ROM:1088 CD 24 14                    call    display_score
ROM:108B 3A AC 80                    ld      a, (byte_80AC)                          ; *** DIFFERENT
ROM:108E 67                          ld      h, a
ROM:108F 11 33 85                    ld      de, #high_score_3rd_name
ROM:1092 3A AD 80                    ld      a, (byte_80AD)                          ; *** DIFFERENT
ROM:1095 47                          ld      b, a
ROM:1096 CD FC 13                    call    display_string
ROM:1099 2E 1E                       ld      l, #0x1E
ROM:109B 3A AA 80                    ld      a, (byte_80AA)                          ; *** DIFFERENT
ROM:109E 67                          ld      h, a
ROM:109F 11 01 11                    ld      de, #str4th
ROM:10A2 06 03                       ld      b, #3
ROM:10A4 CD FC 13                    call    display_string
ROM:10A7 3A AB 80                    ld      a, (byte_80AB)                          ; *** DIFFERENT
ROM:10AA 67                          ld      h, a
ROM:10AB 11 42 85                    ld      de, #high_score_4th_msb
ROM:10AE CD 24 14                    call    display_score
ROM:10B1 3A AC 80                    ld      a, (byte_80AC)                          ; *** DIFFERENT
ROM:10B4 67                          ld      h, a
ROM:10B5 11 43 85                    ld      de, #high_score_4th_name
ROM:10B8 3A AD 80                    ld      a, (byte_80AD)                          ; *** DIFFERENT
ROM:10BB 47                          ld      b, a
ROM:10BC CD FC 13                    call    display_string
ROM:10BF 2E 20                       ld      l, #0x20 ; ' '
ROM:10C1 3A AA 80                    ld      a, (byte_80AA)                          ; *** DIFFERENT
ROM:10C4 67                          ld      h, a
ROM:10C5 11 04 11                    ld      de, #str5th
ROM:10C8 06 03                       ld      b, #3
ROM:10CA CD FC 13                    call    display_string
ROM:10CD 3A AB 80                    ld      a, (byte_80AB)                          ; *** DIFFERENT
ROM:10D0 67                          ld      h, a
ROM:10D1 11 52 85                    ld      de, #high_score_5th_msb
ROM:10D4 CD 24 14                    call    display_score
ROM:10D7 3A AC 80                    ld      a, (byte_80AC)                          ; *** DIFFERENT
ROM:10DA 67                          ld      h, a
ROM:10DB 11 53 85                    ld      de, #high_score_5th_name
ROM:10DE 3A AD 80                    ld      a, (byte_80AD)                          ; *** DIFFERENT
ROM:10E1 47                          ld      b, a
ROM:10E2 CD FC 13                    call    display_string
ROM:10E5 C9                          ret
ROM:10E5             ; End of function cls_display_high_score_table
ROM:10E5
ROM:10E5             ; ---------------------------------------------------------------------------
ROM:10E6 0B 3A 48 49+strBest_Five_GOULZEHG:.db 0xB, 0x3A, 0x48, 0x49, 0x24, 0xF, 0x3E, 0x4B, 0x3A
ROM:10E6 24 0F 3E 4B+                .db 0x24, 0x10, 0x18, 0x1E, 0x15, 0x23, 0xE, 0x11, 0x10
ROM:10F8 01 48 49    str1st:         .db 1, 0x48, 0x49
ROM:10FB 02 43 39    str2nd:         .db 2, 0x43, 0x39
ROM:10FE 03 47 39    str3rd:         .db 3, 0x47, 0x39
ROM:1101 04 49 3D    str4th:         .db 4, 0x49, 0x3D
ROM:1104 05 49 3D    str5th:         .db 5, 0x49, 0x3D
ROM:1107
ROM:1107             ; =============== S U B R O U T I N E =======================================
ROM:1107
ROM:1107
ROM:1107             init_high_score_table:
ROM:1107 21 21 11                    ld      hl, #ROM_high_score_tbl
ROM:110A 11 10 85                    ld      de, #high_score_1st_lsb
ROM:110D 01 50 00                    ld      bc, #0x50 ; 'P'
ROM:1110 ED B0                       ldir
ROM:1112 21 1E 11                    ld      hl, #ROM_high_score
ROM:1115 11 24 80                    ld      de, #RAM_high_score
ROM:1118 01 03 00                    ld      bc, #3
ROM:111B ED B0                       ldir
ROM:111D C9                          ret
ROM:111D             ; End of function init_high_score_table
ROM:111D
ROM:111D             ; ---------------------------------------------------------------------------
ROM:111E 00 40 00    ROM_high_score: .db 0, 0x40, 0
ROM:1121 00 40 00 36+ROM_high_score_tbl:.db 0, 0x40, 0, 0x36, 0x43, 0x39, 0x47, 0x44, 0x3E, 0x39
ROM:1121 43 39 47 44+                .db 0xE, 0x1F, 0xE, 0, 0, 0
ROM:1131 00 35 00 16+                .db 0, 0x35, 0, 0x16, 0x3E, 0x48, 0x36, 0x49, 0x44, 0x24
ROM:1131 3E 48 36 49+                .db 0x16, 0x50, 0x24, 0, 0, 0
ROM:1141 00 30 00 1C+                .db 0, 0x30, 0, 0x1C, 0x36, 0x4E, 0x36, 0x40, 0x36, 0x24
ROM:1141 36 4E 36 40+                .db 0x16, 0x50, 0x24, 0, 0, 0
ROM:1151 00 25 00 16+                .db 0, 0x25, 0, 0x16, 0x3E, 0x44, 0x24, 0x1F, 0x3A, 0x3A
ROM:1151 3E 44 24 1F+                .db 0x49, 0x3D, 0x36, 0, 0, 0
ROM:1161 00 20 00 0F+                .db 0, 0x20, 0, 0xF, 0x3E, 0x41, 0x3E, 0x3A, 0x47, 0x24
ROM:1161 3E 41 3E 3A+                .db 0x1D, 0x50, 0x24, 0, 0, 0
ROM:1171             ; ---------------------------------------------------------------------------
ROM:1171
ROM:1171             check_for_high_score:
ROM:1171 21 80 81                    ld      hl, #curr_player_score_lsb
ROM:1174 11 00 85                    ld      de, #RAM_test_result_final_score
ROM:1177 01 03 00                    ld      bc, #3
ROM:117A ED B0                       ldir
ROM:117C EB                          ex      de, hl
ROM:117D 11 04 85                    ld      de, # name_buffer+1
ROM:1180 36 24                       ld      (hl), #0x24 ; '$'
ROM:1182 01 09 00                    ld      bc, #9
ROM:1185 ED B0                       ldir
ROM:1187 06 05                       ld      b, #5
ROM:1189
ROM:1189             compare_high_score_entry:
ROM:1189 21 00 85                    ld      hl, #RAM_test_result_final_score
ROM:118C 78                          ld      a, b
ROM:118D 87                          add     a, a
ROM:118E 87                          add     a, a
ROM:118F 87                          add     a, a
ROM:1190 87                          add     a, a
ROM:1191 4F                          ld      c, a
ROM:1192 C6 02                       add     a, #2
ROM:1194 D7                          rst     HL_plus_equals_A
ROM:1195 11 02 85                    ld      de, # RAM_test_result_final_score+2
ROM:1198 1A                          ld      a, (de)
ROM:1199 BE                          cp      (hl)
ROM:119A 38 23                       jr      C, score_lower_than_entry
ROM:119C 20 0E                       jr      NZ, move_high_score_entry_down
ROM:119E 2D                          dec     l
ROM:119F 1D                          dec     e
ROM:11A0 1A                          ld      a, (de)
ROM:11A1 BE                          cp      (hl)
ROM:11A2 38 1B                       jr      C, score_lower_than_entry
ROM:11A4 20 06                       jr      NZ, move_high_score_entry_down
ROM:11A6 2D                          dec     l
ROM:11A7 1D                          dec     e
ROM:11A8 1A                          ld      a, (de)
ROM:11A9 BE                          cp      (hl)
ROM:11AA 38 13                       jr      C, score_lower_than_entry
ROM:11AC
ROM:11AC             move_high_score_entry_down:
ROM:11AC 21 00 85                    ld      hl, #RAM_test_result_final_score
ROM:11AF 79                          ld      a, c
ROM:11B0 D7                          rst     HL_plus_equals_A
ROM:11B1 54                          ld      d, h
ROM:11B2 7D                          ld      a, l
ROM:11B3 C6 10                       add     a, #0x10
ROM:11B5 5F                          ld      e, a
ROM:11B6 C5                          push    bc
ROM:11B7 01 10 00                    ld      bc, #16
ROM:11BA ED B0                       ldir
ROM:11BC C1                          pop     bc
ROM:11BD 10 CA                       djnz    compare_high_score_entry
ROM:11BF
ROM:11BF             score_lower_than_entry:
ROM:11BF 78                          ld      a, b
ROM:11C0 32 46 80                    ld      (new_high_score_entry_index), a
ROM:11C3 FE 05                       cp      #5
ROM:11C5 CA 69 06                    jp      Z, game_over
ROM:11C8 21 10 85                    ld      hl, #high_score_1st_lsb
ROM:11CB 07                          rlca
ROM:11CC 07                          rlca
ROM:11CD 07                          rlca
ROM:11CE 07                          rlca
ROM:11CF D7                          rst     HL_plus_equals_A
ROM:11D0 EB                          ex      de, hl
ROM:11D1 21 00 85                    ld      hl, #RAM_test_result_final_score
ROM:11D4 01 10 00                    ld      bc, #0x10
ROM:11D7 ED B0                       ldir
ROM:11D9 CD 0B 10                    call    cls_display_high_score_table
ROM:11DC CD D2 12                    call    display_high_score_entry_screen
ROM:11DF 26 19                       ld      h, #0x19
ROM:11E1 3A 46 80                    ld      a, (new_high_score_entry_index)
ROM:11E4 87                          add     a, a
ROM:11E5 C6 18                       add     a, #0x18
ROM:11E7 6F                          ld      l, a
ROM:11E8 06 18                       ld      b, #24
ROM:11EA 0E B0                       ld      c, #0xB0 ; '°'
ROM:11EC 3E 1B                       ld      a, #0x1B
ROM:11EE CD 3A 14                    call    display_char_B_times
ROM:11F1 5D                          ld      e, l
ROM:11F2 3A AC 80                    ld      a, (byte_80AC)
ROM:11F5 57                          ld      d, a
ROM:11F6 21 13 85                    ld      hl, #high_score_1st_name
ROM:11F9 3A 46 80                    ld      a, (new_high_score_entry_index)
ROM:11FC 87                          add     a, a
ROM:11FD 87                          add     a, a
ROM:11FE 87                          add     a, a
ROM:11FF 87                          add     a, a
ROM:1200 85                          add     a, l
ROM:1201 6F                          ld      l, a
ROM:1202 3A AD 80                    ld      a, (byte_80AD)                          ; *** DIFFERENT
ROM:1205 32 4D 80                    ld      (name_entry_char_cnt), a
ROM:1208 3E 80                       ld      a, #0x80 ; '€'
ROM:120A 32 41 80                    ld      (countdown_timer_1), a
ROM:120D ED 53 50 80                 ld      (name_entry_curr_char_screen_offset), de
ROM:1211 22 52 80                    ld      (name_entry_ptr_curr_char), hl
ROM:1214 F7                          rst     save_PC_to_fn_tbl_and_ret
ROM:1215 3A 00 A0                    ld      a, (unk_A000)
ROM:1218 A7                          and     a
ROM:1219 20 78                       jr      NZ, name_entry_finished
ROM:121B 3A 46 80                    ld      a, (new_high_score_entry_index)
ROM:121E A7                          and     a
ROM:121F 28 02                       jr      Z, loc_1223
ROM:1221 3E 01                       ld      a, #1
ROM:1223
ROM:1223             loc_1223:
ROM:1223 21 02 A0                    ld      hl, #highest_score_snd
ROM:1226 D7                          rst     HL_plus_equals_A
ROM:1227 36 01                       ld      (hl), #1
ROM:1229 3A 20 80                    ld      a, (cocktail)
ROM:122C A7                          and     a
ROM:122D 21 19 80                    ld      hl, #P1_inputs
ROM:1230 28 04                       jr      Z, loc_1236
ROM:1232 3A 21 80                    ld      a, (curr_player)
ROM:1235 D7                          rst     HL_plus_equals_A
ROM:1236
ROM:1236             loc_1236:
ROM:1236 CB 66                       bit     4, (hl)
ROM:1238 28 41                       jr      Z, name_entry_append_char
ROM:123A CD B0 12                    call    check_lowercase
ROM:123D 2A 50 80                    ld      hl, (name_entry_curr_char_screen_offset)
ROM:1240 0E C0                       ld      c, #0xC0 ; 'À'
ROM:1242 CD 2C 14                    call    display_char
ROM:1245 3A 01 80                    ld      a, (countup_timer_1)
ROM:1248 4F                          ld      c, a
ROM:1249 E6 07                       and     #7
ROM:124B C0                          ret     NZ
ROM:124C 79                          ld      a, c
ROM:124D E6 1F                       and     #0x1F
ROM:124F 20 06                       jr      NZ, loc_1257
ROM:1251 21 41 80                    ld      hl, #countdown_timer_1
ROM:1254 35                          dec     (hl)
ROM:1255 28 3C                       jr      Z, name_entry_finished
ROM:1257
ROM:1257             loc_1257:
ROM:1257 3A 20 80                    ld      a, (cocktail)
ROM:125A A7                          and     a
ROM:125B 21 19 80                    ld      hl, #P1_inputs
ROM:125E 28 04                       jr      Z, loc_1264
ROM:1260 3A 21 80                    ld      a, (curr_player)
ROM:1263 D7                          rst     HL_plus_equals_A
ROM:1264
ROM:1264             loc_1264:
ROM:1264 7E                          ld      a, (hl)
ROM:1265 E6 0F                       and     #0xF
ROM:1267 FE 02                       cp      #2
ROM:1269 28 38                       jr      Z, name_entry_inc_char
ROM:126B FE 06                       cp      #6
ROM:126D C0                          ret     NZ
ROM:126E 2A 52 80                    ld      hl, (name_entry_ptr_curr_char)
ROM:1271 7E                          ld      a, (hl)
ROM:1272 3D                          dec     a
ROM:1273 FE 09                       cp      #9
ROM:1275 20 02                       jr      NZ, loc_1279
ROM:1277 3E 24                       ld      a, #0x24 ; '$'
ROM:1279
ROM:1279             loc_1279:
ROM:1279 77                          ld      (hl), a
ROM:127A C9                          ret
ROM:127B             ; ---------------------------------------------------------------------------
ROM:127B
ROM:127B             name_entry_append_char:
ROM:127B CD B0 12                    call    check_lowercase
ROM:127E 77                          ld      (hl), a
ROM:127F 23                          inc     hl
ROM:1280 22 52 80                    ld      (name_entry_ptr_curr_char), hl
ROM:1283 2A 50 80                    ld      hl, (name_entry_curr_char_screen_offset)
ROM:1286 0E C0                       ld      c, #0xC0 ; 'À'
ROM:1288 CD 2C 14                    call    display_char
ROM:128B 22 50 80                    ld      (name_entry_curr_char_screen_offset), hl
ROM:128E 21 4D 80                    ld      hl, #name_entry_char_cnt
ROM:1291 35                          dec     (hl)
ROM:1292 C0                          ret     NZ
ROM:1293
ROM:1293             name_entry_finished:
ROM:1293 AF                          xor     a
ROM:1294 32 02 A0                    ld      (highest_score_snd), a
ROM:1297 32 03 A0                    ld      (high_score_snd), a
ROM:129A 32 16 A0                    ld      (unk_A016), a
ROM:129D 32 17 A0                    ld      (unk_A017), a
ROM:12A0 C3 69 06                    jp      game_over
ROM:12A3             ; ---------------------------------------------------------------------------
ROM:12A3
ROM:12A3             name_entry_inc_char:
ROM:12A3 2A 52 80                    ld      hl, (name_entry_ptr_curr_char)
ROM:12A6 7E                          ld      a, (hl)
ROM:12A7 3C                          inc     a
ROM:12A8 FE 25                       cp      #0x25 ; '%'
ROM:12AA 20 02                       jr      NZ, loc_12AE
ROM:12AC 3E 0A                       ld      a, #0xA
ROM:12AE
ROM:12AE             loc_12AE:
ROM:12AE 77                          ld      (hl), a
ROM:12AF C9                          ret
ROM:12B0
ROM:12B0             ; =============== S U B R O U T I N E =======================================
ROM:12B0
ROM:12B0
ROM:12B0             check_lowercase:
ROM:12B0 3A 20 80                    ld      a, (cocktail)
ROM:12B3 A7                          and     a
ROM:12B4 3A 16 80                    ld      a, (dswb)
ROM:12B7 28 0D                       jr      Z, loc_12C6
ROM:12B9 3A 21 80                    ld      a, (curr_player)
ROM:12BC A7                          and     a
ROM:12BD 3A 16 80                    ld      a, (dswb)
ROM:12C0 28 04                       jr      Z, loc_12C6
ROM:12C2 0F                          rrca
ROM:12C3 0F                          rrca
ROM:12C4 0F                          rrca
ROM:12C5 0F                          rrca
ROM:12C6
ROM:12C6             loc_12C6:
ROM:12C6 0F                          rrca
ROM:12C7 3E 00                       ld      a, #0
ROM:12C9 38 02                       jr      C, loc_12CD
ROM:12CB 3E 2C                       ld      a, #0x2C ; ','
ROM:12CD
ROM:12CD             loc_12CD:
ROM:12CD 2A 52 80                    ld      hl, (name_entry_ptr_curr_char)
ROM:12D0 86                          add     a, (hl)
ROM:12D1 C9                          ret
ROM:12D1             ; End of function check_lowercase
ROM:12D1
ROM:12D2
ROM:12D2             ; =============== S U B R O U T I N E =======================================
ROM:12D2
ROM:12D2
ROM:12D2             display_high_score_entry_screen:
ROM:12D2 21 09 15                    ld      hl, #0x1509
ROM:12D5 11 FE 12                    ld      de, #strCONGRATULATIONS
ROM:12D8 0E C0                       ld      c, #0xC0 ; 'À'
ROM:12DA 06 10                       ld      b, #16
ROM:12DC CD FC 13                    call    display_string
ROM:12DF 21 0C 16                    ld      hl, #0x160C
ROM:12E2 11 0E 13                    ld      de, #strENTER_YOUR_INITIAL
ROM:12E5 06 12                       ld      b, #18
ROM:12E7 CD FC 13                    call    display_string
ROM:12EA 0E B0                       ld      c, #0xB0 ; '°'
ROM:12EC 21 09 15                    ld      hl, #0x1509
ROM:12EF 3E 1A                       ld      a, #0x1A
ROM:12F1 06 10                       ld      b, #0x10
ROM:12F3 CD 3A 14                    call    display_char_B_times
ROM:12F6 21 0C 17                    ld      hl, #0x170C
ROM:12F9 06 13                       ld      b, #19
ROM:12FB C3 3A 14                    jp      display_char_B_times
ROM:12FB             ; End of function display_high_score_entry_screen
ROM:12FB
ROM:12FB             ; ---------------------------------------------------------------------------
ROM:12FE 0C 18 17 10+strCONGRATULATIONS:.db 0xC, 0x18, 0x17, 0x10, 0x1B, 0xA, 0x1D, 0x1E, 0x15
ROM:12FE 1B 0A 1D 1E+                .db 0xA, 0x1D, 0x12, 0x18, 0x17, 0x1C, 0x2C
ROM:130E 0E 17 1D 0E+strENTER_YOUR_INITIAL:.db 0xE, 0x17, 0x1D, 0xE, 0x1B, 0x24, 0x22, 0x18, 0x1E
ROM:130E 1B 24 22 18+                .db 0x1B, 0x24, 0x12, 0x17, 0x12, 0x1D, 0x12, 0xA, 0x15
ROM:130E 1E 1B 24 12+                .db 0x1C
ROM:1321
ROM:1321             ; =============== S U B R O U T I N E =======================================
ROM:1321
ROM:1321
ROM:1321             display_high_score_text:
ROM:1321 21 00 12                    ld      hl, #0x1200
ROM:1324 11 73 3F                    ld      de, #strHIGH_SCORE
ROM:1327 06 0A                       ld      b, #10
ROM:1329 0E C0                       ld      c, #0xC0 ; 'À'
ROM:132B CD FC 13                    call    display_string
ROM:132E 21 00 12                    ld      hl, #0x1200
ROM:1331 06 0A                       ld      b, #10
ROM:1333 3E 1F                       ld      a, #0x1F
ROM:1335 0E B0                       ld      c, #0xB0 ; '°'
ROM:1337 CD 3A 14                    call    display_char_B_times
ROM:133A C9                          ret
ROM:133A             ; End of function display_high_score_text
ROM:133A
ROM:133B
ROM:133B             ; =============== S U B R O U T I N E =======================================
ROM:133B
ROM:133B
ROM:133B             set_score_to_9999990:
ROM:133B 01 99 03                    ld      bc, #0x399
ROM:133E
ROM:133E             loc_133E:
ROM:133E 2B                          dec     hl
ROM:133F 71                          ld      (hl), c
ROM:1340 10 FC                       djnz    loc_133E
ROM:1342 C9                          ret
ROM:1342             ; End of function set_score_to_9999990
ROM:1342
ROM:1343
ROM:1343             ; =============== S U B R O U T I N E =======================================
ROM:1343
ROM:1343
ROM:1343             check_1_2_for_new_high_score_and_update:
ROM:1343 11 82 81                    ld      de, #curr_player_score_msb
ROM:1346 CD 4C 13                    call    check_for_new_high_score_and_update
ROM:1349 11 C2 81                    ld      de, #other_player_score_msb
ROM:1349             ; End of function check_1_2_for_new_high_score_and_update
ROM:1349
ROM:134C
ROM:134C             ; =============== S U B R O U T I N E =======================================
ROM:134C
ROM:134C
ROM:134C             check_for_new_high_score_and_update:
ROM:134C 21 26 80                    ld      hl, #high_score_msb
ROM:134F 06 03                       ld      b, #3
ROM:1351
ROM:1351             check_new_high_score:
ROM:1351 1A                          ld      a, (de)
ROM:1352 BE                          cp      (hl)
ROM:1353 D8                          ret     C
ROM:1354 20 05                       jr      NZ, update_high_score
ROM:1356 1B                          dec     de
ROM:1357 2B                          dec     hl
ROM:1358 10 F7                       djnz    check_new_high_score
ROM:135A C9                          ret
ROM:135B             ; ---------------------------------------------------------------------------
ROM:135B
ROM:135B             update_high_score:
ROM:135B 1A                          ld      a, (de)
ROM:135C 77                          ld      (hl), a
ROM:135D 1B                          dec     de
ROM:135E 2B                          dec     hl
ROM:135F 10 FA                       djnz    update_high_score
ROM:1361 3A 21 80                    ld      a, (curr_player)
ROM:1364 3C                          inc     a
ROM:1365 32 27 80                    ld      (unk_8027), a
ROM:1368 CD 40 14                    call    display_high_score
ROM:136B C9                          ret
ROM:136B             ; End of function check_for_new_high_score_and_update
ROM:136B
ROM:136C             ; ---------------------------------------------------------------------------
ROM:136C             ; START OF FUNCTION CHUNK FOR HL_plus_equals_2A
ROM:136C
ROM:136C             check_for_extra_solvalou:
ROM:136C CD 04 14                    call    display_player_scores
ROM:136F             ; missing: call protection_check
ROM:136F 3A 8C 81                    ld      a, (bonus_life_none)
ROM:1372 A7                          and     a
ROM:1373 C0                          ret     NZ
ROM:1374 ED 5B 89 81                 ld      de, (next_bonus_life_Ks)
ROM:1378 2A 81 81                    ld      hl, (curr_player_score_Ks)
ROM:137B A7                          and     a
ROM:137C ED 52                       sbc     hl, de
ROM:137E 19                          add     hl, de
ROM:137F D8                          ret     C
ROM:1380 3A 17 80                    ld      a, (dswa_0115)
ROM:1383 07                          rlca
ROM:1384 07                          rlca
ROM:1385 07                          rlca
ROM:1386 E6 03                       and     #3
ROM:1388 28 02                       jr      Z, loc_138C
ROM:138A 3E 01                       ld      a, #1
ROM:138C
ROM:138C             loc_138C:
ROM:138C 21 D8 13                    ld      hl, #bonus_tbl_ptrs
ROM:138F CF                          rst     HL_plus_equals_2A
ROM:1390 5E                          ld      e, (hl)
ROM:1391 23                          inc     hl
ROM:1392 56                          ld      d, (hl)
ROM:1393 EB                          ex      de, hl
ROM:1394 3A 17 80                    ld      a, (dswa_0115)
ROM:1397 2F                          cpl
ROM:1398 0F                          rrca
ROM:1399 0F                          rrca
ROM:139A E6 07                       and     #7
ROM:139C CF                          rst     HL_plus_equals_2A
ROM:139D 5E                          ld      e, (hl)
ROM:139E 23                          inc     hl
ROM:139F 56                          ld      d, (hl)
ROM:13A0 2A 89 81                    ld      hl, (next_bonus_life_Ks)
ROM:13A3 A7                          and     a
ROM:13A4 ED 52                       sbc     hl, de
ROM:13A6 19                          add     hl, de
ROM:13A7 38 29                       jr      C, update_next_bonus_life_Ks
ROM:13A9 3A 17 80                    ld      a, (dswa_0115)
ROM:13AC 2F                          cpl
ROM:13AD 0F                          rrca
ROM:13AE 0F                          rrca
ROM:13AF E6 07                       and     #7
ROM:13B1 FE 06                       cp      #6
ROM:13B3 20 05                       jr      NZ, loc_13BA
ROM:13B5 3E 01                       ld      a, #1
ROM:13B7 32 8C 81                    ld      (bonus_life_none), a
ROM:13BA
ROM:13BA             loc_13BA:
ROM:13BA 7D                          ld      a, l
ROM:13BB 83                          add     a, e
ROM:13BC 27                          daa
ROM:13BD 6F                          ld      l, a
ROM:13BE 7C                          ld      a, h
ROM:13BF 8A                          adc     a, d
ROM:13C0 27                          daa
ROM:13C1 67                          ld      h, a
ROM:13C2 22 89 81                    ld      (next_bonus_life_Ks), hl
ROM:13C5
ROM:13C5             award_extra_solvalou:
ROM:13C5 3A 83 81                    ld      a, (curr_player_solvalou_left)
ROM:13C8 3C                          inc     a
ROM:13C9 32 83 81                    ld      (curr_player_solvalou_left), a
ROM:13CC 32 04 A0                    ld      (extra_solvalou_snd), a
ROM:13CF C3 BE 0F                    jp      display_solvalou_left
ROM:13D2             ; ---------------------------------------------------------------------------
ROM:13D2
ROM:13D2             update_next_bonus_life_Ks:
ROM:13D2 ED 53 89 81                 ld      (next_bonus_life_Ks), de
ROM:13D6 18 ED                       jr      award_extra_solvalou
ROM:13D6             ; END OF FUNCTION CHUNK FOR HL_plus_equals_2A
ROM:13D6             ; ---------------------------------------------------------------------------
ROM:13D8             ; *** missing: protection_check routine
ROM:13D8 DC 13       bonus_tbl_ptrs: .dw 0x13DC
ROM:13DA EC 13                       .dw 0x13EC
ROM:13DC 70                          .db 0x70 ; p
ROM:13DD 00                          .db    0
ROM:13DE 50                          .db 0x50 ; P
ROM:13DF 00                          .db    0
ROM:13E0 50                          .db 0x50 ; P
ROM:13E1 00                          .db    0
ROM:13E2 60                          .db 0x60 ; `
ROM:13E3 00                          .db    0
ROM:13E4 80                          .db 0x80 ; €
ROM:13E5 00                          .db    0
ROM:13E6 00                          .db    0
ROM:13E7 01                          .db    1
ROM:13E8 80                          .db 0x80 ; €
ROM:13E9 00                          .db    0
ROM:13EA FF                          .db 0xFF
ROM:13EB FF                          .db 0xFF
ROM:13EC 60                          .db 0x60 ; `
ROM:13ED 00                          .db    0
ROM:13EE 40                          .db 0x40 ; @
ROM:13EF 00                          .db    0
ROM:13F0 50                          .db 0x50 ; P
ROM:13F1 00                          .db    0
ROM:13F2 50                          .db 0x50 ; P
ROM:13F3 00                          .db    0
ROM:13F4 70                          .db 0x70 ; p
ROM:13F5 00                          .db    0
ROM:13F6 80                          .db 0x80 ; €
ROM:13F7 00                          .db    0
ROM:13F8 60                          .db 0x60 ; `
ROM:13F9 00                          .db    0
ROM:13FA FF                          .db 0xFF
ROM:13FB FF                          .db 0xFF
ROM:13FC
ROM:13FC             ; =============== S U B R O U T I N E =======================================
ROM:13FC
ROM:13FC
ROM:13FC             display_string:
ROM:13FC 1A                          ld      a, (de)
ROM:13FD CD 2C 14                    call    display_char
ROM:1400 13                          inc     de
ROM:1401 10 F9                       djnz    display_string
ROM:1403 C9                          ret
ROM:1403             ; End of function display_string
ROM:1403
ROM:1404
ROM:1404             ; =============== S U B R O U T I N E =======================================
ROM:1404
ROM:1404
ROM:1404             display_player_scores:
ROM:1404
ROM:1404             ; FUNCTION CHUNK AT ROM:1436 SIZE 00000004 BYTES
ROM:1404
ROM:1404 0E C0                       ld      c, #0xC0 ; 'À'
ROM:1406 21 01 1B                    ld      hl, #0x1B01
ROM:1409 11 01 08                    ld      de, #0x801
ROM:140C 3A 21 80                    ld      a, (curr_player)
ROM:140F A7                          and     a
ROM:1410 28 01                       jr      Z, loc_1413
ROM:1412 EB                          ex      de, hl
ROM:1413
ROM:1413             loc_1413:
ROM:1413 D5                          push    de
ROM:1414 11 82 81                    ld      de, #curr_player_score_msb
ROM:1417 CD 24 14                    call    display_score
ROM:141A E1                          pop     hl
ROM:141B 3A 22 80                    ld      a, (two_player_game)
ROM:141E A7                          and     a
ROM:141F 28 15                       jr      Z, display_7_spaces
ROM:1421 11 C2 81                    ld      de, #other_player_score_msb
ROM:1421             ; End of function display_player_scores
ROM:1421
ROM:1424
ROM:1424             ; =============== S U B R O U T I N E =======================================
ROM:1424
ROM:1424
ROM:1424             display_score:
ROM:1424 06 03                       ld      b, #3
ROM:1426 3E 05                       ld      a, #5
ROM:1428 CD 01 0F                    call    display_bcd_value
ROM:142B AF                          xor     a
ROM:142B             ; End of function display_score
ROM:142B
ROM:142C
ROM:142C             ; =============== S U B R O U T I N E =======================================
ROM:142C
ROM:142C
ROM:142C             display_char:
ROM:142C E5                          push    hl
ROM:142D F5                          push    af
ROM:142E CD 2F 0F                    call    calc_screen_addr
ROM:1431 F1                          pop     af
ROM:1432 77                          ld      (hl), a
ROM:1433 E1                          pop     hl
ROM:1434 25                          dec     h
ROM:1435 C9                          ret
ROM:1435             ; End of function display_char
ROM:1435
ROM:1436             ; ---------------------------------------------------------------------------
ROM:1436             ; START OF FUNCTION CHUNK FOR display_player_scores
ROM:1436
ROM:1436             display_7_spaces:
ROM:1436 3E 24                       ld      a, #0x24 ; '$'
ROM:1438 06 07                       ld      b, #7
ROM:1438             ; END OF FUNCTION CHUNK FOR display_player_scores
ROM:143A
ROM:143A             ; =============== S U B R O U T I N E =======================================
ROM:143A
ROM:143A
ROM:143A             display_char_B_times:
ROM:143A CD 2C 14                    call    display_char
ROM:143D 10 FB                       djnz    display_char_B_times
ROM:143F C9                          ret
ROM:143F             ; End of function display_char_B_times
ROM:143F
ROM:1440
ROM:1440             ; =============== S U B R O U T I N E =======================================
ROM:1440
ROM:1440
ROM:1440             display_high_score:
ROM:1440 0E C0                       ld      c, #0xC0 ; 'À'
ROM:1442 21 01 11                    ld      hl, #0x1101
ROM:1445 11 26 80                    ld      de, #high_score_msb
ROM:1448 18 DA                       jr      display_score
ROM:1448             ; End of function display_high_score
ROM:1448
ROM:144A             ; ---------------------------------------------------------------------------
ROM:144A
ROM:144A             main_fn_1__handle_solvalou:
ROM:144A F7                          rst     save_PC_to_fn_tbl_and_ret
ROM:144B 3A 2A 80                    ld      a, (scroll_disabled)
ROM:144E A7                          and     a
ROM:144F C0                          ret     NZ
ROM:1450 21 02 00                    ld      hl, #2
ROM:1453 22 46 79                    ld      (obj_state_tbl+0x46), hl
ROM:1456 21 02 80                    ld      hl, #0x8002
ROM:1459 22 44 79                    ld      (obj_state_tbl+0x44), hl
ROM:145C 21 14 20                    ld      hl, #0x2014
ROM:145F 22 44 7C                    ld      (obj_code_tbl+0x44), hl
ROM:1462 21 50 01                    ld      hl, #0x150
ROM:1465 22 46 7C                    ld      (obj_code_tbl+0x46), hl
ROM:1468 21 00 25                    ld      hl, #0x2500
ROM:146B 22 46 7A                    ld      (obj_x_tbl+0x46), hl
ROM:146E 21 00 0F                    ld      hl, #0xF00
ROM:1471 22 46 7B                    ld      (obj_y_tbl+0x46), hl
ROM:1474 F7                          rst     save_PC_to_fn_tbl_and_ret
ROM:1475 3A 2A 80                    ld      a, (scroll_disabled)
ROM:1478 A7                          and     a
ROM:1479 20 CF                       jr      NZ, main_fn_1__handle_solvalou
ROM:147B 3A 28 80                    ld      a, (attract_mode_stage)
ROM:147E A7                          and     a
ROM:147F 20 05                       jr      NZ, update_solvalou
ROM:1481 3E 01                       ld      a, #1
ROM:1483 32 0E A0                    ld      (solvalou_snd), a
ROM:1486
ROM:1486             update_solvalou:
ROM:1486 CD 8D 15                    call    handle_solvalou_inputs
ROM:1489 CD 50 15                    call    update_solvalou_sprite_XY
ROM:148C CD 4F 0F                    call    handle_crosshairs
ROM:148F CD D4 15                    call    check_solvalou_hit
ROM:1492 D0                          ret     NC
ROM:1493 AF                          xor     a
ROM:1494 32 0E A0                    ld      (solvalou_snd), a
ROM:1497 32 22 A0                    ld      (unk_A022), a
ROM:149A 3A 28 80                    ld      a, (attract_mode_stage)
ROM:149D A7                          and     a
ROM:149E 20 0B                       jr      NZ, explode_solvalou
ROM:14A0 21 49 15                    ld      hl, #solvalou_explosion_snd_data
ROM:14A3 11 80 80                    ld      de, #unk_8080
ROM:14A6 01 07 00                    ld      bc, #7
ROM:14A9 ED B0                       ldir
ROM:14AB
ROM:14AB             explode_solvalou:
ROM:14AB 3E 01                       ld      a, #1
ROM:14AD 32 44 80                    ld      (solvalou_exploding), a
ROM:14B0 21 00 00                    ld      hl, #0
ROM:14B3 22 46 7D                    ld      (obj_timer_tbl+0x46), hl
ROM:14B6 21 C0 30                    ld      hl, #0x30C0
ROM:14B9 22 46 7C                    ld      (obj_code_tbl+0x46), hl
ROM:14BC F7                          rst     save_PC_to_fn_tbl_and_ret
ROM:14BD 3A 2A 80                    ld      a, (scroll_disabled)
ROM:14C0 A7                          and     a
ROM:14C1 20 87                       jr      NZ, main_fn_1__handle_solvalou
ROM:14C3 3A 46 7D                    ld      a, (obj_timer_tbl+0x46)
ROM:14C6 3C                          inc     a
ROM:14C7 E6 07                       and     #7
ROM:14C9 32 46 7D                    ld      (obj_timer_tbl+0x46), a
ROM:14CC 20 1F                       jr      NZ, animate_solvalou_explosion
ROM:14CE 3A 47 7D                    ld      a, (obj_timer_tbl+0x47)
ROM:14D1 3C                          inc     a
ROM:14D2 32 47 7D                    ld      (obj_timer_tbl+0x47), a
ROM:14D5 FE 07                       cp      #7
ROM:14D7 28 2A                       jr      Z, finish_solvalou_exploding
ROM:14D9 FE 02                       cp      #2
ROM:14DB CC 30 15                    call    Z, adj_for_small_explosion_frame
ROM:14DE FE 04                       cp      #4
ROM:14E0 CC 40 15                    call    Z, adj_for_big_explosion_frame
ROM:14E3 FE 06                       cp      #6
ROM:14E5 CC 30 15                    call    Z, adj_for_small_explosion_frame
ROM:14E8 C6 30                       add     a, #0x30 ; '0'
ROM:14EA 32 47 7C                    ld      (obj_code_tbl+0x47), a
ROM:14ED
ROM:14ED             animate_solvalou_explosion:
ROM:14ED 21 22 15                    ld      hl, #solvalou_explosion_tbl
ROM:14F0 3A 47 7D                    ld      a, (obj_timer_tbl+0x47)
ROM:14F3 CF                          rst     HL_plus_equals_2A
ROM:14F4 3A 01 80                    ld      a, (countup_timer_1)
ROM:14F7 E6 0C                       and     #0xC
ROM:14F9 86                          add     a, (hl)
ROM:14FA 32 47 79                    ld      (obj_state_tbl+0x47), a
ROM:14FD 23                          inc     hl
ROM:14FE 7E                          ld      a, (hl)
ROM:14FF 32 46 7C                    ld      (obj_code_tbl+0x46), a
ROM:1502 C9                          ret
ROM:1503             ; ---------------------------------------------------------------------------
ROM:1503
ROM:1503             finish_solvalou_exploding:
ROM:1503 3E 20                       ld      a, #32
ROM:1505 32 46 7D                    ld      (obj_timer_tbl+0x46), a
ROM:1508 AF                          xor     a
ROM:1509 32 46 79                    ld      (obj_state_tbl+0x46), a
ROM:150C F7                          rst     save_PC_to_fn_tbl_and_ret
ROM:150D 21 46 7D                    ld      hl, # obj_timer_tbl+0x46
ROM:1510 35                          dec     (hl)
ROM:1511 C0                          ret     NZ
ROM:1512 21 8B 81                    ld      hl, #solvalou_number
ROM:1515 34                          inc     (hl)
ROM:1516 21 2A 80                    ld      hl, #scroll_disabled
ROM:1519 36 01                       ld      (hl), #1
ROM:151B AF                          xor     a
ROM:151C 32 44 80                    ld      (solvalou_exploding), a
ROM:151F C3 4A 14                    jp      main_fn_1__handle_solvalou
ROM:151F             ; ---------------------------------------------------------------------------
ROM:1522 00 C0 00 C1+solvalou_explosion_tbl:.db 0, 0xC0
ROM:1522 03 C4 03 C8+                .db 0, 0xC1
ROM:1522 00 C2 00 C3+                .db 3, 0xC4
ROM:1522 03 CC                       .db 3, 0xC8
ROM:1522                             .db 0, 0xC2
ROM:1522                             .db 0, 0xC3
ROM:1522                             .db 3, 0xCC
ROM:1530
ROM:1530             ; =============== S U B R O U T I N E =======================================
ROM:1530
ROM:1530
ROM:1530             adj_for_small_explosion_frame:
ROM:1530 21 47 7B                    ld      hl, # obj_y_tbl+0x47
ROM:1533 34                          inc     (hl)
ROM:1534 21 47 7A                    ld      hl, # obj_x_tbl+0x47
ROM:1537 35                          dec     (hl)
ROM:1538 F5                          push    af
ROM:1539 3E 2E                       ld      a, #0x2E ; '.'
ROM:153B 32 47 7C                    ld      (obj_code_tbl+0x47), a
ROM:153E F1                          pop     af
ROM:153F C9                          ret
ROM:153F             ; End of function adj_for_small_explosion_frame
ROM:153F
ROM:1540
ROM:1540             ; =============== S U B R O U T I N E =======================================
ROM:1540
ROM:1540
ROM:1540             adj_for_big_explosion_frame:
ROM:1540 21 47 7B                    ld      hl, # obj_y_tbl+0x47
ROM:1543 35                          dec     (hl)
ROM:1544 21 47 7A                    ld      hl, # obj_x_tbl+0x47
ROM:1547 34                          inc     (hl)
ROM:1548 C9                          ret
ROM:1548             ; End of function adj_for_big_explosion_frame
ROM:1548
ROM:1548             ; ---------------------------------------------------------------------------
ROM:1549 30          solvalou_explosion_snd_data:.db 0x30 ; 0
ROM:154A 40                          .db 0x40 ; @
ROM:154B 00                          .db    0
ROM:154C 02                          .db    2
ROM:154D DF                          .db 0xDF ; ß
ROM:154E 10                          .db 0x10
ROM:154F 10                          .db 0x10
ROM:1550
ROM:1550             ; =============== S U B R O U T I N E =======================================
ROM:1550
ROM:1550
ROM:1550             update_solvalou_sprite_XY:
ROM:1550 2A 46 7A                    ld      hl, (obj_x_tbl+0x46)
ROM:1553 3A C6 7A                    ld      a, (obj_dx_tbl+0x46)
ROM:1556 CF                          rst     HL_plus_equals_2A
ROM:1557 11 00 12                    ld      de, #4608
ROM:155A A7                          and     a
ROM:155B ED 52                       sbc     hl, de
ROM:155D 19                          add     hl, de
ROM:155E 30 01                       jr      NC, loc_1561
ROM:1560 EB                          ex      de, hl
ROM:1561
ROM:1561             loc_1561:
ROM:1561 11 00 26                    ld      de, #9728
ROM:1564 A7                          and     a
ROM:1565 ED 52                       sbc     hl, de
ROM:1567 19                          add     hl, de
ROM:1568 38 01                       jr      C, loc_156B
ROM:156A EB                          ex      de, hl
ROM:156B
ROM:156B             loc_156B:
ROM:156B 22 46 7A                    ld      (obj_x_tbl+0x46), hl
ROM:156E 2A 46 7B                    ld      hl, (obj_y_tbl+0x46)
ROM:1571 3A C6 7B                    ld      a, (obj_dy_tbl+0x46)
ROM:1574 CF                          rst     HL_plus_equals_2A
ROM:1575 11 00 02                    ld      de, #512
ROM:1578 A7                          and     a
ROM:1579 ED 52                       sbc     hl, de
ROM:157B 19                          add     hl, de
ROM:157C 30 01                       jr      NC, loc_157F
ROM:157E EB                          ex      de, hl
ROM:157F
ROM:157F             loc_157F:
ROM:157F 11 00 1C                    ld      de, #7168
ROM:1582 A7                          and     a
ROM:1583 ED 52                       sbc     hl, de
ROM:1585 19                          add     hl, de
ROM:1586 38 01                       jr      C, loc_1589
ROM:1588 EB                          ex      de, hl
ROM:1589
ROM:1589             loc_1589:
ROM:1589 22 46 7B                    ld      (obj_y_tbl+0x46), hl
ROM:158C C9                          ret
ROM:158C             ; End of function update_solvalou_sprite_XY
ROM:158C
ROM:158D
ROM:158D             ; =============== S U B R O U T I N E =======================================
ROM:158D
ROM:158D
ROM:158D             handle_solvalou_inputs:
ROM:158D 3A 28 80                    ld      a, (attract_mode_stage)
ROM:1590 A7                          and     a
ROM:1591 20 1E                       jr      NZ, gen_rnd_dir
ROM:1593 3A 20 80                    ld      a, (cocktail)
ROM:1596 A7                          and     a
ROM:1597 21 19 80                    ld      hl, #P1_inputs
ROM:159A 28 04                       jr      Z, loc_15A0
ROM:159C 3A 21 80                    ld      a, (curr_player)
ROM:159F D7                          rst     HL_plus_equals_A
ROM:15A0
ROM:15A0             loc_15A0:
ROM:15A0 7E                          ld      a, (hl)
ROM:15A1 E6 0F                       and     #0xF
ROM:15A3
ROM:15A3             set_solvalou_dXdY:
ROM:15A3 21 C2 15                    ld      hl, #dir_delta_tbl
ROM:15A6 CF                          rst     HL_plus_equals_2A
ROM:15A7 7E                          ld      a, (hl)
ROM:15A8 32 C6 7A                    ld      (obj_dx_tbl+0x46), a
ROM:15AB 23                          inc     hl
ROM:15AC 7E                          ld      a, (hl)
ROM:15AD 32 C6 7B                    ld      (obj_dy_tbl+0x46), a
ROM:15B0 C9                          ret
ROM:15B1             ; ---------------------------------------------------------------------------
ROM:15B1
ROM:15B1             gen_rnd_dir:
ROM:15B1 3A 01 80                    ld      a, (countup_timer_1)
ROM:15B4 E6 0F                       and     #0xF
ROM:15B6 C0                          ret     NZ
ROM:15B7
ROM:15B7             loc_15B7:
ROM:15B7 CD E4 0E                    call    pseudo_random_gen
ROM:15BA E6 0F                       and     #0xF
ROM:15BC FE 09                       cp      #9
ROM:15BE 30 F7                       jr      NC, loc_15B7
ROM:15C0 18 E1                       jr      set_solvalou_dXdY
ROM:15C0             ; End of function handle_solvalou_inputs
ROM:15C0
ROM:15C0             ; ---------------------------------------------------------------------------
ROM:15C2 F0 00 F0 F0+dir_delta_tbl:  .db 0xF0, 0
ROM:15C2 00 E8 10 F0+                .db 0xF0, 0xF0
ROM:15C2 10 00 10 10+                .db 0, 0xE8
ROM:15C2 00 18 F0 10+                .db 0x10, 0xF0
ROM:15C2 00 00                       .db 0x10, 0
ROM:15C2                             .db 0x10, 0x10
ROM:15C2                             .db 0, 0x18
ROM:15C2                             .db 0xF0, 0x10
ROM:15C2                             .db 0, 0
ROM:15D4
ROM:15D4             ; =============== S U B R O U T I N E =======================================
ROM:15D4
ROM:15D4
ROM:15D4             check_solvalou_hit:
ROM:15D4 ED 5B 46 82                 ld      de, (spriteram_2_shadow+0x46)
ROM:15D8 3A 47 83                    ld      a, (spriteram_3_shadow+0x47)
ROM:15DB 1F                          rra
ROM:15DC CB 1A                       rr      d
ROM:15DE FD 21 4E 79                 ld      iy, # obj_state_tbl+0x4E
ROM:15E2 06 19                       ld      b, #25
ROM:15E4
ROM:15E4             check_bullets_and_flying:
ROM:15E4 CD FF 15                    call    check_bullet_or_flying_hit_solvalou
ROM:15E7 D8                          ret     C
ROM:15E8 FD 2C                       inc     yl
ROM:15EA FD 2C                       inc     yl
ROM:15EC 10 F6                       djnz    check_bullets_and_flying
ROM:15EE FD 21 20 79                 ld      iy, # obj_state_tbl+0x20
ROM:15F2 06 10                       ld      b, #16
ROM:15F4
ROM:15F4             check_bacura:
ROM:15F4 CD 24 16                    call    check_bacura_hit_solvalou
ROM:15F7 D8                          ret     C
ROM:15F8 FD 2C                       inc     yl
ROM:15FA FD 2C                       inc     yl
ROM:15FC 10 F6                       djnz    check_bacura
ROM:15FE C9                          ret
ROM:15FE             ; End of function check_solvalou_hit
ROM:15FE
ROM:15FF
ROM:15FF             ; =============== S U B R O U T I N E =======================================
ROM:15FF
ROM:15FF
ROM:15FF             check_bullet_or_flying_hit_solvalou:
ROM:15FF 3E 02                       ld      a, #2
ROM:1601 FD BE 00                    cp      0(iy)
ROM:1604 20 1C                       jr      NZ, loc_1622
ROM:1606 3E 09                       ld      a, #9
ROM:1608
ROM:1608             loc_1608:
ROM:1608 FD 84                       add     a, yh
ROM:160A 67                          ld      h, a
ROM:160B FD 7D                       ld      a, yl
ROM:160D 6F                          ld      l, a
ROM:160E 7B                          ld      a, e
ROM:160F 96                          sub     (hl)
ROM:1610 D6 08                       sub     #8
ROM:1612 C6 10                       add     a, #16
ROM:1614 D0                          ret     NC
ROM:1615 2C                          inc     l
ROM:1616 24                          inc     h
ROM:1617 7E                          ld      a, (hl)
ROM:1618 1F                          rra
ROM:1619 25                          dec     h
ROM:161A 7E                          ld      a, (hl)
ROM:161B 1F                          rra
ROM:161C 92                          sub     d
ROM:161D D6 04                       sub     #4
ROM:161F C6 08                       add     a, #8
ROM:1621 C9                          ret
ROM:1622             ; ---------------------------------------------------------------------------
ROM:1622
ROM:1622             loc_1622:
ROM:1622 A7                          and     a
ROM:1623 C9                          ret
ROM:1623             ; End of function check_bullet_or_flying_hit_solvalou
ROM:1623
ROM:1624
ROM:1624             ; =============== S U B R O U T I N E =======================================
ROM:1624
ROM:1624
ROM:1624             check_bacura_hit_solvalou:
ROM:1624 3E 02                       ld      a, #2
ROM:1626 FD BE 00                    cp      0(iy)
ROM:1629 20 F7                       jr      NZ, loc_1622
ROM:162B 3E 09                       ld      a, #9
ROM:162D FD 84                       add     a, yh
ROM:162F 67                          ld      h, a
ROM:1630 FD 7D                       ld      a, yl
ROM:1632 6F                          ld      l, a
ROM:1633 7B                          ld      a, e
ROM:1634 96                          sub     (hl)
ROM:1635 D6 1C                       sub     #28
ROM:1637 C6 28                       add     a, #40
ROM:1639 D0                          ret     NC
ROM:163A 2C                          inc     l
ROM:163B 24                          inc     h
ROM:163C 7E                          ld      a, (hl)
ROM:163D 1F                          rra
ROM:163E 25                          dec     h
ROM:163F 7E                          ld      a, (hl)
ROM:1640 1F                          rra
ROM:1641 92                          sub     d
ROM:1642 D6 08                       sub     #8
ROM:1644 C6 10                       add     a, #16
ROM:1646 C9                          ret
ROM:1646             ; End of function check_bacura_hit_solvalou
ROM:1646
ROM:1647             ; ---------------------------------------------------------------------------
ROM:1647
ROM:1647             main_fn_30__handle_shooting:
ROM:1647 F7                          rst     save_PC_to_fn_tbl_and_ret
ROM:1648 3A 2A 80                    ld      a, (scroll_disabled)
ROM:164B A7                          and     a
ROM:164C C0                          ret     NZ
ROM:164D 21 14 01                    ld      hl, #0x114
ROM:1650 22 32 80                    ld      (shot_timer_init_value), hl
ROM:1653 AF                          xor     a
ROM:1654 32 30 80                    ld      (shot_flag), a
ROM:1657 21 C2 16                    ld      hl, #main_fn_30_shot_fn
ROM:165A 22 48 78                    ld      (main_30_fn_tbl), hl
ROM:165D 21 48 78                    ld      hl, #main_30_fn_tbl
ROM:1660 11 4A 78                    ld      de, # main_30_fn_tbl+2
ROM:1663 01 04 00                    ld      bc, #4
ROM:1666 ED B0                       ldir
ROM:1668 F7                          rst     save_PC_to_fn_tbl_and_ret
ROM:1669 3A 2A 80                    ld      a, (scroll_disabled)
ROM:166C A7                          and     a
ROM:166D 20 D8                       jr      NZ, main_fn_30__handle_shooting
ROM:166F 3A 44 80                    ld      a, (solvalou_exploding)
ROM:1672 A7                          and     a
ROM:1673 CC 92 16                    call    Z, handle_shooting
ROM:1676 DD E5                       push    ix
ROM:1678 DD 21 48 78                 ld      ix, #main_30_fn_tbl
ROM:167C 06 03                       ld      b, #3
ROM:167E
ROM:167E             loc_167E:
ROM:167E DD 5D                       ld      e, xl
ROM:1680 DD 54                       ld      d, xh
ROM:1682 CD 69 04                    call    jp_next_fn
ROM:1685 DD 2C                       inc     xl
ROM:1687 DD 2C                       inc     xl
ROM:1689 10 F3                       djnz    loc_167E
ROM:168B DD E1                       pop     ix
ROM:168D AF                          xor     a
ROM:168E 32 30 80                    ld      (shot_flag), a
ROM:1691 C9                          ret
ROM:1692
ROM:1692             ; =============== S U B R O U T I N E =======================================
ROM:1692
ROM:1692
ROM:1692             handle_shooting:
ROM:1692 3A 28 80                    ld      a, (attract_mode_stage)
ROM:1695 A7                          and     a
ROM:1696 20 23                       jr      NZ, gen_rnd_shot
ROM:1698 3A 20 80                    ld      a, (cocktail)
ROM:169B A7                          and     a
ROM:169C 21 19 80                    ld      hl, #P1_inputs
ROM:169F 28 04                       jr      Z, loc_16A5
ROM:16A1 3A 21 80                    ld      a, (curr_player)
ROM:16A4 D7                          rst     HL_plus_equals_A
ROM:16A5
ROM:16A5             loc_16A5:
ROM:16A5 CB 6E                       bit     5, (hl)
ROM:16A7
ROM:16A7             loc_16A7:
ROM:16A7 21 33 80                    ld      hl, #shot_timer
ROM:16AA 28 03                       jr      Z, process_button_1
ROM:16AC 36 01                       ld      (hl), #1
ROM:16AE C9                          ret
ROM:16AF             ; ---------------------------------------------------------------------------
ROM:16AF
ROM:16AF             process_button_1:
ROM:16AF 35                          dec     (hl)
ROM:16B0 C0                          ret     NZ
ROM:16B1 3A 32 80                    ld      a, (shot_timer_init_value)
ROM:16B4 77                          ld      (hl), a
ROM:16B5 3E 01                       ld      a, #1
ROM:16B7 32 30 80                    ld      (shot_flag), a
ROM:16BA C9                          ret
ROM:16BB             ; ---------------------------------------------------------------------------
ROM:16BB
ROM:16BB             gen_rnd_shot:
ROM:16BB CD E4 0E                    call    pseudo_random_gen
ROM:16BE E6 0F                       and     #0xF
ROM:16C0 18 E5                       jr      loc_16A7
ROM:16C0             ; End of function handle_shooting
ROM:16C0
ROM:16C2             ; ---------------------------------------------------------------------------
ROM:16C2
ROM:16C2             main_fn_30_shot_fn:
ROM:16C2 F7                          rst     save_PC_to_fn_tbl_and_ret
ROM:16C3 EB                          ex      de, hl
ROM:16C4 4C                          ld      c, h
ROM:16C5 11 30 80                    ld      de, #shot_flag
ROM:16C8 1A                          ld      a, (de)
ROM:16C9 3D                          dec     a
ROM:16CA C0                          ret     NZ
ROM:16CB 12                          ld      (de), a
ROM:16CC 24                          inc     h
ROM:16CD 36 02                       ld      (hl), #2
ROM:16CF CB FD                       set     7, l
ROM:16D1 36 02                       ld      (hl), #2
ROM:16D3 24                          inc     h
ROM:16D4 36 A0                       ld      (hl), #0xA0 ; ' '
ROM:16D6 3C                          inc     a
ROM:16D7 32 0B A0                    ld      (shot_snd), a
ROM:16DA ED 5B 46 7A                 ld      de, (obj_x_tbl+0x46)
ROM:16DE CB BD                       res     7, l
ROM:16E0 73                          ld      (hl), e
ROM:16E1 2C                          inc     l
ROM:16E2 72                          ld      (hl), d
ROM:16E3 ED 5B 46 7B                 ld      de, (obj_y_tbl+0x46)
ROM:16E7 24                          inc     h
ROM:16E8 72                          ld      (hl), d
ROM:16E9 2D                          dec     l
ROM:16EA 73                          ld      (hl), e
ROM:16EB 61                          ld      h, c
ROM:16EC EB                          ex      de, hl
ROM:16ED F7                          rst     save_PC_to_fn_tbl_and_ret
ROM:16EE EB                          ex      de, hl
ROM:16EF C5                          push    bc
ROM:16F0 E5                          push    hl
ROM:16F1 CD 48 18                    call    check_flying_enemies_shot
ROM:16F4 E1                          pop     hl
ROM:16F5 C1                          pop     bc
ROM:16F6 3A 01 80                    ld      a, (countup_timer_1)
ROM:16F9 F5                          push    af
ROM:16FA F5                          push    af
ROM:16FB E6 01                       and     #1
ROM:16FD 07                          rlca
ROM:16FE 07                          rlca
ROM:16FF 07                          rlca
ROM:1700 24                          inc     h
ROM:1701 4C                          ld      c, h
ROM:1702 2C                          inc     l
ROM:1703 C6 80                       add     a, #0x80 ; '€'
ROM:1705 77                          ld      (hl), a
ROM:1706 F1                          pop     af
ROM:1707 0F                          rrca
ROM:1708 E6 01                       and     #1
ROM:170A C6 23                       add     a, #0x23 ; '#'
ROM:170C 24                          inc     h
ROM:170D 24                          inc     h
ROM:170E 24                          inc     h
ROM:170F 77                          ld      (hl), a
ROM:1710 F1                          pop     af
ROM:1711 0F                          rrca
ROM:1712 0F                          rrca
ROM:1713 E6 01                       and     #1
ROM:1715 C6 16                       add     a, #0x16
ROM:1717 2D                          dec     l
ROM:1718 77                          ld      (hl), a
ROM:1719 61                          ld      h, c
ROM:171A 7E                          ld      a, (hl)
ROM:171B FE 03                       cp      #3
ROM:171D 28 0E                       jr      Z, shot_destroyed
ROM:171F 24                          inc     h
ROM:1720 CD 6B 17                    call    move_shot
ROM:1723 7A                          ld      a, d
ROM:1724 FE 28                       cp      #40
ROM:1726 D8                          ret     C
ROM:1727 25                          dec     h
ROM:1728 2D                          dec     l
ROM:1729
ROM:1729             delete_shot:
ROM:1729 36 00                       ld      (hl), #0
ROM:172B 18 95                       jr      main_fn_30_shot_fn
ROM:172D             ; ---------------------------------------------------------------------------
ROM:172D
ROM:172D             shot_destroyed:
ROM:172D 24                          inc     h
ROM:172E CB FD                       set     7, l
ROM:1730 36 18                       ld      (hl), #24
ROM:1732 CB BD                       res     7, l
ROM:1734 2C                          inc     l
ROM:1735 24                          inc     h
ROM:1736 24                          inc     h
ROM:1737 36 23                       ld      (hl), #0x23 ; '#'
ROM:1739 2D                          dec     l
ROM:173A 24                          inc     h
ROM:173B 36 FF                       ld      (hl), #0xFF
ROM:173D F7                          rst     save_PC_to_fn_tbl_and_ret
ROM:173E 21 00 05                    ld      hl, #0x500
ROM:1741 7C                          ld      a, h
ROM:1742 DD 84                       add     a, xh
ROM:1744 67                          ld      h, a
ROM:1745 7D                          ld      a, l
ROM:1746 DD 85                       add     a, xl
ROM:1748 6F                          ld      l, a
ROM:1749 34                          inc     (hl)
ROM:174A 7E                          ld      a, (hl)
ROM:174B 25                          dec     h
ROM:174C 4C                          ld      c, h
ROM:174D 25                          dec     h
ROM:174E 25                          dec     h
ROM:174F 25                          dec     h
ROM:1750 FE 08                       cp      #8
ROM:1752 28 D5                       jr      Z, delete_shot
ROM:1754 F5                          push    af
ROM:1755 0F                          rrca
ROM:1756 E6 03                       and     #3
ROM:1758 C6 18                       add     a, #0x18
ROM:175A 61                          ld      h, c
ROM:175B 77                          ld      (hl), a
ROM:175C F1                          pop     af
ROM:175D E6 01                       and     #1
ROM:175F 07                          rlca
ROM:1760 07                          rlca
ROM:1761 07                          rlca
ROM:1762 25                          dec     h
ROM:1763 25                          dec     h
ROM:1764 25                          dec     h
ROM:1765 2C                          inc     l
ROM:1766 C6 80                       add     a, #0x80 ; '€'
ROM:1768 77                          ld      (hl), a
ROM:1769 2D                          dec     l
ROM:176A 24                          inc     h
ROM:176B
ROM:176B             ; =============== S U B R O U T I N E =======================================
ROM:176B
ROM:176B
ROM:176B             move_shot:
ROM:176B 5E                          ld      e, (hl)
ROM:176C 2C                          inc     l
ROM:176D 56                          ld      d, (hl)
ROM:176E 2D                          dec     l
ROM:176F CB FD                       set     7, l
ROM:1771 EB                          ex      de, hl
ROM:1772 1A                          ld      a, (de)
ROM:1773 CF                          rst     HL_plus_equals_2A
ROM:1774 EB                          ex      de, hl
ROM:1775 CB BD                       res     7, l
ROM:1777 73                          ld      (hl), e
ROM:1778 2C                          inc     l
ROM:1779 72                          ld      (hl), d
ROM:177A C9                          ret
ROM:177A             ; End of function move_shot
ROM:177A
ROM:177B             ; ---------------------------------------------------------------------------
ROM:177B
ROM:177B             gen_random_bomb_press:
ROM:177B CD E4 0E                    call    pseudo_random_gen
ROM:177E A7                          and     a
ROM:177F C0                          ret     NZ
ROM:1780 18 2A                       jr      init_bombing
ROM:1782             ; ---------------------------------------------------------------------------
ROM:1782
ROM:1782             main_fn_31__handle_bombing:
ROM:1782 F7                          rst     save_PC_to_fn_tbl_and_ret
ROM:1783 3A 2A 80                    ld      a, (scroll_disabled)
ROM:1786 A7                          and     a
ROM:1787 C0                          ret     NZ
ROM:1788 3A 44 80                    ld      a, (solvalou_exploding)
ROM:178B A7                          and     a
ROM:178C C0                          ret     NZ
ROM:178D 3A 28 80                    ld      a, (attract_mode_stage)
ROM:1790 A7                          and     a
ROM:1791 20 E8                       jr      NZ, gen_random_bomb_press
ROM:1793 3A 20 80                    ld      a, (cocktail)
ROM:1796 A7                          and     a
ROM:1797 3A 16 80                    ld      a, (dswb)
ROM:179A 28 0D                       jr      Z, loc_17A9
ROM:179C 3A 21 80                    ld      a, (curr_player)
ROM:179F A7                          and     a
ROM:17A0 3A 16 80                    ld      a, (dswb)
ROM:17A3 28 04                       jr      Z, loc_17A9
ROM:17A5 0F                          rrca
ROM:17A6 0F                          rrca
ROM:17A7 0F                          rrca
ROM:17A8 0F                          rrca
ROM:17A9
ROM:17A9             loc_17A9:
ROM:17A9 0F                          rrca
ROM:17AA D8                          ret     C
ROM:17AB F7                          rst     save_PC_to_fn_tbl_and_ret
ROM:17AC
ROM:17AC             init_bombing:
ROM:17AC 3A 40 79                    ld      a, (obj_state_tbl+0x40)
ROM:17AF FE 01                       cp      #1
ROM:17B1 C0                          ret     NZ
ROM:17B2 F7                          rst     save_PC_to_fn_tbl_and_ret
ROM:17B3 2A 46 7A                    ld      hl, (obj_x_tbl+0x46)
ROM:17B6 22 42 7A                    ld      (obj_x_tbl+0x42), hl
ROM:17B9 3E F4                       ld      a, #0xF4 ; 'ô'
ROM:17BB 84                          add     a, h
ROM:17BC 67                          ld      h, a
ROM:17BD 22 40 7A                    ld      (obj_x_tbl+0x40), hl
ROM:17C0 2A 46 7B                    ld      hl, (obj_y_tbl+0x46)
ROM:17C3 22 42 7B                    ld      (obj_y_tbl+0x42), hl
ROM:17C6 22 40 7B                    ld      (obj_y_tbl+0x40), hl
ROM:17C9 AF                          xor     a
ROM:17CA 32 C2 7A                    ld      (obj_dx_tbl+0x42), a
ROM:17CD 32 42 7D                    ld      (obj_timer_tbl+0x42), a
ROM:17D0 32 43 7D                    ld      (obj_timer_tbl+0x43), a
ROM:17D3 3C                          inc     a
ROM:17D4 32 0C A0                    ld      (bomb_snd), a
ROM:17D7 21 02 80                    ld      hl, #0x8002
ROM:17DA 22 42 79                    ld      (obj_state_tbl+0x42), hl
ROM:17DD 22 40 79                    ld      (obj_state_tbl+0x40), hl
ROM:17E0 3E 1C                       ld      a, #0x1C
ROM:17E2 32 42 7C                    ld      (obj_code_tbl+0x42), a
ROM:17E5 21 14 22                    ld      hl, #0x2214
ROM:17E8 22 40 7C                    ld      (obj_code_tbl+0x40), hl
ROM:17EB F7                          rst     save_PC_to_fn_tbl_and_ret
ROM:17EC 21 42 7D                    ld      hl, # obj_timer_tbl+0x42
ROM:17EF 34                          inc     (hl)
ROM:17F0 7E                          ld      a, (hl)
ROM:17F1 E6 07                       and     #7
ROM:17F3 20 0C                       jr      NZ, loc_1801
ROM:17F5 2C                          inc     l
ROM:17F6 7E                          ld      a, (hl)
ROM:17F7 FE 02                       cp      #2
ROM:17F9 28 06                       jr      Z, loc_1801
ROM:17FB 3C                          inc     a
ROM:17FC 77                          ld      (hl), a
ROM:17FD 25                          dec     h
ROM:17FE 2D                          dec     l
ROM:17FF 34                          inc     (hl)
ROM:1800 24                          inc     h
ROM:1801
ROM:1801             loc_1801:
ROM:1801 7E                          ld      a, (hl)
ROM:1802 0F                          rrca
ROM:1803 0F                          rrca
ROM:1804 E6 03                       and     #3
ROM:1806 C6 25                       add     a, #0x25 ; '%'
ROM:1808 32 43 7C                    ld      (obj_code_tbl+0x43), a
ROM:180B 21 C2 7A                    ld      hl, # obj_dx_tbl+0x42
ROM:180E 35                          dec     (hl)
ROM:180F 35                          dec     (hl)
ROM:1810 7E                          ld      a, (hl)
ROM:1811 2A 42 7A                    ld      hl, (obj_x_tbl+0x42)
ROM:1814 CF                          rst     HL_plus_equals_2A
ROM:1815 22 42 7A                    ld      (obj_x_tbl+0x42), hl
ROM:1818 2A 40 7A                    ld      hl, (obj_x_tbl+0x40)
ROM:181B 3A 14 80                    ld      a, (scroll_delta)
ROM:181E ED 44                       neg
ROM:1820 CF                          rst     HL_plus_equals_2A
ROM:1821 22 40 7A                    ld      (obj_x_tbl+0x40), hl
ROM:1824 CD 2B 18                    call    check_bomb_finished
ROM:1827 D8                          ret     C
ROM:1828 C3 82 17                    jp      main_fn_31__handle_bombing
ROM:182B
ROM:182B             ; =============== S U B R O U T I N E =======================================
ROM:182B
ROM:182B
ROM:182B             check_bomb_finished:
ROM:182B 2A 40 7A                    ld      hl, (obj_x_tbl+0x40)
ROM:182E ED 5B 42 7A                 ld      de, (obj_x_tbl+0x42)
ROM:1832 A7                          and     a
ROM:1833 ED 52                       sbc     hl, de
ROM:1835 D8                          ret     C
ROM:1836 AF                          xor     a
ROM:1837 32 0C A0                    ld      (bomb_snd), a
ROM:183A 32 20 A0                    ld      (unk_A020), a
ROM:183D CD 0E 19                    call    handle_bombed_obj_and_award_points
ROM:1840 AF                          xor     a
ROM:1841 32 42 79                    ld      (obj_state_tbl+0x42), a
ROM:1844 32 40 79                    ld      (obj_state_tbl+0x40), a
ROM:1847 C9                          ret
ROM:1847             ; End of function check_bomb_finished
ROM:1847
ROM:1848
ROM:1848             ; =============== S U B R O U T I N E =======================================
ROM:1848
ROM:1848
ROM:1848             check_flying_enemies_shot:
ROM:1848 3E 0A                       ld      a, #0xA
ROM:184A DD 84                       add     a, xh
ROM:184C 57                          ld      d, a
ROM:184D DD 5D                       ld      e, xl
ROM:184F EB                          ex      de, hl
ROM:1850 5E                          ld      e, (hl)
ROM:1851 2C                          inc     l
ROM:1852 56                          ld      d, (hl)
ROM:1853 24                          inc     h
ROM:1854 7E                          ld      a, (hl)
ROM:1855 1F                          rra
ROM:1856 CB 1A                       rr      d
ROM:1858 FD 21 74 79                 ld      iy, # obj_state_tbl+0x74
ROM:185C 06 06                       ld      b, #6
ROM:185E
ROM:185E             loc_185E:
ROM:185E CD C6 18                    call    check_shot_hit_flying_enemy
ROM:1861 30 2F                       jr      NC, loc_1892
ROM:1863 FD 36 00 03                 ld      0(iy), #3
ROM:1867 DD 7C                       ld      a, xh
ROM:1869 3C                          inc     a
ROM:186A 67                          ld      h, a
ROM:186B DD 7D                       ld      a, xl
ROM:186D CB FF                       set     7, a
ROM:186F 6F                          ld      l, a
ROM:1870 36 00                       ld      (hl), #0
ROM:1872 3A 28 80                    ld      a, (attract_mode_stage)
ROM:1875 A7                          and     a
ROM:1876 20 1A                       jr      NZ, loc_1892
ROM:1878 3E 03                       ld      a, #3
ROM:187A FD 84                       add     a, yh
ROM:187C 67                          ld      h, a
ROM:187D FD 7D                       ld      a, yl
ROM:187F CB FF                       set     7, a
ROM:1881 6F                          ld      l, a
ROM:1882 7E                          ld      a, (hl)
ROM:1883 21 E1 3D                    ld      hl, #object_value_tbl
ROM:1886 D7                          rst     HL_plus_equals_A
ROM:1887 D5                          push    de
ROM:1888 C5                          push    bc
ROM:1889 EB                          ex      de, hl
ROM:188A E7                          rst     add_to_score
ROM:188B C1                          pop     bc
ROM:188C D1                          pop     de
ROM:188D 3E 01                       ld      a, #1
ROM:188F 32 05 A0                    ld      (flying_enemy_hit_snd), a
ROM:1892
ROM:1892             loc_1892:
ROM:1892 FD 2C                       inc     yl
ROM:1894 FD 2C                       inc     yl
ROM:1896 10 C6                       djnz    loc_185E
ROM:1898 DD 7C                       ld      a, xh
ROM:189A 3C                          inc     a
ROM:189B 67                          ld      h, a
ROM:189C DD 7D                       ld      a, xl
ROM:189E CB FF                       set     7, a
ROM:18A0 6F                          ld      l, a
ROM:18A1 7E                          ld      a, (hl)
ROM:18A2 CB BD                       res     7, l
ROM:18A4 77                          ld      (hl), a
ROM:18A5 FD 21 20 79                 ld      iy, # obj_state_tbl+0x20
ROM:18A9 06 10                       ld      b, #16
ROM:18AB
ROM:18AB             loc_18AB:
ROM:18AB CD EB 18                    call    check_shot_hit_bacura
ROM:18AE 38 07                       jr      C, deactivate_shot
ROM:18B0 FD 2C                       inc     yl
ROM:18B2 FD 2C                       inc     yl
ROM:18B4 10 F5                       djnz    loc_18AB
ROM:18B6 C9                          ret
ROM:18B7             ; ---------------------------------------------------------------------------
ROM:18B7
ROM:18B7             deactivate_shot:
ROM:18B7 DD 7C                       ld      a, xh
ROM:18B9 3C                          inc     a
ROM:18BA 67                          ld      h, a
ROM:18BB DD 7D                       ld      a, xl
ROM:18BD 6F                          ld      l, a
ROM:18BE 36 03                       ld      (hl), #3
ROM:18C0 3E 01                       ld      a, #1
ROM:18C2 32 0A A0                    ld      (bacura_hit_snd), a
ROM:18C5 C9                          ret
ROM:18C5             ; End of function check_flying_enemies_shot
ROM:18C5
ROM:18C6
ROM:18C6             ; =============== S U B R O U T I N E =======================================
ROM:18C6
ROM:18C6
ROM:18C6             check_shot_hit_flying_enemy:
ROM:18C6 3E 02                       ld      a, #2
ROM:18C8 FD BE 00                    cp      0(iy)
ROM:18CB 20 1C                       jr      NZ, loc_18E9
ROM:18CD 3E 09                       ld      a, #9
ROM:18CF FD 84                       add     a, yh
ROM:18D1 67                          ld      h, a
ROM:18D2 FD 7D                       ld      a, yl
ROM:18D4 6F                          ld      l, a
ROM:18D5 7B                          ld      a, e
ROM:18D6 96                          sub     (hl)
ROM:18D7 D6 10                       sub     #16
ROM:18D9 C6 20                       add     a, #32
ROM:18DB D0                          ret     NC
ROM:18DC 2C                          inc     l
ROM:18DD 24                          inc     h
ROM:18DE 7E                          ld      a, (hl)
ROM:18DF 1F                          rra
ROM:18E0 25                          dec     h
ROM:18E1 7E                          ld      a, (hl)
ROM:18E2 1F                          rra
ROM:18E3 92                          sub     d
ROM:18E4 D6 08                       sub     #8
ROM:18E6 C6 10                       add     a, #16
ROM:18E8 C9                          ret
ROM:18E9             ; ---------------------------------------------------------------------------
ROM:18E9
ROM:18E9             loc_18E9:
ROM:18E9 A7                          and     a
ROM:18EA C9                          ret
ROM:18EA             ; End of function check_shot_hit_flying_enemy
ROM:18EA
ROM:18EB
ROM:18EB             ; =============== S U B R O U T I N E =======================================
ROM:18EB
ROM:18EB
ROM:18EB             check_shot_hit_bacura:
ROM:18EB 3E 02                       ld      a, #2
ROM:18ED FD BE 00                    cp      0(iy)
ROM:18F0 20 F7                       jr      NZ, loc_18E9
ROM:18F2 3E 09                       ld      a, #9
ROM:18F4 FD 84                       add     a, yh
ROM:18F6 67                          ld      h, a
ROM:18F7 FD 7D                       ld      a, yl
ROM:18F9 6F                          ld      l, a
ROM:18FA 7B                          ld      a, e
ROM:18FB 96                          sub     (hl)
ROM:18FC D6 18                       sub     #24
ROM:18FE C6 20                       add     a, #32
ROM:1900 D0                          ret     NC
ROM:1901 2C                          inc     l
ROM:1902 24                          inc     h
ROM:1903 7E                          ld      a, (hl)
ROM:1904 1F                          rra
ROM:1905 25                          dec     h
ROM:1906 7E                          ld      a, (hl)
ROM:1907 1F                          rra
ROM:1908 92                          sub     d
ROM:1909 D6 08                       sub     #8
ROM:190B C6 10                       add     a, #16
ROM:190D C9                          ret
ROM:190D             ; End of function check_shot_hit_bacura
ROM:190D
ROM:190E
ROM:190E             ; =============== S U B R O U T I N E =======================================
ROM:190E
ROM:190E
ROM:190E             handle_bombed_obj_and_award_points:
ROM:190E ED 5B 40 82                 ld      de, (spriteram_2_shadow+0x40)
ROM:1912 3A 41 83                    ld      a, (spriteram_3_shadow+0x41)
ROM:1915 1F                          rra
ROM:1916 CB 1A                       rr      d
ROM:1918 FD 21 00 79                 ld      iy, #obj_state_tbl
ROM:191C 06 10                       ld      b, #16
ROM:191E
ROM:191E             loc_191E:
ROM:191E D5                          push    de
ROM:191F
ROM:191F             loc_191F:
ROM:191F CD 5D 19                    call    check_object_on_target
ROM:1922 30 28                       jr      NC, loc_194C
ROM:1924 FD 36 00 03                 ld      0(iy), #3
ROM:1928 3A 28 80                    ld      a, (attract_mode_stage)
ROM:192B A7                          and     a
ROM:192C 20 1E                       jr      NZ, loc_194C
ROM:192E 3E 03                       ld      a, #3
ROM:1930 FD 84                       add     a, yh
ROM:1932 67                          ld      h, a
ROM:1933 FD 7D                       ld      a, yl
ROM:1935 CB FF                       set     7, a
ROM:1937 6F                          ld      l, a
ROM:1938 7E                          ld      a, (hl)
ROM:1939 21 E1 3D                    ld      hl, #object_value_tbl
ROM:193C D7                          rst     HL_plus_equals_A
ROM:193D EB                          ex      de, hl
ROM:193E C5                          push    bc
ROM:193F E7                          rst     add_to_score
ROM:1940 21 56 19                    ld      hl, #ground_explosion_snd_data
ROM:1943 11 90 80                    ld      de, #unk_8090
ROM:1946 01 07 00                    ld      bc, #7
ROM:1949 ED B0                       ldir
ROM:194B C1                          pop     bc
ROM:194C
ROM:194C             loc_194C:
ROM:194C D1                          pop     de
ROM:194D FD 2C                       inc     yl
ROM:194F FD 2C                       inc     yl
ROM:1951 10 CB                       djnz    loc_191E
ROM:1953 C9                          ret
ROM:1953             ; End of function handle_bombed_obj_and_award_points
ROM:1953
ROM:1954             ; ---------------------------------------------------------------------------
ROM:1954             ; START OF FUNCTION CHUNK FOR check_object_on_target
ROM:1954
ROM:1954             loc_1954:
ROM:1954 A7                          and     a
ROM:1955 C9                          ret
ROM:1955             ; END OF FUNCTION CHUNK FOR check_object_on_target
ROM:1955             ; ---------------------------------------------------------------------------
ROM:1956 40 40 40 01+ground_explosion_snd_data:.db 0x40, 0x40, 0x40, 1, 0xFF, 0x20, 0x20
ROM:195D
ROM:195D             ; =============== S U B R O U T I N E =======================================
ROM:195D
ROM:195D
ROM:195D             check_object_on_target:
ROM:195D
ROM:195D             ; FUNCTION CHUNK AT ROM:1954 SIZE 00000002 BYTES
ROM:195D
ROM:195D 3E 02                       ld      a, #2
ROM:195F FD BE 00                    cp      0(iy)
ROM:1962 20 F0                       jr      NZ, loc_1954
ROM:1964 3E 09                       ld      a, #9
ROM:1966 FD 84                       add     a, yh
ROM:1968 67                          ld      h, a
ROM:1969 FD 7D                       ld      a, yl
ROM:196B 6F                          ld      l, a
ROM:196C 7B                          ld      a, e
ROM:196D 96                          sub     (hl)
ROM:196E D6 0A                       sub     #0xA
ROM:1970 C6 14                       add     a, #0x14
ROM:1972 D0                          ret     NC
ROM:1973 2C                          inc     l
ROM:1974 24                          inc     h
ROM:1975 7E                          ld      a, (hl)
ROM:1976 1F                          rra
ROM:1977 25                          dec     h
ROM:1978 7E                          ld      a, (hl)
ROM:1979 1F                          rra
ROM:197A 92                          sub     d
ROM:197B D6 05                       sub     #5
ROM:197D C6 0A                       add     a, #0xA
ROM:197F C9                          ret
ROM:197F             ; End of function check_object_on_target
ROM:197F
ROM:1980             ; ---------------------------------------------------------------------------
ROM:1980
ROM:1980             handle_1E_Barra:
ROM:1980 16 79                       ld      d, #0x79 ; 'y'
ROM:1982 DD 5D                       ld      e, xl
ROM:1984 EB                          ex      de, hl
ROM:1985 36 02                       ld      (hl), #2
ROM:1987 2C                          inc     l
ROM:1988 36 00                       ld      (hl), #0
ROM:198A 26 7C                       ld      h, #0x7C ; '|'
ROM:198C 36 07                       ld      (hl), #7
ROM:198E 2D                          dec     l
ROM:198F 36 17                       ld      (hl), #0x17
ROM:1991 CB FD                       set     7, l
ROM:1993 36 0F                       ld      (hl), #15
ROM:1995 F7                          rst     save_PC_to_fn_tbl_and_ret
ROM:1996 16 79                       ld      d, #0x79 ; 'y'
ROM:1998 DD 5D                       ld      e, xl
ROM:199A EB                          ex      de, hl
ROM:199B 7E                          ld      a, (hl)
ROM:199C FE 03                       cp      #3
ROM:199E CA 86 31                    jp      Z, handle_bomb_explosion
ROM:19A1 EB                          ex      de, hl
ROM:19A2 14                          inc     d
ROM:19A3 CD E8 30                    call    scroll_sprite_X
ROM:19A6 C3 79 30                    jp      add_obj_handler
ROM:19A9             ; ---------------------------------------------------------------------------
ROM:19A9
ROM:19A9             handle_20_Garu_Barra:
ROM:19A9 16 79                       ld      d, #0x79 ; 'y'
ROM:19AB DD 5D                       ld      e, xl
ROM:19AD EB                          ex      de, hl
ROM:19AE 36 03                       ld      (hl), #3
ROM:19B0 2C                          inc     l
ROM:19B1 5D                          ld      e, l
ROM:19B2 36 03                       ld      (hl), #3
ROM:19B4 2C                          inc     l
ROM:19B5 36 02                       ld      (hl), #2
ROM:19B7 2C                          inc     l
ROM:19B8 36 00                       ld      (hl), #0
ROM:19BA 24                          inc     h
ROM:19BB 36 01                       ld      (hl), #1
ROM:19BD 24                          inc     h
ROM:19BE 16 7B                       ld      d, #0x7B ; '{'
ROM:19C0 1A                          ld      a, (de)
ROM:19C1 3D                          dec     a
ROM:19C2 77                          ld      (hl), a
ROM:19C3 2D                          dec     l
ROM:19C4 1D                          dec     e
ROM:19C5 1A                          ld      a, (de)
ROM:19C6 77                          ld      (hl), a
ROM:19C7 24                          inc     h
ROM:19C8 36 17                       ld      (hl), #0x17
ROM:19CA 2C                          inc     l
ROM:19CB 36 07                       ld      (hl), #7
ROM:19CD 2D                          dec     l
ROM:19CE CB FD                       set     7, l
ROM:19D0 36 1B                       ld      (hl), #0x1B
ROM:19D2 CB BD                       res     7, l
ROM:19D4 2D                          dec     l
ROM:19D5 2D                          dec     l
ROM:19D6 36 48                       ld      (hl), #0x48 ; 'H'
ROM:19D8 2C                          inc     l
ROM:19D9 2C                          inc     l
ROM:19DA 26 78                       ld      h, #0x78 ; 'x'
ROM:19DC 11 FD 19                    ld      de, #garu_barra_handler
ROM:19DF 73                          ld      (hl), e
ROM:19E0 2C                          inc     l
ROM:19E1 72                          ld      (hl), d
ROM:19E2 11 EB 19                    ld      de, #loc_19EB
ROM:19E5 DD 73 00                    ld      0(ix), e
ROM:19E8 DD 72 01                    ld      1(ix), d
ROM:19EB
ROM:19EB             loc_19EB:
ROM:19EB 16 7C                       ld      d, #0x7C ; '|'
ROM:19ED DD 5D                       ld      e, xl
ROM:19EF 1C                          inc     e
ROM:19F0 3A 1C 80                    ld      a, (pulsing_colour_1)
ROM:19F3 12                          ld      (de), a
ROM:19F4 1D                          dec     e
ROM:19F5 16 7A                       ld      d, #0x7A ; 'z'
ROM:19F7 CD E8 30                    call    scroll_sprite_X
ROM:19FA C3 79 30                    jp      add_obj_handler
ROM:19FD             ; ---------------------------------------------------------------------------
ROM:19FD
ROM:19FD             garu_barra_handler:
ROM:19FD 16 79                       ld      d, #0x79 ; 'y'
ROM:19FF DD 5D                       ld      e, xl
ROM:1A01 EB                          ex      de, hl
ROM:1A02 7E                          ld      a, (hl)
ROM:1A03 FE 03                       cp      #3
ROM:1A05 CA 16 32                    jp      Z, explode_and_remove_object
ROM:1A08 EB                          ex      de, hl
ROM:1A09 14                          inc     d
ROM:1A0A CD E8 30                    call    scroll_sprite_X
ROM:1A0D C3 79 30                    jp      add_obj_handler
ROM:1A10             ; ---------------------------------------------------------------------------
ROM:1A10
ROM:1A10             handle_1F_Zolbak:
ROM:1A10 16 79                       ld      d, #0x79 ; 'y'
ROM:1A12 DD 5D                       ld      e, xl
ROM:1A14 EB                          ex      de, hl
ROM:1A15 36 02                       ld      (hl), #2
ROM:1A17 2C                          inc     l
ROM:1A18 36 00                       ld      (hl), #0
ROM:1A1A 26 7C                       ld      h, #0x7C ; '|'
ROM:1A1C 2D                          dec     l
ROM:1A1D 36 1F                       ld      (hl), #0x1F
ROM:1A1F CB FD                       set     7, l
ROM:1A21 36 15                       ld      (hl), #21
ROM:1A23 F7                          rst     save_PC_to_fn_tbl_and_ret
ROM:1A24 16 79                       ld      d, #0x79 ; 'y'
ROM:1A26 DD 5D                       ld      e, xl
ROM:1A28 EB                          ex      de, hl
ROM:1A29 7E                          ld      a, (hl)
ROM:1A2A FE 03                       cp      #3
ROM:1A2C 28 11                       jr      Z, reduce_enemy_ai_by_2
ROM:1A2E 26 7C                       ld      h, #0x7C ; '|'
ROM:1A30 2C                          inc     l
ROM:1A31 3A 1C 80                    ld      a, (pulsing_colour_1)
ROM:1A34 77                          ld      (hl), a
ROM:1A35 EB                          ex      de, hl
ROM:1A36 1D                          dec     e
ROM:1A37 16 7A                       ld      d, #0x7A ; 'z'
ROM:1A39 CD E8 30                    call    scroll_sprite_X
ROM:1A3C C3 79 30                    jp      add_obj_handler
ROM:1A3F             ; ---------------------------------------------------------------------------
ROM:1A3F
ROM:1A3F             reduce_enemy_ai_by_2:
ROM:1A3F 3A 88 81                    ld      a, (enemy_AI_level)
ROM:1A42 D6 02                       sub     #2
ROM:1A44 30 01                       jr      NC, loc_1A47
ROM:1A46 AF                          xor     a
ROM:1A47
ROM:1A47             loc_1A47:
ROM:1A47 32 88 81                    ld      (enemy_AI_level), a
ROM:1A4A C3 86 31                    jp      handle_bomb_explosion
ROM:1A4D             ; ---------------------------------------------------------------------------
ROM:1A4D
ROM:1A4D             handle_26_Logram:
ROM:1A4D 16 7E                       ld      d, #0x7E ; '~'
ROM:1A4F DD 5D                       ld      e, xl
ROM:1A51 3A A3 81                    ld      a, (ffreq_mask_logram)
ROM:1A54 12                          ld      (de), a
ROM:1A55 16 79                       ld      d, #0x79 ; 'y'
ROM:1A57 18 10                       jr      handle_logram_init
ROM:1A59             ; ---------------------------------------------------------------------------
ROM:1A59
ROM:1A59             handle_27_Logram_81B0_unused:
ROM:1A59 16 7E                       ld      d, #0x7E ; '~'
ROM:1A5B DD 5D                       ld      e, xl
ROM:1A5D 3A B0 81                    ld      a, (ffreq_mask_81B0_unused)
ROM:1A60 12                          ld      (de), a
ROM:1A61 16 79                       ld      d, #0x79 ; 'y'
ROM:1A63 18 04                       jr      handle_logram_init
ROM:1A65             ; ---------------------------------------------------------------------------
ROM:1A65
ROM:1A65             handle_19_Logram_unused:
ROM:1A65 16 79                       ld      d, #0x79 ; 'y'
ROM:1A67 DD 5D                       ld      e, xl
ROM:1A69
ROM:1A69             handle_logram_init:
ROM:1A69 EB                          ex      de, hl
ROM:1A6A 36 02                       ld      (hl), #2
ROM:1A6C 2C                          inc     l
ROM:1A6D 36 00                       ld      (hl), #0
ROM:1A6F 26 7C                       ld      h, #0x7C ; '|'
ROM:1A71 2D                          dec     l
ROM:1A72 36 2C                       ld      (hl), #0x2C ; ','
ROM:1A74 CB FD                       set     7, l
ROM:1A76 36 1B                       ld      (hl), #0x1B
ROM:1A78 CB BD                       res     7, l
ROM:1A7A 26 7E                       ld      h, #0x7E ; '~'
ROM:1A7C CD E4 0E                    call    pseudo_random_gen
ROM:1A7F A6                          and     (hl)
ROM:1A80 3C                          inc     a
ROM:1A81 25                          dec     h
ROM:1A82 77                          ld      (hl), a
ROM:1A83 F7                          rst     save_PC_to_fn_tbl_and_ret
ROM:1A84
ROM:1A84             handle_logram_main:
ROM:1A84 16 79                       ld      d, #0x79 ; 'y'
ROM:1A86 DD 5D                       ld      e, xl
ROM:1A88 EB                          ex      de, hl
ROM:1A89 7E                          ld      a, (hl)
ROM:1A8A FE 03                       cp      #3
ROM:1A8C CA 86 31                    jp      Z, handle_bomb_explosion
ROM:1A8F 26 7A                       ld      h, #0x7A ; 'z'
ROM:1A91 2C                          inc     l
ROM:1A92 3A B1 81                    ld      a, (gnd_stop_firing_row)
ROM:1A95 BE                          cp      (hl)
ROM:1A96 38 64                       jr      C, handle_logram_exit
ROM:1A98 2D                          dec     l
ROM:1A99 26 7D                       ld      h, #0x7D ; '}'
ROM:1A9B 3A 01 80                    ld      a, (countup_timer_1)
ROM:1A9E E6 07                       and     #7
ROM:1AA0 20 37                       jr      NZ, set_logram_colour
ROM:1AA2 35                          dec     (hl)
ROM:1AA3 20 34                       jr      NZ, set_logram_colour
ROM:1AA5 11 AE 1A                    ld      de, #loc_1AAE
ROM:1AA8 DD 73 00                    ld      0(ix), e
ROM:1AAB DD 72 01                    ld      1(ix), d
ROM:1AAE
ROM:1AAE             loc_1AAE:
ROM:1AAE 16 79                       ld      d, #0x79 ; 'y'
ROM:1AB0 DD 5D                       ld      e, xl
ROM:1AB2 EB                          ex      de, hl
ROM:1AB3 7E                          ld      a, (hl)
ROM:1AB4 FE 03                       cp      #3
ROM:1AB6 CA 86 31                    jp      Z, handle_bomb_explosion
ROM:1AB9 26 7D                       ld      h, #0x7D ; '}'
ROM:1ABB 34                          inc     (hl)
ROM:1ABC 7E                          ld      a, (hl)
ROM:1ABD FE 0C                       cp      #0xC
ROM:1ABF 20 06                       jr      NZ, loc_1AC7
ROM:1AC1 E5                          push    hl
ROM:1AC2 CD 87 32                    call    init_new_bullet
ROM:1AC5 E1                          pop     hl
ROM:1AC6 7E                          ld      a, (hl)
ROM:1AC7
ROM:1AC7             loc_1AC7:
ROM:1AC7 0F                          rrca
ROM:1AC8 0F                          rrca
ROM:1AC9 E6 07                       and     #7
ROM:1ACB FE 07                       cp      #7
ROM:1ACD 28 1A                       jr      Z, start_logram_shot_timer
ROM:1ACF EB                          ex      de, hl
ROM:1AD0 21 19 1B                    ld      hl, #logram_sprite_anim_tbl
ROM:1AD3 D7                          rst     HL_plus_equals_A
ROM:1AD4 15                          dec     d
ROM:1AD5 7E                          ld      a, (hl)
ROM:1AD6 12                          ld      (de), a
ROM:1AD7 14                          inc     d
ROM:1AD8 EB                          ex      de, hl
ROM:1AD9
ROM:1AD9             set_logram_colour:
ROM:1AD9 2C                          inc     l
ROM:1ADA 25                          dec     h
ROM:1ADB 3A 1C 80                    ld      a, (pulsing_colour_1)
ROM:1ADE 77                          ld      (hl), a
ROM:1ADF 2D                          dec     l
ROM:1AE0 26 7A                       ld      h, #0x7A ; 'z'
ROM:1AE2 EB                          ex      de, hl
ROM:1AE3 CD E8 30                    call    scroll_sprite_X
ROM:1AE6 C3 79 30                    jp      add_obj_handler
ROM:1AE9             ; ---------------------------------------------------------------------------
ROM:1AE9
ROM:1AE9             start_logram_shot_timer:
ROM:1AE9 24                          inc     h
ROM:1AEA CD E4 0E                    call    pseudo_random_gen
ROM:1AED A6                          and     (hl)
ROM:1AEE 3C                          inc     a
ROM:1AEF 25                          dec     h
ROM:1AF0 77                          ld      (hl), a
ROM:1AF1 11 84 1A                    ld      de, #handle_logram_main
ROM:1AF4 DD 73 00                    ld      0(ix), e
ROM:1AF7 DD 72 01                    ld      1(ix), d
ROM:1AFA 18 DD                       jr      set_logram_colour
ROM:1AFC             ; ---------------------------------------------------------------------------
ROM:1AFC
ROM:1AFC             handle_logram_exit:
ROM:1AFC 11 05 1B                    ld      de, #loc_1B05
ROM:1AFF DD 73 00                    ld      0(ix), e
ROM:1B02 DD 72 01                    ld      1(ix), d
ROM:1B05
ROM:1B05             loc_1B05:
ROM:1B05 16 79                       ld      d, #0x79 ; 'y'
ROM:1B07 DD 5D                       ld      e, xl
ROM:1B09 EB                          ex      de, hl
ROM:1B0A 7E                          ld      a, (hl)
ROM:1B0B FE 03                       cp      #3
ROM:1B0D CA 86 31                    jp      Z, handle_bomb_explosion
ROM:1B10 EB                          ex      de, hl
ROM:1B11 16 7A                       ld      d, #0x7A ; 'z'
ROM:1B13 CD E8 30                    call    scroll_sprite_X
ROM:1B16 C3 79 30                    jp      add_obj_handler
ROM:1B16             ; ---------------------------------------------------------------------------
ROM:1B19 2C          logram_sprite_anim_tbl:.db 0x2C ; ,
ROM:1B1A 2D                          .db 0x2D ; -
ROM:1B1B 2E                          .db 0x2E ; .
ROM:1B1C 2F                          .db 0x2F ; /
ROM:1B1D 2E                          .db 0x2E ; .
ROM:1B1E 2D                          .db 0x2D ; -
ROM:1B1F 2C                          .db 0x2C ; ,
ROM:1B20             ; ---------------------------------------------------------------------------
ROM:1B20
ROM:1B20             handle_1B_Derota:
ROM:1B20 16 7E                       ld      d, #0x7E ; '~'
ROM:1B22 DD 5D                       ld      e, xl
ROM:1B24 3A A0 81                    ld      a, (ffreq_mask_derota)
ROM:1B27 12                          ld      (de), a
ROM:1B28 16 79                       ld      d, #0x79 ; 'y'
ROM:1B2A 18 10                       jr      init_derota
ROM:1B2C             ; ---------------------------------------------------------------------------
ROM:1B2C
ROM:1B2C             handle_1C_Derota_81B0_unused:
ROM:1B2C 16 7E                       ld      d, #0x7E ; '~'
ROM:1B2E DD 5D                       ld      e, xl
ROM:1B30 3A B0 81                    ld      a, (ffreq_mask_81B0_unused)
ROM:1B33 12                          ld      (de), a
ROM:1B34 16 79                       ld      d, #0x79 ; 'y'
ROM:1B36 18 04                       jr      init_derota
ROM:1B38             ; ---------------------------------------------------------------------------
ROM:1B38
ROM:1B38             handle_1A_Derota_unused:
ROM:1B38 16 79                       ld      d, #0x79 ; 'y'
ROM:1B3A DD 5D                       ld      e, xl
ROM:1B3C
ROM:1B3C             init_derota:
ROM:1B3C EB                          ex      de, hl
ROM:1B3D 36 02                       ld      (hl), #2
ROM:1B3F 2C                          inc     l
ROM:1B40 36 00                       ld      (hl), #0
ROM:1B42 26 7C                       ld      h, #0x7C ; '|'
ROM:1B44 2D                          dec     l
ROM:1B45 36 27                       ld      (hl), #0x27 ; '''
ROM:1B47 CB FD                       set     7, l
ROM:1B49 36 30                       ld      (hl), #0x30 ; '0'
ROM:1B4B CB BD                       res     7, l
ROM:1B4D 26 7E                       ld      h, #0x7E ; '~'
ROM:1B4F CD E4 0E                    call    pseudo_random_gen
ROM:1B52 A6                          and     (hl)
ROM:1B53 3C                          inc     a
ROM:1B54 25                          dec     h
ROM:1B55 77                          ld      (hl), a
ROM:1B56 F7                          rst     save_PC_to_fn_tbl_and_ret
ROM:1B57 16 79                       ld      d, #0x79 ; 'y'
ROM:1B59 DD 5D                       ld      e, xl
ROM:1B5B EB                          ex      de, hl
ROM:1B5C 7E                          ld      a, (hl)
ROM:1B5D FE 03                       cp      #3
ROM:1B5F CA 86 31                    jp      Z, handle_bomb_explosion
ROM:1B62 26 7D                       ld      h, #0x7D ; '}'
ROM:1B64 16 7A                       ld      d, #0x7A ; 'z'
ROM:1B66 5D                          ld      e, l
ROM:1B67 1C                          inc     e
ROM:1B68 1A                          ld      a, (de)
ROM:1B69 4F                          ld      c, a
ROM:1B6A 3A B1 81                    ld      a, (gnd_stop_firing_row)
ROM:1B6D B9                          cp      c
ROM:1B6E D4 71 32                    call    NC, chk_timer_fire_bullet_reinit_timer
ROM:1B71 25                          dec     h
ROM:1B72 2C                          inc     l
ROM:1B73 3A 1C 80                    ld      a, (pulsing_colour_1)
ROM:1B76 77                          ld      (hl), a
ROM:1B77 2D                          dec     l
ROM:1B78 26 7A                       ld      h, #0x7A ; 'z'
ROM:1B7A EB                          ex      de, hl
ROM:1B7B CD E8 30                    call    scroll_sprite_X
ROM:1B7E C3 79 30                    jp      add_obj_handler
ROM:1B81             ; ---------------------------------------------------------------------------
ROM:1B81
ROM:1B81             handle_21_Garu_Derota:
ROM:1B81 16 79                       ld      d, #0x79 ; 'y'
ROM:1B83 DD 5D                       ld      e, xl
ROM:1B85 EB                          ex      de, hl
ROM:1B86 36 03                       ld      (hl), #3
ROM:1B88 2C                          inc     l
ROM:1B89 5D                          ld      e, l
ROM:1B8A 36 03                       ld      (hl), #3
ROM:1B8C 2C                          inc     l
ROM:1B8D 36 02                       ld      (hl), #2
ROM:1B8F 2C                          inc     l
ROM:1B90 36 00                       ld      (hl), #0
ROM:1B92 24                          inc     h
ROM:1B93 36 01                       ld      (hl), #1
ROM:1B95 24                          inc     h
ROM:1B96 16 7B                       ld      d, #0x7B ; '{'
ROM:1B98 1A                          ld      a, (de)
ROM:1B99 3D                          dec     a
ROM:1B9A 77                          ld      (hl), a
ROM:1B9B 2D                          dec     l
ROM:1B9C 1D                          dec     e
ROM:1B9D 1A                          ld      a, (de)
ROM:1B9E 77                          ld      (hl), a
ROM:1B9F 24                          inc     h
ROM:1BA0 36 27                       ld      (hl), #0x27 ; '''
ROM:1BA2 CB FD                       set     7, l
ROM:1BA4 36 36                       ld      (hl), #0x36 ; '6'
ROM:1BA6 CB BD                       res     7, l
ROM:1BA8 2D                          dec     l
ROM:1BA9 2D                          dec     l
ROM:1BAA 36 44                       ld      (hl), #0x44 ; 'D'
ROM:1BAC 2C                          inc     l
ROM:1BAD 2C                          inc     l
ROM:1BAE 26 7E                       ld      h, #0x7E ; '~'
ROM:1BB0 3A A0 81                    ld      a, (ffreq_mask_derota)
ROM:1BB3 77                          ld      (hl), a
ROM:1BB4 CD E4 0E                    call    pseudo_random_gen
ROM:1BB7 A6                          and     (hl)
ROM:1BB8 3C                          inc     a
ROM:1BB9 25                          dec     h
ROM:1BBA 77                          ld      (hl), a
ROM:1BBB 26 78                       ld      h, #0x78 ; 'x'
ROM:1BBD 11 DE 1B                    ld      de, #garu_derota_handler
ROM:1BC0 73                          ld      (hl), e
ROM:1BC1 2C                          inc     l
ROM:1BC2 72                          ld      (hl), d
ROM:1BC3 11 CC 1B                    ld      de, #loc_1BCC
ROM:1BC6 DD 73 00                    ld      0(ix), e
ROM:1BC9 DD 72 01                    ld      1(ix), d
ROM:1BCC
ROM:1BCC             loc_1BCC:
ROM:1BCC 16 7C                       ld      d, #0x7C ; '|'
ROM:1BCE DD 5D                       ld      e, xl
ROM:1BD0 1C                          inc     e
ROM:1BD1 3A 1C 80                    ld      a, (pulsing_colour_1)
ROM:1BD4 12                          ld      (de), a
ROM:1BD5 1D                          dec     e
ROM:1BD6 16 7A                       ld      d, #0x7A ; 'z'
ROM:1BD8 CD E8 30                    call    scroll_sprite_X
ROM:1BDB C3 79 30                    jp      add_obj_handler
ROM:1BDE             ; ---------------------------------------------------------------------------
ROM:1BDE
ROM:1BDE             garu_derota_handler:
ROM:1BDE 16 79                       ld      d, #0x79 ; 'y'
ROM:1BE0 DD 5D                       ld      e, xl
ROM:1BE2 EB                          ex      de, hl
ROM:1BE3 7E                          ld      a, (hl)
ROM:1BE4 FE 03                       cp      #3
ROM:1BE6 CA 16 32                    jp      Z, explode_and_remove_object
ROM:1BE9 26 7D                       ld      h, #0x7D ; '}'
ROM:1BEB CD 71 32                    call    chk_timer_fire_bullet_reinit_timer
ROM:1BEE 25                          dec     h
ROM:1BEF 2C                          inc     l
ROM:1BF0 3A 1C 80                    ld      a, (pulsing_colour_1)
ROM:1BF3 77                          ld      (hl), a
ROM:1BF4 2D                          dec     l
ROM:1BF5 26 7A                       ld      h, #0x7A ; 'z'
ROM:1BF7 EB                          ex      de, hl
ROM:1BF8 CD E8 30                    call    scroll_sprite_X
ROM:1BFB C3 79 30                    jp      add_obj_handler
ROM:1BFE             ; ---------------------------------------------------------------------------
ROM:1BFE
ROM:1BFE             handle_2D_Boza_Logram:
ROM:1BFE C5                          push    bc
ROM:1BFF 16 78                       ld      d, #0x78 ; 'x'
ROM:1C01 DD 5D                       ld      e, xl
ROM:1C03 D5                          push    de
ROM:1C04 21 67 1C                    ld      hl, #boza_logram_handler_tbl
ROM:1C07 01 0A 00                    ld      bc, #10
ROM:1C0A ED B0                       ldir
ROM:1C0C D1                          pop     de
ROM:1C0D 14                          inc     d
ROM:1C0E D5                          push    de
ROM:1C0F 6B                          ld      l, e
ROM:1C10 62                          ld      h, d
ROM:1C11 36 02                       ld      (hl), #2
ROM:1C13 2C                          inc     l
ROM:1C14 36 00                       ld      (hl), #0
ROM:1C16 2C                          inc     l
ROM:1C17 EB                          ex      de, hl
ROM:1C18 01 08 00                    ld      bc, #8
ROM:1C1B ED B0                       ldir
ROM:1C1D D1                          pop     de
ROM:1C1E D5                          push    de
ROM:1C1F CB FB                       set     7, e
ROM:1C21 7B                          ld      a, e
ROM:1C22 C6 08                       add     a, #8
ROM:1C24 EB                          ex      de, hl
ROM:1C25 E5                          push    hl
ROM:1C26 77                          ld      (hl), a
ROM:1C27 2C                          inc     l
ROM:1C28 36 7C                       ld      (hl), #0x7C ; '|'
ROM:1C2A 2C                          inc     l
ROM:1C2B EB                          ex      de, hl
ROM:1C2C E1                          pop     hl
ROM:1C2D 01 06 00                    ld      bc, #6
ROM:1C30 ED B0                       ldir
ROM:1C32 D1                          pop     de
ROM:1C33 14                          inc     d
ROM:1C34 D5                          push    de
ROM:1C35 21 71 1C                    ld      hl, #boza_logram_spriteX_tbl
ROM:1C38 01 0A 00                    ld      bc, #10
ROM:1C3B ED B0                       ldir
ROM:1C3D D1                          pop     de
ROM:1C3E 14                          inc     d
ROM:1C3F EB                          ex      de, hl
ROM:1C40 4E                          ld      c, (hl)
ROM:1C41 2C                          inc     l
ROM:1C42 46                          ld      b, (hl)
ROM:1C43 2C                          inc     l
ROM:1C44 3E 80                       ld      a, #0x80 ; '€'
ROM:1C46 81                          add     a, c
ROM:1C47 F5                          push    af
ROM:1C48 77                          ld      (hl), a
ROM:1C49 2C                          inc     l
ROM:1C4A 70                          ld      (hl), b
ROM:1C4B F1                          pop     af
ROM:1C4C 30 01                       jr      NC, loc_1C4F
ROM:1C4E 34                          inc     (hl)
ROM:1C4F
ROM:1C4F             loc_1C4F:
ROM:1C4F 34                          inc     (hl)
ROM:1C50 2C                          inc     l
ROM:1C51 79                          ld      a, c
ROM:1C52 D6 80                       sub     #0x80 ; '€'
ROM:1C54 F5                          push    af
ROM:1C55 77                          ld      (hl), a
ROM:1C56 2C                          inc     l
ROM:1C57 70                          ld      (hl), b
ROM:1C58 F1                          pop     af
ROM:1C59 30 01                       jr      NC, loc_1C5C
ROM:1C5B 35                          dec     (hl)
ROM:1C5C
ROM:1C5C             loc_1C5C:
ROM:1C5C 35                          dec     (hl)
ROM:1C5D 2C                          inc     l
ROM:1C5E 71                          ld      (hl), c
ROM:1C5F 2C                          inc     l
ROM:1C60 70                          ld      (hl), b
ROM:1C61 2C                          inc     l
ROM:1C62 71                          ld      (hl), c
ROM:1C63 2C                          inc     l
ROM:1C64 70                          ld      (hl), b
ROM:1C65 C1                          pop     bc
ROM:1C66 C9                          ret
ROM:1C66             ; ---------------------------------------------------------------------------
ROM:1C67 BE 1C       boza_logram_handler_tbl:.dw handle_boza_logram_outer
ROM:1C69 BE 1C                       .dw handle_boza_logram_outer
ROM:1C6B BE 1C                       .dw handle_boza_logram_outer
ROM:1C6D BE 1C                       .dw handle_boza_logram_outer
ROM:1C6F 7B 1C                       .dw handle_boza_logram_centre
ROM:1C71 00 00 80 01+boza_logram_spriteX_tbl:.db 0, 0, 0x80, 1, 0x80, 1, 0, 3, 0x80, 1
ROM:1C7B             ; ---------------------------------------------------------------------------
ROM:1C7B
ROM:1C7B             handle_boza_logram_centre:
ROM:1C7B 16 7C                       ld      d, #0x7C ; '|'
ROM:1C7D DD 5D                       ld      e, xl
ROM:1C7F EB                          ex      de, hl
ROM:1C80 36 3A                       ld      (hl), #0x3A ; ':'
ROM:1C82 CB FD                       set     7, l
ROM:1C84 36 36                       ld      (hl), #54
ROM:1C86 11 8F 1C                    ld      de, #loc_1C8F
ROM:1C89 DD 73 00                    ld      0(ix), e
ROM:1C8C DD 72 01                    ld      1(ix), d
ROM:1C8F
ROM:1C8F             loc_1C8F:
ROM:1C8F 16 79                       ld      d, #0x79 ; 'y'
ROM:1C91 DD 5D                       ld      e, xl
ROM:1C93 EB                          ex      de, hl
ROM:1C94 7E                          ld      a, (hl)
ROM:1C95 FE 03                       cp      #3
ROM:1C97 28 11                       jr      Z, destroy_all_outer_lograms
ROM:1C99 26 7C                       ld      h, #0x7C ; '|'
ROM:1C9B 2C                          inc     l
ROM:1C9C 3A 1C 80                    ld      a, (pulsing_colour_1)
ROM:1C9F 77                          ld      (hl), a
ROM:1CA0 2D                          dec     l
ROM:1CA1 26 7A                       ld      h, #0x7A ; 'z'
ROM:1CA3 EB                          ex      de, hl
ROM:1CA4 CD E8 30                    call    scroll_sprite_X
ROM:1CA7 C3 79 30                    jp      add_obj_handler
ROM:1CAA             ; ---------------------------------------------------------------------------
ROM:1CAA
ROM:1CAA             destroy_all_outer_lograms:
ROM:1CAA 54                          ld      d, h
ROM:1CAB 5D                          ld      e, l
ROM:1CAC 3E 03                       ld      a, #3
ROM:1CAE 2D                          dec     l
ROM:1CAF 2D                          dec     l
ROM:1CB0 77                          ld      (hl), a
ROM:1CB1 2D                          dec     l
ROM:1CB2 2D                          dec     l
ROM:1CB3 77                          ld      (hl), a
ROM:1CB4 2D                          dec     l
ROM:1CB5 2D                          dec     l
ROM:1CB6 77                          ld      (hl), a
ROM:1CB7 2D                          dec     l
ROM:1CB8 2D                          dec     l
ROM:1CB9 77                          ld      (hl), a
ROM:1CBA EB                          ex      de, hl
ROM:1CBB C3 86 31                    jp      handle_bomb_explosion
ROM:1CBE             ; ---------------------------------------------------------------------------
ROM:1CBE
ROM:1CBE             handle_boza_logram_outer:
ROM:1CBE 16 7C                       ld      d, #0x7C ; '|'
ROM:1CC0 DD 5D                       ld      e, xl
ROM:1CC2 EB                          ex      de, hl
ROM:1CC3 26 7C                       ld      h, #0x7C ; '|'
ROM:1CC5 36 2C                       ld      (hl), #0x2C ; ','
ROM:1CC7 CB FD                       set     7, l
ROM:1CC9 36 1B                       ld      (hl), #0x1B
ROM:1CCB CB BD                       res     7, l
ROM:1CCD 26 7E                       ld      h, #0x7E ; '~'
ROM:1CCF 3A A5 81                    ld      a, (ffreq_mask_boza_logram)
ROM:1CD2 77                          ld      (hl), a
ROM:1CD3 CD E4 0E                    call    pseudo_random_gen
ROM:1CD6 A6                          and     (hl)
ROM:1CD7 3C                          inc     a
ROM:1CD8 25                          dec     h
ROM:1CD9 77                          ld      (hl), a
ROM:1CDA F7                          rst     save_PC_to_fn_tbl_and_ret
ROM:1CDB
ROM:1CDB             boza_logram_outer_main:
ROM:1CDB 16 79                       ld      d, #0x79 ; 'y'
ROM:1CDD DD 5D                       ld      e, xl
ROM:1CDF EB                          ex      de, hl
ROM:1CE0 7E                          ld      a, (hl)
ROM:1CE1 FE 03                       cp      #3
ROM:1CE3 28 59                       jr      Z, update_centre_points_value
ROM:1CE5 26 7A                       ld      h, #0x7A ; 'z'
ROM:1CE7 2C                          inc     l
ROM:1CE8 3A B1 81                    ld      a, (gnd_stop_firing_row)
ROM:1CEB BE                          cp      (hl)
ROM:1CEC 38 70                       jr      C, boza_logram_outer_idle
ROM:1CEE 2D                          dec     l
ROM:1CEF 26 7D                       ld      h, #0x7D ; '}'
ROM:1CF1 3A 01 80                    ld      a, (countup_timer_1)
ROM:1CF4 E6 07                       and     #7
ROM:1CF6 20 36                       jr      NZ, pulse_boza_logram_outer
ROM:1CF8 35                          dec     (hl)
ROM:1CF9 20 33                       jr      NZ, pulse_boza_logram_outer
ROM:1CFB 11 04 1D                    ld      de, #loc_1D04
ROM:1CFE DD 73 00                    ld      0(ix), e
ROM:1D01 DD 72 01                    ld      1(ix), d
ROM:1D04
ROM:1D04             loc_1D04:
ROM:1D04 16 79                       ld      d, #0x79 ; 'y'
ROM:1D06 DD 5D                       ld      e, xl
ROM:1D08 EB                          ex      de, hl
ROM:1D09 7E                          ld      a, (hl)
ROM:1D0A FE 03                       cp      #3
ROM:1D0C 28 30                       jr      Z, update_centre_points_value
ROM:1D0E 26 7D                       ld      h, #0x7D ; '}'
ROM:1D10 34                          inc     (hl)
ROM:1D11 7E                          ld      a, (hl)
ROM:1D12 FE 0C                       cp      #0xC
ROM:1D14 20 06                       jr      NZ, loc_1D1C
ROM:1D16 E5                          push    hl
ROM:1D17 CD 87 32                    call    init_new_bullet
ROM:1D1A E1                          pop     hl
ROM:1D1B 7E                          ld      a, (hl)
ROM:1D1C
ROM:1D1C             loc_1D1C:
ROM:1D1C 0F                          rrca
ROM:1D1D 0F                          rrca
ROM:1D1E E6 07                       and     #7
ROM:1D20 FE 07                       cp      #7
ROM:1D22 28 27                       jr      Z, boza_logram_init_shot_timer
ROM:1D24 EB                          ex      de, hl
ROM:1D25 21 7A 1D                    ld      hl, #boza_logram_outer_sprite_tbl
ROM:1D28 D7                          rst     HL_plus_equals_A
ROM:1D29 15                          dec     d
ROM:1D2A 7E                          ld      a, (hl)
ROM:1D2B 12                          ld      (de), a
ROM:1D2C 14                          inc     d
ROM:1D2D EB                          ex      de, hl
ROM:1D2E
ROM:1D2E             pulse_boza_logram_outer:
ROM:1D2E 2C                          inc     l
ROM:1D2F 25                          dec     h
ROM:1D30 3A 1C 80                    ld      a, (pulsing_colour_1)
ROM:1D33 77                          ld      (hl), a
ROM:1D34 2D                          dec     l
ROM:1D35 26 7A                       ld      h, #0x7A ; 'z'
ROM:1D37 EB                          ex      de, hl
ROM:1D38 CD E8 30                    call    scroll_sprite_X
ROM:1D3B C3 79 30                    jp      add_obj_handler
ROM:1D3E             ; ---------------------------------------------------------------------------
ROM:1D3E
ROM:1D3E             update_centre_points_value:
ROM:1D3E E5                          push    hl
ROM:1D3F CB FD                       set     7, l
ROM:1D41 5E                          ld      e, (hl)
ROM:1D42 2C                          inc     l
ROM:1D43 56                          ld      d, (hl)
ROM:1D44 EB                          ex      de, hl
ROM:1D45 36 24                       ld      (hl), #36
ROM:1D47 E1                          pop     hl
ROM:1D48 C3 86 31                    jp      handle_bomb_explosion
ROM:1D4B             ; ---------------------------------------------------------------------------
ROM:1D4B
ROM:1D4B             boza_logram_init_shot_timer:
ROM:1D4B 24                          inc     h
ROM:1D4C CD E4 0E                    call    pseudo_random_gen
ROM:1D4F A6                          and     (hl)
ROM:1D50 3C                          inc     a
ROM:1D51 25                          dec     h
ROM:1D52 77                          ld      (hl), a
ROM:1D53 11 DB 1C                    ld      de, #boza_logram_outer_main
ROM:1D56 DD 73 00                    ld      0(ix), e
ROM:1D59 DD 72 01                    ld      1(ix), d
ROM:1D5C 18 D0                       jr      pulse_boza_logram_outer
ROM:1D5E             ; ---------------------------------------------------------------------------
ROM:1D5E
ROM:1D5E             boza_logram_outer_idle:
ROM:1D5E 11 67 1D                    ld      de, #loc_1D67
ROM:1D61 DD 73 00                    ld      0(ix), e
ROM:1D64 DD 72 01                    ld      1(ix), d
ROM:1D67
ROM:1D67             loc_1D67:
ROM:1D67 16 79                       ld      d, #0x79 ; 'y'
ROM:1D69 DD 5D                       ld      e, xl
ROM:1D6B EB                          ex      de, hl
ROM:1D6C 7E                          ld      a, (hl)
ROM:1D6D FE 03                       cp      #3
ROM:1D6F 28 CD                       jr      Z, update_centre_points_value
ROM:1D71 EB                          ex      de, hl
ROM:1D72 16 7A                       ld      d, #0x7A ; 'z'
ROM:1D74 CD E8 30                    call    scroll_sprite_X
ROM:1D77 C3 79 30                    jp      add_obj_handler
ROM:1D77             ; ---------------------------------------------------------------------------
ROM:1D7A 2C 2D 2E 2F+boza_logram_outer_sprite_tbl:.db 0x2C, 0x2D, 0x2E, 0x2F, 0x2E, 0x2D, 0x2C
ROM:1D81             ; ---------------------------------------------------------------------------
ROM:1D81
ROM:1D81             handle_1D_Sol_Tower:
ROM:1D81 16 79                       ld      d, #0x79 ; 'y'
ROM:1D83 DD 5D                       ld      e, xl
ROM:1D85 EB                          ex      de, hl
ROM:1D86 36 02                       ld      (hl), #2
ROM:1D88 2C                          inc     l
ROM:1D89 36 00                       ld      (hl), #0
ROM:1D8B 2D                          dec     l
ROM:1D8C 26 7C                       ld      h, #0x7C ; '|'
ROM:1D8E 36 00                       ld      (hl), #0
ROM:1D90 CB FD                       set     7, l
ROM:1D92 36 30                       ld      (hl), #0x30 ; '0'
ROM:1D94 F7                          rst     save_PC_to_fn_tbl_and_ret
ROM:1D95 16 79                       ld      d, #0x79 ; 'y'
ROM:1D97 DD 5D                       ld      e, xl
ROM:1D99 1A                          ld      a, (de)
ROM:1D9A FE 03                       cp      #3
ROM:1D9C 28 07                       jr      Z, handle_sol_tower_rising
ROM:1D9E 14                          inc     d
ROM:1D9F CD E8 30                    call    scroll_sprite_X
ROM:1DA2 C3 79 30                    jp      add_obj_handler
ROM:1DA5             ; ---------------------------------------------------------------------------
ROM:1DA5
ROM:1DA5             handle_sol_tower_rising:
ROM:1DA5 EB                          ex      de, hl
ROM:1DA6 26 7D                       ld      h, #0x7D ; '}'
ROM:1DA8 36 FF                       ld      (hl), #0xFF
ROM:1DAA 11 B3 1D                    ld      de, #loc_1DB3
ROM:1DAD DD 73 00                    ld      0(ix), e
ROM:1DB0 DD 72 01                    ld      1(ix), d
ROM:1DB3
ROM:1DB3             loc_1DB3:
ROM:1DB3 16 7D                       ld      d, #0x7D ; '}'
ROM:1DB5 DD 5D                       ld      e, xl
ROM:1DB7 EB                          ex      de, hl
ROM:1DB8 34                          inc     (hl)
ROM:1DB9 7E                          ld      a, (hl)
ROM:1DBA 0F                          rrca
ROM:1DBB 0F                          rrca
ROM:1DBC 0F                          rrca
ROM:1DBD 0F                          rrca
ROM:1DBE E6 07                       and     #7
ROM:1DC0 FE 07                       cp      #7
ROM:1DC2 28 24                       jr      Z, sol_tower_risen
ROM:1DC4 FE 04                       cp      #4
ROM:1DC6 20 08                       jr      NZ, loc_1DD0
ROM:1DC8 26 79                       ld      h, #0x79 ; 'y'
ROM:1DCA 2C                          inc     l
ROM:1DCB 36 03                       ld      (hl), #3
ROM:1DCD 2D                          dec     l
ROM:1DCE 26 7D                       ld      h, #0x7D ; '}'
ROM:1DD0
ROM:1DD0             loc_1DD0:
ROM:1DD0 25                          dec     h
ROM:1DD1 EB                          ex      de, hl
ROM:1DD2 21 11 1E                    ld      hl, #sol_tower_animation_tbl
ROM:1DD5 D7                          rst     HL_plus_equals_A
ROM:1DD6 7E                          ld      a, (hl)
ROM:1DD7 EB                          ex      de, hl
ROM:1DD8 77                          ld      (hl), a
ROM:1DD9 2C                          inc     l
ROM:1DDA 3A 1C 80                    ld      a, (pulsing_colour_1)
ROM:1DDD 77                          ld      (hl), a
ROM:1DDE 2D                          dec     l
ROM:1DDF 26 7A                       ld      h, #0x7A ; 'z'
ROM:1DE1 EB                          ex      de, hl
ROM:1DE2 CD E8 30                    call    scroll_sprite_X
ROM:1DE5 C3 79 30                    jp      add_obj_handler
ROM:1DE8             ; ---------------------------------------------------------------------------
ROM:1DE8
ROM:1DE8             sol_tower_risen:
ROM:1DE8 26 79                       ld      h, #0x79 ; 'y'
ROM:1DEA 36 02                       ld      (hl), #2
ROM:1DEC 11 F5 1D                    ld      de, #loc_1DF5
ROM:1DEF DD 73 00                    ld      0(ix), e
ROM:1DF2 DD 72 01                    ld      1(ix), d
ROM:1DF5
ROM:1DF5             loc_1DF5:
ROM:1DF5 16 79                       ld      d, #0x79 ; 'y'
ROM:1DF7 DD 5D                       ld      e, xl
ROM:1DF9 EB                          ex      de, hl
ROM:1DFA 7E                          ld      a, (hl)
ROM:1DFB FE 03                       cp      #3
ROM:1DFD CA 86 31                    jp      Z, handle_bomb_explosion
ROM:1E00 EB                          ex      de, hl
ROM:1E01 1C                          inc     e
ROM:1E02 16 7C                       ld      d, #0x7C ; '|'
ROM:1E04 3A 1C 80                    ld      a, (pulsing_colour_1)
ROM:1E07 12                          ld      (de), a
ROM:1E08 1D                          dec     e
ROM:1E09 16 7A                       ld      d, #0x7A ; 'z'
ROM:1E0B CD E8 30                    call    scroll_sprite_X
ROM:1E0E C3 79 30                    jp      add_obj_handler
ROM:1E0E             ; ---------------------------------------------------------------------------
ROM:1E11 A8          sol_tower_animation_tbl:.db 0xA8 ; ¨
ROM:1E12 A9                          .db 0xA9 ; ©
ROM:1E13 AA                          .db 0xAA ; ª
ROM:1E14 AB                          .db 0xAB ; «
ROM:1E15 AE                          .db 0xAE ; ®
ROM:1E16 B2                          .db 0xB2 ; ²
ROM:1E17 B6                          .db 0xB6 ; ¶
ROM:1E18             ; ---------------------------------------------------------------------------
ROM:1E18
ROM:1E18             handle_09_Brag_Spario:
ROM:1E18 16 79                       ld      d, #0x79 ; 'y'
ROM:1E1A DD 5D                       ld      e, xl
ROM:1E1C EB                          ex      de, hl
ROM:1E1D 36 02                       ld      (hl), #2
ROM:1E1F 26 7C                       ld      h, #0x7C ; '|'
ROM:1E21 36 15                       ld      (hl), #0x15
ROM:1E23 2C                          inc     l
ROM:1E24 36 26                       ld      (hl), #0x26 ; '&'
ROM:1E26 2D                          dec     l
ROM:1E27 CB FD                       set     7, l
ROM:1E29 36 36                       ld      (hl), #0x36 ; '6'
ROM:1E2B F7                          rst     save_PC_to_fn_tbl_and_ret
ROM:1E2C 16 79                       ld      d, #0x79 ; 'y'
ROM:1E2E DD 5D                       ld      e, xl
ROM:1E30 EB                          ex      de, hl
ROM:1E31 36 02                       ld      (hl), #2
ROM:1E33 24                          inc     h
ROM:1E34 2C                          inc     l
ROM:1E35 3A 47 7A                    ld      a, (obj_x_tbl+0x47)
ROM:1E38 BE                          cp      (hl)
ROM:1E39 CB FD                       set     7, l
ROM:1E3B 3E 00                       ld      a, #0
ROM:1E3D 38 35                       jr      C, brag_spario_ddX_sub_2
ROM:1E3F 28 02                       jr      Z, brag_spario_update_ddX
ROM:1E41 3C                          inc     a
ROM:1E42 3C                          inc     a
ROM:1E43
ROM:1E43             brag_spario_update_ddX:
ROM:1E43 77                          ld      (hl), a
ROM:1E44 CB BD                       res     7, l
ROM:1E46 24                          inc     h
ROM:1E47 3A 47 7B                    ld      a, (obj_y_tbl+0x47)
ROM:1E4A BE                          cp      (hl)
ROM:1E4B 3E 00                       ld      a, #0
ROM:1E4D 38 29                       jr      C, brag_spario_ddY_sub_2
ROM:1E4F 28 02                       jr      Z, brag_spario_update_dY
ROM:1E51 3C                          inc     a
ROM:1E52 3C                          inc     a
ROM:1E53
ROM:1E53             brag_spario_update_dY:
ROM:1E53 2D                          dec     l
ROM:1E54 CB FD                       set     7, l
ROM:1E56 86                          add     a, (hl)
ROM:1E57 77                          ld      (hl), a
ROM:1E58 25                          dec     h
ROM:1E59 2C                          inc     l
ROM:1E5A 7E                          ld      a, (hl)
ROM:1E5B 2D                          dec     l
ROM:1E5C 86                          add     a, (hl)
ROM:1E5D 77                          ld      (hl), a
ROM:1E5E CB BD                       res     7, l
ROM:1E60 26 79                       ld      h, #0x79 ; 'y'
ROM:1E62 2C                          inc     l
ROM:1E63 3A 01 80                    ld      a, (countup_timer_1)
ROM:1E66 E6 0C                       and     #0xC
ROM:1E68 C6 80                       add     a, #0x80 ; '€'
ROM:1E6A 77                          ld      (hl), a
ROM:1E6B 2D                          dec     l
ROM:1E6C 24                          inc     h
ROM:1E6D EB                          ex      de, hl
ROM:1E6E CD 91 30                    call    move_object_dX_dY
ROM:1E71 C3 79 30                    jp      add_obj_handler
ROM:1E74             ; ---------------------------------------------------------------------------
ROM:1E74
ROM:1E74             brag_spario_ddX_sub_2:
ROM:1E74 3D                          dec     a
ROM:1E75 3D                          dec     a
ROM:1E76 18 CB                       jr      brag_spario_update_ddX
ROM:1E78             ; ---------------------------------------------------------------------------
ROM:1E78
ROM:1E78             brag_spario_ddY_sub_2:
ROM:1E78 3D                          dec     a
ROM:1E79 3D                          dec     a
ROM:1E7A 18 D7                       jr      brag_spario_update_dY
ROM:1E7C             ; ---------------------------------------------------------------------------
ROM:1E7C
ROM:1E7C             handle_54_Bonus_Flag:
ROM:1E7C 16 79                       ld      d, #0x79 ; 'y'
ROM:1E7E DD 5D                       ld      e, xl
ROM:1E80 EB                          ex      de, hl
ROM:1E81 36 02                       ld      (hl), #2
ROM:1E83 2C                          inc     l
ROM:1E84 36 00                       ld      (hl), #0
ROM:1E86 26 7B                       ld      h, #0x7B ; '{'
ROM:1E88 CD 98 33                    call    gen_rnd_spriteY
ROM:1E8B 24                          inc     h
ROM:1E8C 2D                          dec     l
ROM:1E8D 36 00                       ld      (hl), #0
ROM:1E8F CB FD                       set     7, l
ROM:1E91 36 30                       ld      (hl), #0x30 ; '0'
ROM:1E93 11 9C 1E                    ld      de, #loc_1E9C
ROM:1E96 DD 73 00                    ld      0(ix), e
ROM:1E99 DD 72 01                    ld      1(ix), d
ROM:1E9C
ROM:1E9C             loc_1E9C:
ROM:1E9C 16 79                       ld      d, #0x79 ; 'y'
ROM:1E9E DD 5D                       ld      e, xl
ROM:1EA0 1A                          ld      a, (de)
ROM:1EA1 FE 03                       cp      #3
ROM:1EA3 28 08                       jr      Z, reveal_bonus_flag
ROM:1EA5 16 7A                       ld      d, #0x7A ; 'z'
ROM:1EA7 CD E8 30                    call    scroll_sprite_X
ROM:1EAA C3 79 30                    jp      add_obj_handler
ROM:1EAD             ; ---------------------------------------------------------------------------
ROM:1EAD
ROM:1EAD             reveal_bonus_flag:
ROM:1EAD EB                          ex      de, hl
ROM:1EAE 2C                          inc     l
ROM:1EAF 36 80                       ld      (hl), #0x80 ; '€'
ROM:1EB1 26 7C                       ld      h, #0x7C ; '|'
ROM:1EB3 36 0E                       ld      (hl), #0xE
ROM:1EB5 2D                          dec     l
ROM:1EB6 36 1F                       ld      (hl), #0x1F
ROM:1EB8 F7                          rst     save_PC_to_fn_tbl_and_ret
ROM:1EB9 CD F6 1E                    call    check_flag_tank_collected
ROM:1EBC 38 0A                       jr      C, score_bonus_flag
ROM:1EBE 16 7A                       ld      d, #0x7A ; 'z'
ROM:1EC0 DD 5D                       ld      e, xl
ROM:1EC2 CD E8 30                    call    scroll_sprite_X
ROM:1EC5 C3 79 30                    jp      add_obj_handler
ROM:1EC8             ; ---------------------------------------------------------------------------
ROM:1EC8
ROM:1EC8             score_bonus_flag:
ROM:1EC8 3A 16 80                    ld      a, (dswb)
ROM:1ECB CB 4F                       bit     1, a
ROM:1ECD 20 08                       jr      NZ, inc_num_solvalou
ROM:1ECF
ROM:1ECF             score_10000_for_bonus_flag_tank:
ROM:1ECF 11 20 3E                    ld      de, #pts_10000
ROM:1ED2 C5                          push    bc
ROM:1ED3 E7                          rst     add_to_score
ROM:1ED4 C1                          pop     bc
ROM:1ED5 18 0C                       jr      remove_bonus_flag_tank
ROM:1ED7             ; ---------------------------------------------------------------------------
ROM:1ED7
ROM:1ED7             inc_num_solvalou:
ROM:1ED7 3A 83 81                    ld      a, (curr_player_solvalou_left)
ROM:1EDA 3C                          inc     a
ROM:1EDB 32 83 81                    ld      (curr_player_solvalou_left), a
ROM:1EDE C5                          push    bc
ROM:1EDF CD BE 0F                    call    display_solvalou_left
ROM:1EE2 C1                          pop     bc
ROM:1EE3
ROM:1EE3             remove_bonus_flag_tank:
ROM:1EE3 16 79                       ld      d, #0x79 ; 'y'
ROM:1EE5 DD 5D                       ld      e, xl
ROM:1EE7 EB                          ex      de, hl
ROM:1EE8 36 00                       ld      (hl), #0
ROM:1EEA 26 7F                       ld      h, #0x7F ; ''
ROM:1EEC 36 00                       ld      (hl), #0
ROM:1EEE 3E 01                       ld      a, #1
ROM:1EF0 32 0D A0                    ld      (bonus_flag_snd), a
ROM:1EF3 C3 79 30                    jp      add_obj_handler
ROM:1EF6
ROM:1EF6             ; =============== S U B R O U T I N E =======================================
ROM:1EF6
ROM:1EF6
ROM:1EF6             check_flag_tank_collected:
ROM:1EF6 16 82                       ld      d, #0x82 ; '‚'
ROM:1EF8 DD 5D                       ld      e, xl
ROM:1EFA EB                          ex      de, hl
ROM:1EFB ED 5B 46 82                 ld      de, (spriteram_2_shadow+0x46)
ROM:1EFF 3A 47 83                    ld      a, (spriteram_3_shadow+0x47)
ROM:1F02 1F                          rra
ROM:1F03 CB 1A                       rr      d
ROM:1F05 7B                          ld      a, e
ROM:1F06 96                          sub     (hl)
ROM:1F07 D6 0A                       sub     #0xA
ROM:1F09 C6 14                       add     a, #0x14
ROM:1F0B D0                          ret     NC
ROM:1F0C 2C                          inc     l
ROM:1F0D 24                          inc     h
ROM:1F0E 7E                          ld      a, (hl)
ROM:1F0F 1F                          rra
ROM:1F10 25                          dec     h
ROM:1F11 7E                          ld      a, (hl)
ROM:1F12 1F                          rra
ROM:1F13 92                          sub     d
ROM:1F14 D6 05                       sub     #5
ROM:1F16 C6 0A                       add     a, #0xA
ROM:1F18 C9                          ret
ROM:1F18             ; End of function check_flag_tank_collected
ROM:1F18
ROM:1F19             ; ---------------------------------------------------------------------------
ROM:1F19             ; *** THESE ARE NEW OBJECTS - CODE INSERTED HERE
ROM:1F19             ;
ROM:1F19             ; Jet. Indestructible. Completely benign. What's the point?
ROM:1F19
ROM:1F19             handle_5A_Jet:                                                  ; object state table
ROM:1F19 16 79                       ld      d, #0x79 ; 'y'
ROM:1F1B DD 5D                       ld      e, xl
ROM:1F1D EB                          ex      de, hl
ROM:1F1E 36 03                       ld      (hl), #3                                ; indestructible
ROM:1F20 26 7B                       ld      h, #0x7B ; '{'                          ; object spriteY table
ROM:1F22 2C                          inc     l                                       ; offset=1
ROM:1F23 CD 8B 33                    call    gen_random_Y_store_obj
ROM:1F26 D6 01                       sub     #1
ROM:1F28 0F                          rrca
ROM:1F29 0F                          rrca
ROM:1F2A E6 07                       and     #7
ROM:1F2C F5                          push    af
ROM:1F2D CB FD                       set     7, l                                    ; object dY table
ROM:1F2F 2D                          dec     l                                       ; offset=0
ROM:1F30 EB                          ex      de, hl                                  ; DE=object dY table
ROM:1F31 21 6B 1F                    ld      hl, #jet_dydx_tbl
ROM:1F34 CD 83 33                    call    cpy_dY_dX_to_obj                        ; DE=object dX table
ROM:1F37 21 5D 1F                    ld      hl, #jet_sprite_tbl
ROM:1F3A F1                          pop     af
ROM:1F3B CF                          rst     HL_plus_equals_2A
ROM:1F3C CB BB                       res     7, e                                    ; object spriteX table
ROM:1F3E 15                          dec     d                                       ; object state table
ROM:1F3F 1C                          inc     e                                       ; offset=1
ROM:1F40 7E                          ld      a, (hl)                                 ; bank,size
ROM:1F41 12                          ld      (de), a
ROM:1F42 23                          inc     hl
ROM:1F43 1D                          dec     e                                       ; offset=1
ROM:1F44 16 7C                       ld      d, #0x7C ; '|'                          ; object code table
ROM:1F46 7E                          ld      a, (hl)                                 ; code
ROM:1F47 12                          ld      (de), a
ROM:1F48 EB                          ex      de, hl
ROM:1F49 CB FD                       set     7, l                                    ; object points table
ROM:1F4B 36 00                       ld      (hl), #0                                ; 10 pts
ROM:1F4D CB BD                       res     7, l                                    ; object code table
ROM:1F4F 2C                          inc     l                                       ; offset=1
ROM:1F50 36 02                       ld      (hl), #2                                ; colour
ROM:1F52 F7                          rst     save_PC_to_fn_tbl_and_ret
ROM:1F53 16 7A                       ld      d, #0x7A ; 'z'                          ; object spriteX table
ROM:1F55 DD 5D                       ld      e, xl
ROM:1F57 CD 91 30                    call    move_object_dX_dY
ROM:1F5A C3 79 30                    jp      add_obj_handler
ROM:1F5A             ; ---------------------------------------------------------------------------
ROM:1F5D 0B EC 0B E8+jet_sprite_tbl: .db 0xB, 0xEC
ROM:1F5D 0B E4 03 E0+                .db 0xB, 0xE8
ROM:1F5D 03 E4 03 E8+                .db 0xB, 0xE4
ROM:1F5D 03 EC                       .db 3, 0xE0
ROM:1F5D                             .db 3, 0xE4
ROM:1F5D                             .db 3, 0xE8
ROM:1F5D                             .db 3, 0xEC
ROM:1F6B 24 35 18 3B+jet_dydx_tbl:   .db 0x24, 0x35
ROM:1F6B 0C 3F 00 40+                .db 0x18, 0x3B
ROM:1F6B F4 3F E8 3B+                .db 0xC, 0x3F
ROM:1F6B DC 35                       .db 0, 0x40
ROM:1F6B                             .db 0xF4, 0x3F
ROM:1F6B                             .db 0xE8, 0x3B
ROM:1F6B                             .db 0xDC, 0x35
ROM:1F79             ; ---------------------------------------------------------------------------
ROM:1F79             ; destroying the helicopter zeroes player score!!!
ROM:1F79
ROM:1F79             handle_5B_Helicopter:                                           ; object state table
ROM:1F79 16 79                       ld      d, #0x79 ; 'y'
ROM:1F7B DD 5D                       ld      e, xl
ROM:1F7D EB                          ex      de, hl
ROM:1F7E 36 02                       ld      (hl), #2                                ; state=2
ROM:1F80 2C                          inc     l                                       ; offset=1
ROM:1F81 36 08                       ld      (hl), #8                                ; flipy
ROM:1F83 26 7C                       ld      h, #0x7C ; '|'                          ; object colour table
ROM:1F85 36 05                       ld      (hl), #5
ROM:1F87 CB FD                       set     7, l                                    ; object points table
ROM:1F89 2D                          dec     l                                       ; offset=0
ROM:1F8A 36 00                       ld      (hl), #0                                ; 10 pts
ROM:1F8C F7                          rst     save_PC_to_fn_tbl_and_ret
ROM:1F8D CD 46 35                    call    is_object_hit                           ; hit?
ROM:1F90 CA B1 35                    jp      Z, bomb_explode_and_zero_player_score   ; yes, go
ROM:1F93 26 7C                       ld      h, #0x7C ; '|'                          ; object code table
ROM:1F95 3A 01 80                    ld      a, (countup_timer_1)
ROM:1F98 0F                          rrca
ROM:1F99 0F                          rrca
ROM:1F9A 0F                          rrca
ROM:1F9B E6 01                       and     #1
ROM:1F9D C6 F0                       add     a, #0xF0 ; 'ð'                          ; calculate sprite code
ROM:1F9F 77                          ld      (hl), a
ROM:1FA0 26 7A                       ld      h, #0x7A ; 'z'
ROM:1FA2 EB                          ex      de, hl
ROM:1FA3 CD E8 30                    call    scroll_sprite_X
ROM:1FA6 C3 79 30                    jp      add_obj_handler
ROM:1FA9             ; ---------------------------------------------------------------------------
ROM:1FA9             ; destroying the tank zeroes player score!!!
ROM:1FA9             ; but flying over it collects 10,000 pts!
ROM:1FA9
ROM:1FA9             handle_5C_Tank:                                                 ; object state table
ROM:1FA9 16 79                       ld      d, #0x79 ; 'y'
ROM:1FAB DD 5D                       ld      e, xl
ROM:1FAD EB                          ex      de, hl
ROM:1FAE 36 02                       ld      (hl), #2                                ; state=2
ROM:1FB0 2C                          inc     l                                       ; offset=1
ROM:1FB1 36 08                       ld      (hl), #8                                ; flipy
ROM:1FB3 26 7C                       ld      h, #0x7C ; '|'                          ; object colour table
ROM:1FB5 36 02                       ld      (hl), #2
ROM:1FB7 2D                          dec     l                                       ; offset=0
ROM:1FB8 36 F8                       ld      (hl), #0xF8 ; 'ø'                       ; set sprite code
ROM:1FBA CB FD                       set     7, l                                    ; object points table
ROM:1FBC 36 00                       ld      (hl), #0                                ; 10 pts
ROM:1FBE F7                          rst     save_PC_to_fn_tbl_and_ret
ROM:1FBF CD 46 35                    call    is_object_hit
ROM:1FC2 CA B1 35                    jp      Z, bomb_explode_and_zero_player_score
ROM:1FC5 CD F6 1E                    call    check_flag_tank_collected               ; flown over?
ROM:1FC8 DA CF 1E                    jp      C, score_10000_for_bonus_flag_tank      ; yes, go
ROM:1FCB 16 7A                       ld      d, #0x7A ; 'z'
ROM:1FCD DD 5D                       ld      e, xl
ROM:1FCF CD E8 30                    call    scroll_sprite_X
ROM:1FD2 C3 79 30                    jp      add_obj_handler
ROM:1FD5             ; ---------------------------------------------------------------------------
ROM:1FD5             ; completely benign object to allow Domograms to cross the river
ROM:1FD5
ROM:1FD5             handle_5D_Bridge:                                               ; object state table
ROM:1FD5 16 79                       ld      d, #0x79 ; 'y'
ROM:1FD7 DD 5D                       ld      e, xl
ROM:1FD9 EB                          ex      de, hl
ROM:1FDA 36 03                       ld      (hl), #3                                ; indestructible
ROM:1FDC 2C                          inc     l                                       ; offset=1
ROM:1FDD 36 0B                       ld      (hl), #0xB                              ; bank=1,size=3 (2x2)
ROM:1FDF 26 7C                       ld      h, #0x7C ; '|'                          ; object color table
ROM:1FE1 36 02                       ld      (hl), #2
ROM:1FE3 2D                          dec     l                                       ; offset=0
ROM:1FE4 36 FC                       ld      (hl), #0xFC ; 'ü'                       ; object sprite code
ROM:1FE6 F7                          rst     save_PC_to_fn_tbl_and_ret
ROM:1FE7 16 7A                       ld      d, #0x7A ; 'z'
ROM:1FE9 DD 5D                       ld      e, xl
ROM:1FEB CD E8 30                    call    scroll_sprite_X
ROM:1FEE C3 79 30                    jp      add_obj_handler
ROM:1FEE             ; *** END OF NEW OBJECT CODE HERE
ROM:1FEE             ; ---------------------------------------------------------------------------
ROM:1FF1 FF FF FF FF+                .db 0xFF, 0xFF, 0xFF, 0xFF, 0xFF, 0xFF, 0xFF, 0xFF, 0xFF
ROM:1FF1 FF FF FF FF+                .db 0xFF, 0xFF, 0xFF, 0xFF, 0xFF, 0x80
ROM:2000             ; ---------------------------------------------------------------------------
ROM:2000
ROM:2000             handle_0A_Toroid:
ROM:2000 CD A7 20                    call    init_toroid
ROM:2003 F7                          rst     save_PC_to_fn_tbl_and_ret
ROM:2004 CD CB 20                    call    is_close_to_solvalou_Y
ROM:2007 38 1A                       jr      C, toroid_toggle_dir
ROM:2009
ROM:2009             handle_toroid:
ROM:2009 24                          inc     h
ROM:200A 3A 1C 80                    ld      a, (pulsing_colour_1)
ROM:200D 77                          ld      (hl), a
ROM:200E 2D                          dec     l
ROM:200F 26 7A                       ld      h, #0x7A ; 'z'
ROM:2011 EB                          ex      de, hl
ROM:2012 CD 91 30                    call    move_object_dX_dY
ROM:2015 C3 79 30                    jp      add_obj_handler
ROM:2018             ; ---------------------------------------------------------------------------
ROM:2018
ROM:2018             handle_0B_Toroid_shoots:
ROM:2018 CD A7 20                    call    init_toroid
ROM:201B F7                          rst     save_PC_to_fn_tbl_and_ret
ROM:201C CD CB 20                    call    is_close_to_solvalou_Y
ROM:201F 38 71                       jr      C, init_toroid_shot
ROM:2021 18 E6                       jr      handle_toroid
ROM:2023             ; ---------------------------------------------------------------------------
ROM:2023
ROM:2023             toroid_toggle_dir:
ROM:2023 D6 02                       sub     #2
ROM:2025 38 38                       jr      C, toroid_swing_left
ROM:2027
ROM:2027             toroid_swing_right:
ROM:2027 11 30 20                    ld      de, #loc_2030
ROM:202A DD 73 00                    ld      0(ix), e
ROM:202D DD 72 01                    ld      1(ix), d
ROM:2030
ROM:2030             loc_2030:
ROM:2030 16 79                       ld      d, #0x79 ; 'y'
ROM:2032 DD 5D                       ld      e, xl
ROM:2034 EB                          ex      de, hl
ROM:2035 7E                          ld      a, (hl)
ROM:2036 FE 03                       cp      #3
ROM:2038 CA 1F 31                    jp      Z, flying_enemy_hit
ROM:203B 26 7D                       ld      h, #0x7D ; '}'
ROM:203D 34                          inc     (hl)
ROM:203E 7E                          ld      a, (hl)
ROM:203F 0F                          rrca
ROM:2040 E6 07                       and     #7
ROM:2042 EB                          ex      de, hl
ROM:2043 21 9F 20                    ld      hl, #toroid_sprite_tbl
ROM:2046 D7                          rst     HL_plus_equals_A
ROM:2047 EB                          ex      de, hl
ROM:2048 25                          dec     h
ROM:2049 1A                          ld      a, (de)
ROM:204A 77                          ld      (hl), a
ROM:204B 2C                          inc     l
ROM:204C 3A 1C 80                    ld      a, (pulsing_colour_1)
ROM:204F 77                          ld      (hl), a
ROM:2050 2D                          dec     l
ROM:2051 25                          dec     h
ROM:2052 CB FD                       set     7, l
ROM:2054 35                          dec     (hl)
ROM:2055 CB BD                       res     7, l
ROM:2057 25                          dec     h
ROM:2058 EB                          ex      de, hl
ROM:2059 CD 91 30                    call    move_object_dX_dY
ROM:205C C3 79 30                    jp      add_obj_handler
ROM:205F             ; ---------------------------------------------------------------------------
ROM:205F
ROM:205F             toroid_swing_left:
ROM:205F 11 68 20                    ld      de, #loc_2068
ROM:2062 DD 73 00                    ld      0(ix), e
ROM:2065 DD 72 01                    ld      1(ix), d
ROM:2068
ROM:2068             loc_2068:
ROM:2068 16 79                       ld      d, #0x79 ; 'y'
ROM:206A DD 5D                       ld      e, xl
ROM:206C EB                          ex      de, hl
ROM:206D 7E                          ld      a, (hl)
ROM:206E FE 03                       cp      #3
ROM:2070 CA 1F 31                    jp      Z, flying_enemy_hit
ROM:2073 26 7D                       ld      h, #0x7D ; '}'
ROM:2075 34                          inc     (hl)
ROM:2076 7E                          ld      a, (hl)
ROM:2077 0F                          rrca
ROM:2078 E6 07                       and     #7
ROM:207A C6 08                       add     a, #8
ROM:207C 25                          dec     h
ROM:207D 77                          ld      (hl), a
ROM:207E 2C                          inc     l
ROM:207F 3A 1C 80                    ld      a, (pulsing_colour_1)
ROM:2082 77                          ld      (hl), a
ROM:2083 2D                          dec     l
ROM:2084 25                          dec     h
ROM:2085 CB FD                       set     7, l
ROM:2087 34                          inc     (hl)
ROM:2088 CB BD                       res     7, l
ROM:208A 25                          dec     h
ROM:208B EB                          ex      de, hl
ROM:208C CD 91 30                    call    move_object_dX_dY
ROM:208F C3 79 30                    jp      add_obj_handler
ROM:2092             ; ---------------------------------------------------------------------------
ROM:2092
ROM:2092             init_toroid_shot:
ROM:2092 E5                          push    hl
ROM:2093 F5                          push    af
ROM:2094 CD 87 32                    call    init_new_bullet
ROM:2097 F1                          pop     af
ROM:2098 E1                          pop     hl
ROM:2099 D6 02                       sub     #2
ROM:209B 38 C2                       jr      C, toroid_swing_left
ROM:209D 18 88                       jr      toroid_swing_right
ROM:209D             ; ---------------------------------------------------------------------------
ROM:209F 0F 0E 0D 0C+toroid_sprite_tbl:.db 0xF, 0xE, 0xD, 0xC, 0xB, 0xA, 9, 8
ROM:20A7
ROM:20A7             ; =============== S U B R O U T I N E =======================================
ROM:20A7
ROM:20A7
ROM:20A7             init_toroid:
ROM:20A7 16 79                       ld      d, #0x79 ; 'y'
ROM:20A9 DD 5D                       ld      e, xl
ROM:20AB EB                          ex      de, hl
ROM:20AC 36 02                       ld      (hl), #2
ROM:20AE 2C                          inc     l
ROM:20AF 36 00                       ld      (hl), #0
ROM:20B1 26 7B                       ld      h, #0x7B ; '{'
ROM:20B3 CD 98 33                    call    gen_rnd_spriteY
ROM:20B6 EB                          ex      de, hl
ROM:20B7 15                          dec     d
ROM:20B8 21 E3 3E                    ld      hl, #angle_dX_dY_toroid_tbl
ROM:20BB CD 65 33                    call    calc_dX_dY_for_vector_to_solvalou
ROM:20BE EB                          ex      de, hl
ROM:20BF 26 7C                       ld      h, #0x7C ; '|'
ROM:20C1 36 06                       ld      (hl), #6
ROM:20C3 CB BD                       res     7, l
ROM:20C5 36 08                       ld      (hl), #8
ROM:20C7 24                          inc     h
ROM:20C8 36 00                       ld      (hl), #0
ROM:20CA C9                          ret
ROM:20CA             ; End of function init_toroid
ROM:20CA
ROM:20CB
ROM:20CB             ; =============== S U B R O U T I N E =======================================
ROM:20CB
ROM:20CB
ROM:20CB             is_close_to_solvalou_Y:
ROM:20CB
ROM:20CB             ; FUNCTION CHUNK AT ROM:3079 SIZE 00000018 BYTES
ROM:20CB             ; FUNCTION CHUNK AT ROM:311F SIZE 00000050 BYTES
ROM:20CB             ; FUNCTION CHUNK AT ROM:3179 SIZE 0000000D BYTES
ROM:20CB
ROM:20CB 16 79                       ld      d, #0x79 ; 'y'
ROM:20CD DD 5D                       ld      e, xl
ROM:20CF EB                          ex      de, hl
ROM:20D0 7E                          ld      a, (hl)
ROM:20D1 FE 03                       cp      #3
ROM:20D3 CA E2 20                    jp      Z, loc_20E2
ROM:20D6 26 7B                       ld      h, #0x7B ; '{'
ROM:20D8 2C                          inc     l
ROM:20D9 3A 47 7B                    ld      a, (obj_y_tbl+0x47)
ROM:20DC 96                          sub     (hl)
ROM:20DD D6 02                       sub     #2
ROM:20DF C6 04                       add     a, #4
ROM:20E1 C9                          ret
ROM:20E2             ; ---------------------------------------------------------------------------
ROM:20E2
ROM:20E2             loc_20E2:
ROM:20E2 33                          inc     sp
ROM:20E3 33                          inc     sp
ROM:20E4 C3 1F 31                    jp      flying_enemy_hit
ROM:20E4             ; End of function is_close_to_solvalou_Y
ROM:20E4
ROM:20E7             ; ---------------------------------------------------------------------------
ROM:20E7
ROM:20E7             handle_0F_Torkan:
ROM:20E7 16 79                       ld      d, #0x79 ; 'y'
ROM:20E9 DD 5D                       ld      e, xl
ROM:20EB EB                          ex      de, hl
ROM:20EC 36 02                       ld      (hl), #2
ROM:20EE 2C                          inc     l
ROM:20EF 36 00                       ld      (hl), #0
ROM:20F1 26 7B                       ld      h, #0x7B ; '{'
ROM:20F3 CD 8B 33                    call    gen_random_Y_store_obj
ROM:20F6 EB                          ex      de, hl
ROM:20F7 15                          dec     d
ROM:20F8 21 A3 3E                    ld      hl, #angle_dX_dY_tbl
ROM:20FB CD 65 33                    call    calc_dX_dY_for_vector_to_solvalou
ROM:20FE EB                          ex      de, hl
ROM:20FF 26 7C                       ld      h, #0x7C ; '|'
ROM:2101 36 09                       ld      (hl), #9
ROM:2103 CB BD                       res     7, l
ROM:2105 36 10                       ld      (hl), #0x10
ROM:2107 24                          inc     h
ROM:2108 CD E4 0E                    call    pseudo_random_gen
ROM:210B E6 3F                       and     #0x3F ; '?'
ROM:210D C6 40                       add     a, #0x40 ; '@'
ROM:210F 77                          ld      (hl), a
ROM:2110 F7                          rst     save_PC_to_fn_tbl_and_ret
ROM:2111 16 79                       ld      d, #0x79 ; 'y'
ROM:2113 DD 5D                       ld      e, xl
ROM:2115 EB                          ex      de, hl
ROM:2116 7E                          ld      a, (hl)
ROM:2117 FE 03                       cp      #3
ROM:2119 CA 1F 31                    jp      Z, flying_enemy_hit
ROM:211C 26 7D                       ld      h, #0x7D ; '}'
ROM:211E 35                          dec     (hl)
ROM:211F 28 10                       jr      Z, torkan_shoot
ROM:2121 25                          dec     h
ROM:2122 2C                          inc     l
ROM:2123 3A 1C 80                    ld      a, (pulsing_colour_1)
ROM:2126 77                          ld      (hl), a
ROM:2127 2D                          dec     l
ROM:2128 26 7A                       ld      h, #0x7A ; 'z'
ROM:212A EB                          ex      de, hl
ROM:212B CD 91 30                    call    move_object_dX_dY
ROM:212E C3 79 30                    jp      add_obj_handler
ROM:2131             ; ---------------------------------------------------------------------------
ROM:2131
ROM:2131             torkan_shoot:
ROM:2131 E5                          push    hl
ROM:2132 CD 87 32                    call    init_new_bullet
ROM:2135 E1                          pop     hl
ROM:2136 11 3F 21                    ld      de, #loc_213F
ROM:2139 DD 73 00                    ld      0(ix), e
ROM:213C DD 72 01                    ld      1(ix), d
ROM:213F
ROM:213F             loc_213F:
ROM:213F 16 79                       ld      d, #0x79 ; 'y'
ROM:2141 DD 5D                       ld      e, xl
ROM:2143 EB                          ex      de, hl
ROM:2144 7E                          ld      a, (hl)
ROM:2145 FE 03                       cp      #3
ROM:2147 CA 1F 31                    jp      Z, flying_enemy_hit
ROM:214A 26 7D                       ld      h, #0x7D ; '}'
ROM:214C 34                          inc     (hl)
ROM:214D 7E                          ld      a, (hl)
ROM:214E 0F                          rrca
ROM:214F 0F                          rrca
ROM:2150 E6 0F                       and     #0xF
ROM:2152 FE 07                       cp      #7
ROM:2154 28 13                       jr      Z, torkan_update_dir
ROM:2156 C6 10                       add     a, #0x10
ROM:2158 25                          dec     h
ROM:2159 77                          ld      (hl), a
ROM:215A 2C                          inc     l
ROM:215B 3A 1C 80                    ld      a, (pulsing_colour_1)
ROM:215E 77                          ld      (hl), a
ROM:215F 2D                          dec     l
ROM:2160 26 7A                       ld      h, #0x7A ; 'z'
ROM:2162 EB                          ex      de, hl
ROM:2163 CD E8 30                    call    scroll_sprite_X
ROM:2166 C3 79 30                    jp      add_obj_handler
ROM:2169             ; ---------------------------------------------------------------------------
ROM:2169
ROM:2169             torkan_update_dir:
ROM:2169 2C                          inc     l
ROM:216A 26 7A                       ld      h, #0x7A ; 'z'
ROM:216C EB                          ex      de, hl
ROM:216D 1A                          ld      a, (de)
ROM:216E 4F                          ld      c, a
ROM:216F 3A 47 7A                    ld      a, (obj_x_tbl+0x47)
ROM:2172 91                          sub     c
ROM:2173 6F                          ld      l, a
ROM:2174 14                          inc     d
ROM:2175 1A                          ld      a, (de)
ROM:2176 4F                          ld      c, a
ROM:2177 3A 47 7B                    ld      a, (obj_y_tbl+0x47)
ROM:217A 91                          sub     c
ROM:217B 67                          ld      h, a
ROM:217C CD 4B 0E                    call    get_index_for_angle
ROM:217F CB FB                       set     7, e
ROM:2181 1D                          dec     e
ROM:2182 21 63 3E                    ld      hl, #angle_dX_dY_terrazi_torkan_tbl
ROM:2185 C6 80                       add     a, #0x80 ; '€'
ROM:2187 CD 7E 33                    call    get_dX_dY_and_cpy_to_obj
ROM:218A EB                          ex      de, hl
ROM:218B CB BD                       res     7, l
ROM:218D 26 78                       ld      h, #0x78 ; 'x'
ROM:218F 11 95 21                    ld      de, #loc_2195
ROM:2192 73                          ld      (hl), e
ROM:2193 2C                          inc     l
ROM:2194 72                          ld      (hl), d
ROM:2195
ROM:2195             loc_2195:
ROM:2195 16 79                       ld      d, #0x79 ; 'y'
ROM:2197 DD 5D                       ld      e, xl
ROM:2199 EB                          ex      de, hl
ROM:219A 7E                          ld      a, (hl)
ROM:219B FE 03                       cp      #3
ROM:219D CA 1F 31                    jp      Z, flying_enemy_hit
ROM:21A0 2C                          inc     l
ROM:21A1 26 7C                       ld      h, #0x7C ; '|'
ROM:21A3 3A 1C 80                    ld      a, (pulsing_colour_1)
ROM:21A6 77                          ld      (hl), a
ROM:21A7 2D                          dec     l
ROM:21A8 26 7A                       ld      h, #0x7A ; 'z'
ROM:21AA EB                          ex      de, hl
ROM:21AB CD 91 30                    call    move_object_dX_dY
ROM:21AE C3 79 30                    jp      add_obj_handler
ROM:21B1             ; ---------------------------------------------------------------------------
ROM:21B1
ROM:21B1             handle_0E_Zoshi_bottom:
ROM:21B1 16 79                       ld      d, #0x79 ; 'y'
ROM:21B3 DD 5D                       ld      e, xl
ROM:21B5 EB                          ex      de, hl
ROM:21B6 36 02                       ld      (hl), #2
ROM:21B8 2C                          inc     l
ROM:21B9 36 00                       ld      (hl), #0
ROM:21BB 24                          inc     h
ROM:21BC 36 28                       ld      (hl), #0x28 ; '('
ROM:21BE 24                          inc     h
ROM:21BF CD 98 33                    call    gen_rnd_spriteY
ROM:21C2 18 0F                       jr      zoshi_0D_init
ROM:21C4             ; ---------------------------------------------------------------------------
ROM:21C4
ROM:21C4             handle_0D_Zoshi_top:
ROM:21C4 16 79                       ld      d, #0x79 ; 'y'
ROM:21C6 DD 5D                       ld      e, xl
ROM:21C8 EB                          ex      de, hl
ROM:21C9 36 02                       ld      (hl), #2
ROM:21CB 2C                          inc     l
ROM:21CC 36 00                       ld      (hl), #0
ROM:21CE 26 7B                       ld      h, #0x7B ; '{'
ROM:21D0 CD 8B 33                    call    gen_random_Y_store_obj
ROM:21D3
ROM:21D3             zoshi_0D_init:
ROM:21D3 25                          dec     h
ROM:21D4 EB                          ex      de, hl
ROM:21D5 21 E3 3E                    ld      hl, #angle_dX_dY_toroid_tbl
ROM:21D8 CD 65 33                    call    calc_dX_dY_for_vector_to_solvalou
ROM:21DB EB                          ex      de, hl
ROM:21DC 26 7C                       ld      h, #0x7C ; '|'
ROM:21DE 36 0F                       ld      (hl), #0xF
ROM:21E0 CB BD                       res     7, l
ROM:21E2 26 7E                       ld      h, #0x7E ; '~'
ROM:21E4 3A A4 81                    ld      a, (ffreq_mask_zoshi)
ROM:21E7 77                          ld      (hl), a
ROM:21E8 CD E4 0E                    call    pseudo_random_gen
ROM:21EB A6                          and     (hl)
ROM:21EC 3C                          inc     a
ROM:21ED 25                          dec     h
ROM:21EE 77                          ld      (hl), a
ROM:21EF F7                          rst     save_PC_to_fn_tbl_and_ret
ROM:21F0 16 79                       ld      d, #0x79 ; 'y'
ROM:21F2 DD 5D                       ld      e, xl
ROM:21F4 EB                          ex      de, hl
ROM:21F5 7E                          ld      a, (hl)
ROM:21F6 FE 03                       cp      #3
ROM:21F8 CA 1F 31                    jp      Z, flying_enemy_hit
ROM:21FB 26 7D                       ld      h, #0x7D ; '}'
ROM:21FD 3A 01 80                    ld      a, (countup_timer_1)
ROM:2200 E6 07                       and     #7
ROM:2202 20 1A                       jr      NZ, zoshi_0D_main
ROM:2204 35                          dec     (hl)
ROM:2205 20 17                       jr      NZ, zoshi_0D_main
ROM:2207 E5                          push    hl
ROM:2208 CD E4 0E                    call    pseudo_random_gen
ROM:220B 24                          inc     h
ROM:220C A6                          and     (hl)
ROM:220D 3C                          inc     a
ROM:220E 25                          dec     h
ROM:220F 77                          ld      (hl), a
ROM:2210 26 7A                       ld      h, #0x7A ; 'z'
ROM:2212 2C                          inc     l
ROM:2213 EB                          ex      de, hl
ROM:2214 21 E3 3E                    ld      hl, #angle_dX_dY_toroid_tbl
ROM:2217 CD 65 33                    call    calc_dX_dY_for_vector_to_solvalou
ROM:221A CD 87 32                    call    init_new_bullet
ROM:221D E1                          pop     hl
ROM:221E
ROM:221E             zoshi_0D_main:
ROM:221E 25                          dec     h
ROM:221F 3A 01 80                    ld      a, (countup_timer_1)
ROM:2222 E6 03                       and     #3
ROM:2224 C6 28                       add     a, #0x28 ; '('
ROM:2226 77                          ld      (hl), a
ROM:2227 2C                          inc     l
ROM:2228 3A 1C 80                    ld      a, (pulsing_colour_1)
ROM:222B 77                          ld      (hl), a
ROM:222C 2D                          dec     l
ROM:222D 26 7A                       ld      h, #0x7A ; 'z'
ROM:222F EB                          ex      de, hl
ROM:2230 CD 91 30                    call    move_object_dX_dY
ROM:2233 C3 79 30                    jp      add_obj_handler
ROM:2236             ; ---------------------------------------------------------------------------
ROM:2236
ROM:2236             handle_0C_Zoshi_rnd:
ROM:2236 16 79                       ld      d, #0x79 ; 'y'
ROM:2238 DD 5D                       ld      e, xl
ROM:223A EB                          ex      de, hl
ROM:223B 36 02                       ld      (hl), #2
ROM:223D 2C                          inc     l
ROM:223E 36 00                       ld      (hl), #0
ROM:2240 26 7B                       ld      h, #0x7B ; '{'
ROM:2242 CD 8B 33                    call    gen_random_Y_store_obj
ROM:2245 25                          dec     h
ROM:2246 EB                          ex      de, hl
ROM:2247 21 E3 3E                    ld      hl, #angle_dX_dY_toroid_tbl
ROM:224A CD 65 33                    call    calc_dX_dY_for_vector_to_solvalou
ROM:224D EB                          ex      de, hl
ROM:224E 26 7C                       ld      h, #0x7C ; '|'
ROM:2250 36 0C                       ld      (hl), #12
ROM:2252 CB BD                       res     7, l
ROM:2254 26 7E                       ld      h, #0x7E ; '~'
ROM:2256 3A A4 81                    ld      a, (ffreq_mask_zoshi)
ROM:2259 77                          ld      (hl), a
ROM:225A CD E4 0E                    call    pseudo_random_gen
ROM:225D A6                          and     (hl)
ROM:225E 3C                          inc     a
ROM:225F 25                          dec     h
ROM:2260 77                          ld      (hl), a
ROM:2261 F7                          rst     save_PC_to_fn_tbl_and_ret
ROM:2262 16 79                       ld      d, #0x79 ; 'y'
ROM:2264 DD 5D                       ld      e, xl
ROM:2266 EB                          ex      de, hl
ROM:2267 7E                          ld      a, (hl)
ROM:2268 FE 03                       cp      #3
ROM:226A CA 1F 31                    jp      Z, flying_enemy_hit
ROM:226D 26 7D                       ld      h, #0x7D ; '}'
ROM:226F 3A 01 80                    ld      a, (countup_timer_1)
ROM:2272 E6 07                       and     #7
ROM:2274 20 1E                       jr      NZ, zoshi_0C_main
ROM:2276 35                          dec     (hl)
ROM:2277 20 1B                       jr      NZ, zoshi_0C_main
ROM:2279 E5                          push    hl
ROM:227A CD E4 0E                    call    pseudo_random_gen
ROM:227D 24                          inc     h
ROM:227E A6                          and     (hl)
ROM:227F 3C                          inc     a
ROM:2280 25                          dec     h
ROM:2281 77                          ld      (hl), a
ROM:2282 26 7B                       ld      h, #0x7B ; '{'
ROM:2284 CB FD                       set     7, l
ROM:2286 EB                          ex      de, hl
ROM:2287 CD E4 0E                    call    pseudo_random_gen
ROM:228A 21 E3 3E                    ld      hl, #angle_dX_dY_toroid_tbl
ROM:228D CD 7E 33                    call    get_dX_dY_and_cpy_to_obj
ROM:2290 CD 87 32                    call    init_new_bullet
ROM:2293 E1                          pop     hl
ROM:2294
ROM:2294             zoshi_0C_main:
ROM:2294 25                          dec     h
ROM:2295 3A 01 80                    ld      a, (countup_timer_1)
ROM:2298 E6 03                       and     #3
ROM:229A C6 28                       add     a, #0x28 ; '('
ROM:229C 77                          ld      (hl), a
ROM:229D 2C                          inc     l
ROM:229E 3A 1C 80                    ld      a, (pulsing_colour_1)
ROM:22A1 77                          ld      (hl), a
ROM:22A2 2D                          dec     l
ROM:22A3 26 7A                       ld      h, #0x7A ; 'z'
ROM:22A5 EB                          ex      de, hl
ROM:22A6 CD 91 30                    call    move_object_dX_dY
ROM:22A9 C3 79 30                    jp      add_obj_handler
ROM:22AC             ; ---------------------------------------------------------------------------
ROM:22AC
ROM:22AC             handle_56_Jara:
ROM:22AC CD 68 23                    call    jara_init
ROM:22AF F7                          rst     save_PC_to_fn_tbl_and_ret
ROM:22B0 CD 8C 23                    call    jara_check_proximity
ROM:22B3 38 0F                       jr      C, jara_set_dir
ROM:22B5
ROM:22B5             jara_set_clr_and_move:
ROM:22B5 24                          inc     h
ROM:22B6 3A 1C 80                    ld      a, (pulsing_colour_1)
ROM:22B9 77                          ld      (hl), a
ROM:22BA 2D                          dec     l
ROM:22BB 26 7A                       ld      h, #0x7A ; 'z'
ROM:22BD EB                          ex      de, hl
ROM:22BE CD 91 30                    call    move_object_dX_dY
ROM:22C1 C3 79 30                    jp      add_obj_handler
ROM:22C4             ; ---------------------------------------------------------------------------
ROM:22C4
ROM:22C4             jara_set_dir:
ROM:22C4 D6 06                       sub     #6
ROM:22C6 38 56                       jr      C, jara_moving_left
ROM:22C8
ROM:22C8             jara_moving_right:
ROM:22C8 11 D1 22                    ld      de, #loc_22D1
ROM:22CB DD 73 00                    ld      0(ix), e
ROM:22CE DD 72 01                    ld      1(ix), d
ROM:22D1
ROM:22D1             loc_22D1:
ROM:22D1 16 79                       ld      d, #0x79 ; 'y'
ROM:22D3 DD 5D                       ld      e, xl
ROM:22D5 EB                          ex      de, hl
ROM:22D6 7E                          ld      a, (hl)
ROM:22D7 FE 03                       cp      #3
ROM:22D9 CA 1F 31                    jp      Z, flying_enemy_hit
ROM:22DC 26 7D                       ld      h, #0x7D ; '}'
ROM:22DE 34                          inc     (hl)
ROM:22DF 7E                          ld      a, (hl)
ROM:22E0 0F                          rrca
ROM:22E1 E6 07                       and     #7
ROM:22E3 FE 06                       cp      #6
ROM:22E5 20 02                       jr      NZ, loc_22E9
ROM:22E7 AF                          xor     a
ROM:22E8 77                          ld      (hl), a
ROM:22E9
ROM:22E9             loc_22E9:
ROM:22E9 EB                          ex      de, hl
ROM:22EA 21 5C 23                    ld      hl, #jara_right_sprite_tbl
ROM:22ED D7                          rst     HL_plus_equals_A
ROM:22EE EB                          ex      de, hl
ROM:22EF 25                          dec     h
ROM:22F0 1A                          ld      a, (de)
ROM:22F1 77                          ld      (hl), a
ROM:22F2 2C                          inc     l
ROM:22F3 3A 1C 80                    ld      a, (pulsing_colour_1)
ROM:22F6 77                          ld      (hl), a
ROM:22F7 2D                          dec     l
ROM:22F8 25                          dec     h
ROM:22F9 CB FD                       set     7, l
ROM:22FB 35                          dec     (hl)
ROM:22FC CB BD                       res     7, l
ROM:22FE 25                          dec     h
ROM:22FF EB                          ex      de, hl
ROM:2300 CD 91 30                    call    move_object_dX_dY
ROM:2303 C3 79 30                    jp      add_obj_handler
ROM:2306             ; ---------------------------------------------------------------------------
ROM:2306
ROM:2306             handle_55_Jara_shoots:
ROM:2306 CD 68 23                    call    jara_init
ROM:2309 F7                          rst     save_PC_to_fn_tbl_and_ret
ROM:230A CD 8C 23                    call    jara_check_proximity
ROM:230D 38 02                       jr      C, jara_shoot
ROM:230F 18 A4                       jr      jara_set_clr_and_move
ROM:2311             ; ---------------------------------------------------------------------------
ROM:2311
ROM:2311             jara_shoot:
ROM:2311 E5                          push    hl
ROM:2312 F5                          push    af
ROM:2313 CD 87 32                    call    init_new_bullet
ROM:2316 F1                          pop     af
ROM:2317 E1                          pop     hl
ROM:2318 D6 06                       sub     #6
ROM:231A 38 02                       jr      C, jara_moving_left
ROM:231C 18 AA                       jr      jara_moving_right
ROM:231E             ; ---------------------------------------------------------------------------
ROM:231E
ROM:231E             jara_moving_left:
ROM:231E 11 27 23                    ld      de, #loc_2327
ROM:2321 DD 73 00                    ld      0(ix), e
ROM:2324 DD 72 01                    ld      1(ix), d
ROM:2327
ROM:2327             loc_2327:
ROM:2327 16 79                       ld      d, #0x79 ; 'y'
ROM:2329 DD 5D                       ld      e, xl
ROM:232B EB                          ex      de, hl
ROM:232C 7E                          ld      a, (hl)
ROM:232D FE 03                       cp      #3
ROM:232F CA 1F 31                    jp      Z, flying_enemy_hit
ROM:2332 26 7D                       ld      h, #0x7D ; '}'
ROM:2334 34                          inc     (hl)
ROM:2335 7E                          ld      a, (hl)
ROM:2336 0F                          rrca
ROM:2337 E6 07                       and     #7
ROM:2339 FE 06                       cp      #6
ROM:233B 20 02                       jr      NZ, loc_233F
ROM:233D AF                          xor     a
ROM:233E 77                          ld      (hl), a
ROM:233F
ROM:233F             loc_233F:
ROM:233F EB                          ex      de, hl
ROM:2340 21 62 23                    ld      hl, #jara_left_sprite_tbl
ROM:2343 D7                          rst     HL_plus_equals_A
ROM:2344 EB                          ex      de, hl
ROM:2345 25                          dec     h
ROM:2346 1A                          ld      a, (de)
ROM:2347 77                          ld      (hl), a
ROM:2348 2C                          inc     l
ROM:2349 3A 1C 80                    ld      a, (pulsing_colour_1)
ROM:234C 77                          ld      (hl), a
ROM:234D 2D                          dec     l
ROM:234E 25                          dec     h
ROM:234F CB FD                       set     7, l
ROM:2351 34                          inc     (hl)
ROM:2352 CB BD                       res     7, l
ROM:2354 25                          dec     h
ROM:2355 EB                          ex      de, hl
ROM:2356 CD 91 30                    call    move_object_dX_dY
ROM:2359 C3 79 30                    jp      add_obj_handler
ROM:2359             ; ---------------------------------------------------------------------------
ROM:235C A0 A1 A2 A3+jara_right_sprite_tbl:.db 0xA0, 0xA1, 0xA2, 0xA3, 0xA4, 0xA5
ROM:2362 A5 A4 A3 A2+jara_left_sprite_tbl:.db 0xA5, 0xA4, 0xA3, 0xA2, 0xA1, 0xA0
ROM:2368
ROM:2368             ; =============== S U B R O U T I N E =======================================
ROM:2368
ROM:2368
ROM:2368             jara_init:
ROM:2368 16 79                       ld      d, #0x79 ; 'y'
ROM:236A DD 5D                       ld      e, xl
ROM:236C EB                          ex      de, hl
ROM:236D 36 02                       ld      (hl), #2
ROM:236F 2C                          inc     l
ROM:2370 36 00                       ld      (hl), #0
ROM:2372 26 7B                       ld      h, #0x7B ; '{'
ROM:2374 CD 98 33                    call    gen_rnd_spriteY
ROM:2377 EB                          ex      de, hl
ROM:2378 15                          dec     d
ROM:2379 21 63 3E                    ld      hl, #angle_dX_dY_terrazi_torkan_tbl
ROM:237C CD 65 33                    call    calc_dX_dY_for_vector_to_solvalou
ROM:237F EB                          ex      de, hl
ROM:2380 26 7C                       ld      h, #0x7C ; '|'
ROM:2382 36 12                       ld      (hl), #18
ROM:2384 CB BD                       res     7, l
ROM:2386 36 A0                       ld      (hl), #0xA0 ; ' '
ROM:2388 24                          inc     h
ROM:2389 36 00                       ld      (hl), #0
ROM:238B C9                          ret
ROM:238B             ; End of function jara_init
ROM:238B
ROM:238C
ROM:238C             ; =============== S U B R O U T I N E =======================================
ROM:238C
ROM:238C
ROM:238C             jara_check_proximity:
ROM:238C 16 79                       ld      d, #0x79 ; 'y'
ROM:238E DD 5D                       ld      e, xl
ROM:2390 EB                          ex      de, hl
ROM:2391 7E                          ld      a, (hl)
ROM:2392 FE 03                       cp      #3
ROM:2394 CA A3 23                    jp      Z, jara_hit
ROM:2397 26 7B                       ld      h, #0x7B ; '{'
ROM:2399 2C                          inc     l
ROM:239A 3A 47 7B                    ld      a, (obj_y_tbl+0x47)
ROM:239D 96                          sub     (hl)
ROM:239E D6 06                       sub     #6
ROM:23A0 C6 0C                       add     a, #0xC
ROM:23A2 C9                          ret
ROM:23A3             ; ---------------------------------------------------------------------------
ROM:23A3
ROM:23A3             jara_hit:
ROM:23A3 33                          inc     sp
ROM:23A4 33                          inc     sp
ROM:23A5 C3 1F 31                    jp      flying_enemy_hit
ROM:23A5             ; End of function jara_check_proximity
ROM:23A5
ROM:23A8             ; ---------------------------------------------------------------------------
ROM:23A8
ROM:23A8             handle_10_Kapi:
ROM:23A8 16 79                       ld      d, #0x79 ; 'y'
ROM:23AA DD 5D                       ld      e, xl
ROM:23AC EB                          ex      de, hl
ROM:23AD 36 02                       ld      (hl), #2
ROM:23AF 2C                          inc     l
ROM:23B0 36 00                       ld      (hl), #0
ROM:23B2 26 7B                       ld      h, #0x7B ; '{'
ROM:23B4 CD 8B 33                    call    gen_random_Y_store_obj
ROM:23B7 25                          dec     h
ROM:23B8 EB                          ex      de, hl
ROM:23B9 21 A3 3E                    ld      hl, #angle_dX_dY_tbl
ROM:23BC CD 65 33                    call    calc_dX_dY_for_vector_to_solvalou
ROM:23BF EB                          ex      de, hl
ROM:23C0 26 7C                       ld      h, #0x7C ; '|'
ROM:23C2 36 1B                       ld      (hl), #27
ROM:23C4 CB BD                       res     7, l
ROM:23C6 36 20                       ld      (hl), #0x20 ; ' '
ROM:23C8 24                          inc     h
ROM:23C9 CD E4 0E                    call    pseudo_random_gen
ROM:23CC E6 3F                       and     #0x3F ; '?'
ROM:23CE C6 30                       add     a, #0x30 ; '0'
ROM:23D0 77                          ld      (hl), a
ROM:23D1 24                          inc     h
ROM:23D2 3A A1 81                    ld      a, (ffreq_mask_kapi)
ROM:23D5 77                          ld      (hl), a
ROM:23D6 F7                          rst     save_PC_to_fn_tbl_and_ret
ROM:23D7 16 79                       ld      d, #0x79 ; 'y'
ROM:23D9 DD 5D                       ld      e, xl
ROM:23DB EB                          ex      de, hl
ROM:23DC 7E                          ld      a, (hl)
ROM:23DD FE 03                       cp      #3
ROM:23DF CA 1F 31                    jp      Z, flying_enemy_hit
ROM:23E2 26 7D                       ld      h, #0x7D ; '}'
ROM:23E4 35                          dec     (hl)
ROM:23E5 28 10                       jr      Z, kapi_10_fire
ROM:23E7 25                          dec     h
ROM:23E8 2C                          inc     l
ROM:23E9 3A 1C 80                    ld      a, (pulsing_colour_1)
ROM:23EC 77                          ld      (hl), a
ROM:23ED 2D                          dec     l
ROM:23EE 26 7A                       ld      h, #0x7A ; 'z'
ROM:23F0 EB                          ex      de, hl
ROM:23F1 CD 91 30                    call    move_object_dX_dY
ROM:23F4 C3 79 30                    jp      add_obj_handler
ROM:23F7             ; ---------------------------------------------------------------------------
ROM:23F7
ROM:23F7             kapi_10_fire:
ROM:23F7 2C                          inc     l
ROM:23F8 36 00                       ld      (hl), #0
ROM:23FA 26 7B                       ld      h, #0x7B ; '{'
ROM:23FC 3A 47 7B                    ld      a, (obj_y_tbl+0x47)
ROM:23FF BE                          cp      (hl)
ROM:2400 3E 01                       ld      a, #1
ROM:2402 38 02                       jr      C, loc_2406
ROM:2404 3E FF                       ld      a, #0xFF
ROM:2406
ROM:2406             loc_2406:
ROM:2406 CB FD                       set     7, l
ROM:2408 77                          ld      (hl), a
ROM:2409 CB BD                       res     7, l
ROM:240B 2D                          dec     l
ROM:240C 26 7D                       ld      h, #0x7D ; '}'
ROM:240E 36 01                       ld      (hl), #1
ROM:2410 CD 71 32                    call    chk_timer_fire_bullet_reinit_timer
ROM:2413 11 1C 24                    ld      de, #loc_241C
ROM:2416 DD 73 00                    ld      0(ix), e
ROM:2419 DD 72 01                    ld      1(ix), d
ROM:241C
ROM:241C             loc_241C:
ROM:241C 16 79                       ld      d, #0x79 ; 'y'
ROM:241E DD 5D                       ld      e, xl
ROM:2420 EB                          ex      de, hl
ROM:2421 7E                          ld      a, (hl)
ROM:2422 FE 03                       cp      #3
ROM:2424 CA 1F 31                    jp      Z, flying_enemy_hit
ROM:2427 26 7D                       ld      h, #0x7D ; '}'
ROM:2429 CD 71 32                    call    chk_timer_fire_bullet_reinit_timer
ROM:242C 2C                          inc     l
ROM:242D 34                          inc     (hl)
ROM:242E 7E                          ld      a, (hl)
ROM:242F 0F                          rrca
ROM:2430 0F                          rrca
ROM:2431 0F                          rrca
ROM:2432 E6 07                       and     #7
ROM:2434 FE 07                       cp      #7
ROM:2436 28 1D                       jr      Z, loc_2455
ROM:2438 C6 20                       add     a, #32
ROM:243A 2D                          dec     l
ROM:243B 25                          dec     h
ROM:243C 77                          ld      (hl), a
ROM:243D 2C                          inc     l
ROM:243E 3A 1C 80                    ld      a, (pulsing_colour_1)
ROM:2441 77                          ld      (hl), a
ROM:2442 CB FD                       set     7, l
ROM:2444 25                          dec     h
ROM:2445 7E                          ld      a, (hl)
ROM:2446 2D                          dec     l
ROM:2447 86                          add     a, (hl)
ROM:2448 77                          ld      (hl), a
ROM:2449 25                          dec     h
ROM:244A 35                          dec     (hl)
ROM:244B 35                          dec     (hl)
ROM:244C CB BD                       res     7, l
ROM:244E EB                          ex      de, hl
ROM:244F CD 91 30                    call    move_object_dX_dY
ROM:2452 C3 79 30                    jp      add_obj_handler
ROM:2455             ; ---------------------------------------------------------------------------
ROM:2455
ROM:2455             loc_2455:
ROM:2455 11 5E 24                    ld      de, #loc_245E
ROM:2458 DD 73 00                    ld      0(ix), e
ROM:245B DD 72 01                    ld      1(ix), d
ROM:245E
ROM:245E             loc_245E:
ROM:245E 16 79                       ld      d, #0x79 ; 'y'
ROM:2460 DD 5D                       ld      e, xl
ROM:2462 EB                          ex      de, hl
ROM:2463 7E                          ld      a, (hl)
ROM:2464 FE 03                       cp      #3
ROM:2466 CA 1F 31                    jp      Z, flying_enemy_hit
ROM:2469 26 7D                       ld      h, #0x7D ; '}'
ROM:246B CD 71 32                    call    chk_timer_fire_bullet_reinit_timer
ROM:246E 2C                          inc     l
ROM:246F 25                          dec     h
ROM:2470 3A 1C 80                    ld      a, (pulsing_colour_1)
ROM:2473 77                          ld      (hl), a
ROM:2474 CB FD                       set     7, l
ROM:2476 25                          dec     h
ROM:2477 7E                          ld      a, (hl)
ROM:2478 2D                          dec     l
ROM:2479 86                          add     a, (hl)
ROM:247A 77                          ld      (hl), a
ROM:247B 25                          dec     h
ROM:247C 35                          dec     (hl)
ROM:247D 35                          dec     (hl)
ROM:247E CB BD                       res     7, l
ROM:2480 EB                          ex      de, hl
ROM:2481 CD 91 30                    call    move_object_dX_dY
ROM:2484 C3 79 30                    jp      add_obj_handler
ROM:2487             ; ---------------------------------------------------------------------------
ROM:2487
ROM:2487             handle_11_Terrazi:
ROM:2487 16 79                       ld      d, #0x79 ; 'y'
ROM:2489 DD 5D                       ld      e, xl
ROM:248B EB                          ex      de, hl
ROM:248C 36 02                       ld      (hl), #2
ROM:248E 2C                          inc     l
ROM:248F 36 00                       ld      (hl), #0
ROM:2491 26 7B                       ld      h, #0x7B ; '{'
ROM:2493 CD 98 33                    call    gen_rnd_spriteY
ROM:2496 EB                          ex      de, hl
ROM:2497 15                          dec     d
ROM:2498 21 63 3E                    ld      hl, #angle_dX_dY_terrazi_torkan_tbl
ROM:249B CD 65 33                    call    calc_dX_dY_for_vector_to_solvalou
ROM:249E EB                          ex      de, hl
ROM:249F 26 7C                       ld      h, #0x7C ; '|'
ROM:24A1 36 27                       ld      (hl), #39
ROM:24A3 CB BD                       res     7, l
ROM:24A5 36 01                       ld      (hl), #1
ROM:24A7 26 7E                       ld      h, #0x7E ; '~'
ROM:24A9 3A A2 81                    ld      a, (ffreq_mask_terrazi)
ROM:24AC 77                          ld      (hl), a
ROM:24AD CD E4 0E                    call    pseudo_random_gen
ROM:24B0 A6                          and     (hl)
ROM:24B1 25                          dec     h
ROM:24B2 77                          ld      (hl), a
ROM:24B3 F7                          rst     save_PC_to_fn_tbl_and_ret
ROM:24B4 16 79                       ld      d, #0x79 ; 'y'
ROM:24B6 DD 5D                       ld      e, xl
ROM:24B8 EB                          ex      de, hl
ROM:24B9 7E                          ld      a, (hl)
ROM:24BA FE 03                       cp      #3
ROM:24BC CA 1F 31                    jp      Z, flying_enemy_hit
ROM:24BF 26 7B                       ld      h, #0x7B ; '{'
ROM:24C1 2C                          inc     l
ROM:24C2 3A 47 7B                    ld      a, (obj_y_tbl+0x47)
ROM:24C5 96                          sub     (hl)
ROM:24C6 D6 04                       sub     #4
ROM:24C8 C6 08                       add     a, #8
ROM:24CA 38 16                       jr      C, terrazi_main_cont
ROM:24CC 2D                          dec     l
ROM:24CD 26 7D                       ld      h, #0x7D ; '}'
ROM:24CF CD 71 32                    call    chk_timer_fire_bullet_reinit_timer
ROM:24D2 25                          dec     h
ROM:24D3 2C                          inc     l
ROM:24D4 3A 1C 80                    ld      a, (pulsing_colour_1)
ROM:24D7 77                          ld      (hl), a
ROM:24D8 2D                          dec     l
ROM:24D9 26 7A                       ld      h, #0x7A ; 'z'
ROM:24DB EB                          ex      de, hl
ROM:24DC CD 91 30                    call    move_object_dX_dY
ROM:24DF C3 79 30                    jp      add_obj_handler
ROM:24E2             ; ---------------------------------------------------------------------------
ROM:24E2
ROM:24E2             terrazi_main_cont:
ROM:24E2 D6 04                       sub     #4
ROM:24E4 3E 02                       ld      a, #2
ROM:24E6 38 02                       jr      C, loc_24EA
ROM:24E8 3E FE                       ld      a, #0xFE ; 'þ'
ROM:24EA
ROM:24EA             loc_24EA:
ROM:24EA CB FD                       set     7, l
ROM:24EC 77                          ld      (hl), a
ROM:24ED CB BD                       res     7, l
ROM:24EF 26 7D                       ld      h, #0x7D ; '}'
ROM:24F1 36 FF                       ld      (hl), #0xFF
ROM:24F3 11 FC 24                    ld      de, #loc_24FC
ROM:24F6 DD 73 00                    ld      0(ix), e
ROM:24F9 DD 72 01                    ld      1(ix), d
ROM:24FC
ROM:24FC             loc_24FC:
ROM:24FC 16 79                       ld      d, #0x79 ; 'y'
ROM:24FE DD 5D                       ld      e, xl
ROM:2500 EB                          ex      de, hl
ROM:2501 7E                          ld      a, (hl)
ROM:2502 FE 03                       cp      #3
ROM:2504 CA 1F 31                    jp      Z, flying_enemy_hit
ROM:2507 26 7D                       ld      h, #0x7D ; '}'
ROM:2509 CD 71 32                    call    chk_timer_fire_bullet_reinit_timer
ROM:250C 2C                          inc     l
ROM:250D 34                          inc     (hl)
ROM:250E 7E                          ld      a, (hl)
ROM:250F 0F                          rrca
ROM:2510 0F                          rrca
ROM:2511 0F                          rrca
ROM:2512 E6 07                       and     #7
ROM:2514 FE 07                       cp      #7
ROM:2516 28 1D                       jr      Z, terrazi_main_cont_2
ROM:2518 C6 01                       add     a, #1
ROM:251A 2D                          dec     l
ROM:251B 25                          dec     h
ROM:251C 77                          ld      (hl), a
ROM:251D 2C                          inc     l
ROM:251E 3A 1C 80                    ld      a, (pulsing_colour_1)
ROM:2521 77                          ld      (hl), a
ROM:2522 CB FD                       set     7, l
ROM:2524 25                          dec     h
ROM:2525 7E                          ld      a, (hl)
ROM:2526 2D                          dec     l
ROM:2527 86                          add     a, (hl)
ROM:2528 77                          ld      (hl), a
ROM:2529 25                          dec     h
ROM:252A 35                          dec     (hl)
ROM:252B 35                          dec     (hl)
ROM:252C CB BD                       res     7, l
ROM:252E EB                          ex      de, hl
ROM:252F CD 91 30                    call    move_object_dX_dY
ROM:2532 C3 79 30                    jp      add_obj_handler
ROM:2535             ; ---------------------------------------------------------------------------
ROM:2535
ROM:2535             terrazi_main_cont_2:
ROM:2535 11 3E 25                    ld      de, #loc_253E
ROM:2538 DD 73 00                    ld      0(ix), e
ROM:253B DD 72 01                    ld      1(ix), d
ROM:253E
ROM:253E             loc_253E:
ROM:253E 16 79                       ld      d, #0x79 ; 'y'
ROM:2540 DD 5D                       ld      e, xl
ROM:2542 EB                          ex      de, hl
ROM:2543 7E                          ld      a, (hl)
ROM:2544 FE 03                       cp      #3
ROM:2546 CA 1F 31                    jp      Z, flying_enemy_hit
ROM:2549 26 7D                       ld      h, #0x7D ; '}'
ROM:254B CD 71 32                    call    chk_timer_fire_bullet_reinit_timer
ROM:254E 2C                          inc     l
ROM:254F 25                          dec     h
ROM:2550 3A 1C 80                    ld      a, (pulsing_colour_1)
ROM:2553 77                          ld      (hl), a
ROM:2554 CB FD                       set     7, l
ROM:2556 25                          dec     h
ROM:2557 7E                          ld      a, (hl)
ROM:2558 2D                          dec     l
ROM:2559 86                          add     a, (hl)
ROM:255A 77                          ld      (hl), a
ROM:255B 25                          dec     h
ROM:255C 35                          dec     (hl)
ROM:255D 35                          dec     (hl)
ROM:255E CB BD                       res     7, l
ROM:2560 EB                          ex      de, hl
ROM:2561 CD 91 30                    call    move_object_dX_dY
ROM:2564 C3 79 30                    jp      add_obj_handler
ROM:2567             ; ---------------------------------------------------------------------------
ROM:2567
ROM:2567             handle_12_Zakato_slow:
ROM:2567 CD 26 28                    call    init_teleport
ROM:256A 36 0F                       ld      (hl), #15
ROM:256C 25                          dec     h
ROM:256D 36 00                       ld      (hl), #0
ROM:256F 25                          dec     h
ROM:2570 36 10                       ld      (hl), #16
ROM:2572 F7                          rst     save_PC_to_fn_tbl_and_ret
ROM:2573 CD E7 27                    call    zakato_teleport
ROM:2576 30 06                       jr      NC, zakato_12_main
ROM:2578 CD E8 30                    call    scroll_sprite_X
ROM:257B C3 79 30                    jp      add_obj_handler
ROM:257E             ; ---------------------------------------------------------------------------
ROM:257E
ROM:257E             zakato_12_main:
ROM:257E CD E4 0E                    call    pseudo_random_gen
ROM:2581 E6 FF                       and     #0xFF
ROM:2583 3C                          inc     a
ROM:2584 77                          ld      (hl), a
ROM:2585 25                          dec     h
ROM:2586 36 11                       ld      (hl), #0x11
ROM:2588 2C                          inc     l
ROM:2589 26 79                       ld      h, #0x79 ; 'y'
ROM:258B 36 80                       ld      (hl), #0x80 ; '€'
ROM:258D 2D                          dec     l
ROM:258E 36 02                       ld      (hl), #2
ROM:2590 11 99 25                    ld      de, #0x2599
ROM:2593 DD 73 00                    ld      0(ix), e
ROM:2596 DD 72 01                    ld      1(ix), d
ROM:2599 16 79                       ld      d, #0x79 ; 'y'
ROM:259B DD 5D                       ld      e, xl
ROM:259D EB                          ex      de, hl
ROM:259E 7E                          ld      a, (hl)
ROM:259F FE 03                       cp      #3
ROM:25A1 CA 1F 31                    jp      Z, flying_enemy_hit
ROM:25A4 26 7D                       ld      h, #0x7D ; '}'
ROM:25A6 35                          dec     (hl)
ROM:25A7 28 10                       jr      Z, zakato_shoot
ROM:25A9 25                          dec     h
ROM:25AA 2C                          inc     l
ROM:25AB 3A 43 80                    ld      a, (pulsing_colour_2)
ROM:25AE 77                          ld      (hl), a
ROM:25AF 2D                          dec     l
ROM:25B0 26 7A                       ld      h, #0x7A ; 'z'
ROM:25B2 EB                          ex      de, hl
ROM:25B3 CD 91 30                    call    move_object_dX_dY
ROM:25B6 C3 79 30                    jp      add_obj_handler
ROM:25B9             ; ---------------------------------------------------------------------------
ROM:25B9
ROM:25B9             zakato_shoot:
ROM:25B9 36 FF                       ld      (hl), #0xFF
ROM:25BB 26 79                       ld      h, #0x79 ; 'y'
ROM:25BD 36 03                       ld      (hl), #3
ROM:25BF CD 87 32                    call    init_new_bullet
ROM:25C2
ROM:25C2             zakato_explode_and_remove:
ROM:25C2 11 CB 25                    ld      de, #loc_25CB
ROM:25C5 DD 73 00                    ld      0(ix), e
ROM:25C8 DD 72 01                    ld      1(ix), d
ROM:25CB
ROM:25CB             loc_25CB:
ROM:25CB CD A8 27                    call    zakato_explode
ROM:25CE D2 9D 27                    jp      NC, remove_zakato
ROM:25D1 CD E8 30                    call    scroll_sprite_X
ROM:25D4 C3 79 30                    jp      add_obj_handler
ROM:25D7             ; ---------------------------------------------------------------------------
ROM:25D7
ROM:25D7             handle_13_Zakato_closeY:
ROM:25D7 CD 26 28                    call    init_teleport
ROM:25DA 36 15                       ld      (hl), #21
ROM:25DC 25                          dec     h
ROM:25DD 36 00                       ld      (hl), #0
ROM:25DF 25                          dec     h
ROM:25E0 36 10                       ld      (hl), #16
ROM:25E2 F7                          rst     save_PC_to_fn_tbl_and_ret
ROM:25E3 CD E7 27                    call    zakato_teleport
ROM:25E6 30 06                       jr      NC, zakato_13_main
ROM:25E8 CD E8 30                    call    scroll_sprite_X
ROM:25EB C3 79 30                    jp      add_obj_handler
ROM:25EE             ; ---------------------------------------------------------------------------
ROM:25EE
ROM:25EE             zakato_13_main:
ROM:25EE 26 7C                       ld      h, #0x7C ; '|'
ROM:25F0 36 11                       ld      (hl), #0x11
ROM:25F2 2C                          inc     l
ROM:25F3 26 79                       ld      h, #0x79 ; 'y'
ROM:25F5 36 80                       ld      (hl), #0x80 ; '€'
ROM:25F7 2D                          dec     l
ROM:25F8 36 02                       ld      (hl), #2
ROM:25FA 11 03 26                    ld      de, #0x2603
ROM:25FD DD 73 00                    ld      0(ix), e
ROM:2600 DD 72 01                    ld      1(ix), d
ROM:2603 16 79                       ld      d, #0x79 ; 'y'
ROM:2605 DD 5D                       ld      e, xl
ROM:2607 EB                          ex      de, hl
ROM:2608 7E                          ld      a, (hl)
ROM:2609 FE 03                       cp      #3
ROM:260B CA 1F 31                    jp      Z, flying_enemy_hit
ROM:260E 26 7B                       ld      h, #0x7B ; '{'
ROM:2610 2C                          inc     l
ROM:2611 3A 47 7B                    ld      a, (obj_y_tbl+0x47)
ROM:2614 96                          sub     (hl)
ROM:2615 2D                          dec     l
ROM:2616 26 7D                       ld      h, #0x7D ; '}'
ROM:2618 D6 04                       sub     #4
ROM:261A C6 08                       add     a, #8
ROM:261C 38 9B                       jr      C, zakato_shoot
ROM:261E 25                          dec     h
ROM:261F 2C                          inc     l
ROM:2620 3A 43 80                    ld      a, (pulsing_colour_2)
ROM:2623 77                          ld      (hl), a
ROM:2624 2D                          dec     l
ROM:2625 26 7A                       ld      h, #0x7A ; 'z'
ROM:2627 EB                          ex      de, hl
ROM:2628 CD 91 30                    call    move_object_dX_dY
ROM:262B C3 79 30                    jp      add_obj_handler
ROM:262E             ; ---------------------------------------------------------------------------
ROM:262E
ROM:262E             handle_14_Zakato_fast:
ROM:262E CD 26 28                    call    init_teleport
ROM:2631 36 12                       ld      (hl), #0x12
ROM:2633 F7                          rst     save_PC_to_fn_tbl_and_ret
ROM:2634 CD E7 27                    call    zakato_teleport
ROM:2637 30 06                       jr      NC, zakato_14_main
ROM:2639 CD E8 30                    call    scroll_sprite_X
ROM:263C C3 79 30                    jp      add_obj_handler
ROM:263F             ; ---------------------------------------------------------------------------
ROM:263F
ROM:263F             zakato_14_main:
ROM:263F CD E4 0E                    call    pseudo_random_gen
ROM:2642 E6 3F                       and     #0x3F ; '?'
ROM:2644 3C                          inc     a
ROM:2645 77                          ld      (hl), a
ROM:2646 25                          dec     h
ROM:2647 36 11                       ld      (hl), #0x11
ROM:2649 2C                          inc     l
ROM:264A 26 79                       ld      h, #0x79 ; 'y'
ROM:264C 36 80                       ld      (hl), #0x80 ; '€'
ROM:264E 2D                          dec     l
ROM:264F 36 02                       ld      (hl), #2
ROM:2651 2C                          inc     l
ROM:2652 24                          inc     h
ROM:2653 EB                          ex      de, hl
ROM:2654 21 A3 3E                    ld      hl, #angle_dX_dY_tbl
ROM:2657 CD 65 33                    call    calc_dX_dY_for_vector_to_solvalou
ROM:265A 11 63 26                    ld      de, #loc_2663
ROM:265D DD 73 00                    ld      0(ix), e
ROM:2660 DD 72 01                    ld      1(ix), d
ROM:2663
ROM:2663             loc_2663:
ROM:2663 16 79                       ld      d, #0x79 ; 'y'
ROM:2665 DD 5D                       ld      e, xl
ROM:2667 EB                          ex      de, hl
ROM:2668 7E                          ld      a, (hl)
ROM:2669 FE 03                       cp      #3
ROM:266B CA 1F 31                    jp      Z, flying_enemy_hit
ROM:266E 26 7D                       ld      h, #0x7D ; '}'
ROM:2670 35                          dec     (hl)
ROM:2671 CA B9 25                    jp      Z, zakato_shoot
ROM:2674 25                          dec     h
ROM:2675 2C                          inc     l
ROM:2676 3A 43 80                    ld      a, (pulsing_colour_2)
ROM:2679 77                          ld      (hl), a
ROM:267A 2D                          dec     l
ROM:267B 26 7A                       ld      h, #0x7A ; 'z'
ROM:267D EB                          ex      de, hl
ROM:267E CD 91 30                    call    move_object_dX_dY
ROM:2681 C3 79 30                    jp      add_obj_handler
ROM:2684             ; ---------------------------------------------------------------------------
ROM:2684
ROM:2684             handle_15_Zakato:
ROM:2684 CD 26 28                    call    init_teleport
ROM:2687 36 1B                       ld      (hl), #0x1B
ROM:2689 F7                          rst     save_PC_to_fn_tbl_and_ret
ROM:268A CD E7 27                    call    zakato_teleport
ROM:268D 30 06                       jr      NC, zakato_15_main
ROM:268F CD E8 30                    call    scroll_sprite_X
ROM:2692 C3 79 30                    jp      add_obj_handler
ROM:2695             ; ---------------------------------------------------------------------------
ROM:2695
ROM:2695             zakato_15_main:
ROM:2695 26 7C                       ld      h, #0x7C ; '|'
ROM:2697 36 11                       ld      (hl), #0x11
ROM:2699 2C                          inc     l
ROM:269A 26 79                       ld      h, #0x79 ; 'y'
ROM:269C 36 80                       ld      (hl), #0x80 ; '€'
ROM:269E 2D                          dec     l
ROM:269F 36 02                       ld      (hl), #2
ROM:26A1 2C                          inc     l
ROM:26A2 24                          inc     h
ROM:26A3 EB                          ex      de, hl
ROM:26A4 21 A3 3E                    ld      hl, #angle_dX_dY_tbl
ROM:26A7 CD 65 33                    call    calc_dX_dY_for_vector_to_solvalou
ROM:26AA 11 B3 26                    ld      de, #loc_26B3
ROM:26AD DD 73 00                    ld      0(ix), e
ROM:26B0 DD 72 01                    ld      1(ix), d
ROM:26B3
ROM:26B3             loc_26B3:
ROM:26B3 16 79                       ld      d, #0x79 ; 'y'
ROM:26B5 DD 5D                       ld      e, xl
ROM:26B7 EB                          ex      de, hl
ROM:26B8 7E                          ld      a, (hl)
ROM:26B9 FE 03                       cp      #3
ROM:26BB CA 1F 31                    jp      Z, flying_enemy_hit
ROM:26BE 26 7B                       ld      h, #0x7B ; '{'
ROM:26C0 2C                          inc     l
ROM:26C1 3A 47 7B                    ld      a, (obj_y_tbl+0x47)
ROM:26C4 96                          sub     (hl)
ROM:26C5 2D                          dec     l
ROM:26C6 26 7D                       ld      h, #0x7D ; '}'
ROM:26C8 D6 04                       sub     #4
ROM:26CA C6 08                       add     a, #8
ROM:26CC DA B9 25                    jp      C, zakato_shoot
ROM:26CF 25                          dec     h
ROM:26D0 2C                          inc     l
ROM:26D1 3A 43 80                    ld      a, (pulsing_colour_2)
ROM:26D4 77                          ld      (hl), a
ROM:26D5 2D                          dec     l
ROM:26D6 26 7A                       ld      h, #0x7A ; 'z'
ROM:26D8 EB                          ex      de, hl
ROM:26D9 CD 91 30                    call    move_object_dX_dY
ROM:26DC C3 79 30                    jp      add_obj_handler
ROM:26DF             ; ---------------------------------------------------------------------------
ROM:26DF
ROM:26DF             handle_16_Brag_Zakato_rnd:
ROM:26DF CD 26 28                    call    init_teleport
ROM:26E2 36 24                       ld      (hl), #36
ROM:26E4 F7                          rst     save_PC_to_fn_tbl_and_ret
ROM:26E5 CD E7 27                    call    zakato_teleport
ROM:26E8 30 06                       jr      NC, brag_zakato_16_main
ROM:26EA CD E8 30                    call    scroll_sprite_X
ROM:26ED C3 79 30                    jp      add_obj_handler
ROM:26F0             ; ---------------------------------------------------------------------------
ROM:26F0
ROM:26F0             brag_zakato_16_main:
ROM:26F0 CD E4 0E                    call    pseudo_random_gen
ROM:26F3 E6 3F                       and     #0x3F ; '?'
ROM:26F5 3C                          inc     a
ROM:26F6 77                          ld      (hl), a
ROM:26F7 25                          dec     h
ROM:26F8 36 12                       ld      (hl), #0x12
ROM:26FA 2C                          inc     l
ROM:26FB 26 7A                       ld      h, #0x7A ; 'z'
ROM:26FD EB                          ex      de, hl
ROM:26FE 21 A3 3E                    ld      hl, #angle_dX_dY_tbl
ROM:2701 CD 65 33                    call    calc_dX_dY_for_vector_to_solvalou
ROM:2704 EB                          ex      de, hl
ROM:2705 CB BD                       res     7, l
ROM:2707 25                          dec     h
ROM:2708 36 02                       ld      (hl), #2
ROM:270A 2C                          inc     l
ROM:270B 36 80                       ld      (hl), #0x80 ; '€'
ROM:270D 11 16 27                    ld      de, #loc_2716
ROM:2710 DD 73 00                    ld      0(ix), e
ROM:2713 DD 72 01                    ld      1(ix), d
ROM:2716
ROM:2716             loc_2716:
ROM:2716 16 79                       ld      d, #0x79 ; 'y'
ROM:2718 DD 5D                       ld      e, xl
ROM:271A EB                          ex      de, hl
ROM:271B 7E                          ld      a, (hl)
ROM:271C FE 03                       cp      #3
ROM:271E CA 1F 31                    jp      Z, flying_enemy_hit
ROM:2721 26 7D                       ld      h, #0x7D ; '}'
ROM:2723 35                          dec     (hl)
ROM:2724 28 6B                       jr      Z, brag_zakato_explode
ROM:2726 25                          dec     h
ROM:2727 2C                          inc     l
ROM:2728 3A 43 80                    ld      a, (pulsing_colour_2)
ROM:272B 77                          ld      (hl), a
ROM:272C 2D                          dec     l
ROM:272D 26 7A                       ld      h, #0x7A ; 'z'
ROM:272F EB                          ex      de, hl
ROM:2730 CD 91 30                    call    move_object_dX_dY
ROM:2733 C3 79 30                    jp      add_obj_handler
ROM:2736             ; ---------------------------------------------------------------------------
ROM:2736
ROM:2736             handle_17_Brag_Zakato_closeY:
ROM:2736 CD 26 28                    call    init_teleport
ROM:2739 36 33                       ld      (hl), #51
ROM:273B F7                          rst     save_PC_to_fn_tbl_and_ret
ROM:273C CD E7 27                    call    zakato_teleport
ROM:273F 30 06                       jr      NC, brag_zakato_17_main
ROM:2741 CD E8 30                    call    scroll_sprite_X
ROM:2744 C3 79 30                    jp      add_obj_handler
ROM:2747             ; ---------------------------------------------------------------------------
ROM:2747
ROM:2747             brag_zakato_17_main:
ROM:2747 25                          dec     h
ROM:2748 36 12                       ld      (hl), #0x12
ROM:274A 2C                          inc     l
ROM:274B 26 7A                       ld      h, #0x7A ; 'z'
ROM:274D EB                          ex      de, hl
ROM:274E 21 A3 3E                    ld      hl, #angle_dX_dY_tbl
ROM:2751 CD 65 33                    call    calc_dX_dY_for_vector_to_solvalou
ROM:2754 EB                          ex      de, hl
ROM:2755 CB BD                       res     7, l
ROM:2757 25                          dec     h
ROM:2758 36 02                       ld      (hl), #2
ROM:275A 2C                          inc     l
ROM:275B 36 80                       ld      (hl), #0x80 ; '€'
ROM:275D 11 66 27                    ld      de, #loc_2766
ROM:2760 DD 73 00                    ld      0(ix), e
ROM:2763 DD 72 01                    ld      1(ix), d
ROM:2766
ROM:2766             loc_2766:
ROM:2766 16 79                       ld      d, #0x79 ; 'y'
ROM:2768 DD 5D                       ld      e, xl
ROM:276A EB                          ex      de, hl
ROM:276B 7E                          ld      a, (hl)
ROM:276C FE 03                       cp      #3
ROM:276E CA 1F 31                    jp      Z, flying_enemy_hit
ROM:2771 26 7B                       ld      h, #0x7B ; '{'
ROM:2773 2C                          inc     l
ROM:2774 3A 47 7B                    ld      a, (obj_y_tbl+0x47)
ROM:2777 96                          sub     (hl)
ROM:2778 2D                          dec     l
ROM:2779 26 7D                       ld      h, #0x7D ; '}'
ROM:277B D6 04                       sub     #4
ROM:277D C6 08                       add     a, #8
ROM:277F 38 10                       jr      C, brag_zakato_explode
ROM:2781 25                          dec     h
ROM:2782 2C                          inc     l
ROM:2783 3A 43 80                    ld      a, (pulsing_colour_2)
ROM:2786 77                          ld      (hl), a
ROM:2787 2D                          dec     l
ROM:2788 26 7A                       ld      h, #0x7A ; 'z'
ROM:278A EB                          ex      de, hl
ROM:278B CD 91 30                    call    move_object_dX_dY
ROM:278E C3 79 30                    jp      add_obj_handler
ROM:2791             ; ---------------------------------------------------------------------------
ROM:2791
ROM:2791             brag_zakato_explode:
ROM:2791 36 FF                       ld      (hl), #0xFF
ROM:2793 26 79                       ld      h, #0x79 ; 'y'
ROM:2795 36 03                       ld      (hl), #3
ROM:2797 CD D9 32                    call    brag_zakato_shoot
ROM:279A C3 C2 25                    jp      zakato_explode_and_remove
ROM:279D             ; ---------------------------------------------------------------------------
ROM:279D
ROM:279D             remove_zakato:
ROM:279D 26 7F                       ld      h, #0x7F ; ''
ROM:279F 36 00                       ld      (hl), #0
ROM:27A1 26 79                       ld      h, #0x79 ; 'y'
ROM:27A3 36 00                       ld      (hl), #0
ROM:27A5 C3 79 30                    jp      add_obj_handler
ROM:27A8
ROM:27A8             ; =============== S U B R O U T I N E =======================================
ROM:27A8
ROM:27A8
ROM:27A8             zakato_explode:
ROM:27A8 16 7D                       ld      d, #0x7D ; '}'
ROM:27AA DD 5D                       ld      e, xl
ROM:27AC EB                          ex      de, hl
ROM:27AD 34                          inc     (hl)
ROM:27AE 7E                          ld      a, (hl)
ROM:27AF FE 10                       cp      #0x10
ROM:27B1 20 09                       jr      NZ, loc_27BC
ROM:27B3 2C                          inc     l
ROM:27B4 26 7A                       ld      h, #0x7A ; 'z'
ROM:27B6 35                          dec     (hl)
ROM:27B7 24                          inc     h
ROM:27B8 34                          inc     (hl)
ROM:27B9 2D                          dec     l
ROM:27BA 26 7D                       ld      h, #0x7D ; '}'
ROM:27BC
ROM:27BC             loc_27BC:
ROM:27BC 4F                          ld      c, a
ROM:27BD 0F                          rrca
ROM:27BE 0F                          rrca
ROM:27BF E6 07                       and     #7
ROM:27C1 FE 05                       cp      #5
ROM:27C3 D0                          ret     NC
ROM:27C4 EB                          ex      de, hl
ROM:27C5 21 DB 27                    ld      hl, #zakato_exploding_sprite_tbl
ROM:27C8 CF                          rst     HL_plus_equals_2A
ROM:27C9 15                          dec     d
ROM:27CA 7E                          ld      a, (hl)
ROM:27CB 12                          ld      (de), a
ROM:27CC 23                          inc     hl
ROM:27CD 1C                          inc     e
ROM:27CE 16 79                       ld      d, #0x79 ; 'y'
ROM:27D0 79                          ld      a, c
ROM:27D1 07                          rlca
ROM:27D2 07                          rlca
ROM:27D3 E6 0C                       and     #0xC
ROM:27D5 86                          add     a, (hl)
ROM:27D6 12                          ld      (de), a
ROM:27D7 1D                          dec     e
ROM:27D8 14                          inc     d
ROM:27D9 37                          scf
ROM:27DA C9                          ret
ROM:27DA             ; End of function zakato_explode
ROM:27DA
ROM:27DA             ; ---------------------------------------------------------------------------
ROM:27DB 04 80 05 80+zakato_exploding_sprite_tbl:.db 4, 0x80
ROM:27DB 06 80 07 80+                .db 5, 0x80
ROM:27DB 08 83 0C 83                 .db 6, 0x80
ROM:27DB                             .db 7, 0x80
ROM:27DB                             .db 8, 0x83
ROM:27DB                             .db 0xC, 0x83
ROM:27E7
ROM:27E7             ; =============== S U B R O U T I N E =======================================
ROM:27E7
ROM:27E7
ROM:27E7             zakato_teleport:
ROM:27E7 16 7D                       ld      d, #0x7D ; '}'
ROM:27E9 DD 5D                       ld      e, xl
ROM:27EB EB                          ex      de, hl
ROM:27EC 34                          inc     (hl)
ROM:27ED 7E                          ld      a, (hl)
ROM:27EE FE 08                       cp      #8
ROM:27F0 20 09                       jr      NZ, zakato_teleport_sparkles
ROM:27F2 2C                          inc     l
ROM:27F3 26 7A                       ld      h, #0x7A ; 'z'
ROM:27F5 34                          inc     (hl)
ROM:27F6 24                          inc     h
ROM:27F7 35                          dec     (hl)
ROM:27F8 2D                          dec     l
ROM:27F9 26 7D                       ld      h, #0x7D ; '}'
ROM:27FB
ROM:27FB             zakato_teleport_sparkles:
ROM:27FB 4F                          ld      c, a
ROM:27FC 0F                          rrca
ROM:27FD 0F                          rrca
ROM:27FE E6 07                       and     #7
ROM:2800 FE 05                       cp      #5
ROM:2802 D0                          ret     NC
ROM:2803 EB                          ex      de, hl
ROM:2804 21 1A 28                    ld      hl, #zakato_teleport_sprite_tbl
ROM:2807 CF                          rst     HL_plus_equals_2A
ROM:2808 15                          dec     d
ROM:2809 7E                          ld      a, (hl)
ROM:280A 12                          ld      (de), a
ROM:280B 23                          inc     hl
ROM:280C 1C                          inc     e
ROM:280D 16 79                       ld      d, #0x79 ; 'y'
ROM:280F 79                          ld      a, c
ROM:2810 07                          rlca
ROM:2811 07                          rlca
ROM:2812 E6 0C                       and     #0xC
ROM:2814 86                          add     a, (hl)
ROM:2815 12                          ld      (de), a
ROM:2816 1D                          dec     e
ROM:2817 14                          inc     d
ROM:2818 37                          scf
ROM:2819 C9                          ret
ROM:2819             ; End of function zakato_teleport
ROM:2819
ROM:2819             ; ---------------------------------------------------------------------------
ROM:281A 0C 83 08 83+zakato_teleport_sprite_tbl:.db 0xC, 0x83
ROM:281A 07 80 06 80+                .db 8, 0x83
ROM:281A 05 80 04 80                 .db 7, 0x80
ROM:281A                             .db 6, 0x80
ROM:281A                             .db 5, 0x80
ROM:281A                             .db 4, 0x80
ROM:2826
ROM:2826             ; =============== S U B R O U T I N E =======================================
ROM:2826
ROM:2826
ROM:2826             init_teleport:
ROM:2826 16 79                       ld      d, #0x79 ; 'y'
ROM:2828 DD 5D                       ld      e, xl
ROM:282A EB                          ex      de, hl
ROM:282B 36 03                       ld      (hl), #3
ROM:282D 2C                          inc     l
ROM:282E 24                          inc     h
ROM:282F CD E4 0E                    call    pseudo_random_gen
ROM:2832 E6 0F                       and     #0xF
ROM:2834 C6 05                       add     a, #5
ROM:2836 77                          ld      (hl), a
ROM:2837 24                          inc     h
ROM:2838 CD 8B 33                    call    gen_random_Y_store_obj
ROM:283B 34                          inc     (hl)
ROM:283C 24                          inc     h
ROM:283D 36 24                       ld      (hl), #0x24 ; '$'
ROM:283F 2D                          dec     l
ROM:2840 24                          inc     h
ROM:2841 36 FF                       ld      (hl), #0xFF
ROM:2843 25                          dec     h
ROM:2844 CB FD                       set     7, l
ROM:2846 3E 01                       ld      a, #1
ROM:2848 32 09 A0                    ld      (teleport_snd), a
ROM:284B C9                          ret
ROM:284B             ; End of function init_teleport
ROM:284B
ROM:284C             ; ---------------------------------------------------------------------------
ROM:284C
ROM:284C             handle_18_Garu_Zakato:
ROM:284C 16 79                       ld      d, #0x79 ; 'y'
ROM:284E DD 5D                       ld      e, xl
ROM:2850 EB                          ex      de, hl
ROM:2851 36 02                       ld      (hl), #2
ROM:2853 2C                          inc     l
ROM:2854 36 80                       ld      (hl), #0x80 ; '€'
ROM:2856 26 7B                       ld      h, #0x7B ; '{'
ROM:2858 CD 8B 33                    call    gen_random_Y_store_obj
ROM:285B 24                          inc     h
ROM:285C 2D                          dec     l
ROM:285D 36 13                       ld      (hl), #0x13
ROM:285F CB FD                       set     7, l
ROM:2861 36 30                       ld      (hl), #0x30 ; '0'
ROM:2863 26 7A                       ld      h, #0x7A ; 'z'
ROM:2865 36 30                       ld      (hl), #0x30 ; '0'
ROM:2867 24                          inc     h
ROM:2868 36 00                       ld      (hl), #0
ROM:286A CB BD                       res     7, l
ROM:286C 26 7D                       ld      h, #0x7D ; '}'
ROM:286E CD E4 0E                    call    pseudo_random_gen
ROM:2871 E6 1F                       and     #0x1F
ROM:2873 C6 20                       add     a, #0x20 ; ' '
ROM:2875 77                          ld      (hl), a
ROM:2876 F7                          rst     save_PC_to_fn_tbl_and_ret
ROM:2877 16 79                       ld      d, #0x79 ; 'y'
ROM:2879 DD 5D                       ld      e, xl
ROM:287B EB                          ex      de, hl
ROM:287C 7E                          ld      a, (hl)
ROM:287D FE 03                       cp      #3
ROM:287F CA 1F 31                    jp      Z, flying_enemy_hit
ROM:2882 26 7D                       ld      h, #0x7D ; '}'
ROM:2884 35                          dec     (hl)
ROM:2885 28 10                       jr      Z, garu_zakato_explode
ROM:2887 25                          dec     h
ROM:2888 2C                          inc     l
ROM:2889 3A 43 80                    ld      a, (pulsing_colour_2)
ROM:288C 77                          ld      (hl), a
ROM:288D 2D                          dec     l
ROM:288E 26 7A                       ld      h, #0x7A ; 'z'
ROM:2890 EB                          ex      de, hl
ROM:2891 CD 91 30                    call    move_object_dX_dY
ROM:2894 C3 79 30                    jp      add_obj_handler
ROM:2897             ; ---------------------------------------------------------------------------
ROM:2897
ROM:2897             garu_zakato_explode:
ROM:2897 E5                          push    hl
ROM:2898 CD 0A 33                    call    init_garu_zakato_explosion
ROM:289B 3E 01                       ld      a, #1
ROM:289D 32 06 A0                    ld      (garu_zakato_snd), a
ROM:28A0 C5                          push    bc
ROM:28A1 21 B9 28                    ld      hl, #garu_zakato_explosion_snd_data
ROM:28A4 11 80 80                    ld      de, #unk_8080
ROM:28A7 01 07 00                    ld      bc, #7
ROM:28AA ED B0                       ldir
ROM:28AC C1                          pop     bc
ROM:28AD E1                          pop     hl
ROM:28AE 26 7F                       ld      h, #0x7F ; ''
ROM:28B0 36 00                       ld      (hl), #0
ROM:28B2 26 79                       ld      h, #0x79 ; 'y'
ROM:28B4 36 00                       ld      (hl), #0
ROM:28B6 C3 79 30                    jp      add_obj_handler
ROM:28B6             ; ---------------------------------------------------------------------------
ROM:28B9 30          garu_zakato_explosion_snd_data:.db 0x30 ; 0
ROM:28BA 80                          .db 0x80 ; €
ROM:28BB 80                          .db 0x80 ; €
ROM:28BC 01                          .db    1
ROM:28BD FF                          .db 0xFF
ROM:28BE 10                          .db 0x10
ROM:28BF 10                          .db 0x10
ROM:28C0             ; ---------------------------------------------------------------------------
ROM:28C0
ROM:28C0             animate_r_sheonite_1:
ROM:28C0 26 7C                       ld      h, #0x7C ; '|'
ROM:28C2 3A 1C 80                    ld      a, (pulsing_colour_1)
ROM:28C5 77                          ld      (hl), a
ROM:28C6 2D                          dec     l
ROM:28C7 EB                          ex      de, hl
ROM:28C8 21 D9 28                    ld      hl, #r_sheonite_code_tbl_1
ROM:28CB 3A 01 80                    ld      a, (countup_timer_1)
ROM:28CE 0F                          rrca
ROM:28CF E6 03                       and     #3
ROM:28D1 D7                          rst     HL_plus_equals_A
ROM:28D2 7E                          ld      a, (hl)
ROM:28D3 12                          ld      (de), a
ROM:28D4 16 7A                       ld      d, #0x7A ; 'z'
ROM:28D6 C3 FC 30                    jp      move_object_dX_dY_2
ROM:28D6             ; ---------------------------------------------------------------------------
ROM:28D9 32 33 30 31 r_sheonite_code_tbl_1:.db 0x32, 0x33, 0x30, 0x31
ROM:28DD             ; ---------------------------------------------------------------------------
ROM:28DD
ROM:28DD             handle_31_right_sheonite:
ROM:28DD 16 79                       ld      d, #0x79 ; 'y'
ROM:28DF DD 5D                       ld      e, xl
ROM:28E1 EB                          ex      de, hl
ROM:28E2 36 03                       ld      (hl), #3
ROM:28E4 2C                          inc     l
ROM:28E5 36 00                       ld      (hl), #0
ROM:28E7 26 7B                       ld      h, #0x7B ; '{'
ROM:28E9 36 1E                       ld      (hl), #30
ROM:28EB F7                          rst     save_PC_to_fn_tbl_and_ret
ROM:28EC 16 7A                       ld      d, #0x7A ; 'z'
ROM:28EE DD 5D                       ld      e, xl
ROM:28F0 1C                          inc     e
ROM:28F1 1A                          ld      a, (de)
ROM:28F2 4F                          ld      c, a
ROM:28F3 3A 47 7A                    ld      a, (obj_x_tbl+0x47)
ROM:28F6 D6 02                       sub     #2
ROM:28F8 91                          sub     c
ROM:28F9 6F                          ld      l, a
ROM:28FA 14                          inc     d
ROM:28FB 1A                          ld      a, (de)
ROM:28FC 4F                          ld      c, a
ROM:28FD 3A 47 7B                    ld      a, (obj_y_tbl+0x47)
ROM:2900 D6 02                       sub     #2
ROM:2902 91                          sub     c
ROM:2903 67                          ld      h, a
ROM:2904 CD 4B 0E                    call    get_index_for_angle
ROM:2907 CB FB                       set     7, e
ROM:2909 1D                          dec     e
ROM:290A 21 23 3E                    ld      hl, #angle_dX_dY_sheonite_tbl
ROM:290D CD 7E 33                    call    get_dX_dY_and_cpy_to_obj
ROM:2910 CB BB                       res     7, e
ROM:2912 1C                          inc     e
ROM:2913 EB                          ex      de, hl
ROM:2914 3A 47 7A                    ld      a, (obj_x_tbl+0x47)
ROM:2917 D6 02                       sub     #2
ROM:2919 BE                          cp      (hl)
ROM:291A 20 A4                       jr      NZ, animate_r_sheonite_1
ROM:291C 24                          inc     h
ROM:291D 3A 47 7B                    ld      a, (obj_y_tbl+0x47)
ROM:2920 D6 02                       sub     #2
ROM:2922 BE                          cp      (hl)
ROM:2923 20 9B                       jr      NZ, animate_r_sheonite_1
ROM:2925 11 2E 29                    ld      de, #loc_292E
ROM:2928 DD 73 00                    ld      0(ix), e
ROM:292B DD 72 01                    ld      1(ix), d
ROM:292E
ROM:292E             loc_292E:
ROM:292E 3A 01 80                    ld      a, (countup_timer_1)
ROM:2931 A7                          and     a
ROM:2932 20 06                       jr      NZ, loc_293A
ROM:2934 3A 2E 80                    ld      a, (sheonite_end_flag)
ROM:2937 A7                          and     a
ROM:2938 20 16                       jr      NZ, animate_r_sheonite_2
ROM:293A
ROM:293A             loc_293A:
ROM:293A CD F7 29                    call    set_r_sheonite_above_solvalou
ROM:293D 14                          inc     d
ROM:293E 21 D9 28                    ld      hl, #r_sheonite_code_tbl_1
ROM:2941 3A 01 80                    ld      a, (countup_timer_1)
ROM:2944 0F                          rrca
ROM:2945 E6 03                       and     #3
ROM:2947 D7                          rst     HL_plus_equals_A
ROM:2948 7E                          ld      a, (hl)
ROM:2949 12                          ld      (de), a
ROM:294A 1C                          inc     e
ROM:294B 3A 1C 80                    ld      a, (pulsing_colour_1)
ROM:294E 12                          ld      (de), a
ROM:294F C9                          ret
ROM:2950             ; ---------------------------------------------------------------------------
ROM:2950
ROM:2950             animate_r_sheonite_2:
ROM:2950 11 59 29                    ld      de, #loc_2959
ROM:2953 DD 73 00                    ld      0(ix), e
ROM:2956 DD 72 01                    ld      1(ix), d
ROM:2959
ROM:2959             loc_2959:
ROM:2959 CD F7 29                    call    set_r_sheonite_above_solvalou
ROM:295C 3A 01 80                    ld      a, (countup_timer_1)
ROM:295F 0F                          rrca
ROM:2960 0F                          rrca
ROM:2961 E6 07                       and     #7
ROM:2963 FE 07                       cp      #7
ROM:2965 28 14                       jr      Z, r_sheonite_combining
ROM:2967 21 74 29                    ld      hl, #r_sheonite_code_tbl_2
ROM:296A D7                          rst     HL_plus_equals_A
ROM:296B 14                          inc     d
ROM:296C 7E                          ld      a, (hl)
ROM:296D 12                          ld      (de), a
ROM:296E 1C                          inc     e
ROM:296F 3A 1C 80                    ld      a, (pulsing_colour_1)
ROM:2972 12                          ld      (de), a
ROM:2973 C9                          ret
ROM:2973             ; ---------------------------------------------------------------------------
ROM:2974 32 32 32 32+r_sheonite_code_tbl_2:.db 0x32, 0x32, 0x32, 0x32, 0x34, 0x35, 0x36
ROM:297B             ; ---------------------------------------------------------------------------
ROM:297B
ROM:297B             r_sheonite_combining:
ROM:297B 16 7D                       ld      d, #0x7D ; '}'
ROM:297D EB                          ex      de, hl
ROM:297E 36 E0                       ld      (hl), #0xE0 ; 'à'
ROM:2980 11 89 29                    ld      de, #loc_2989
ROM:2983 DD 73 00                    ld      0(ix), e
ROM:2986 DD 72 01                    ld      1(ix), d
ROM:2989
ROM:2989             loc_2989:
ROM:2989 16 7D                       ld      d, #0x7D ; '}'
ROM:298B DD 5D                       ld      e, xl
ROM:298D EB                          ex      de, hl
ROM:298E 34                          inc     (hl)
ROM:298F 28 20                       jr      Z, r_sheonite_retreat
ROM:2991 EB                          ex      de, hl
ROM:2992 2A 46 7B                    ld      hl, (obj_y_tbl+0x46)
ROM:2995 1A                          ld      a, (de)
ROM:2996 D5                          push    de
ROM:2997 EF                          rst     HL_plus_equals_8A
ROM:2998 D1                          pop     de
ROM:2999 16 7B                       ld      d, #0x7B ; '{'
ROM:299B EB                          ex      de, hl
ROM:299C 73                          ld      (hl), e
ROM:299D 2C                          inc     l
ROM:299E 72                          ld      (hl), d
ROM:299F ED 5B 46 7A                 ld      de, (obj_x_tbl+0x46)
ROM:29A3 25                          dec     h
ROM:29A4 15                          dec     d
ROM:29A5 15                          dec     d
ROM:29A6 72                          ld      (hl), d
ROM:29A7 2D                          dec     l
ROM:29A8 73                          ld      (hl), e
ROM:29A9 2C                          inc     l
ROM:29AA 26 7C                       ld      h, #0x7C ; '|'
ROM:29AC 3A 1C 80                    ld      a, (pulsing_colour_1)
ROM:29AF 77                          ld      (hl), a
ROM:29B0 C9                          ret
ROM:29B1             ; ---------------------------------------------------------------------------
ROM:29B1
ROM:29B1             r_sheonite_retreat:
ROM:29B1 26 7A                       ld      h, #0x7A ; 'z'
ROM:29B3 ED 5B 46 7A                 ld      de, (obj_x_tbl+0x46)
ROM:29B7 15                          dec     d
ROM:29B8 15                          dec     d
ROM:29B9 73                          ld      (hl), e
ROM:29BA 2C                          inc     l
ROM:29BB 72                          ld      (hl), d
ROM:29BC 24                          inc     h
ROM:29BD ED 5B 46 7B                 ld      de, (obj_y_tbl+0x46)
ROM:29C1 72                          ld      (hl), d
ROM:29C2 2D                          dec     l
ROM:29C3 73                          ld      (hl), e
ROM:29C4 CB FD                       set     7, l
ROM:29C6 36 00                       ld      (hl), #0
ROM:29C8 25                          dec     h
ROM:29C9 36 A0                       ld      (hl), #0xA0 ; ' '
ROM:29CB 3E 01                       ld      a, #1
ROM:29CD 32 08 A0                    ld      (sheonite_snd), a
ROM:29D0 11 D9 29                    ld      de, #loc_29D9
ROM:29D3 DD 73 00                    ld      0(ix), e
ROM:29D6 DD 72 01                    ld      1(ix), d
ROM:29D9
ROM:29D9             loc_29D9:
ROM:29D9 16 7C                       ld      d, #0x7C ; '|'
ROM:29DB DD 5D                       ld      e, xl
ROM:29DD 21 D9 28                    ld      hl, #r_sheonite_code_tbl_1
ROM:29E0 3A 01 80                    ld      a, (countup_timer_1)
ROM:29E3 0F                          rrca
ROM:29E4 E6 03                       and     #3
ROM:29E6 D7                          rst     HL_plus_equals_A
ROM:29E7 7E                          ld      a, (hl)
ROM:29E8 12                          ld      (de), a
ROM:29E9 1C                          inc     e
ROM:29EA 3A 1C 80                    ld      a, (pulsing_colour_1)
ROM:29ED 12                          ld      (de), a
ROM:29EE 1D                          dec     e
ROM:29EF 16 7A                       ld      d, #0x7A ; 'z'
ROM:29F1 CD 91 30                    call    move_object_dX_dY
ROM:29F4 C3 79 30                    jp      add_obj_handler
ROM:29F7
ROM:29F7             ; =============== S U B R O U T I N E =======================================
ROM:29F7
ROM:29F7
ROM:29F7             set_r_sheonite_above_solvalou:
ROM:29F7 16 7A                       ld      d, #0x7A ; 'z'
ROM:29F9 DD 5D                       ld      e, xl
ROM:29FB EB                          ex      de, hl
ROM:29FC ED 5B 46 7A                 ld      de, (obj_x_tbl+0x46)
ROM:2A00 15                          dec     d
ROM:2A01 15                          dec     d
ROM:2A02 73                          ld      (hl), e
ROM:2A03 2C                          inc     l
ROM:2A04 72                          ld      (hl), d
ROM:2A05 24                          inc     h
ROM:2A06 ED 5B 46 7B                 ld      de, (obj_y_tbl+0x46)
ROM:2A0A 15                          dec     d
ROM:2A0B 15                          dec     d
ROM:2A0C 72                          ld      (hl), d
ROM:2A0D 2D                          dec     l
ROM:2A0E 73                          ld      (hl), e
ROM:2A0F EB                          ex      de, hl
ROM:2A10 C9                          ret
ROM:2A10             ; End of function set_r_sheonite_above_solvalou
ROM:2A10
ROM:2A11             ; ---------------------------------------------------------------------------
ROM:2A11
ROM:2A11             animate_l_sheonite_1:
ROM:2A11 26 7C                       ld      h, #0x7C ; '|'
ROM:2A13 3A 1C 80                    ld      a, (pulsing_colour_1)
ROM:2A16 77                          ld      (hl), a
ROM:2A17 2D                          dec     l
ROM:2A18 EB                          ex      de, hl
ROM:2A19 21 2A 2A                    ld      hl, #l_sheonite_code_tbl_1
ROM:2A1C 3A 01 80                    ld      a, (countup_timer_1)
ROM:2A1F 0F                          rrca
ROM:2A20 E6 03                       and     #3
ROM:2A22 D7                          rst     HL_plus_equals_A
ROM:2A23 7E                          ld      a, (hl)
ROM:2A24 12                          ld      (de), a
ROM:2A25 16 7A                       ld      d, #0x7A ; 'z'
ROM:2A27 C3 FC 30                    jp      move_object_dX_dY_2
ROM:2A27             ; ---------------------------------------------------------------------------
ROM:2A2A 32 31 30 33 l_sheonite_code_tbl_1:.db 0x32, 0x31, 0x30, 0x33
ROM:2A2E             ; ---------------------------------------------------------------------------
ROM:2A2E
ROM:2A2E             handle_32_left_sheonite:
ROM:2A2E 16 79                       ld      d, #0x79 ; 'y'
ROM:2A30 DD 5D                       ld      e, xl
ROM:2A32 EB                          ex      de, hl
ROM:2A33 36 03                       ld      (hl), #3
ROM:2A35 2C                          inc     l
ROM:2A36 36 00                       ld      (hl), #0
ROM:2A38 F7                          rst     save_PC_to_fn_tbl_and_ret
ROM:2A39 16 7A                       ld      d, #0x7A ; 'z'
ROM:2A3B DD 5D                       ld      e, xl
ROM:2A3D 1C                          inc     e
ROM:2A3E 1A                          ld      a, (de)
ROM:2A3F 4F                          ld      c, a
ROM:2A40 3A 47 7A                    ld      a, (obj_x_tbl+0x47)
ROM:2A43 D6 02                       sub     #2
ROM:2A45 91                          sub     c
ROM:2A46 6F                          ld      l, a
ROM:2A47 14                          inc     d
ROM:2A48 1A                          ld      a, (de)
ROM:2A49 4F                          ld      c, a
ROM:2A4A 3A 47 7B                    ld      a, (obj_y_tbl+0x47)
ROM:2A4D C6 02                       add     a, #2
ROM:2A4F 91                          sub     c
ROM:2A50 67                          ld      h, a
ROM:2A51 CD 4B 0E                    call    get_index_for_angle
ROM:2A54 CB FB                       set     7, e
ROM:2A56 1D                          dec     e
ROM:2A57 21 23 3E                    ld      hl, #angle_dX_dY_sheonite_tbl
ROM:2A5A CD 7E 33                    call    get_dX_dY_and_cpy_to_obj
ROM:2A5D CB BB                       res     7, e
ROM:2A5F 1C                          inc     e
ROM:2A60 EB                          ex      de, hl
ROM:2A61 3A 47 7A                    ld      a, (obj_x_tbl+0x47)
ROM:2A64 D6 02                       sub     #2
ROM:2A66 BE                          cp      (hl)
ROM:2A67 20 A8                       jr      NZ, animate_l_sheonite_1
ROM:2A69 24                          inc     h
ROM:2A6A 3A 47 7B                    ld      a, (obj_y_tbl+0x47)
ROM:2A6D C6 02                       add     a, #2
ROM:2A6F BE                          cp      (hl)
ROM:2A70 20 9F                       jr      NZ, animate_l_sheonite_1
ROM:2A72 11 7B 2A                    ld      de, #loc_2A7B
ROM:2A75 DD 73 00                    ld      0(ix), e
ROM:2A78 DD 72 01                    ld      1(ix), d
ROM:2A7B
ROM:2A7B             loc_2A7B:
ROM:2A7B 3A 01 80                    ld      a, (countup_timer_1)
ROM:2A7E A7                          and     a
ROM:2A7F 20 06                       jr      NZ, loc_2A87
ROM:2A81 3A 2E 80                    ld      a, (sheonite_end_flag)
ROM:2A84 A7                          and     a
ROM:2A85 20 16                       jr      NZ, animate_l_sheonite_2
ROM:2A87
ROM:2A87             loc_2A87:
ROM:2A87 CD 09 2B                    call    set_l_sheonite_above_solvalou
ROM:2A8A 14                          inc     d
ROM:2A8B 21 2A 2A                    ld      hl, #l_sheonite_code_tbl_1
ROM:2A8E 3A 01 80                    ld      a, (countup_timer_1)
ROM:2A91 0F                          rrca
ROM:2A92 E6 03                       and     #3
ROM:2A94 D7                          rst     HL_plus_equals_A
ROM:2A95 7E                          ld      a, (hl)
ROM:2A96 12                          ld      (de), a
ROM:2A97 1C                          inc     e
ROM:2A98 3A 1C 80                    ld      a, (pulsing_colour_1)
ROM:2A9B 12                          ld      (de), a
ROM:2A9C C9                          ret
ROM:2A9D             ; ---------------------------------------------------------------------------
ROM:2A9D
ROM:2A9D             animate_l_sheonite_2:
ROM:2A9D 11 A6 2A                    ld      de, #loc_2AA6
ROM:2AA0 DD 73 00                    ld      0(ix), e
ROM:2AA3 DD 72 01                    ld      1(ix), d
ROM:2AA6
ROM:2AA6             loc_2AA6:
ROM:2AA6 CD 09 2B                    call    set_l_sheonite_above_solvalou
ROM:2AA9 3A 01 80                    ld      a, (countup_timer_1)
ROM:2AAC 0F                          rrca
ROM:2AAD 0F                          rrca
ROM:2AAE E6 07                       and     #7
ROM:2AB0 FE 07                       cp      #7
ROM:2AB2 28 14                       jr      Z, l_sheonite_combining
ROM:2AB4 21 C1 2A                    ld      hl, #l_sheonite_code_tbl_2
ROM:2AB7 D7                          rst     HL_plus_equals_A
ROM:2AB8 14                          inc     d
ROM:2AB9 7E                          ld      a, (hl)
ROM:2ABA 12                          ld      (de), a
ROM:2ABB 1C                          inc     e
ROM:2ABC 3A 1C 80                    ld      a, (pulsing_colour_1)
ROM:2ABF 12                          ld      (de), a
ROM:2AC0 C9                          ret
ROM:2AC0             ; ---------------------------------------------------------------------------
ROM:2AC1 32 32 32 32+l_sheonite_code_tbl_2:.db 0x32, 0x32, 0x32, 0x32, 0x37, 0x38, 0x39
ROM:2AC8             ; ---------------------------------------------------------------------------
ROM:2AC8
ROM:2AC8             l_sheonite_combining:
ROM:2AC8 16 7D                       ld      d, #0x7D ; '}'
ROM:2ACA EB                          ex      de, hl
ROM:2ACB 36 20                       ld      (hl), #0x20 ; ' '
ROM:2ACD 11 D6 2A                    ld      de, #loc_2AD6
ROM:2AD0 DD 73 00                    ld      0(ix), e
ROM:2AD3 DD 72 01                    ld      1(ix), d
ROM:2AD6
ROM:2AD6             loc_2AD6:
ROM:2AD6 16 7D                       ld      d, #0x7D ; '}'
ROM:2AD8 DD 5D                       ld      e, xl
ROM:2ADA EB                          ex      de, hl
ROM:2ADB 35                          dec     (hl)
ROM:2ADC 28 20                       jr      Z, l_sheonite_remove
ROM:2ADE EB                          ex      de, hl
ROM:2ADF 2A 46 7B                    ld      hl, (obj_y_tbl+0x46)
ROM:2AE2 1A                          ld      a, (de)
ROM:2AE3 D5                          push    de
ROM:2AE4 EF                          rst     HL_plus_equals_8A
ROM:2AE5 D1                          pop     de
ROM:2AE6 16 7B                       ld      d, #0x7B ; '{'
ROM:2AE8 EB                          ex      de, hl
ROM:2AE9 73                          ld      (hl), e
ROM:2AEA 2C                          inc     l
ROM:2AEB 72                          ld      (hl), d
ROM:2AEC ED 5B 46 7A                 ld      de, (obj_x_tbl+0x46)
ROM:2AF0 15                          dec     d
ROM:2AF1 15                          dec     d
ROM:2AF2 25                          dec     h
ROM:2AF3 72                          ld      (hl), d
ROM:2AF4 2D                          dec     l
ROM:2AF5 73                          ld      (hl), e
ROM:2AF6 2C                          inc     l
ROM:2AF7 26 7C                       ld      h, #0x7C ; '|'
ROM:2AF9 3A 1C 80                    ld      a, (pulsing_colour_1)
ROM:2AFC 77                          ld      (hl), a
ROM:2AFD C9                          ret
ROM:2AFE             ; ---------------------------------------------------------------------------
ROM:2AFE
ROM:2AFE             l_sheonite_remove:
ROM:2AFE 26 7F                       ld      h, #0x7F ; ''
ROM:2B00 36 00                       ld      (hl), #0
ROM:2B02 26 79                       ld      h, #0x79 ; 'y'
ROM:2B04 36 00                       ld      (hl), #0
ROM:2B06 C3 79 30                    jp      add_obj_handler
ROM:2B09
ROM:2B09             ; =============== S U B R O U T I N E =======================================
ROM:2B09
ROM:2B09
ROM:2B09             set_l_sheonite_above_solvalou:
ROM:2B09 16 7A                       ld      d, #0x7A ; 'z'
ROM:2B0B DD 5D                       ld      e, xl
ROM:2B0D EB                          ex      de, hl
ROM:2B0E ED 5B 46 7A                 ld      de, (obj_x_tbl+0x46)
ROM:2B12 15                          dec     d
ROM:2B13 15                          dec     d
ROM:2B14 73                          ld      (hl), e
ROM:2B15 2C                          inc     l
ROM:2B16 72                          ld      (hl), d
ROM:2B17 24                          inc     h
ROM:2B18 ED 5B 46 7B                 ld      de, (obj_y_tbl+0x46)
ROM:2B1C 14                          inc     d
ROM:2B1D 14                          inc     d
ROM:2B1E 72                          ld      (hl), d
ROM:2B1F 2D                          dec     l
ROM:2B20 73                          ld      (hl), e
ROM:2B21 EB                          ex      de, hl
ROM:2B22 C9                          ret
ROM:2B22             ; End of function set_l_sheonite_above_solvalou
ROM:2B22
ROM:2B23             ; ---------------------------------------------------------------------------
ROM:2B23
ROM:2B23             handle_01_Bacura:
ROM:2B23 16 79                       ld      d, #0x79 ; 'y'
ROM:2B25 DD 5D                       ld      e, xl
ROM:2B27 EB                          ex      de, hl
ROM:2B28 36 02                       ld      (hl), #2
ROM:2B2A 2C                          inc     l
ROM:2B2B 36 82                       ld      (hl), #0x82 ; '‚'
ROM:2B2D 24                          inc     h
ROM:2B2E 2D                          dec     l
ROM:2B2F CB FD                       set     7, l
ROM:2B31 36 10                       ld      (hl), #16
ROM:2B33 CB BD                       res     7, l
ROM:2B35 24                          inc     h
ROM:2B36 2C                          inc     l
ROM:2B37 CD 8B 33                    call    gen_random_Y_store_obj
ROM:2B3A 34                          inc     (hl)
ROM:2B3B F7                          rst     save_PC_to_fn_tbl_and_ret
ROM:2B3C 16 7A                       ld      d, #0x7A ; 'z'
ROM:2B3E DD 5D                       ld      e, xl
ROM:2B40 EB                          ex      de, hl
ROM:2B41 E5                          push    hl
ROM:2B42 7E                          ld      a, (hl)
ROM:2B43 2C                          inc     l
ROM:2B44 17                          rla
ROM:2B45 7E                          ld      a, (hl)
ROM:2B46 17                          rla
ROM:2B47 E6 07                       and     #7
ROM:2B49 EB                          ex      de, hl
ROM:2B4A 21 5D 2B                    ld      hl, #bacura_sprite_tbl
ROM:2B4D CF                          rst     HL_plus_equals_2A
ROM:2B4E 7E                          ld      a, (hl)
ROM:2B4F 16 7C                       ld      d, #0x7C ; '|'
ROM:2B51 12                          ld      (de), a
ROM:2B52 23                          inc     hl
ROM:2B53 7E                          ld      a, (hl)
ROM:2B54 1D                          dec     e
ROM:2B55 12                          ld      (de), a
ROM:2B56 D1                          pop     de
ROM:2B57 CD D4 30                    call    move_object_dX
ROM:2B5A C3 79 30                    jp      add_obj_handler
ROM:2B5A             ; ---------------------------------------------------------------------------
ROM:2B5D 2B 20 2C 21+bacura_sprite_tbl:.db 0x2B, 0x20
ROM:2B5D 2B 24 2C 25+                .db 0x2C, 0x21
ROM:2B5D 2B 28 2C 29+                .db 0x2B, 0x24
ROM:2B5D 2B 2C 2C 2D                 .db 0x2C, 0x25
ROM:2B5D                             .db 0x2B, 0x28
ROM:2B5D                             .db 0x2C, 0x29
ROM:2B5D                             .db 0x2B, 0x2C
ROM:2B5D                             .db 0x2C, 0x2D
ROM:2B6D             ; ---------------------------------------------------------------------------
ROM:2B6D
ROM:2B6D             handle_06_Bullet:
ROM:2B6D 16 7A                       ld      d, #0x7A ; 'z'
ROM:2B6F DD 5D                       ld      e, xl
ROM:2B71 1C                          inc     e
ROM:2B72 21 A3 3E                    ld      hl, #angle_dX_dY_tbl
ROM:2B75 CD 65 33                    call    calc_dX_dY_for_vector_to_solvalou
ROM:2B78 F7                          rst     save_PC_to_fn_tbl_and_ret
ROM:2B79
ROM:2B79             handle_07_Garu_Zakato_Bullet:
ROM:2B79 16 7A                       ld      d, #0x7A ; 'z'
ROM:2B7B DD 5D                       ld      e, xl
ROM:2B7D CD 91 30                    call    move_object_dX_dY
ROM:2B80 C3 79 30                    jp      add_obj_handler
ROM:2B83             ; ---------------------------------------------------------------------------
ROM:2B83
ROM:2B83             handle_2C_Grobda_stationary:
ROM:2B83 0E 08                       ld      c, #8
ROM:2B85 CD 8C 2E                    call    activate_and_set_grobda_dX
ROM:2B88 36 15                       ld      (hl), #21
ROM:2B8A CB BD                       res     7, l
ROM:2B8C 36 4C                       ld      (hl), #0x4C ; 'L'
ROM:2B8E F7                          rst     save_PC_to_fn_tbl_and_ret
ROM:2B8F CD 45 2E                    call    check_grobda_hit
ROM:2B92 26 7C                       ld      h, #0x7C ; '|'
ROM:2B94 18 3F                       jr      set_grobda_colour_and_move_dX
ROM:2B96             ; ---------------------------------------------------------------------------
ROM:2B96
ROM:2B96             handle_35_Grobda_fwd:
ROM:2B96 0E 0E                       ld      c, #14
ROM:2B98 CD 8C 2E                    call    activate_and_set_grobda_dX
ROM:2B9B 36 1E                       ld      (hl), #30
ROM:2B9D F7                          rst     save_PC_to_fn_tbl_and_ret
ROM:2B9E CD 45 2E                    call    check_grobda_hit
ROM:2BA1 CD 65 2E                    call    animate_grobda_forwards
ROM:2BA4 18 2F                       jr      set_grobda_colour_and_move_dX
ROM:2BA6             ; ---------------------------------------------------------------------------
ROM:2BA6
ROM:2BA6             handle_36_Grobda_crosshairs_fwd:
ROM:2BA6 0E 08                       ld      c, #8
ROM:2BA8 CD 8C 2E                    call    activate_and_set_grobda_dX
ROM:2BAB 36 24                       ld      (hl), #36
ROM:2BAD CB BD                       res     7, l
ROM:2BAF 36 4C                       ld      (hl), #0x4C ; 'L'
ROM:2BB1 F7                          rst     save_PC_to_fn_tbl_and_ret
ROM:2BB2 CD 45 2E                    call    check_grobda_hit
ROM:2BB5 CD BB 2E                    call    check_grobda_in_crosshairs
ROM:2BB8 38 04                       jr      C, grobda_start_moving_fwd
ROM:2BBA 26 7C                       ld      h, #0x7C ; '|'
ROM:2BBC 18 18                       jr      set_grobda_colour_and_move_dX_2
ROM:2BBE             ; ---------------------------------------------------------------------------
ROM:2BBE
ROM:2BBE             grobda_start_moving_fwd:
ROM:2BBE 26 7A                       ld      h, #0x7A ; 'z'
ROM:2BC0 CB FD                       set     7, l
ROM:2BC2 36 0E                       ld      (hl), #0xE
ROM:2BC4 11 CD 2B                    ld      de, #loc_2BCD
ROM:2BC7 DD 73 00                    ld      0(ix), e
ROM:2BCA DD 72 01                    ld      1(ix), d
ROM:2BCD
ROM:2BCD             loc_2BCD:
ROM:2BCD CD 45 2E                    call    check_grobda_hit
ROM:2BD0 CD 65 2E                    call    animate_grobda_forwards
ROM:2BD3 18 00                       jr      set_grobda_colour_and_move_dX
ROM:2BD5             ; ---------------------------------------------------------------------------
ROM:2BD5
ROM:2BD5             set_grobda_colour_and_move_dX:
ROM:2BD5 2C                          inc     l
ROM:2BD6
ROM:2BD6             set_grobda_colour_and_move_dX_2:
ROM:2BD6 3A 1C 80                    ld      a, (pulsing_colour_1)
ROM:2BD9 77                          ld      (hl), a
ROM:2BDA 2D                          dec     l
ROM:2BDB 26 7A                       ld      h, #0x7A ; 'z'
ROM:2BDD EB                          ex      de, hl
ROM:2BDE CD D4 30                    call    move_object_dX
ROM:2BE1 C3 79 30                    jp      add_obj_handler
ROM:2BE4             ; ---------------------------------------------------------------------------
ROM:2BE4
ROM:2BE4             handle_37_Grobda_targeted_fwd_unused:
ROM:2BE4 0E 08                       ld      c, #8
ROM:2BE6 CD 8C 2E                    call    activate_and_set_grobda_dX
ROM:2BE9 36 2A                       ld      (hl), #42
ROM:2BEB CB BD                       res     7, l
ROM:2BED 36 4C                       ld      (hl), #0x4C ; 'L'
ROM:2BEF F7                          rst     save_PC_to_fn_tbl_and_ret
ROM:2BF0 CD 45 2E                    call    check_grobda_hit
ROM:2BF3 CD A0 2E                    call    check_targeted_and_init_timer
ROM:2BF6 38 04                       jr      C, loc_2BFC
ROM:2BF8 26 7C                       ld      h, #0x7C ; '|'
ROM:2BFA 18 DA                       jr      set_grobda_colour_and_move_dX_2
ROM:2BFC             ; ---------------------------------------------------------------------------
ROM:2BFC
ROM:2BFC             loc_2BFC:
ROM:2BFC 26 7A                       ld      h, #0x7A ; 'z'
ROM:2BFE CB FD                       set     7, l
ROM:2C00 36 0E                       ld      (hl), #0xE
ROM:2C02 11 0B 2C                    ld      de, #loc_2C0B
ROM:2C05 DD 73 00                    ld      0(ix), e
ROM:2C08 DD 72 01                    ld      1(ix), d
ROM:2C0B
ROM:2C0B             loc_2C0B:
ROM:2C0B CD 45 2E                    call    check_grobda_hit
ROM:2C0E 26 7D                       ld      h, #0x7D ; '}'
ROM:2C10 35                          dec     (hl)
ROM:2C11 28 05                       jr      Z, loc_2C18
ROM:2C13 CD 65 2E                    call    animate_grobda_forwards
ROM:2C16 18 BD                       jr      set_grobda_colour_and_move_dX
ROM:2C18             ; ---------------------------------------------------------------------------
ROM:2C18
ROM:2C18             loc_2C18:
ROM:2C18 26 7A                       ld      h, #0x7A ; 'z'
ROM:2C1A CB FD                       set     7, l
ROM:2C1C 36 08                       ld      (hl), #8
ROM:2C1E 11 27 2C                    ld      de, #loc_2C27
ROM:2C21 DD 73 00                    ld      0(ix), e
ROM:2C24 DD 72 01                    ld      1(ix), d
ROM:2C27
ROM:2C27             loc_2C27:
ROM:2C27 CD 45 2E                    call    check_grobda_hit
ROM:2C2A 26 7C                       ld      h, #0x7C ; '|'
ROM:2C2C 18 A7                       jr      set_grobda_colour_and_move_dX
ROM:2C2E             ; ---------------------------------------------------------------------------
ROM:2C2E
ROM:2C2E             handle_38_Grobda_fwd_crosshairs_stop_fwd:
ROM:2C2E 0E 0E                       ld      c, #14
ROM:2C30 CD 8C 2E                    call    activate_and_set_grobda_dX
ROM:2C33 36 30                       ld      (hl), #0x30 ; '0'
ROM:2C35 F7                          rst     save_PC_to_fn_tbl_and_ret
ROM:2C36 CD 45 2E                    call    check_grobda_hit
ROM:2C39 CD BB 2E                    call    check_grobda_in_crosshairs
ROM:2C3C 38 06                       jr      C, grobda_stops_in_crosshairs
ROM:2C3E 2D                          dec     l
ROM:2C3F CD 65 2E                    call    animate_grobda_forwards
ROM:2C42 18 91                       jr      set_grobda_colour_and_move_dX
ROM:2C44             ; ---------------------------------------------------------------------------
ROM:2C44
ROM:2C44             grobda_stops_in_crosshairs:
ROM:2C44 26 7A                       ld      h, #0x7A ; 'z'
ROM:2C46 CB FD                       set     7, l
ROM:2C48 36 08                       ld      (hl), #8
ROM:2C4A 11 53 2C                    ld      de, #loc_2C53
ROM:2C4D DD 73 00                    ld      0(ix), e
ROM:2C50 DD 72 01                    ld      1(ix), d
ROM:2C53
ROM:2C53             loc_2C53:
ROM:2C53 CD 45 2E                    call    check_grobda_hit
ROM:2C56 26 7D                       ld      h, #0x7D ; '}'
ROM:2C58 35                          dec     (hl)
ROM:2C59 28 04                       jr      Z, loc_2C5F
ROM:2C5B 25                          dec     h
ROM:2C5C C3 D5 2B                    jp      set_grobda_colour_and_move_dX
ROM:2C5F             ; ---------------------------------------------------------------------------
ROM:2C5F
ROM:2C5F             loc_2C5F:
ROM:2C5F 26 7A                       ld      h, #0x7A ; 'z'
ROM:2C61 CB FD                       set     7, l
ROM:2C63 36 0E                       ld      (hl), #0xE
ROM:2C65 11 6E 2C                    ld      de, #loc_2C6E
ROM:2C68 DD 73 00                    ld      0(ix), e
ROM:2C6B DD 72 01                    ld      1(ix), d
ROM:2C6E
ROM:2C6E             loc_2C6E:
ROM:2C6E CD 45 2E                    call    check_grobda_hit
ROM:2C71 CD 65 2E                    call    animate_grobda_forwards
ROM:2C74 C3 D5 2B                    jp      set_grobda_colour_and_move_dX
ROM:2C77             ; ---------------------------------------------------------------------------
ROM:2C77
ROM:2C77             handle_39_Grobda_targeted_back_stop:
ROM:2C77 0E 08                       ld      c, #8
ROM:2C79 CD 8C 2E                    call    activate_and_set_grobda_dX
ROM:2C7C 36 33                       ld      (hl), #51
ROM:2C7E CB BD                       res     7, l
ROM:2C80 36 4C                       ld      (hl), #0x4C ; 'L'
ROM:2C82 F7                          rst     save_PC_to_fn_tbl_and_ret
ROM:2C83 CD 45 2E                    call    check_grobda_hit
ROM:2C86 CD A0 2E                    call    check_targeted_and_init_timer
ROM:2C89 38 05                       jr      C, grobda_dart_back
ROM:2C8B 26 7C                       ld      h, #0x7C ; '|'
ROM:2C8D C3 D6 2B                    jp      set_grobda_colour_and_move_dX_2
ROM:2C90             ; ---------------------------------------------------------------------------
ROM:2C90
ROM:2C90             grobda_dart_back:
ROM:2C90 26 7A                       ld      h, #0x7A ; 'z'
ROM:2C92 CB FD                       set     7, l
ROM:2C94 36 02                       ld      (hl), #2
ROM:2C96 11 9F 2C                    ld      de, #loc_2C9F
ROM:2C99 DD 73 00                    ld      0(ix), e
ROM:2C9C DD 72 01                    ld      1(ix), d
ROM:2C9F
ROM:2C9F             loc_2C9F:
ROM:2C9F CD 45 2E                    call    check_grobda_hit
ROM:2CA2 26 7D                       ld      h, #0x7D ; '}'
ROM:2CA4 35                          dec     (hl)
ROM:2CA5 28 06                       jr      Z, grobda_stop
ROM:2CA7 CD 71 2E                    call    animate_grobda_backwards
ROM:2CAA C3 D5 2B                    jp      set_grobda_colour_and_move_dX
ROM:2CAD             ; ---------------------------------------------------------------------------
ROM:2CAD
ROM:2CAD             grobda_stop:
ROM:2CAD 26 7A                       ld      h, #0x7A ; 'z'
ROM:2CAF CB FD                       set     7, l
ROM:2CB1 36 08                       ld      (hl), #8
ROM:2CB3 11 BC 2C                    ld      de, #loc_2CBC
ROM:2CB6 DD 73 00                    ld      0(ix), e
ROM:2CB9 DD 72 01                    ld      1(ix), d
ROM:2CBC
ROM:2CBC             loc_2CBC:
ROM:2CBC CD 45 2E                    call    check_grobda_hit
ROM:2CBF 26 7C                       ld      h, #0x7C ; '|'
ROM:2CC1 C3 D5 2B                    jp      set_grobda_colour_and_move_dX
ROM:2CC4             ; ---------------------------------------------------------------------------
ROM:2CC4
ROM:2CC4             handle_3A_Grobda_fwd_crosshairs_darts_fwd:
ROM:2CC4 0E 0E                       ld      c, #14
ROM:2CC6 CD 8C 2E                    call    activate_and_set_grobda_dX
ROM:2CC9 36 36                       ld      (hl), #0x36 ; '6'
ROM:2CCB F7                          rst     save_PC_to_fn_tbl_and_ret
ROM:2CCC CD 45 2E                    call    check_grobda_hit
ROM:2CCF CD BB 2E                    call    check_grobda_in_crosshairs
ROM:2CD2 38 07                       jr      C, grobda_darts_fwd_in_crosshairs
ROM:2CD4 2D                          dec     l
ROM:2CD5 CD 65 2E                    call    animate_grobda_forwards
ROM:2CD8 C3 D5 2B                    jp      set_grobda_colour_and_move_dX
ROM:2CDB             ; ---------------------------------------------------------------------------
ROM:2CDB
ROM:2CDB             grobda_darts_fwd_in_crosshairs:
ROM:2CDB 26 7A                       ld      h, #0x7A ; 'z'
ROM:2CDD CB FD                       set     7, l
ROM:2CDF 36 16                       ld      (hl), #22
ROM:2CE1 11 EA 2C                    ld      de, #loc_2CEA
ROM:2CE4 DD 73 00                    ld      0(ix), e
ROM:2CE7 DD 72 01                    ld      1(ix), d
ROM:2CEA
ROM:2CEA             loc_2CEA:
ROM:2CEA CD 45 2E                    call    check_grobda_hit
ROM:2CED 26 7D                       ld      h, #0x7D ; '}'
ROM:2CEF 35                          dec     (hl)
ROM:2CF0 28 06                       jr      Z, loc_2CF8
ROM:2CF2 CD 81 2E                    call    animate_grobda_fast_forward
ROM:2CF5 C3 D5 2B                    jp      set_grobda_colour_and_move_dX
ROM:2CF8             ; ---------------------------------------------------------------------------
ROM:2CF8
ROM:2CF8             loc_2CF8:
ROM:2CF8 26 7A                       ld      h, #0x7A ; 'z'
ROM:2CFA CB FD                       set     7, l
ROM:2CFC 36 0E                       ld      (hl), #14
ROM:2CFE 11 07 2D                    ld      de, #loc_2D07
ROM:2D01 DD 73 00                    ld      0(ix), e
ROM:2D04 DD 72 01                    ld      1(ix), d
ROM:2D07
ROM:2D07             loc_2D07:
ROM:2D07 CD 45 2E                    call    check_grobda_hit
ROM:2D0A CD 65 2E                    call    animate_grobda_forwards
ROM:2D0D C3 D5 2B                    jp      set_grobda_colour_and_move_dX
ROM:2D10             ; ---------------------------------------------------------------------------
ROM:2D10
ROM:2D10             handle_3B_Grobda_fwd_targeted_back_fwd:
ROM:2D10 0E 0E                       ld      c, #14
ROM:2D12 CD 8C 2E                    call    activate_and_set_grobda_dX
ROM:2D15 36 39                       ld      (hl), #0x39 ; '9'
ROM:2D17 F7                          rst     save_PC_to_fn_tbl_and_ret
ROM:2D18 CD 45 2E                    call    check_grobda_hit
ROM:2D1B CD A0 2E                    call    check_targeted_and_init_timer
ROM:2D1E 38 07                       jr      C, grobda_3B_dart_back
ROM:2D20 2D                          dec     l
ROM:2D21 CD 65 2E                    call    animate_grobda_forwards
ROM:2D24 C3 D5 2B                    jp      set_grobda_colour_and_move_dX
ROM:2D27             ; ---------------------------------------------------------------------------
ROM:2D27
ROM:2D27             grobda_3B_dart_back:
ROM:2D27 26 7A                       ld      h, #0x7A ; 'z'
ROM:2D29 CB FD                       set     7, l
ROM:2D2B 36 02                       ld      (hl), #2
ROM:2D2D 11 36 2D                    ld      de, #loc_2D36
ROM:2D30 DD 73 00                    ld      0(ix), e
ROM:2D33 DD 72 01                    ld      1(ix), d
ROM:2D36
ROM:2D36             loc_2D36:
ROM:2D36 CD 45 2E                    call    check_grobda_hit
ROM:2D39 26 7D                       ld      h, #0x7D ; '}'
ROM:2D3B 35                          dec     (hl)
ROM:2D3C 28 06                       jr      Z, grobda_3B_dart_fwd
ROM:2D3E CD 71 2E                    call    animate_grobda_backwards
ROM:2D41 C3 D5 2B                    jp      set_grobda_colour_and_move_dX
ROM:2D44             ; ---------------------------------------------------------------------------
ROM:2D44
ROM:2D44             grobda_3B_dart_fwd:
ROM:2D44 26 7A                       ld      h, #0x7A ; 'z'
ROM:2D46 CB FD                       set     7, l
ROM:2D48 36 0E                       ld      (hl), #0xE
ROM:2D4A 11 53 2D                    ld      de, #loc_2D53
ROM:2D4D DD 73 00                    ld      0(ix), e
ROM:2D50 DD 72 01                    ld      1(ix), d
ROM:2D53
ROM:2D53             loc_2D53:
ROM:2D53 CD 45 2E                    call    check_grobda_hit
ROM:2D56 CD 65 2E                    call    animate_grobda_forwards
ROM:2D59 C3 D5 2B                    jp      set_grobda_colour_and_move_dX
ROM:2D5C             ; ---------------------------------------------------------------------------
ROM:2D5C
ROM:2D5C             handle_3C_Grobda_targeted_fast_fwd:
ROM:2D5C 0E 08                       ld      c, #8
ROM:2D5E CD 8C 2E                    call    activate_and_set_grobda_dX
ROM:2D61 36 3F                       ld      (hl), #63
ROM:2D63 CB BD                       res     7, l
ROM:2D65 36 4C                       ld      (hl), #0x4C ; 'L'
ROM:2D67 F7                          rst     save_PC_to_fn_tbl_and_ret
ROM:2D68
ROM:2D68             loc_2D68:
ROM:2D68 CD 45 2E                    call    check_grobda_hit
ROM:2D6B CD A0 2E                    call    check_targeted_and_init_timer
ROM:2D6E 38 05                       jr      C, loc_2D75
ROM:2D70 26 7C                       ld      h, #0x7C ; '|'
ROM:2D72 C3 D6 2B                    jp      set_grobda_colour_and_move_dX_2
ROM:2D75             ; ---------------------------------------------------------------------------
ROM:2D75
ROM:2D75             loc_2D75:
ROM:2D75 26 7A                       ld      h, #0x7A ; 'z'
ROM:2D77 CB FD                       set     7, l
ROM:2D79 36 16                       ld      (hl), #22
ROM:2D7B 11 84 2D                    ld      de, #loc_2D84
ROM:2D7E DD 73 00                    ld      0(ix), e
ROM:2D81 DD 72 01                    ld      1(ix), d
ROM:2D84
ROM:2D84             loc_2D84:
ROM:2D84 CD 45 2E                    call    check_grobda_hit
ROM:2D87 26 7D                       ld      h, #0x7D ; '}'
ROM:2D89 35                          dec     (hl)
ROM:2D8A 28 06                       jr      Z, loc_2D92
ROM:2D8C CD 81 2E                    call    animate_grobda_fast_forward
ROM:2D8F C3 D5 2B                    jp      set_grobda_colour_and_move_dX
ROM:2D92             ; ---------------------------------------------------------------------------
ROM:2D92
ROM:2D92             loc_2D92:
ROM:2D92 26 7A                       ld      h, #0x7A ; 'z'
ROM:2D94 CB FD                       set     7, l
ROM:2D96 36 08                       ld      (hl), #8
ROM:2D98 11 68 2D                    ld      de, #loc_2D68
ROM:2D9B DD 73 00                    ld      0(ix), e
ROM:2D9E DD 72 01                    ld      1(ix), d
ROM:2DA1 18 C5                       jr      loc_2D68
ROM:2DA3             ; ---------------------------------------------------------------------------
ROM:2DA3
ROM:2DA3             handle_3D_Grobda_stationary_in_water:
ROM:2DA3 0E 08                       ld      c, #8
ROM:2DA5 CD 8C 2E                    call    activate_and_set_grobda_dX
ROM:2DA8 36 15                       ld      (hl), #21
ROM:2DAA CB BD                       res     7, l
ROM:2DAC 36 4C                       ld      (hl), #0x4C ; 'L'
ROM:2DAE F7                          rst     save_PC_to_fn_tbl_and_ret
ROM:2DAF CD 55 2E                    call    check_grobda_hit_and_remove
ROM:2DB2 26 7C                       ld      h, #0x7C ; '|'
ROM:2DB4 C3 D5 2B                    jp      set_grobda_colour_and_move_dX
ROM:2DB7             ; ---------------------------------------------------------------------------
ROM:2DB7
ROM:2DB7             handle_3E_Grobda_fwd_in_water:
ROM:2DB7 0E 0E                       ld      c, #14
ROM:2DB9 CD 8C 2E                    call    activate_and_set_grobda_dX
ROM:2DBC 36 1E                       ld      (hl), #30
ROM:2DBE F7                          rst     save_PC_to_fn_tbl_and_ret
ROM:2DBF CD 55 2E                    call    check_grobda_hit_and_remove
ROM:2DC2 CD 65 2E                    call    animate_grobda_forwards
ROM:2DC5 C3 D5 2B                    jp      set_grobda_colour_and_move_dX
ROM:2DC8             ; ---------------------------------------------------------------------------
ROM:2DC8
ROM:2DC8             handle_3F_Grobda_crosshairs_fwd_in_water:
ROM:2DC8 0E 08                       ld      c, #8
ROM:2DCA CD 8C 2E                    call    activate_and_set_grobda_dX
ROM:2DCD 36 24                       ld      (hl), #36
ROM:2DCF CB BD                       res     7, l
ROM:2DD1 36 4C                       ld      (hl), #0x4C ; 'L'
ROM:2DD3 F7                          rst     save_PC_to_fn_tbl_and_ret
ROM:2DD4 CD 55 2E                    call    check_grobda_hit_and_remove
ROM:2DD7 CD BB 2E                    call    check_grobda_in_crosshairs
ROM:2DDA 38 05                       jr      C, loc_2DE1
ROM:2DDC 26 7C                       ld      h, #0x7C ; '|'
ROM:2DDE C3 D6 2B                    jp      set_grobda_colour_and_move_dX_2
ROM:2DE1             ; ---------------------------------------------------------------------------
ROM:2DE1
ROM:2DE1             loc_2DE1:
ROM:2DE1 26 7A                       ld      h, #0x7A ; 'z'
ROM:2DE3 CB FD                       set     7, l
ROM:2DE5 36 0E                       ld      (hl), #14
ROM:2DE7 11 F0 2D                    ld      de, #loc_2DF0
ROM:2DEA DD 73 00                    ld      0(ix), e
ROM:2DED DD 72 01                    ld      1(ix), d
ROM:2DF0
ROM:2DF0             loc_2DF0:
ROM:2DF0 CD 55 2E                    call    check_grobda_hit_and_remove
ROM:2DF3 CD 65 2E                    call    animate_grobda_forwards
ROM:2DF6 C3 D5 2B                    jp      set_grobda_colour_and_move_dX
ROM:2DF9             ; ---------------------------------------------------------------------------
ROM:2DF9
ROM:2DF9             handle_40_Grobda_fwd_targeted_back_fwd_in_water:
ROM:2DF9 0E 0E                       ld      c, #14
ROM:2DFB CD 8C 2E                    call    activate_and_set_grobda_dX
ROM:2DFE 36 39                       ld      (hl), #0x39 ; '9'
ROM:2E00 F7                          rst     save_PC_to_fn_tbl_and_ret
ROM:2E01 CD 55 2E                    call    check_grobda_hit_and_remove
ROM:2E04 CD A0 2E                    call    check_targeted_and_init_timer
ROM:2E07 38 07                       jr      C, loc_2E10
ROM:2E09 2D                          dec     l
ROM:2E0A CD 65 2E                    call    animate_grobda_forwards
ROM:2E0D C3 D5 2B                    jp      set_grobda_colour_and_move_dX
ROM:2E10             ; ---------------------------------------------------------------------------
ROM:2E10
ROM:2E10             loc_2E10:
ROM:2E10 26 7A                       ld      h, #0x7A ; 'z'
ROM:2E12 CB FD                       set     7, l
ROM:2E14 36 02                       ld      (hl), #2
ROM:2E16 11 1F 2E                    ld      de, #loc_2E1F
ROM:2E19 DD 73 00                    ld      0(ix), e
ROM:2E1C DD 72 01                    ld      1(ix), d
ROM:2E1F
ROM:2E1F             loc_2E1F:
ROM:2E1F CD 55 2E                    call    check_grobda_hit_and_remove
ROM:2E22 26 7D                       ld      h, #0x7D ; '}'
ROM:2E24 35                          dec     (hl)
ROM:2E25 28 06                       jr      Z, loc_2E2D
ROM:2E27 CD 71 2E                    call    animate_grobda_backwards
ROM:2E2A C3 D5 2B                    jp      set_grobda_colour_and_move_dX
ROM:2E2D             ; ---------------------------------------------------------------------------
ROM:2E2D
ROM:2E2D             loc_2E2D:
ROM:2E2D 26 7A                       ld      h, #0x7A ; 'z'
ROM:2E2F CB FD                       set     7, l
ROM:2E31 36 0E                       ld      (hl), #0xE
ROM:2E33 11 3C 2E                    ld      de, #loc_2E3C
ROM:2E36 DD 73 00                    ld      0(ix), e
ROM:2E39 DD 72 01                    ld      1(ix), d
ROM:2E3C
ROM:2E3C             loc_2E3C:
ROM:2E3C CD 55 2E                    call    check_grobda_hit_and_remove
ROM:2E3F CD 65 2E                    call    animate_grobda_forwards
ROM:2E42 C3 D5 2B                    jp      set_grobda_colour_and_move_dX
ROM:2E45
ROM:2E45             ; =============== S U B R O U T I N E =======================================
ROM:2E45
ROM:2E45
ROM:2E45             check_grobda_hit:
ROM:2E45
ROM:2E45             ; FUNCTION CHUNK AT ROM:3186 SIZE 0000006E BYTES
ROM:2E45
ROM:2E45 16 79                       ld      d, #0x79 ; 'y'
ROM:2E47 DD 5D                       ld      e, xl
ROM:2E49 EB                          ex      de, hl
ROM:2E4A 7E                          ld      a, (hl)
ROM:2E4B FE 03                       cp      #3
ROM:2E4D 28 01                       jr      Z, loc_2E50
ROM:2E4F C9                          ret
ROM:2E50             ; ---------------------------------------------------------------------------
ROM:2E50
ROM:2E50             loc_2E50:
ROM:2E50 33                          inc     sp
ROM:2E51 33                          inc     sp
ROM:2E52 C3 86 31                    jp      handle_bomb_explosion
ROM:2E52             ; End of function check_grobda_hit
ROM:2E52
ROM:2E55
ROM:2E55             ; =============== S U B R O U T I N E =======================================
ROM:2E55
ROM:2E55
ROM:2E55             check_grobda_hit_and_remove:
ROM:2E55
ROM:2E55             ; FUNCTION CHUNK AT ROM:3216 SIZE 0000005B BYTES
ROM:2E55
ROM:2E55 16 79                       ld      d, #0x79 ; 'y'
ROM:2E57 DD 5D                       ld      e, xl
ROM:2E59 EB                          ex      de, hl
ROM:2E5A 7E                          ld      a, (hl)
ROM:2E5B FE 03                       cp      #3
ROM:2E5D 28 01                       jr      Z, loc_2E60
ROM:2E5F C9                          ret
ROM:2E60             ; ---------------------------------------------------------------------------
ROM:2E60
ROM:2E60             loc_2E60:
ROM:2E60 33                          inc     sp
ROM:2E61 33                          inc     sp
ROM:2E62 C3 16 32                    jp      explode_and_remove_object
ROM:2E62             ; End of function check_grobda_hit_and_remove
ROM:2E62
ROM:2E65
ROM:2E65             ; =============== S U B R O U T I N E =======================================
ROM:2E65
ROM:2E65
ROM:2E65             animate_grobda_forwards:
ROM:2E65 26 7C                       ld      h, #0x7C ; '|'
ROM:2E67 3A 01 80                    ld      a, (countup_timer_1)
ROM:2E6A 0F                          rrca
ROM:2E6B E6 03                       and     #3
ROM:2E6D C6 4C                       add     a, #0x4C ; 'L'
ROM:2E6F 77                          ld      (hl), a
ROM:2E70 C9                          ret
ROM:2E70             ; End of function animate_grobda_forwards
ROM:2E70
ROM:2E71
ROM:2E71             ; =============== S U B R O U T I N E =======================================
ROM:2E71
ROM:2E71
ROM:2E71             animate_grobda_backwards:
ROM:2E71 26 7C                       ld      h, #0x7C ; '|'
ROM:2E73 3A 01 80                    ld      a, (countup_timer_1)
ROM:2E76 0F                          rrca
ROM:2E77 E6 03                       and     #3
ROM:2E79 ED 44                       neg
ROM:2E7B E6 03                       and     #3
ROM:2E7D C6 4C                       add     a, #0x4C ; 'L'
ROM:2E7F 77                          ld      (hl), a
ROM:2E80 C9                          ret
ROM:2E80             ; End of function animate_grobda_backwards
ROM:2E80
ROM:2E81
ROM:2E81             ; =============== S U B R O U T I N E =======================================
ROM:2E81
ROM:2E81
ROM:2E81             animate_grobda_fast_forward:
ROM:2E81 26 7C                       ld      h, #0x7C ; '|'
ROM:2E83 3A 01 80                    ld      a, (countup_timer_1)
ROM:2E86 E6 03                       and     #3
ROM:2E88 C6 4C                       add     a, #0x4C ; 'L'
ROM:2E8A 77                          ld      (hl), a
ROM:2E8B C9                          ret
ROM:2E8B             ; End of function animate_grobda_fast_forward
ROM:2E8B
ROM:2E8C
ROM:2E8C             ; =============== S U B R O U T I N E =======================================
ROM:2E8C
ROM:2E8C
ROM:2E8C             activate_and_set_grobda_dX:
ROM:2E8C 16 79                       ld      d, #0x79 ; 'y'
ROM:2E8E DD 5D                       ld      e, xl
ROM:2E90 EB                          ex      de, hl
ROM:2E91 36 02                       ld      (hl), #2
ROM:2E93 2C                          inc     l
ROM:2E94 36 00                       ld      (hl), #0
ROM:2E96 2D                          dec     l
ROM:2E97 24                          inc     h
ROM:2E98 CB FD                       set     7, l
ROM:2E9A 71                          ld      (hl), c
ROM:2E9B 24                          inc     h
ROM:2E9C 36 00                       ld      (hl), #0
ROM:2E9E 24                          inc     h
ROM:2E9F C9                          ret
ROM:2E9F             ; End of function activate_and_set_grobda_dX
ROM:2E9F
ROM:2EA0
ROM:2EA0             ; =============== S U B R O U T I N E =======================================
ROM:2EA0
ROM:2EA0
ROM:2EA0             check_targeted_and_init_timer:
ROM:2EA0 24                          inc     h
ROM:2EA1 2C                          inc     l
ROM:2EA2 3A 41 7A                    ld      a, (obj_x_tbl+0x41)
ROM:2EA5 96                          sub     (hl)
ROM:2EA6 D6 02                       sub     #2
ROM:2EA8 C6 04                       add     a, #4
ROM:2EAA D0                          ret     NC
ROM:2EAB 24                          inc     h
ROM:2EAC 3A 41 7B                    ld      a, (obj_y_tbl+0x41)
ROM:2EAF 96                          sub     (hl)
ROM:2EB0 D6 02                       sub     #2
ROM:2EB2 C6 04                       add     a, #4
ROM:2EB4 D0                          ret     NC
ROM:2EB5 2D                          dec     l
ROM:2EB6 26 7D                       ld      h, #0x7D ; '}'
ROM:2EB8 36 30                       ld      (hl), #48
ROM:2EBA C9                          ret
ROM:2EBA             ; End of function check_targeted_and_init_timer
ROM:2EBA
ROM:2EBB
ROM:2EBB             ; =============== S U B R O U T I N E =======================================
ROM:2EBB
ROM:2EBB
ROM:2EBB             check_grobda_in_crosshairs:
ROM:2EBB 24                          inc     h
ROM:2EBC 2C                          inc     l
ROM:2EBD 3A 45 7A                    ld      a, (obj_x_tbl+0x45)
ROM:2EC0 96                          sub     (hl)
ROM:2EC1 D6 02                       sub     #2
ROM:2EC3 C6 04                       add     a, #4
ROM:2EC5 D0                          ret     NC
ROM:2EC6 24                          inc     h
ROM:2EC7 3A 45 7B                    ld      a, (obj_y_tbl+0x45)
ROM:2ECA 96                          sub     (hl)
ROM:2ECB D6 02                       sub     #2
ROM:2ECD C6 04                       add     a, #4
ROM:2ECF D0                          ret     NC
ROM:2ED0 2D                          dec     l
ROM:2ED1 26 7D                       ld      h, #0x7D ; '}'
ROM:2ED3 36 30                       ld      (hl), #0x30 ; '0'
ROM:2ED5 C9                          ret
ROM:2ED5             ; End of function check_grobda_in_crosshairs
ROM:2ED5
ROM:2ED6             ; ---------------------------------------------------------------------------
ROM:2ED6
ROM:2ED6             handle_2E_Domogram:
ROM:2ED6 16 79                       ld      d, #0x79 ; 'y'
ROM:2ED8 DD 5D                       ld      e, xl
ROM:2EDA EB                          ex      de, hl
ROM:2EDB 36 02                       ld      (hl), #2
ROM:2EDD 16 79                       ld      d, #0x79 ; 'y'
ROM:2EDF DD 5D                       ld      e, xl
ROM:2EE1 EB                          ex      de, hl
ROM:2EE2 2C                          inc     l
ROM:2EE3 36 00                       ld      (hl), #0
ROM:2EE5 2D                          dec     l
ROM:2EE6 26 7C                       ld      h, #0x7C ; '|'
ROM:2EE8 36 3C                       ld      (hl), #0x3C ; '<'
ROM:2EEA CB FD                       set     7, l
ROM:2EEC 36 2A                       ld      (hl), #42
ROM:2EEE 24                          inc     h
ROM:2EEF 36 01                       ld      (hl), #1
ROM:2EF1 CB BD                       res     7, l
ROM:2EF3 24                          inc     h
ROM:2EF4 3A A6 81                    ld      a, (ffreq_mask_domogram)
ROM:2EF7 77                          ld      (hl), a
ROM:2EF8 CD E4 0E                    call    pseudo_random_gen
ROM:2EFB A6                          and     (hl)
ROM:2EFC 3C                          inc     a
ROM:2EFD 25                          dec     h
ROM:2EFE 77                          ld      (hl), a
ROM:2EFF 26 7F                       ld      h, #0x7F ; ''
ROM:2F01 36 00                       ld      (hl), #0
ROM:2F03 F7                          rst     save_PC_to_fn_tbl_and_ret
ROM:2F04 16 79                       ld      d, #0x79 ; 'y'
ROM:2F06 DD 5D                       ld      e, xl
ROM:2F08 EB                          ex      de, hl
ROM:2F09 7E                          ld      a, (hl)
ROM:2F0A FE 03                       cp      #3
ROM:2F0C CA 86 31                    jp      Z, handle_bomb_explosion
ROM:2F0F 26 7D                       ld      h, #0x7D ; '}'
ROM:2F11 CB FD                       set     7, l
ROM:2F13 35                          dec     (hl)
ROM:2F14 20 3E                       jr      NZ, domogram_main
ROM:2F16 26 79                       ld      h, #0x79 ; 'y'
ROM:2F18 5E                          ld      e, (hl)
ROM:2F19 2C                          inc     l
ROM:2F1A 56                          ld      d, (hl)
ROM:2F1B 2D                          dec     l
ROM:2F1C 1A                          ld      a, (de)
ROM:2F1D 26 7D                       ld      h, #0x7D ; '}'
ROM:2F1F 77                          ld      (hl), a
ROM:2F20 13                          inc     de
ROM:2F21 1A                          ld      a, (de)
ROM:2F22 13                          inc     de
ROM:2F23 26 79                       ld      h, #0x79 ; 'y'
ROM:2F25 73                          ld      (hl), e
ROM:2F26 2C                          inc     l
ROM:2F27 72                          ld      (hl), d
ROM:2F28 2D                          dec     l
ROM:2F29 26 7B                       ld      h, #0x7B ; '{'
ROM:2F2B EB                          ex      de, hl
ROM:2F2C 21 B1 2F                    ld      hl, #domogram_vector_tbl
ROM:2F2F CD 83 33                    call    cpy_dY_dX_to_obj
ROM:2F32 EB                          ex      de, hl
ROM:2F33 26 7D                       ld      h, #0x7D ; '}'
ROM:2F35 CB BD                       res     7, l
ROM:2F37 2C                          inc     l
ROM:2F38 35                          dec     (hl)
ROM:2F39 28 03                       jr      Z, domogram_done_all_vectors
ROM:2F3B 2D                          dec     l
ROM:2F3C 18 18                       jr      loc_2F56
ROM:2F3E             ; ---------------------------------------------------------------------------
ROM:2F3E
ROM:2F3E             domogram_done_all_vectors:
ROM:2F3E 11 47 2F                    ld      de, #loc_2F47
ROM:2F41 DD 73 00                    ld      0(ix), e
ROM:2F44 DD 72 01                    ld      1(ix), d
ROM:2F47
ROM:2F47             loc_2F47:
ROM:2F47 16 79                       ld      d, #0x79 ; 'y'
ROM:2F49 DD 5D                       ld      e, xl
ROM:2F4B EB                          ex      de, hl
ROM:2F4C 7E                          ld      a, (hl)
ROM:2F4D FE 03                       cp      #3
ROM:2F4F CA 86 31                    jp      Z, handle_bomb_explosion
ROM:2F52 18 02                       jr      loc_2F56
ROM:2F54             ; ---------------------------------------------------------------------------
ROM:2F54
ROM:2F54             domogram_main:
ROM:2F54 CB BD                       res     7, l
ROM:2F56
ROM:2F56             loc_2F56:
ROM:2F56 26 7F                       ld      h, #0x7F ; ''
ROM:2F58 7E                          ld      a, (hl)
ROM:2F59 A7                          and     a
ROM:2F5A 20 1A                       jr      NZ, domogram_shooting
ROM:2F5C 26 7A                       ld      h, #0x7A ; 'z'
ROM:2F5E 2C                          inc     l
ROM:2F5F 3A B1 81                    ld      a, (gnd_stop_firing_row)
ROM:2F62 BE                          cp      (hl)
ROM:2F63 38 34                       jr      C, domogram_colour_and_move
ROM:2F65 3A 01 80                    ld      a, (countup_timer_1)
ROM:2F68 E6 07                       and     #7
ROM:2F6A 20 2D                       jr      NZ, domogram_colour_and_move
ROM:2F6C 2D                          dec     l
ROM:2F6D 26 7D                       ld      h, #0x7D ; '}'
ROM:2F6F 35                          dec     (hl)
ROM:2F70 20 27                       jr      NZ, domogram_colour_and_move
ROM:2F72 26 7F                       ld      h, #0x7F ; ''
ROM:2F74 36 18                       ld      (hl), #24
ROM:2F76
ROM:2F76             domogram_shooting:
ROM:2F76 35                          dec     (hl)
ROM:2F77 7E                          ld      a, (hl)
ROM:2F78 FE 0C                       cp      #12
ROM:2F7A 20 10                       jr      NZ, domogram_animate_sprite
ROM:2F7C E5                          push    hl
ROM:2F7D CD 87 32                    call    init_new_bullet
ROM:2F80 E1                          pop     hl
ROM:2F81 25                          dec     h
ROM:2F82 CD E4 0E                    call    pseudo_random_gen
ROM:2F85 A6                          and     (hl)
ROM:2F86 3C                          inc     a
ROM:2F87 25                          dec     h
ROM:2F88 77                          ld      (hl), a
ROM:2F89 26 7F                       ld      h, #0x7F ; ''
ROM:2F8B 7E                          ld      a, (hl)
ROM:2F8C
ROM:2F8C             domogram_animate_sprite:
ROM:2F8C 0F                          rrca
ROM:2F8D 0F                          rrca
ROM:2F8E E6 07                       and     #7
ROM:2F90 EB                          ex      de, hl
ROM:2F91 21 AB 2F                    ld      hl, #domogram_sprite_tbl
ROM:2F94 D7                          rst     HL_plus_equals_A
ROM:2F95 7E                          ld      a, (hl)
ROM:2F96 16 7C                       ld      d, #0x7C ; '|'
ROM:2F98 12                          ld      (de), a
ROM:2F99
ROM:2F99             domogram_colour_and_move:
ROM:2F99 16 7C                       ld      d, #0x7C ; '|'
ROM:2F9B DD 5D                       ld      e, xl
ROM:2F9D 1C                          inc     e
ROM:2F9E 3A 1C 80                    ld      a, (pulsing_colour_1)
ROM:2FA1 12                          ld      (de), a
ROM:2FA2 16 7A                       ld      d, #0x7A ; 'z'
ROM:2FA4 1D                          dec     e
ROM:2FA5 CD 91 30                    call    move_object_dX_dY
ROM:2FA8 C3 79 30                    jp      add_obj_handler
ROM:2FA8             ; ---------------------------------------------------------------------------
ROM:2FAB 3C          domogram_sprite_tbl:.db 0x3C ; <
ROM:2FAC 3D                          .db 0x3D ; =
ROM:2FAD 3E                          .db 0x3E ; >
ROM:2FAE 3F                          .db 0x3F ; ?
ROM:2FAF 3E                          .db 0x3E ; >
ROM:2FB0 3D                          .db 0x3D ; =
ROM:2FB1 00 10 02 10+domogram_vector_tbl:.db 0, 0x10
ROM:2FB1 04 10 06 10+                .db 2, 0x10
ROM:2FB1 08 10 08 0E+                .db 4, 0x10
ROM:2FB1 08 0C 08 0A+                .db 6, 0x10
ROM:2FB1 08 08 08 06+                .db 8, 0x10
ROM:2FB1 08 04 08 02+                .db 8, 0xE
ROM:2FB1 08 00 06 00+                .db 8, 0xC
ROM:2FB1 04 00 02 00+                .db 8, 0xA
ROM:2FB1 00 00 FE 00+                .db 8, 8
ROM:2FB1 FC 00 FA 00+                .db 8, 6
ROM:2FB1 F8 00 F8 02+                .db 8, 4
ROM:2FB1 F8 04 F8 06+                .db 8, 2
ROM:2FB1 F8 08 F8 0A+                .db 8, 0
ROM:2FB1 F8 0C F8 0E+                .db 6, 0
ROM:2FB1 F8 10 FA 10+                .db 4, 0
ROM:2FB1 FC 10 FE 10                 .db 2, 0
ROM:2FB1                             .db 0, 0
ROM:2FB1                             .db 0xFE, 0
ROM:2FB1                             .db 0xFC, 0
ROM:2FB1                             .db 0xFA, 0
ROM:2FB1                             .db 0xF8, 0
ROM:2FB1                             .db 0xF8, 2
ROM:2FB1                             .db 0xF8, 4
ROM:2FB1                             .db 0xF8, 6
ROM:2FB1                             .db 0xF8, 8
ROM:2FB1                             .db 0xF8, 0xA
ROM:2FB1                             .db 0xF8, 0xC
ROM:2FB1                             .db 0xF8, 0xE
ROM:2FB1                             .db 0xF8, 0x10
ROM:2FB1                             .db 0xFA, 0x10
ROM:2FB1                             .db 0xFC, 0x10
ROM:2FB1                             .db 0xFE, 0x10
ROM:2FF1 FF FF FF FF+                .db 0xFF, 0xFF, 0xFF, 0xFF, 0xFF, 0xFF, 0xFF, 0xFF, 0xFF
ROM:2FF1 FF FF FF FF+                .db 0xFF, 0xFF, 0xFF, 0xFF, 0xFF, 0xF7
ROM:3000             ; ---------------------------------------------------------------------------
ROM:3000
ROM:3000             main_fn_2__handle_objects:
ROM:3000 21 00 79                    ld      hl, #obj_state_tbl
ROM:3003 11 01 79                    ld      de, # obj_state_tbl+1
ROM:3006 01 FF 06                    ld      bc, #0x6FF
ROM:3009 36 00                       ld      (hl), #0
ROM:300B ED B0                       ldir
ROM:300D 21 79 30                    ld      hl, #add_obj_handler
ROM:3010 22 00 78                    ld      (main_2_fn_tbl_1), hl
ROM:3013 22 4E 78                    ld      (main_2_fn_tbl_2), hl
ROM:3016 21 00 78                    ld      hl, #main_2_fn_tbl_1
ROM:3019 11 02 78                    ld      de, # main_2_fn_tbl_1+2
ROM:301C 01 3E 00                    ld      bc, #62
ROM:301F ED B0                       ldir
ROM:3021 21 4E 78                    ld      hl, #main_2_fn_tbl_2
ROM:3024 11 50 78                    ld      de, # main_2_fn_tbl_2+2
ROM:3027 01 32 00                    ld      bc, #50
ROM:302A ED B0                       ldir
ROM:302C 21 4E 7C                    ld      hl, # obj_code_tbl+0x4E
ROM:302F 11 50 7C                    ld      de, # obj_code_tbl+0x50
ROM:3032 01 24 00                    ld      bc, #36
ROM:3035 36 1E                       ld      (hl), #0x1E
ROM:3037 ED B0                       ldir
ROM:3039 21 4F 79                    ld      hl, # obj_state_tbl+0x4F
ROM:303C 11 50 79                    ld      de, # obj_state_tbl+0x50
ROM:303F 01 24 00                    ld      bc, #36
ROM:3042 36 80                       ld      (hl), #0x80 ; '€'
ROM:3044 2D                          dec     l
ROM:3045 36 00                       ld      (hl), #0
ROM:3047 ED B0                       ldir
ROM:3049 F7                          rst     save_PC_to_fn_tbl_and_ret
ROM:304A 3A 2A 80                    ld      a, (scroll_disabled)
ROM:304D A7                          and     a
ROM:304E C0                          ret     NZ
ROM:304F F7                          rst     save_PC_to_fn_tbl_and_ret
ROM:3050 3A 2A 80                    ld      a, (scroll_disabled)
ROM:3053 A7                          and     a
ROM:3054 20 AA                       jr      NZ, main_fn_2__handle_objects
ROM:3056 DD E5                       push    ix
ROM:3058 DD 21 00 78                 ld      ix, #main_2_fn_tbl_1
ROM:305C 06 20                       ld      b, #32
ROM:305E
ROM:305E             loc_305E:
ROM:305E CD 69 04                    call    jp_next_fn
ROM:3061 DD 2C                       inc     xl
ROM:3063 DD 2C                       inc     xl
ROM:3065 10 F7                       djnz    loc_305E
ROM:3067 DD 21 4E 78                 ld      ix, #main_2_fn_tbl_2
ROM:306B 06 19                       ld      b, #25
ROM:306D
ROM:306D             loc_306D:
ROM:306D CD 69 04                    call    jp_next_fn
ROM:3070 DD 2C                       inc     xl
ROM:3072 DD 2C                       inc     xl
ROM:3074 10 F7                       djnz    loc_306D
ROM:3076 DD E1                       pop     ix
ROM:3078 C9                          ret
ROM:3079             ; ---------------------------------------------------------------------------
ROM:3079             ; START OF FUNCTION CHUNK FOR is_close_to_solvalou_Y
ROM:3079
ROM:3079             add_obj_handler:
ROM:3079 F7                          rst     save_PC_to_fn_tbl_and_ret
ROM:307A 16 7F                       ld      d, #0x7F ; ''
ROM:307C DD 5D                       ld      e, xl
ROM:307E EB                          ex      de, hl
ROM:307F 7E                          ld      a, (hl)
ROM:3080 A7                          and     a
ROM:3081 C8                          ret     Z
ROM:3082 3D                          dec     a
ROM:3083 21 27 3D                    ld      hl, #obj_handler_tbl
ROM:3086 CF                          rst     HL_plus_equals_2A
ROM:3087 7E                          ld      a, (hl)
ROM:3088 DD 77 00                    ld      0(ix), a
ROM:308B 23                          inc     hl
ROM:308C 7E                          ld      a, (hl)
ROM:308D DD 77 01                    ld      1(ix), a
ROM:3090 C9                          ret
ROM:3090             ; END OF FUNCTION CHUNK FOR is_close_to_solvalou_Y
ROM:3091
ROM:3091             ; =============== S U B R O U T I N E =======================================
ROM:3091
ROM:3091
ROM:3091             move_object_dX_dY:
ROM:3091 1A                          ld      a, (de)
ROM:3092 6F                          ld      l, a
ROM:3093 1C                          inc     e
ROM:3094 1A                          ld      a, (de)
ROM:3095 67                          ld      h, a
ROM:3096 1D                          dec     e
ROM:3097 CB FB                       set     7, e
ROM:3099 1A                          ld      a, (de)
ROM:309A CB BB                       res     7, e
ROM:309C CF                          rst     HL_plus_equals_2A
ROM:309D 7D                          ld      a, l
ROM:309E 12                          ld      (de), a
ROM:309F 7C                          ld      a, h
ROM:30A0 1C                          inc     e
ROM:30A1 12                          ld      (de), a
ROM:30A2 14                          inc     d
ROM:30A3 1A                          ld      a, (de)
ROM:30A4 67                          ld      h, a
ROM:30A5 1D                          dec     e
ROM:30A6 1A                          ld      a, (de)
ROM:30A7 6F                          ld      l, a
ROM:30A8 CB FB                       set     7, e
ROM:30AA 1A                          ld      a, (de)
ROM:30AB CB BB                       res     7, e
ROM:30AD CF                          rst     HL_plus_equals_2A
ROM:30AE 7D                          ld      a, l
ROM:30AF 12                          ld      (de), a
ROM:30B0 1C                          inc     e
ROM:30B1 7C                          ld      a, h
ROM:30B2 12                          ld      (de), a
ROM:30B3 15                          dec     d
ROM:30B4
ROM:30B4             check_scroll_offscreen:
ROM:30B4 1A                          ld      a, (de)
ROM:30B5 14                          inc     d
ROM:30B6 C6 01                       add     a, #1
ROM:30B8 FE 29                       cp      #0x29 ; ')'
ROM:30BA 30 06                       jr      NC, handle_scroll_offscreen
ROM:30BC 1A                          ld      a, (de)
ROM:30BD FE 1F                       cp      #0x1F
ROM:30BF DA 1D 00                    jp      C, exit_caller
ROM:30C2
ROM:30C2             handle_scroll_offscreen:
ROM:30C2 1D                          dec     e
ROM:30C3 15                          dec     d
ROM:30C4 15                          dec     d
ROM:30C5 EB                          ex      de, hl
ROM:30C6 AF                          xor     a
ROM:30C7 77                          ld      (hl), a
ROM:30C8 CB FD                       set     7, l
ROM:30CA 77                          ld      (hl), a
ROM:30CB CB BD                       res     7, l
ROM:30CD 3E 06                       ld      a, #6
ROM:30CF 84                          add     a, h
ROM:30D0 67                          ld      h, a
ROM:30D1 36 00                       ld      (hl), #0
ROM:30D3 C9                          ret
ROM:30D3             ; End of function move_object_dX_dY
ROM:30D3
ROM:30D4
ROM:30D4             ; =============== S U B R O U T I N E =======================================
ROM:30D4
ROM:30D4
ROM:30D4             move_object_dX:
ROM:30D4 1A                          ld      a, (de)
ROM:30D5 6F                          ld      l, a
ROM:30D6 1C                          inc     e
ROM:30D7 1A                          ld      a, (de)
ROM:30D8 67                          ld      h, a
ROM:30D9 1D                          dec     e
ROM:30DA CB FB                       set     7, e
ROM:30DC 1A                          ld      a, (de)
ROM:30DD CF                          rst     HL_plus_equals_2A
ROM:30DE CB BB                       res     7, e
ROM:30E0 7D                          ld      a, l
ROM:30E1 12                          ld      (de), a
ROM:30E2 1C                          inc     e
ROM:30E3 7C                          ld      a, h
ROM:30E4 12                          ld      (de), a
ROM:30E5 C3 B4 30                    jp      check_scroll_offscreen
ROM:30E5             ; End of function move_object_dX
ROM:30E5
ROM:30E8
ROM:30E8             ; =============== S U B R O U T I N E =======================================
ROM:30E8
ROM:30E8
ROM:30E8             scroll_sprite_X:
ROM:30E8 1A                          ld      a, (de)
ROM:30E9 6F                          ld      l, a
ROM:30EA 1C                          inc     e
ROM:30EB 1A                          ld      a, (de)
ROM:30EC 67                          ld      h, a
ROM:30ED 1D                          dec     e
ROM:30EE 3A 14 80                    ld      a, (scroll_delta)
ROM:30F1 ED 44                       neg
ROM:30F3 CF                          rst     HL_plus_equals_2A
ROM:30F4 7D                          ld      a, l
ROM:30F5 12                          ld      (de), a
ROM:30F6 1C                          inc     e
ROM:30F7 7C                          ld      a, h
ROM:30F8 12                          ld      (de), a
ROM:30F9 C3 B4 30                    jp      check_scroll_offscreen
ROM:30F9             ; End of function scroll_sprite_X
ROM:30F9
ROM:30FC             ; ---------------------------------------------------------------------------
ROM:30FC
ROM:30FC             move_object_dX_dY_2:
ROM:30FC 1A                          ld      a, (de)
ROM:30FD 6F                          ld      l, a
ROM:30FE 1C                          inc     e
ROM:30FF 1A                          ld      a, (de)
ROM:3100 67                          ld      h, a
ROM:3101 1D                          dec     e
ROM:3102 CB FB                       set     7, e
ROM:3104 1A                          ld      a, (de)
ROM:3105 CB BB                       res     7, e
ROM:3107 CF                          rst     HL_plus_equals_2A
ROM:3108 7D                          ld      a, l
ROM:3109 12                          ld      (de), a
ROM:310A 7C                          ld      a, h
ROM:310B 1C                          inc     e
ROM:310C 12                          ld      (de), a
ROM:310D 14                          inc     d
ROM:310E 1A                          ld      a, (de)
ROM:310F 67                          ld      h, a
ROM:3110 1D                          dec     e
ROM:3111 1A                          ld      a, (de)
ROM:3112 6F                          ld      l, a
ROM:3113 CB FB                       set     7, e
ROM:3115 1A                          ld      a, (de)
ROM:3116 CB BB                       res     7, e
ROM:3118 CF                          rst     HL_plus_equals_2A
ROM:3119 7D                          ld      a, l
ROM:311A 12                          ld      (de), a
ROM:311B 1C                          inc     e
ROM:311C 7C                          ld      a, h
ROM:311D 12                          ld      (de), a
ROM:311E C9                          ret
ROM:311F             ; ---------------------------------------------------------------------------
ROM:311F             ; START OF FUNCTION CHUNK FOR is_close_to_solvalou_Y
ROM:311F
ROM:311F             flying_enemy_hit:
ROM:311F 24                          inc     h
ROM:3120 24                          inc     h
ROM:3121 24                          inc     h
ROM:3122 2C                          inc     l
ROM:3123 36 07                       ld      (hl), #7
ROM:3125 2D                          dec     l
ROM:3126 24                          inc     h
ROM:3127 36 FF                       ld      (hl), #0xFF
ROM:3129 11 32 31                    ld      de, #loc_3132
ROM:312C DD 73 00                    ld      0(ix), e
ROM:312F DD 72 01                    ld      1(ix), d
ROM:3132
ROM:3132             loc_3132:
ROM:3132 3E 05                       ld      a, #5
ROM:3134 DD 84                       add     a, xh
ROM:3136 57                          ld      d, a
ROM:3137 DD 5D                       ld      e, xl
ROM:3139 EB                          ex      de, hl
ROM:313A 34                          inc     (hl)
ROM:313B 7E                          ld      a, (hl)
ROM:313C FE 08                       cp      #8
ROM:313E 20 0A                       jr      NZ, loc_314A
ROM:3140 25                          dec     h
ROM:3141 25                          dec     h
ROM:3142 25                          dec     h
ROM:3143 2C                          inc     l
ROM:3144 35                          dec     (hl)
ROM:3145 24                          inc     h
ROM:3146 34                          inc     (hl)
ROM:3147 2D                          dec     l
ROM:3148 24                          inc     h
ROM:3149 24                          inc     h
ROM:314A
ROM:314A             loc_314A:
ROM:314A 4F                          ld      c, a
ROM:314B CB 3F                       srl     a
ROM:314D CB 3F                       srl     a
ROM:314F FE 05                       cp      #5
ROM:3151 28 26                       jr      Z, remove_object_type_state
ROM:3153 EB                          ex      de, hl
ROM:3154 21 6F 31                    ld      hl, #flying_obj_explosion_sprites
ROM:3157 CF                          rst     HL_plus_equals_2A
ROM:3158 15                          dec     d
ROM:3159 7E                          ld      a, (hl)
ROM:315A 12                          ld      (de), a
ROM:315B 15                          dec     d
ROM:315C 15                          dec     d
ROM:315D 15                          dec     d
ROM:315E 1C                          inc     e
ROM:315F 23                          inc     hl
ROM:3160 79                          ld      a, c
ROM:3161 E6 03                       and     #3
ROM:3163 07                          rlca
ROM:3164 07                          rlca
ROM:3165 86                          add     a, (hl)
ROM:3166 12                          ld      (de), a
ROM:3167 1D                          dec     e
ROM:3168 14                          inc     d
ROM:3169 CD 91 30                    call    move_object_dX_dY
ROM:316C C3 79 30                    jp      add_obj_handler
ROM:316C             ; END OF FUNCTION CHUNK FOR is_close_to_solvalou_Y
ROM:316C             ; ---------------------------------------------------------------------------
ROM:316F 70 00 71 00+flying_obj_explosion_sprites:.db 0x70, 0
ROM:316F 74 03 78 03+                .db 0x71, 0
ROM:316F 7C 03                       .db 0x74, 3
ROM:316F                             .db 0x78, 3
ROM:316F                             .db 0x7C, 3
ROM:3179             ; ---------------------------------------------------------------------------
ROM:3179             ; START OF FUNCTION CHUNK FOR is_close_to_solvalou_Y
ROM:3179
ROM:3179             remove_object_type_state:
ROM:3179 24                          inc     h
ROM:317A 24                          inc     h
ROM:317B 36 00                       ld      (hl), #0
ROM:317D 3E FA                       ld      a, #0xFA ; 'ú'
ROM:317F 84                          add     a, h
ROM:3180 67                          ld      h, a
ROM:3181 36 00                       ld      (hl), #0
ROM:3183 C3 79 30                    jp      add_obj_handler
ROM:3183             ; END OF FUNCTION CHUNK FOR is_close_to_solvalou_Y
ROM:3186             ; ---------------------------------------------------------------------------
ROM:3186             ; START OF FUNCTION CHUNK FOR check_grobda_hit
ROM:3186
ROM:3186             handle_bomb_explosion:
ROM:3186 26 7C                       ld      h, #0x7C ; '|'
ROM:3188 2C                          inc     l
ROM:3189 36 0C                       ld      (hl), #0xC
ROM:318B 2D                          dec     l
ROM:318C 24                          inc     h
ROM:318D 36 FF                       ld      (hl), #0xFF
ROM:318F 11 98 31                    ld      de, #loc_3198
ROM:3192 DD 73 00                    ld      0(ix), e
ROM:3195 DD 72 01                    ld      1(ix), d
ROM:3198
ROM:3198             loc_3198:
ROM:3198 16 7D                       ld      d, #0x7D ; '}'
ROM:319A DD 5D                       ld      e, xl
ROM:319C EB                          ex      de, hl
ROM:319D 34                          inc     (hl)
ROM:319E 7E                          ld      a, (hl)
ROM:319F 4F                          ld      c, a
ROM:31A0 E6 07                       and     #7
ROM:31A2 20 2A                       jr      NZ, loc_31CE
ROM:31A4 79                          ld      a, c
ROM:31A5 0F                          rrca
ROM:31A6 0F                          rrca
ROM:31A7 0F                          rrca
ROM:31A8 E6 07                       and     #7
ROM:31AA FE 07                       cp      #7
ROM:31AC 28 29                       jr      Z, bomb_explosion_finished
ROM:31AE FE 02                       cp      #2
ROM:31B0 CC 02 32                    call    Z, adj_for_big_explosion_frame2
ROM:31B3 FE 05                       cp      #5
ROM:31B5 CC 0C 32                    call    Z, adj_for_small_explosion_frame2
ROM:31B8 EB                          ex      de, hl
ROM:31B9 21 F4 31                    ld      hl, #bomb_explosion_animation_tbl
ROM:31BC CF                          rst     HL_plus_equals_2A
ROM:31BD 15                          dec     d
ROM:31BE 7E                          ld      a, (hl)
ROM:31BF 12                          ld      (de), a
ROM:31C0 23                          inc     hl
ROM:31C1 16 79                       ld      d, #0x79 ; 'y'
ROM:31C3 1C                          inc     e
ROM:31C4 7E                          ld      a, (hl)
ROM:31C5 12                          ld      (de), a
ROM:31C6 1D                          dec     e
ROM:31C7 14                          inc     d
ROM:31C8 CD E8 30                    call    scroll_sprite_X
ROM:31CB C3 79 30                    jp      add_obj_handler
ROM:31CE             ; ---------------------------------------------------------------------------
ROM:31CE
ROM:31CE             loc_31CE:
ROM:31CE 26 7A                       ld      h, #0x7A ; 'z'
ROM:31D0 EB                          ex      de, hl
ROM:31D1 CD E8 30                    call    scroll_sprite_X
ROM:31D4 C3 79 30                    jp      add_obj_handler
ROM:31D7             ; ---------------------------------------------------------------------------
ROM:31D7
ROM:31D7             bomb_explosion_finished:
ROM:31D7 25                          dec     h
ROM:31D8 36 A6                       ld      (hl), #0xA6 ; '¦'
ROM:31DA 2C                          inc     l
ROM:31DB 36 0D                       ld      (hl), #0xD
ROM:31DD F7                          rst     save_PC_to_fn_tbl_and_ret
ROM:31DE 16 7C                       ld      d, #0x7C ; '|'
ROM:31E0 DD 5D                       ld      e, xl
ROM:31E2 3A 01 80                    ld      a, (countup_timer_1)
ROM:31E5 0F                          rrca
ROM:31E6 0F                          rrca
ROM:31E7 E6 01                       and     #1
ROM:31E9 C6 A6                       add     a, #0xA6 ; '¦'
ROM:31EB 12                          ld      (de), a
ROM:31EC 16 7A                       ld      d, #0x7A ; 'z'
ROM:31EE CD E8 30                    call    scroll_sprite_X
ROM:31F1 C3 79 30                    jp      add_obj_handler
ROM:31F1             ; END OF FUNCTION CHUNK FOR check_grobda_hit
ROM:31F1             ; ---------------------------------------------------------------------------
ROM:31F4 60 00 61 00+bomb_explosion_animation_tbl:.db 0x60, 0
ROM:31F4 64 03 68 03+                .db 0x61, 0
ROM:31F4 6C 03 62 00+                .db 0x64, 3
ROM:31F4 63 00                       .db 0x68, 3
ROM:31F4                             .db 0x6C, 3
ROM:31F4                             .db 0x62, 0
ROM:31F4                             .db 0x63, 0
ROM:3202
ROM:3202             ; =============== S U B R O U T I N E =======================================
ROM:3202
ROM:3202
ROM:3202             adj_for_big_explosion_frame2:
ROM:3202 4C                          ld      c, h
ROM:3203 26 7A                       ld      h, #0x7A ; 'z'
ROM:3205 2C                          inc     l
ROM:3206 35                          dec     (hl)
ROM:3207 24                          inc     h
ROM:3208 34                          inc     (hl)
ROM:3209 2D                          dec     l
ROM:320A 61                          ld      h, c
ROM:320B C9                          ret
ROM:320B             ; End of function adj_for_big_explosion_frame2
ROM:320B
ROM:320C
ROM:320C             ; =============== S U B R O U T I N E =======================================
ROM:320C
ROM:320C
ROM:320C             adj_for_small_explosion_frame2:
ROM:320C 4C                          ld      c, h
ROM:320D 26 7A                       ld      h, #0x7A ; 'z'
ROM:320F 2C                          inc     l
ROM:3210 34                          inc     (hl)
ROM:3211 24                          inc     h
ROM:3212 35                          dec     (hl)
ROM:3213 2D                          dec     l
ROM:3214 61                          ld      h, c
ROM:3215 C9                          ret
ROM:3215             ; End of function adj_for_small_explosion_frame2
ROM:3215
ROM:3216             ; ---------------------------------------------------------------------------
ROM:3216             ; START OF FUNCTION CHUNK FOR check_grobda_hit_and_remove
ROM:3216
ROM:3216             explode_and_remove_object:
ROM:3216 26 7C                       ld      h, #0x7C ; '|'
ROM:3218 2C                          inc     l
ROM:3219 36 0C                       ld      (hl), #0xC
ROM:321B 2D                          dec     l
ROM:321C 24                          inc     h
ROM:321D 36 FF                       ld      (hl), #0xFF
ROM:321F 11 28 32                    ld      de, #loc_3228
ROM:3222 DD 73 00                    ld      0(ix), e
ROM:3225 DD 72 01                    ld      1(ix), d
ROM:3228
ROM:3228             loc_3228:
ROM:3228 16 7D                       ld      d, #0x7D ; '}'
ROM:322A DD 5D                       ld      e, xl
ROM:322C EB                          ex      de, hl
ROM:322D 34                          inc     (hl)
ROM:322E 7E                          ld      a, (hl)
ROM:322F 4F                          ld      c, a
ROM:3230 E6 03                       and     #3
ROM:3232 20 29                       jr      NZ, loc_325D
ROM:3234 79                          ld      a, c
ROM:3235 0F                          rrca
ROM:3236 0F                          rrca
ROM:3237 E6 07                       and     #7
ROM:3239 FE 07                       cp      #7
ROM:323B 28 29                       jr      Z, remove_object
ROM:323D FE 02                       cp      #2
ROM:323F CC 02 32                    call    Z, adj_for_big_explosion_frame2
ROM:3242 FE 05                       cp      #5
ROM:3244 CC 0C 32                    call    Z, adj_for_small_explosion_frame2
ROM:3247 EB                          ex      de, hl
ROM:3248 21 F4 31                    ld      hl, #bomb_explosion_animation_tbl
ROM:324B CF                          rst     HL_plus_equals_2A
ROM:324C 15                          dec     d
ROM:324D 7E                          ld      a, (hl)
ROM:324E 12                          ld      (de), a
ROM:324F 23                          inc     hl
ROM:3250 16 79                       ld      d, #0x79 ; 'y'
ROM:3252 1C                          inc     e
ROM:3253 7E                          ld      a, (hl)
ROM:3254 12                          ld      (de), a
ROM:3255 1D                          dec     e
ROM:3256 14                          inc     d
ROM:3257 CD E8 30                    call    scroll_sprite_X
ROM:325A C3 79 30                    jp      add_obj_handler
ROM:325D             ; ---------------------------------------------------------------------------
ROM:325D
ROM:325D             loc_325D:
ROM:325D 26 7A                       ld      h, #0x7A ; 'z'
ROM:325F EB                          ex      de, hl
ROM:3260 CD E8 30                    call    scroll_sprite_X
ROM:3263 C3 79 30                    jp      add_obj_handler
ROM:3266             ; ---------------------------------------------------------------------------
ROM:3266
ROM:3266             remove_object:
ROM:3266 26 7F                       ld      h, #0x7F ; ''
ROM:3268 36 00                       ld      (hl), #0
ROM:326A 26 79                       ld      h, #0x79 ; 'y'
ROM:326C 36 00                       ld      (hl), #0
ROM:326E C3 79 30                    jp      add_obj_handler
ROM:326E             ; END OF FUNCTION CHUNK FOR check_grobda_hit_and_remove
ROM:3271
ROM:3271             ; =============== S U B R O U T I N E =======================================
ROM:3271
ROM:3271
ROM:3271             chk_timer_fire_bullet_reinit_timer:
ROM:3271 3A 01 80                    ld      a, (countup_timer_1)
ROM:3274 E6 07                       and     #7
ROM:3276 C0                          ret     NZ
ROM:3277 35                          dec     (hl)
ROM:3278 C0                          ret     NZ
ROM:3279 E5                          push    hl
ROM:327A CD 87 32                    call    init_new_bullet
ROM:327D E1                          pop     hl
ROM:327E 24                          inc     h
ROM:327F CD E4 0E                    call    pseudo_random_gen
ROM:3282 A6                          and     (hl)
ROM:3283 25                          dec     h
ROM:3284 3C                          inc     a
ROM:3285 77                          ld      (hl), a
ROM:3286 C9                          ret
ROM:3286             ; End of function chk_timer_fire_bullet_reinit_timer
ROM:3286
ROM:3287
ROM:3287             ; =============== S U B R O U T I N E =======================================
ROM:3287
ROM:3287
ROM:3287             init_new_bullet:
ROM:3287
ROM:3287             ; FUNCTION CHUNK AT ROM:32BB SIZE 00000009 BYTES
ROM:3287
ROM:3287 48                          ld      c, b
ROM:3288 21 4E 79                    ld      hl, # obj_state_tbl+0x4E
ROM:328B 06 13                       ld      b, #19
ROM:328D
ROM:328D             find_idle_bullet_slot:
ROM:328D 7E                          ld      a, (hl)
ROM:328E 3D                          dec     a
ROM:328F 28 2A                       jr      Z, found_idle_bullet_slot
ROM:3291 2C                          inc     l
ROM:3292 2C                          inc     l
ROM:3293 10 F8                       djnz    find_idle_bullet_slot
ROM:3295 41                          ld      b, c
ROM:3296 C9                          ret
ROM:3296             ; End of function init_new_bullet
ROM:3296
ROM:3297
ROM:3297             ; =============== S U B R O U T I N E =======================================
ROM:3297
ROM:3297
ROM:3297             find_idle_and_init_radiating_bullet:
ROM:3297
ROM:3297             ; FUNCTION CHUNK AT ROM:32C4 SIZE 00000015 BYTES
ROM:3297
ROM:3297 21 4E 79                    ld      hl, # obj_state_tbl+0x4E
ROM:329A 06 13                       ld      b, #19
ROM:329C
ROM:329C             loc_329C:
ROM:329C 7E                          ld      a, (hl)
ROM:329D 3D                          dec     a
ROM:329E 28 24                       jr      Z, init_radiating_bullet
ROM:32A0 2C                          inc     l
ROM:32A1 2C                          inc     l
ROM:32A2 10 F8                       djnz    loc_329C
ROM:32A4 C9                          ret
ROM:32A4             ; End of function find_idle_and_init_radiating_bullet
ROM:32A4
ROM:32A5
ROM:32A5             ; =============== S U B R O U T I N E =======================================
ROM:32A5
ROM:32A5
ROM:32A5             set_state_and_copy_obj_coords:
ROM:32A5 36 02                       ld      (hl), #2
ROM:32A7 16 7A                       ld      d, #0x7A ; 'z'
ROM:32A9 DD 5D                       ld      e, xl
ROM:32AB 24                          inc     h
ROM:32AC 1A                          ld      a, (de)
ROM:32AD 77                          ld      (hl), a
ROM:32AE 1C                          inc     e
ROM:32AF 2C                          inc     l
ROM:32B0 1A                          ld      a, (de)
ROM:32B1 77                          ld      (hl), a
ROM:32B2 14                          inc     d
ROM:32B3 24                          inc     h
ROM:32B4 1A                          ld      a, (de)
ROM:32B5 77                          ld      (hl), a
ROM:32B6 1D                          dec     e
ROM:32B7 2D                          dec     l
ROM:32B8 1A                          ld      a, (de)
ROM:32B9 77                          ld      (hl), a
ROM:32BA C9                          ret
ROM:32BA             ; End of function set_state_and_copy_obj_coords
ROM:32BA
ROM:32BB             ; ---------------------------------------------------------------------------
ROM:32BB             ; START OF FUNCTION CHUNK FOR init_new_bullet
ROM:32BB
ROM:32BB             found_idle_bullet_slot:
ROM:32BB CD A5 32                    call    set_state_and_copy_obj_coords
ROM:32BE CB D4                       set     2, h
ROM:32C0 36 06                       ld      (hl), #6
ROM:32C2 41                          ld      b, c
ROM:32C3 C9                          ret
ROM:32C3             ; END OF FUNCTION CHUNK FOR init_new_bullet
ROM:32C4             ; ---------------------------------------------------------------------------
ROM:32C4             ; START OF FUNCTION CHUNK FOR find_idle_and_init_radiating_bullet
ROM:32C4
ROM:32C4             init_radiating_bullet:
ROM:32C4 CD A5 32                    call    set_state_and_copy_obj_coords
ROM:32C7 EB                          ex      de, hl
ROM:32C8 CB FB                       set     7, e
ROM:32CA 21 63 3E                    ld      hl, #angle_dX_dY_terrazi_torkan_tbl
ROM:32CD 79                          ld      a, c
ROM:32CE CD 83 33                    call    cpy_dY_dX_to_obj
ROM:32D1 EB                          ex      de, hl
ROM:32D2 CB BD                       res     7, l
ROM:32D4 26 7F                       ld      h, #0x7F ; ''
ROM:32D6 36 07                       ld      (hl), #7
ROM:32D8 C9                          ret
ROM:32D8             ; END OF FUNCTION CHUNK FOR find_idle_and_init_radiating_bullet
ROM:32D9
ROM:32D9             ; =============== S U B R O U T I N E =======================================
ROM:32D9
ROM:32D9
ROM:32D9             brag_zakato_shoot:
ROM:32D9 16 7A                       ld      d, #0x7A ; 'z'
ROM:32DB DD 5D                       ld      e, xl
ROM:32DD 1C                          inc     e
ROM:32DE 1A                          ld      a, (de)
ROM:32DF 4F                          ld      c, a
ROM:32E0 3A 47 7A                    ld      a, (obj_x_tbl+0x47)
ROM:32E3 91                          sub     c
ROM:32E4 6F                          ld      l, a
ROM:32E5 14                          inc     d
ROM:32E6 1A                          ld      a, (de)
ROM:32E7 4F                          ld      c, a
ROM:32E8 3A 47 7B                    ld      a, (obj_y_tbl+0x47)
ROM:32EB 91                          sub     c
ROM:32EC 67                          ld      h, a
ROM:32ED CD 4B 0E                    call    get_index_for_angle
ROM:32F0 D6 20                       sub     #32
ROM:32F2 0F                          rrca
ROM:32F3 0F                          rrca
ROM:32F4 0F                          rrca
ROM:32F5 E6 1F                       and     #0x1F
ROM:32F7 4F                          ld      c, a
ROM:32F8 C5                          push    bc
ROM:32F9 06 05                       ld      b, #5
ROM:32FB
ROM:32FB             loc_32FB:
ROM:32FB C5                          push    bc
ROM:32FC CD 97 32                    call    find_idle_and_init_radiating_bullet
ROM:32FF C1                          pop     bc
ROM:3300 79                          ld      a, c
ROM:3301 C6 02                       add     a, #2
ROM:3303 E6 1F                       and     #0x1F
ROM:3305 4F                          ld      c, a
ROM:3306 10 F3                       djnz    loc_32FB
ROM:3308 C1                          pop     bc
ROM:3309 C9                          ret
ROM:3309             ; End of function brag_zakato_shoot
ROM:3309
ROM:330A
ROM:330A             ; =============== S U B R O U T I N E =======================================
ROM:330A
ROM:330A
ROM:330A             init_garu_zakato_explosion:
ROM:330A C5                          push    bc
ROM:330B 01 00 10                    ld      bc, #0x1000
ROM:330E
ROM:330E             loc_330E:
ROM:330E C5                          push    bc
ROM:330F CD 97 32                    call    find_idle_and_init_radiating_bullet
ROM:3312 C1                          pop     bc
ROM:3313 79                          ld      a, c
ROM:3314 3C                          inc     a
ROM:3315 3C                          inc     a
ROM:3316 E6 1E                       and     #30
ROM:3318 4F                          ld      c, a
ROM:3319 10 F3                       djnz    loc_330E
ROM:331B 21 76 7A                    ld      hl, # obj_x_tbl+0x76
ROM:331E 11 78 7A                    ld      de, # obj_x_tbl+0x78
ROM:3321 01 08 00                    ld      bc, #8
ROM:3324 ED B0                       ldir
ROM:3326 21 76 7B                    ld      hl, # obj_y_tbl+0x76
ROM:3329 11 78 7B                    ld      de, # obj_y_tbl+0x78
ROM:332C 01 08 00                    ld      bc, #8
ROM:332F ED B0                       ldir
ROM:3331 21 5D 33                    ld      hl, #brag_spario_dX_tbl
ROM:3334 11 F8 7A                    ld      de, # obj_dx_tbl+0x78
ROM:3337 06 04                       ld      b, #4
ROM:3339
ROM:3339             loc_3339:
ROM:3339 7E                          ld      a, (hl)
ROM:333A 12                          ld      (de), a
ROM:333B 23                          inc     hl
ROM:333C 1C                          inc     e
ROM:333D 1C                          inc     e
ROM:333E 10 F9                       djnz    loc_3339
ROM:3340 21 61 33                    ld      hl, #brag_spario_dY_tbl
ROM:3343 11 F8 7B                    ld      de, # obj_dy_tbl+0x78
ROM:3346 06 04                       ld      b, #4
ROM:3348
ROM:3348             loc_3348:
ROM:3348 7E                          ld      a, (hl)
ROM:3349 12                          ld      (de), a
ROM:334A 23                          inc     hl
ROM:334B 1C                          inc     e
ROM:334C 1C                          inc     e
ROM:334D 10 F9                       djnz    loc_3348
ROM:334F 3E 09                       ld      a, #9
ROM:3351 06 04                       ld      b, #4
ROM:3353 21 78 7F                    ld      hl, # obj_type_tbl+0x78
ROM:3356
ROM:3356             loc_3356:
ROM:3356 77                          ld      (hl), a
ROM:3357 2C                          inc     l
ROM:3358 2C                          inc     l
ROM:3359 10 FB                       djnz    loc_3356
ROM:335B C1                          pop     bc
ROM:335C C9                          ret
ROM:335C             ; End of function init_garu_zakato_explosion
ROM:335C
ROM:335C             ; ---------------------------------------------------------------------------
ROM:335D 20          brag_spario_dX_tbl:.db 0x20
ROM:335E 00                          .db    0
ROM:335F E0                          .db 0xE0 ; à
ROM:3360 00                          .db    0
ROM:3361 00          brag_spario_dY_tbl:.db    0
ROM:3362 E0                          .db 0xE0 ; à
ROM:3363 00                          .db    0
ROM:3364 20                          .db 0x20
ROM:3365
ROM:3365             ; =============== S U B R O U T I N E =======================================
ROM:3365
ROM:3365
ROM:3365             calc_dX_dY_for_vector_to_solvalou:
ROM:3365 E5                          push    hl
ROM:3366 1A                          ld      a, (de)
ROM:3367 4F                          ld      c, a
ROM:3368 3A 47 7A                    ld      a, (obj_x_tbl+0x47)
ROM:336B 91                          sub     c
ROM:336C 6F                          ld      l, a
ROM:336D 14                          inc     d
ROM:336E 1A                          ld      a, (de)
ROM:336F 4F                          ld      c, a
ROM:3370 3A 47 7B                    ld      a, (obj_y_tbl+0x47)
ROM:3373 91                          sub     c
ROM:3374 67                          ld      h, a
ROM:3375 CD 4B 0E                    call    get_index_for_angle
ROM:3378 C6 04                       add     a, #4
ROM:337A E1                          pop     hl
ROM:337B CB FB                       set     7, e
ROM:337D 1D                          dec     e
ROM:337E
ROM:337E             get_dX_dY_and_cpy_to_obj:
ROM:337E 0F                          rrca
ROM:337F 0F                          rrca
ROM:3380 0F                          rrca
ROM:3381 E6 1F                       and     #0x1F
ROM:3383
ROM:3383             cpy_dY_dX_to_obj:
ROM:3383 CF                          rst     HL_plus_equals_2A
ROM:3384 7E                          ld      a, (hl)
ROM:3385 12                          ld      (de), a
ROM:3386 23                          inc     hl
ROM:3387 15                          dec     d
ROM:3388 7E                          ld      a, (hl)
ROM:3389 12                          ld      (de), a
ROM:338A C9                          ret
ROM:338A             ; End of function calc_dX_dY_for_vector_to_solvalou
ROM:338A
ROM:338B
ROM:338B             ; =============== S U B R O U T I N E =======================================
ROM:338B
ROM:338B
ROM:338B             gen_random_Y_store_obj:
ROM:338B CD E4 0E                    call    pseudo_random_gen
ROM:338E E6 1F                       and     #31
ROM:3390 FE 19                       cp      #25
ROM:3392 30 F7                       jr      NC, gen_random_Y_store_obj
ROM:3394 C6 03                       add     a, #3
ROM:3396 77                          ld      (hl), a
ROM:3397 C9                          ret
ROM:3397             ; End of function gen_random_Y_store_obj
ROM:3397
ROM:3398
ROM:3398             ; =============== S U B R O U T I N E =======================================
ROM:3398
ROM:3398
ROM:3398             gen_rnd_spriteY:
ROM:3398 E5                          push    hl
ROM:3399 21 47 7B                    ld      hl, # obj_y_tbl+0x47
ROM:339C
ROM:339C             loc_339C:
ROM:339C CD E4 0E                    call    pseudo_random_gen
ROM:339F E6 1F                       and     #31
ROM:33A1 FE 19                       cp      #25
ROM:33A3 30 F7                       jr      NC, loc_339C
ROM:33A5 C6 03                       add     a, #3
ROM:33A7 5F                          ld      e, a
ROM:33A8 96                          sub     (hl)
ROM:33A9 D6 08                       sub     #8
ROM:33AB C6 10                       add     a, #0x10
ROM:33AD 7B                          ld      a, e
ROM:33AE 38 EC                       jr      C, loc_339C
ROM:33B0 E1                          pop     hl
ROM:33B1 77                          ld      (hl), a
ROM:33B2 C9                          ret
ROM:33B2             ; End of function gen_rnd_spriteY
ROM:33B2
ROM:33B3             ; ---------------------------------------------------------------------------
ROM:33B3
ROM:33B3             main_fn_4__spawn_flying_enemies:
ROM:33B3 3A 2A 80                    ld      a, (scroll_disabled)
ROM:33B6 A7                          and     a
ROM:33B7 C0                          ret     NZ
ROM:33B8 3A 2B 80                    ld      a, (num_flying_enemies)
ROM:33BB A7                          and     a
ROM:33BC C8                          ret     Z
ROM:33BD 47                          ld      b, a
ROM:33BE 3A 2C 80                    ld      a, (flying_enemy_type_tbl_offset)
ROM:33C1 21 A7 3C                    ld      hl, #flying_enemy_type_tbl
ROM:33C4 D7                          rst     HL_plus_equals_A
ROM:33C5 11 74 7F                    ld      de, # obj_type_tbl+0x74
ROM:33C8
ROM:33C8             loc_33C8:
ROM:33C8 7E                          ld      a, (hl)
ROM:33C9 12                          ld      (de), a
ROM:33CA 23                          inc     hl
ROM:33CB 1C                          inc     e
ROM:33CC 1C                          inc     e
ROM:33CD 10 F9                       djnz    loc_33C8
ROM:33CF C9                          ret
ROM:33D0             ; ---------------------------------------------------------------------------
ROM:33D0
ROM:33D0             main_fn_3__init_bacura:
ROM:33D0 3A 2A 80                    ld      a, (scroll_disabled)
ROM:33D3 A7                          and     a
ROM:33D4 C0                          ret     NZ
ROM:33D5 3A 2D 80                    ld      a, (num_bacura)
ROM:33D8 A7                          and     a
ROM:33D9 C8                          ret     Z
ROM:33DA 21 20 7F                    ld      hl, # obj_type_tbl+0x20
ROM:33DD 47                          ld      b, a
ROM:33DE
ROM:33DE             loc_33DE:
ROM:33DE 36 01                       ld      (hl), #1
ROM:33E0 2C                          inc     l
ROM:33E1 2C                          inc     l
ROM:33E2 10 FA                       djnz    loc_33DE
ROM:33E4 C9                          ret
ROM:33E5             ; ---------------------------------------------------------------------------
ROM:33E5
ROM:33E5             main_fn_5__inc_num_bacura:
ROM:33E5 F7                          rst     save_PC_to_fn_tbl_and_ret
ROM:33E6 3A 2A 80                    ld      a, (scroll_disabled)
ROM:33E9 A7                          and     a
ROM:33EA C0                          ret     NZ
ROM:33EB 3A 22 84                    ld      a, (bacura_inc_cnt)
ROM:33EE A7                          and     a
ROM:33EF C8                          ret     Z
ROM:33F0
ROM:33F0             loc_33F0:
ROM:33F0 3E 3C                       ld      a, #60
ROM:33F2 32 23 84                    ld      (one_second_cntr), a
ROM:33F5 F7                          rst     save_PC_to_fn_tbl_and_ret
ROM:33F6 3A 2A 80                    ld      a, (scroll_disabled)
ROM:33F9 A7                          and     a
ROM:33FA 20 E9                       jr      NZ, main_fn_5__inc_num_bacura
ROM:33FC 21 23 84                    ld      hl, #one_second_cntr
ROM:33FF 35                          dec     (hl)
ROM:3400 C0                          ret     NZ
ROM:3401 21 2D 80                    ld      hl, #num_bacura
ROM:3404 34                          inc     (hl)
ROM:3405 21 22 84                    ld      hl, #bacura_inc_cnt
ROM:3408 35                          dec     (hl)
ROM:3409 28 DA                       jr      Z, main_fn_5__inc_num_bacura
ROM:340B 18 E3                       jr      loc_33F0
ROM:340D             ; ---------------------------------------------------------------------------
ROM:340D
ROM:340D             handle_08_Giddo_Spario:
ROM:340D 16 79                       ld      d, #0x79 ; 'y'
ROM:340F DD 5D                       ld      e, xl
ROM:3411 EB                          ex      de, hl
ROM:3412 36 02                       ld      (hl), #2
ROM:3414 2C                          inc     l
ROM:3415 36 80                       ld      (hl), #0x80 ; '€'
ROM:3417 26 7B                       ld      h, #0x7B ; '{'
ROM:3419 CD 8B 33                    call    gen_random_Y_store_obj
ROM:341C 25                          dec     h
ROM:341D EB                          ex      de, hl
ROM:341E 21 23 3E                    ld      hl, #angle_dX_dY_sheonite_tbl
ROM:3421 CD 65 33                    call    calc_dX_dY_for_vector_to_solvalou
ROM:3424 EB                          ex      de, hl
ROM:3425 26 7C                       ld      h, #0x7C ; '|'
ROM:3427 36 00                       ld      (hl), #0
ROM:3429 F7                          rst     save_PC_to_fn_tbl_and_ret
ROM:342A 16 79                       ld      d, #0x79 ; 'y'
ROM:342C DD 5D                       ld      e, xl
ROM:342E EB                          ex      de, hl
ROM:342F 7E                          ld      a, (hl)
ROM:3430 FE 03                       cp      #3
ROM:3432 28 1D                       jr      Z, giddo_spario_hit
ROM:3434 3A 01 80                    ld      a, (countup_timer_1)
ROM:3437 0F                          rrca
ROM:3438 4F                          ld      c, a
ROM:3439 E6 03                       and     #3
ROM:343B 26 7C                       ld      h, #0x7C ; '|'
ROM:343D 77                          ld      (hl), a
ROM:343E 79                          ld      a, c
ROM:343F 0F                          rrca
ROM:3440 0F                          rrca
ROM:3441 E6 03                       and     #3
ROM:3443 C6 26                       add     a, #0x26 ; '&'
ROM:3445 2C                          inc     l
ROM:3446 77                          ld      (hl), a
ROM:3447 2D                          dec     l
ROM:3448 26 7A                       ld      h, #0x7A ; 'z'
ROM:344A EB                          ex      de, hl
ROM:344B CD 91 30                    call    move_object_dX_dY
ROM:344E C3 79 30                    jp      add_obj_handler
ROM:3451             ; ---------------------------------------------------------------------------
ROM:3451
ROM:3451             giddo_spario_hit:
ROM:3451 26 7D                       ld      h, #0x7D ; '}'
ROM:3453 36 FF                       ld      (hl), #0xFF
ROM:3455 11 5D 34                    ld      de, #loc_345D
ROM:3458 26 78                       ld      h, #0x78 ; 'x'
ROM:345A 73                          ld      (hl), e
ROM:345B 2C                          inc     l
ROM:345C 72                          ld      (hl), d
ROM:345D
ROM:345D             loc_345D:
ROM:345D 16 7D                       ld      d, #0x7D ; '}'
ROM:345F DD 5D                       ld      e, xl
ROM:3461 EB                          ex      de, hl
ROM:3462 34                          inc     (hl)
ROM:3463 7E                          ld      a, (hl)
ROM:3464 0F                          rrca
ROM:3465 FE 04                       cp      #4
ROM:3467 28 0D                       jr      Z, remove_giddo_spario
ROM:3469 C6 04                       add     a, #4
ROM:346B 25                          dec     h
ROM:346C 77                          ld      (hl), a
ROM:346D 26 7A                       ld      h, #0x7A ; 'z'
ROM:346F EB                          ex      de, hl
ROM:3470 CD 91 30                    call    move_object_dX_dY
ROM:3473 C3 79 30                    jp      add_obj_handler
ROM:3476             ; ---------------------------------------------------------------------------
ROM:3476
ROM:3476             remove_giddo_spario:
ROM:3476 26 79                       ld      h, #0x79 ; 'y'
ROM:3478 36 00                       ld      (hl), #0
ROM:347A 26 7F                       ld      h, #0x7F ; ''
ROM:347C 36 00                       ld      (hl), #0
ROM:347E C3 79 30                    jp      add_obj_handler
ROM:3481             ; ---------------------------------------------------------------------------
ROM:3481             ; *** NEW OBJECT(S) HERE
ROM:3481             ;
ROM:3481             ; Galaxian 150 pts
ROM:3481             ; - can't see how you can shoot one of these
ROM:3481             ; - spawned not in line with Solvalou
ROM:3481             ; - and move away before you can get under them
ROM:3481
ROM:3481             handle_58_Galaxian:                                             ; object state table
ROM:3481 16 79                       ld      d, #0x79 ; 'y'
ROM:3483 DD 5D                       ld      e, xl
ROM:3485 EB                          ex      de, hl
ROM:3486 36 02                       ld      (hl), #2                                ; active
ROM:3488 2C                          inc     l                                       ; offset=1
ROM:3489 36 00                       ld      (hl), #0                                ; bank=0, size=0 (1x1)
ROM:348B 26 7B                       ld      h, #0x7B ; '{'
ROM:348D CD 98 33                    call    gen_rnd_spriteY
ROM:3490 2D                          dec     l                                       ; offset=0
ROM:3491 25                          dec     h                                       ; object spriteX table
ROM:3492 CB FD                       set     7, l                                    ; object dX table
ROM:3494 36 30                       ld      (hl), #48                               ; dX=48 (fast!)
ROM:3496 24                          inc     h                                       ; object dY table
ROM:3497 36 00                       ld      (hl), #0
ROM:3499 24                          inc     h                                       ; object points table
ROM:349A 36 12                       ld      (hl), #18                               ; 150 pts
ROM:349C CB BD                       res     7, l                                    ; object code table
ROM:349E 36 1B                       ld      (hl), #0x1B
ROM:34A0 26 7E                       ld      h, #0x7E ; '~'                          ; object ffreq table
ROM:34A2 3A A2 81                    ld      a, (ffreq_mask_terrazi)
ROM:34A5 77                          ld      (hl), a                                 ; init ffmask
ROM:34A6 CD E4 0E                    call    pseudo_random_gen
ROM:34A9 A6                          and     (hl)                                    ; randomise
ROM:34AA 25                          dec     h                                       ; object timer table
ROM:34AB 77                          ld      (hl), a                                 ; init shot timer
ROM:34AC F7                          rst     save_PC_to_fn_tbl_and_ret
ROM:34AD CD 46 35                    call    is_object_hit                           ; hit?
ROM:34B0 CA 1F 31                    jp      Z, flying_enemy_hit                     ; yes, exit
ROM:34B3 26 7B                       ld      h, #0x7B ; '{'                          ; object spriteY table
ROM:34B5 2C                          inc     l                                       ; offset=1
ROM:34B6 3A 47 7B                    ld      a, (obj_y_tbl+0x47)                     ; solvalou spriteY
ROM:34B9 96                          sub     (hl)                                    ; compare
ROM:34BA D6 04                       sub     #4
ROM:34BC C6 08                       add     a, #8                                   ; close enough?
ROM:34BE 38 0F                       jr      C, galaxian_change_dir                  ; yes, go
ROM:34C0 2D                          dec     l                                       ; offset=0
ROM:34C1 26 7D                       ld      h, #0x7D ; '}'                          ; object timer table
ROM:34C3 CD 71 32                    call    chk_timer_fire_bullet_reinit_timer
ROM:34C6 25                          dec     h                                       ; object code table
ROM:34C7 2C                          inc     l                                       ; offset=1
ROM:34C8 3A 1C 80                    ld      a, (pulsing_colour_1)
ROM:34CB 77                          ld      (hl), a                                 ; set colour
ROM:34CC 2D                          dec     l                                       ; offset=0
ROM:34CD 18 57                       jr      galaxian_exit
ROM:34CF             ; ---------------------------------------------------------------------------
ROM:34CF
ROM:34CF             galaxian_change_dir:                                            ; (offset=1)
ROM:34CF D6 04                       sub     #4
ROM:34D1 3E 02                       ld      a, #2                                   ; +2
ROM:34D3 38 02                       jr      C, loc_34D7
ROM:34D5 3E FE                       ld      a, #0xFE ; 'þ'                          ; -2
ROM:34D7
ROM:34D7             loc_34D7:                                                       ; object ddY table
ROM:34D7 CB FD                       set     7, l
ROM:34D9 77                          ld      (hl), a                                 ; update ddY
ROM:34DA CB BD                       res     7, l                                    ; object spriteY table
ROM:34DC 26 7D                       ld      h, #0x7D ; '}'                          ; object timer table
ROM:34DE 36 0F                       ld      (hl), #15                               ; re-init timer1
ROM:34E0 11 E9 34                    ld      de, #loc_34E9
ROM:34E3 DD 73 00                    ld      0(ix), e
ROM:34E6 DD 72 01                    ld      1(ix), d
ROM:34E9
ROM:34E9             loc_34E9:                                                       ; hit? (offset=0)
ROM:34E9 CD 46 35                    call    is_object_hit
ROM:34EC CA 1F 31                    jp      Z, flying_enemy_hit                     ; yes, exit
ROM:34EF 26 7D                       ld      h, #0x7D ; '}'                          ; object timer table
ROM:34F1 CD 71 32                    call    chk_timer_fire_bullet_reinit_timer
ROM:34F4 2C                          inc     l                                       ; offset=1
ROM:34F5 34                          inc     (hl)                                    ; inc timer1
ROM:34F6 7E                          ld      a, (hl)                                 ; get timer1
ROM:34F7 0F                          rrca
ROM:34F8 0F                          rrca
ROM:34F9 0F                          rrca
ROM:34FA 0F                          rrca
ROM:34FB E6 03                       and     #3                                      ; time to animate?
ROM:34FD 28 30                       jr      Z, galaxian_cont                        ; no, go
ROM:34FF F5                          push    af
ROM:3500 E5                          push    hl
ROM:3501 26 7B                       ld      h, #0x7B ; '{'                          ; object spriteY table
ROM:3503 CB FD                       set     7, l                                    ; object ddY table
ROM:3505 7E                          ld      a, (hl)                                 ; get ddY
ROM:3506 21 53 35                    ld      hl, #galaxian_sprite_tbl_1
ROM:3509 FE 80                       cp      #0x80 ; '€'                             ; -ve?
ROM:350B 30 03                       jr      NC, loc_3510                            ; yes, go
ROM:350D 21 4F 35                    ld      hl, #galaxian_sprite_tbl_2
ROM:3510
ROM:3510             loc_3510:
ROM:3510 D1                          pop     de
ROM:3511 F1                          pop     af
ROM:3512 D7                          rst     HL_plus_equals_A
ROM:3513 7E                          ld      a, (hl)
ROM:3514 EB                          ex      de, hl
ROM:3515 2D                          dec     l                                       ; offset=0
ROM:3516 25                          dec     h                                       ; object code table
ROM:3517 77                          ld      (hl), a                                 ; set sprite code
ROM:3518
ROM:3518             galaxian_colour_and_move:                                       ; offset=1
ROM:3518 2C                          inc     l
ROM:3519 3A 1C 80                    ld      a, (pulsing_colour_1)
ROM:351C 77                          ld      (hl), a                                 ; set colour
ROM:351D CB FD                       set     7, l                                    ; object points table
ROM:351F 25                          dec     h                                       ; object ddY table
ROM:3520 7E                          ld      a, (hl)                                 ; get ddY
ROM:3521 2D                          dec     l                                       ; object dY table
ROM:3522 86                          add     a, (hl)                                 ; calc dY
ROM:3523 77                          ld      (hl), a                                 ; update dY
ROM:3524 CB BD                       res     7, l                                    ; object spriteY table
ROM:3526
ROM:3526             galaxian_exit:
ROM:3526 26 7A                       ld      h, #0x7A ; 'z'
ROM:3528 EB                          ex      de, hl
ROM:3529 CD 91 30                    call    move_object_dX_dY
ROM:352C C3 79 30                    jp      add_obj_handler
ROM:352F             ; ---------------------------------------------------------------------------
ROM:352F
ROM:352F             galaxian_cont:
ROM:352F 11 38 35                    ld      de, #loc_3538
ROM:3532 DD 73 00                    ld      0(ix), e
ROM:3535 DD 72 01                    ld      1(ix), d
ROM:3538
ROM:3538             loc_3538:                                                       ; hit?
ROM:3538 CD 46 35                    call    is_object_hit
ROM:353B CA 1F 31                    jp      Z, flying_enemy_hit                     ; yes, exit
ROM:353E 26 7D                       ld      h, #0x7D ; '}'
ROM:3540 CD 71 32                    call    chk_timer_fire_bullet_reinit_timer
ROM:3543 25                          dec     h
ROM:3544 18 D2                       jr      galaxian_colour_and_move
ROM:3546
ROM:3546             ; =============== S U B R O U T I N E =======================================
ROM:3546
ROM:3546
ROM:3546             is_object_hit:
ROM:3546 16 79                       ld      d, #0x79 ; 'y'                          ; object state table
ROM:3548 DD 5D                       ld      e, xl
ROM:354A EB                          ex      de, hl
ROM:354B 7E                          ld      a, (hl)
ROM:354C FE 03                       cp      #3                                      ; hit?
ROM:354E C9                          ret
ROM:354E             ; End of function is_object_hit
ROM:354E
ROM:354E             ; ---------------------------------------------------------------------------
ROM:354F 1B          galaxian_sprite_tbl_2:.db 0x1B
ROM:3550 1A                          .db 0x1A
ROM:3551 19                          .db 0x19
ROM:3552 18                          .db 0x18
ROM:3553 1B          galaxian_sprite_tbl_1:.db 0x1B
ROM:3554 1C                          .db 0x1C
ROM:3555 1D                          .db 0x1D
ROM:3556 1E                          .db 0x1E
ROM:3557             ; ---------------------------------------------------------------------------
ROM:3557
ROM:3557             handle_59_Jet_Taking_off:                                       ; object state table
ROM:3557 16 79                       ld      d, #0x79 ; 'y'
ROM:3559 DD 5D                       ld      e, xl
ROM:355B EB                          ex      de, hl
ROM:355C 36 02                       ld      (hl), #2                                ; active
ROM:355E 2C                          inc     l                                       ; offset=1
ROM:355F 36 08                       ld      (hl), #8                                ; flipy
ROM:3561 26 7B                       ld      h, #0x7B ; '{'                          ; object spriteY table
ROM:3563 36 04                       ld      (hl), #4                                ; MSB
ROM:3565 2D                          dec     l                                       ; offset=0
ROM:3566 CB FD                       set     7, l                                    ; object dY table
ROM:3568 36 00                       ld      (hl), #0                                ; dy=0
ROM:356A 25                          dec     h                                       ; object dX table
ROM:356B 36 08                       ld      (hl), #8                                ; dx=8
ROM:356D 26 7C                       ld      h, #0x7C ; '|'                          ; object points table
ROM:356F 36 00                       ld      (hl), #0                                ; 10 pts
ROM:3571 CB BD                       res     7, l                                    ; object code table
ROM:3573 36 F3                       ld      (hl), #0xF3 ; 'ó'                       ; code
ROM:3575 2C                          inc     l                                       ; offset=1
ROM:3576 36 06                       ld      (hl), #6                                ; colour
ROM:3578 2D                          dec     l                                       ; offset=0
ROM:3579 24                          inc     h                                       ; object timer table
ROM:357A 36 80                       ld      (hl), #128                              ; init timer
ROM:357C F7                          rst     save_PC_to_fn_tbl_and_ret
ROM:357D CD 46 35                    call    is_object_hit                           ; hit?
ROM:3580 28 2F                       jr      Z, bomb_explode_and_zero_player_score   ; yes, go
ROM:3582 26 7D                       ld      h, #0x7D ; '}'                          ; object timer table
ROM:3584 35                          dec     (hl)                                    ; time to speed up?
ROM:3585 28 09                       jr      Z, move_jet_taking_off                  ; yes, go
ROM:3587 26 7A                       ld      h, #0x7A ; 'z'
ROM:3589 EB                          ex      de, hl
ROM:358A CD E8 30                    call    scroll_sprite_X
ROM:358D C3 79 30                    jp      add_obj_handler
ROM:3590             ; ---------------------------------------------------------------------------
ROM:3590
ROM:3590             move_jet_taking_off:                                            ; object code table
ROM:3590 25                          dec     h
ROM:3591 2C                          inc     l                                       ; offset=1
ROM:3592 36 02                       ld      (hl), #2                                ; colour
ROM:3594 11 9D 35                    ld      de, #loc_359D
ROM:3597 DD 73 00                    ld      0(ix), e
ROM:359A DD 72 01                    ld      1(ix), d
ROM:359D
ROM:359D             loc_359D:                                                       ; hit?
ROM:359D CD 46 35                    call    is_object_hit
ROM:35A0 28 15                       jr      Z, explode_remove_and_zero_player_score ; yes, go
ROM:35A2 26 7B                       ld      h, #0x7B ; '{'                          ; object spriteY table
ROM:35A4 CB FD                       set     7, l                                    ; dY
ROM:35A6 34                          inc     (hl)                                    ; faster
ROM:35A7 CB BD                       res     7, l                                    ; object spriteY table
ROM:35A9 25                          dec     h                                       ; object spriteX table
ROM:35AA EB                          ex      de, hl
ROM:35AB CD 91 30                    call    move_object_dX_dY
ROM:35AE C3 79 30                    jp      add_obj_handler
ROM:35B1             ; ---------------------------------------------------------------------------
ROM:35B1
ROM:35B1             bomb_explode_and_zero_player_score:
ROM:35B1 CD BD 35                    call    zero_player_score
ROM:35B4 C3 86 31                    jp      handle_bomb_explosion
ROM:35B7             ; ---------------------------------------------------------------------------
ROM:35B7
ROM:35B7             explode_remove_and_zero_player_score:
ROM:35B7 CD BD 35                    call    zero_player_score
ROM:35BA C3 16 32                    jp      explode_and_remove_object
ROM:35BD
ROM:35BD             ; =============== S U B R O U T I N E =======================================
ROM:35BD
ROM:35BD
ROM:35BD             zero_player_score:
ROM:35BD E5                          push    hl
ROM:35BE C5                          push    bc
ROM:35BF 21 80 81                    ld      hl, #curr_player_score_lsb
ROM:35C2 36 00                       ld      (hl), #0
ROM:35C4 2C                          inc     l
ROM:35C5 36 00                       ld      (hl), #0
ROM:35C7 2C                          inc     l
ROM:35C8 36 00                       ld      (hl), #0
ROM:35CA CD 04 14                    call    display_player_scores
ROM:35CD C1                          pop     bc
ROM:35CE E1                          pop     hl
ROM:35CF C9                          ret
ROM:35CF             ; End of function zero_player_score
ROM:35CF
ROM:35CF             ; *** END OF NEW OBJECTS CODE
ROM:35D0             ; ---------------------------------------------------------------------------
ROM:35D0
ROM:35D0             handle_4B_Andor_Genesis_obj_15:
ROM:35D0 3A 1C 79                    ld      a, (obj_state_tbl+0x1C)
ROM:35D3 FE 03                       cp      #3
ROM:35D5 28 34                       jr      Z, andor_genesis_destroyed
ROM:35D7 2A 1E 7A                    ld      hl, (obj_x_tbl+0x1E)
ROM:35DA 3E 10                       ld      a, #0x10
ROM:35DC BC                          cp      h
ROM:35DD 28 0E                       jr      Z, loc_35ED
ROM:35DF 3E 01                       ld      a, #1
ROM:35E1 32 07 A0                    ld      (andor_genesis_snd), a
ROM:35E4 3E 10                       ld      a, #0x10
ROM:35E6 CF                          rst     HL_plus_equals_2A
ROM:35E7 22 1E 7A                    ld      (obj_x_tbl+0x1E), hl
ROM:35EA C3 96 39                    jp      cycle_andor_gensis_colour
ROM:35ED             ; ---------------------------------------------------------------------------
ROM:35ED
ROM:35ED             loc_35ED:
ROM:35ED 11 F6 35                    ld      de, #loc_35F6
ROM:35F0 DD 73 00                    ld      0(ix), e
ROM:35F3 DD 72 01                    ld      1(ix), d
ROM:35F6
ROM:35F6             loc_35F6:
ROM:35F6 3A 2F 80                    ld      a, (andor_genesis_end_flag)
ROM:35F9 A7                          and     a
ROM:35FA 20 48                       jr      NZ, andor_genesis_leave
ROM:35FC 3A 1C 79                    ld      a, (obj_state_tbl+0x1C)
ROM:35FF FE 03                       cp      #3
ROM:3601 28 08                       jr      Z, andor_genesis_destroyed
ROM:3603 3E 01                       ld      a, #1
ROM:3605 32 07 A0                    ld      (andor_genesis_snd), a
ROM:3608 C3 96 39                    jp      cycle_andor_gensis_colour
ROM:360B             ; ---------------------------------------------------------------------------
ROM:360B
ROM:360B             andor_genesis_destroyed:
ROM:360B 3E 1D                       ld      a, #0x1D
ROM:360D 32 40 80                    ld      (andor_genesis_colour), a
ROM:3610 3E 03                       ld      a, #3
ROM:3612 32 1E 7D                    ld      (obj_timer_tbl+0x1E), a
ROM:3615 11 1E 36                    ld      de, #loc_361E
ROM:3618 DD 73 00                    ld      0(ix), e
ROM:361B DD 72 01                    ld      1(ix), d
ROM:361E
ROM:361E             loc_361E:
ROM:361E 21 1E 7D                    ld      hl, # obj_timer_tbl+0x1E
ROM:3621 35                          dec     (hl)
ROM:3622 20 0E                       jr      NZ, loc_3632
ROM:3624 3E 06                       ld      a, #6
ROM:3626 32 40 80                    ld      (andor_genesis_colour), a
ROM:3629 11 32 36                    ld      de, #0x3632
ROM:362C DD 73 00                    ld      0(ix), e
ROM:362F DD 72 01                    ld      1(ix), d
ROM:3632
ROM:3632             loc_3632:
ROM:3632 2A 1E 7A                    ld      hl, (obj_x_tbl+0x1E)
ROM:3635 3E 30                       ld      a, #0x30 ; '0'
ROM:3637 BC                          cp      h
ROM:3638 28 30                       jr      Z, remove_andor_genesis
ROM:363A 3A 14 80                    ld      a, (scroll_delta)
ROM:363D ED 44                       neg
ROM:363F CF                          rst     HL_plus_equals_2A
ROM:3640 22 1E 7A                    ld      (obj_x_tbl+0x1E), hl
ROM:3643 C9                          ret
ROM:3644             ; ---------------------------------------------------------------------------
ROM:3644
ROM:3644             andor_genesis_leave:
ROM:3644 11 44 36                    ld      de, #andor_genesis_leave
ROM:3647 DD 73 00                    ld      0(ix), e
ROM:364A DD 72 01                    ld      1(ix), d
ROM:364D 3A 1C 79                    ld      a, (obj_state_tbl+0x1C)
ROM:3650 FE 03                       cp      #3
ROM:3652 28 B7                       jr      Z, andor_genesis_destroyed
ROM:3654 2A 1E 7A                    ld      hl, (obj_x_tbl+0x1E)
ROM:3657 3E F8                       ld      a, #0xF8 ; 'ø'
ROM:3659 BC                          cp      h
ROM:365A 28 0E                       jr      Z, remove_andor_genesis
ROM:365C 3E F8                       ld      a, #0xF8 ; 'ø'
ROM:365E CF                          rst     8
ROM:365F 22 1E 7A                    ld      (obj_x_tbl+0x1E), hl
ROM:3662 3E 01                       ld      a, #1
ROM:3664 32 07 A0                    ld      (andor_genesis_snd), a
ROM:3667 C3 96 39                    jp      cycle_andor_gensis_colour
ROM:366A             ; ---------------------------------------------------------------------------
ROM:366A
ROM:366A             remove_andor_genesis:
ROM:366A AF                          xor     a
ROM:366B 32 1E 79                    ld      (obj_state_tbl+0x1E), a
ROM:366E 32 1E 7F                    ld      (obj_type_tbl+0x1E), a
ROM:3671 C3 79 30                    jp      add_obj_handler
ROM:3674             ; ---------------------------------------------------------------------------
ROM:3674
ROM:3674             handle_4A_Andor_Genesis_obj_14:
ROM:3674 3E 02                       ld      a, #2
ROM:3676 32 1C 79                    ld      (obj_state_tbl+0x1C), a
ROM:3679 3E 10                       ld      a, #0x10
ROM:367B 32 1C 7C                    ld      (obj_code_tbl+0x1C), a
ROM:367E 3E 3C                       ld      a, #0x3C ; '<'
ROM:3680 32 9C 7C                    ld      (obj_pts_tbl+0x1C), a
ROM:3683 2A 1E 7B                    ld      hl, (obj_y_tbl+0x1E)
ROM:3686 22 1C 7B                    ld      (obj_y_tbl+0x1C), hl
ROM:3689 F7                          rst     save_PC_to_fn_tbl_and_ret
ROM:368A 3A 1C 79                    ld      a, (obj_state_tbl+0x1C)
ROM:368D FE 03                       cp      #3
ROM:368F 28 29                       jr      Z, andor_genesis_core_hit
ROM:3691 3A 1E 79                    ld      a, (obj_state_tbl+0x1E)
ROM:3694 3D                          dec     a
ROM:3695 28 1A                       jr      Z, remove_andor_genesis_core
ROM:3697 3A 01 80                    ld      a, (countup_timer_1)
ROM:369A 0F                          rrca
ROM:369B 0F                          rrca
ROM:369C 0F                          rrca
ROM:369D E6 0C                       and     #0xC
ROM:369F C6 80                       add     a, #0x80 ; '€'
ROM:36A1 32 1D 79                    ld      (obj_state_tbl+0x1D), a
ROM:36A4 2A 1E 7A                    ld      hl, (obj_x_tbl+0x1E)
ROM:36A7 22 1C 7A                    ld      (obj_x_tbl+0x1C), hl
ROM:36AA 3A 40 80                    ld      a, (andor_genesis_colour)
ROM:36AD 32 1D 7C                    ld      (obj_code_tbl+0x1D), a
ROM:36B0 C9                          ret
ROM:36B1             ; ---------------------------------------------------------------------------
ROM:36B1
ROM:36B1             remove_andor_genesis_core:
ROM:36B1 32 1C 79                    ld      (obj_state_tbl+0x1C), a
ROM:36B4 32 1C 7F                    ld      (obj_type_tbl+0x1C), a
ROM:36B7 C3 79 30                    jp      add_obj_handler
ROM:36BA             ; ---------------------------------------------------------------------------
ROM:36BA
ROM:36BA             andor_genesis_core_hit:
ROM:36BA DD 5D                       ld      e, xl
ROM:36BC 6B                          ld      l, e
ROM:36BD CD 3D 39                    call    pre_gun_port_explosion
ROM:36C0 11 C9 36                    ld      de, #loc_36C9
ROM:36C3 DD 73 00                    ld      0(ix), e
ROM:36C6 DD 72 01                    ld      1(ix), d
ROM:36C9
ROM:36C9             loc_36C9:
ROM:36C9 2A 1E 7A                    ld      hl, (obj_x_tbl+0x1E)
ROM:36CC 22 1C 7A                    ld      (obj_x_tbl+0x1C), hl
ROM:36CF 2A 1E 7B                    ld      hl, (obj_y_tbl+0x1E)
ROM:36D2 22 1C 7B                    ld      (obj_y_tbl+0x1C), hl
ROM:36D5 CD 47 39                    call    gun_port_explosion
ROM:36D8 3A 1C 79                    ld      a, (obj_state_tbl+0x1C)
ROM:36DB FE 04                       cp      #4
ROM:36DD C0                          ret     NZ
ROM:36DE 11 F4 36                    ld      de, #handle_Bragza
ROM:36E1 DD 73 00                    ld      0(ix), e
ROM:36E4 DD 72 01                    ld      1(ix), d
ROM:36E7 21 9C 7A                    ld      hl, # obj_dx_tbl+0x1C
ROM:36EA 36 D0                       ld      (hl), #0xD0 ; 'Ð'
ROM:36EC 24                          inc     h
ROM:36ED 36 00                       ld      (hl), #0
ROM:36EF 3E 08                       ld      a, #8
ROM:36F1 32 1D 79                    ld      (obj_state_tbl+0x1D), a
ROM:36F4
ROM:36F4             handle_Bragza:
ROM:36F4 3A 01 80                    ld      a, (countup_timer_1)
ROM:36F7 0F                          rrca
ROM:36F8 4F                          ld      c, a
ROM:36F9 E6 03                       and     #3
ROM:36FB C6 B8                       add     a, #0xB8 ; '¸'
ROM:36FD 32 1C 7C                    ld      (obj_code_tbl+0x1C), a
ROM:3700 79                          ld      a, c
ROM:3701 E6 07                       and     #7
ROM:3703 C6 15                       add     a, #0x15
ROM:3705 32 1D 7C                    ld      (obj_code_tbl+0x1D), a
ROM:3708 11 1C 7A                    ld      de, # obj_x_tbl+0x1C
ROM:370B CD D4 30                    call    move_object_dX
ROM:370E C3 79 30                    jp      add_obj_handler
ROM:3711             ; ---------------------------------------------------------------------------
ROM:3711
ROM:3711             handle_4F_Andor_Genesis_obj_13:
ROM:3711 3E 02                       ld      a, #2
ROM:3713 32 1A 79                    ld      (obj_state_tbl+0x1A), a
ROM:3716 AF                          xor     a
ROM:3717 32 1B 79                    ld      (obj_state_tbl+0x1B), a
ROM:371A 3C                          inc     a
ROM:371B 32 1A 7D                    ld      (obj_timer_tbl+0x1A), a
ROM:371E 3E 5C                       ld      a, #0x5C ; '\'
ROM:3720 32 1A 7C                    ld      (obj_code_tbl+0x1A), a
ROM:3723 3E 30                       ld      a, #48
ROM:3725 32 9A 7C                    ld      (obj_pts_tbl+0x1A), a
ROM:3728 2A 1E 7B                    ld      hl, (obj_y_tbl+0x1E)
ROM:372B 3E 02                       ld      a, #2
ROM:372D 84                          add     a, h
ROM:372E 67                          ld      h, a
ROM:372F 22 1A 7B                    ld      (obj_y_tbl+0x1A), hl
ROM:3732 3A A7 81                    ld      a, (ffreq_mask_andor_genesis)
ROM:3735 32 1A 7E                    ld      (obj_ffreq_tbl+0x1A), a
ROM:3738 F7                          rst     save_PC_to_fn_tbl_and_ret
ROM:3739 3A 1A 79                    ld      a, (obj_state_tbl+0x1A)
ROM:373C FE 03                       cp      #3
ROM:373E 28 2D                       jr      Z, tl_gun_port_hit
ROM:3740 3A 1C 79                    ld      a, (obj_state_tbl+0x1C)
ROM:3743 FE 03                       cp      #3
ROM:3745 28 26                       jr      Z, tl_gun_port_hit
ROM:3747 3A 1E 79                    ld      a, (obj_state_tbl+0x1E)
ROM:374A 3D                          dec     a
ROM:374B 28 17                       jr      Z, remove_tl_gun_port
ROM:374D 2A 1E 7A                    ld      hl, (obj_x_tbl+0x1E)
ROM:3750 3E FE                       ld      a, #0xFE ; 'þ'
ROM:3752 84                          add     a, h
ROM:3753 67                          ld      h, a
ROM:3754 22 1A 7A                    ld      (obj_x_tbl+0x1A), hl
ROM:3757 3A 40 80                    ld      a, (andor_genesis_colour)
ROM:375A 32 1B 7C                    ld      (obj_code_tbl+0x1B), a
ROM:375D 21 1A 7D                    ld      hl, # obj_timer_tbl+0x1A
ROM:3760 CD 71 32                    call    chk_timer_fire_bullet_reinit_timer
ROM:3763 C9                          ret
ROM:3764             ; ---------------------------------------------------------------------------
ROM:3764
ROM:3764             remove_tl_gun_port:
ROM:3764 32 1A 79                    ld      (obj_state_tbl+0x1A), a
ROM:3767 32 1A 7F                    ld      (obj_type_tbl+0x1A), a
ROM:376A C3 79 30                    jp      add_obj_handler
ROM:376D             ; ---------------------------------------------------------------------------
ROM:376D
ROM:376D             tl_gun_port_hit:
ROM:376D DD 5D                       ld      e, xl
ROM:376F 6B                          ld      l, e
ROM:3770 CD 3D 39                    call    pre_gun_port_explosion
ROM:3773 11 7C 37                    ld      de, #tl_gun_port_exploding
ROM:3776 DD 73 00                    ld      0(ix), e
ROM:3779 DD 72 01                    ld      1(ix), d
ROM:377C
ROM:377C             tl_gun_port_exploding:
ROM:377C 2A 1E 7A                    ld      hl, (obj_x_tbl+0x1E)
ROM:377F 3E FE                       ld      a, #0xFE ; 'þ'
ROM:3781 84                          add     a, h
ROM:3782 67                          ld      h, a
ROM:3783 22 1A 7A                    ld      (obj_x_tbl+0x1A), hl
ROM:3786 2A 1E 7B                    ld      hl, (obj_y_tbl+0x1E)
ROM:3789 3E 02                       ld      a, #2
ROM:378B 84                          add     a, h
ROM:378C 67                          ld      h, a
ROM:378D 22 1A 7B                    ld      (obj_y_tbl+0x1A), hl
ROM:3790 CD 47 39                    call    gun_port_explosion
ROM:3793 3A 1A 79                    ld      a, (obj_state_tbl+0x1A)
ROM:3796 FE 04                       cp      #4
ROM:3798 C0                          ret     NZ
ROM:3799 AF                          xor     a
ROM:379A 18 C8                       jr      remove_tl_gun_port
ROM:379C             ; ---------------------------------------------------------------------------
ROM:379C
ROM:379C             handle_50_Andor_Genesis_obj_12:
ROM:379C 3E 02                       ld      a, #2
ROM:379E 32 18 79                    ld      (obj_state_tbl+0x18), a
ROM:37A1 AF                          xor     a
ROM:37A2 32 19 79                    ld      (obj_state_tbl+0x19), a
ROM:37A5 3C                          inc     a
ROM:37A6 32 18 7D                    ld      (obj_timer_tbl+0x18), a
ROM:37A9 3E 5D                       ld      a, #0x5D ; ']'
ROM:37AB 32 18 7C                    ld      (obj_code_tbl+0x18), a
ROM:37AE 3E 30                       ld      a, #0x30 ; '0'
ROM:37B0 32 98 7C                    ld      (obj_pts_tbl+0x18), a
ROM:37B3 2A 1E 7B                    ld      hl, (obj_y_tbl+0x1E)
ROM:37B6 3E FE                       ld      a, #0xFE ; 'þ'
ROM:37B8 84                          add     a, h
ROM:37B9 67                          ld      h, a
ROM:37BA 22 18 7B                    ld      (obj_y_tbl+0x18), hl
ROM:37BD 3A A7 81                    ld      a, (ffreq_mask_andor_genesis)
ROM:37C0 32 18 7E                    ld      (obj_ffreq_tbl+0x18), a
ROM:37C3 F7                          rst     save_PC_to_fn_tbl_and_ret
ROM:37C4 3A 18 79                    ld      a, (obj_state_tbl+0x18)
ROM:37C7 FE 03                       cp      #3
ROM:37C9 28 2D                       jr      Z, tr_gun_port_hit
ROM:37CB 3A 1C 79                    ld      a, (obj_state_tbl+0x1C)
ROM:37CE FE 03                       cp      #3
ROM:37D0 28 26                       jr      Z, tr_gun_port_hit
ROM:37D2 3A 1E 79                    ld      a, (obj_state_tbl+0x1E)
ROM:37D5 3D                          dec     a
ROM:37D6 28 17                       jr      Z, remove_tr_gun_port
ROM:37D8 2A 1E 7A                    ld      hl, (obj_x_tbl+0x1E)
ROM:37DB 3E FE                       ld      a, #0xFE ; 'þ'
ROM:37DD 84                          add     a, h
ROM:37DE 67                          ld      h, a
ROM:37DF 22 18 7A                    ld      (obj_x_tbl+0x18), hl
ROM:37E2 3A 40 80                    ld      a, (andor_genesis_colour)
ROM:37E5 32 19 7C                    ld      (obj_code_tbl+0x19), a
ROM:37E8 21 18 7D                    ld      hl, # obj_timer_tbl+0x18
ROM:37EB CD 71 32                    call    chk_timer_fire_bullet_reinit_timer
ROM:37EE C9                          ret
ROM:37EF             ; ---------------------------------------------------------------------------
ROM:37EF
ROM:37EF             remove_tr_gun_port:
ROM:37EF 32 18 79                    ld      (obj_state_tbl+0x18), a
ROM:37F2 32 18 7F                    ld      (obj_type_tbl+0x18), a
ROM:37F5 C3 79 30                    jp      add_obj_handler
ROM:37F8             ; ---------------------------------------------------------------------------
ROM:37F8
ROM:37F8             tr_gun_port_hit:
ROM:37F8 DD 5D                       ld      e, xl
ROM:37FA 6B                          ld      l, e
ROM:37FB CD 3D 39                    call    pre_gun_port_explosion
ROM:37FE 11 07 38                    ld      de, #loc_3807
ROM:3801 DD 73 00                    ld      0(ix), e
ROM:3804 DD 72 01                    ld      1(ix), d
ROM:3807
ROM:3807             loc_3807:
ROM:3807 2A 1E 7A                    ld      hl, (obj_x_tbl+0x1E)
ROM:380A 3E FE                       ld      a, #0xFE ; 'þ'
ROM:380C 84                          add     a, h
ROM:380D 67                          ld      h, a
ROM:380E 22 18 7A                    ld      (obj_x_tbl+0x18), hl
ROM:3811 2A 1E 7B                    ld      hl, (obj_y_tbl+0x1E)
ROM:3814 3E FE                       ld      a, #0xFE ; 'þ'
ROM:3816 84                          add     a, h
ROM:3817 67                          ld      h, a
ROM:3818 22 18 7B                    ld      (obj_y_tbl+0x18), hl
ROM:381B CD 47 39                    call    gun_port_explosion
ROM:381E 3A 18 79                    ld      a, (obj_state_tbl+0x18)
ROM:3821 FE 04                       cp      #4
ROM:3823 C0                          ret     NZ
ROM:3824 AF                          xor     a
ROM:3825 18 C8                       jr      remove_tr_gun_port
ROM:3827             ; ---------------------------------------------------------------------------
ROM:3827
ROM:3827             handle_51_Andor_Genesis_obj_11:
ROM:3827 3E 02                       ld      a, #2
ROM:3829 32 16 79                    ld      (obj_state_tbl+0x16), a
ROM:382C AF                          xor     a
ROM:382D 32 17 79                    ld      (obj_state_tbl+0x17), a
ROM:3830 3C                          inc     a
ROM:3831 32 16 7D                    ld      (obj_timer_tbl+0x16), a
ROM:3834 3E 5E                       ld      a, #0x5E ; '^'
ROM:3836 32 16 7C                    ld      (obj_code_tbl+0x16), a
ROM:3839 3E 30                       ld      a, #48
ROM:383B 32 96 7C                    ld      (obj_pts_tbl+0x16), a
ROM:383E 2A 1E 7B                    ld      hl, (obj_y_tbl+0x1E)
ROM:3841 3E 02                       ld      a, #2
ROM:3843 84                          add     a, h
ROM:3844 67                          ld      h, a
ROM:3845 22 16 7B                    ld      (obj_y_tbl+0x16), hl
ROM:3848 3A A7 81                    ld      a, (ffreq_mask_andor_genesis)
ROM:384B 32 16 7E                    ld      (obj_ffreq_tbl+0x16), a
ROM:384E F7                          rst     save_PC_to_fn_tbl_and_ret
ROM:384F 3A 16 79                    ld      a, (obj_state_tbl+0x16)
ROM:3852 FE 03                       cp      #3
ROM:3854 28 2D                       jr      Z, bl_gun_port_hit
ROM:3856 3A 1C 79                    ld      a, (obj_state_tbl+0x1C)
ROM:3859 FE 03                       cp      #3
ROM:385B 28 26                       jr      Z, bl_gun_port_hit
ROM:385D 3A 1E 79                    ld      a, (obj_state_tbl+0x1E)
ROM:3860 3D                          dec     a
ROM:3861 28 17                       jr      Z, remove_bl_gun_port
ROM:3863 2A 1E 7A                    ld      hl, (obj_x_tbl+0x1E)
ROM:3866 3E 02                       ld      a, #2
ROM:3868 84                          add     a, h
ROM:3869 67                          ld      h, a
ROM:386A 22 16 7A                    ld      (obj_x_tbl+0x16), hl
ROM:386D 3A 40 80                    ld      a, (andor_genesis_colour)
ROM:3870 32 17 7C                    ld      (obj_code_tbl+0x17), a
ROM:3873 21 16 7D                    ld      hl, # obj_timer_tbl+0x16
ROM:3876 CD 71 32                    call    chk_timer_fire_bullet_reinit_timer
ROM:3879 C9                          ret
ROM:387A             ; ---------------------------------------------------------------------------
ROM:387A
ROM:387A             remove_bl_gun_port:
ROM:387A 32 16 79                    ld      (obj_state_tbl+0x16), a
ROM:387D 32 16 7F                    ld      (obj_type_tbl+0x16), a
ROM:3880 C3 79 30                    jp      add_obj_handler
ROM:3883             ; ---------------------------------------------------------------------------
ROM:3883
ROM:3883             bl_gun_port_hit:
ROM:3883 DD 5D                       ld      e, xl
ROM:3885 6B                          ld      l, e
ROM:3886 CD 3D 39                    call    pre_gun_port_explosion
ROM:3889 11 92 38                    ld      de, #bl_gun_port_exploding
ROM:388C DD 73 00                    ld      0(ix), e
ROM:388F DD 72 01                    ld      1(ix), d
ROM:3892
ROM:3892             bl_gun_port_exploding:
ROM:3892 2A 1E 7A                    ld      hl, (obj_x_tbl+0x1E)
ROM:3895 3E 02                       ld      a, #2
ROM:3897 84                          add     a, h
ROM:3898 67                          ld      h, a
ROM:3899 22 16 7A                    ld      (obj_x_tbl+0x16), hl
ROM:389C 2A 1E 7B                    ld      hl, (obj_y_tbl+0x1E)
ROM:389F 3E 02                       ld      a, #2
ROM:38A1 84                          add     a, h
ROM:38A2 67                          ld      h, a
ROM:38A3 22 16 7B                    ld      (obj_y_tbl+0x16), hl
ROM:38A6 CD 47 39                    call    gun_port_explosion
ROM:38A9 3A 16 79                    ld      a, (obj_state_tbl+0x16)
ROM:38AC FE 04                       cp      #4
ROM:38AE C0                          ret     NZ
ROM:38AF AF                          xor     a
ROM:38B0 18 C8                       jr      remove_bl_gun_port
ROM:38B2             ; ---------------------------------------------------------------------------
ROM:38B2
ROM:38B2             handle_52_Andor_Genesis_obj_10:
ROM:38B2 3E 02                       ld      a, #2
ROM:38B4 32 14 79                    ld      (obj_state_tbl+0x14), a
ROM:38B7 AF                          xor     a
ROM:38B8 32 15 79                    ld      (obj_state_tbl+0x15), a
ROM:38BB 3C                          inc     a
ROM:38BC 32 14 7D                    ld      (obj_timer_tbl+0x14), a
ROM:38BF 3E 5F                       ld      a, #0x5F ; '_'
ROM:38C1 32 14 7C                    ld      (obj_code_tbl+0x14), a
ROM:38C4 3E 30                       ld      a, #48
ROM:38C6 32 94 7C                    ld      (obj_pts_tbl+0x14), a
ROM:38C9 2A 1E 7B                    ld      hl, (obj_y_tbl+0x1E)
ROM:38CC 3E FE                       ld      a, #0xFE ; 'þ'
ROM:38CE 84                          add     a, h
ROM:38CF 67                          ld      h, a
ROM:38D0 22 14 7B                    ld      (obj_y_tbl+0x14), hl
ROM:38D3 3A A7 81                    ld      a, (ffreq_mask_andor_genesis)
ROM:38D6 32 14 7E                    ld      (obj_ffreq_tbl+0x14), a
ROM:38D9 F7                          rst     save_PC_to_fn_tbl_and_ret
ROM:38DA 3A 14 79                    ld      a, (obj_state_tbl+0x14)
ROM:38DD FE 03                       cp      #3
ROM:38DF 28 2D                       jr      Z, br_gun_port_hit
ROM:38E1 3A 1C 79                    ld      a, (obj_state_tbl+0x1C)
ROM:38E4 FE 03                       cp      #3
ROM:38E6 28 26                       jr      Z, br_gun_port_hit
ROM:38E8 3A 1E 79                    ld      a, (obj_state_tbl+0x1E)
ROM:38EB 3D                          dec     a
ROM:38EC 28 17                       jr      Z, remove_br_gun_port
ROM:38EE 2A 1E 7A                    ld      hl, (obj_x_tbl+0x1E)
ROM:38F1 3E 02                       ld      a, #2
ROM:38F3 84                          add     a, h
ROM:38F4 67                          ld      h, a
ROM:38F5 22 14 7A                    ld      (obj_x_tbl+0x14), hl
ROM:38F8 3A 40 80                    ld      a, (andor_genesis_colour)
ROM:38FB 32 15 7C                    ld      (obj_code_tbl+0x15), a
ROM:38FE 21 14 7D                    ld      hl, # obj_timer_tbl+0x14
ROM:3901 CD 71 32                    call    chk_timer_fire_bullet_reinit_timer
ROM:3904 C9                          ret
ROM:3905             ; ---------------------------------------------------------------------------
ROM:3905
ROM:3905             remove_br_gun_port:
ROM:3905 32 14 79                    ld      (obj_state_tbl+0x14), a
ROM:3908 32 14 7F                    ld      (obj_type_tbl+0x14), a
ROM:390B C3 79 30                    jp      add_obj_handler
ROM:390E             ; ---------------------------------------------------------------------------
ROM:390E
ROM:390E             br_gun_port_hit:
ROM:390E DD 5D                       ld      e, xl
ROM:3910 6B                          ld      l, e
ROM:3911 CD 3D 39                    call    pre_gun_port_explosion
ROM:3914 11 1D 39                    ld      de, #br_gun_port_exploding
ROM:3917 DD 73 00                    ld      0(ix), e
ROM:391A DD 72 01                    ld      1(ix), d
ROM:391D
ROM:391D             br_gun_port_exploding:
ROM:391D 2A 1E 7A                    ld      hl, (obj_x_tbl+0x1E)
ROM:3920 3E 02                       ld      a, #2
ROM:3922 84                          add     a, h
ROM:3923 67                          ld      h, a
ROM:3924 22 14 7A                    ld      (obj_x_tbl+0x14), hl
ROM:3927 2A 1E 7B                    ld      hl, (obj_y_tbl+0x1E)
ROM:392A 3E FE                       ld      a, #0xFE ; 'þ'
ROM:392C 84                          add     a, h
ROM:392D 67                          ld      h, a
ROM:392E 22 14 7B                    ld      (obj_y_tbl+0x14), hl
ROM:3931 CD 47 39                    call    gun_port_explosion
ROM:3934 3A 14 79                    ld      a, (obj_state_tbl+0x14)
ROM:3937 FE 04                       cp      #4
ROM:3939 C0                          ret     NZ
ROM:393A AF                          xor     a
ROM:393B 18 C8                       jr      remove_br_gun_port
ROM:393D
ROM:393D             ; =============== S U B R O U T I N E =======================================
ROM:393D
ROM:393D
ROM:393D             pre_gun_port_explosion:
ROM:393D 26 7C                       ld      h, #0x7C ; '|'
ROM:393F 2C                          inc     l
ROM:3940 36 0C                       ld      (hl), #0xC
ROM:3942 2D                          dec     l
ROM:3943 24                          inc     h
ROM:3944 36 FF                       ld      (hl), #0xFF
ROM:3946 C9                          ret
ROM:3946             ; End of function pre_gun_port_explosion
ROM:3946
ROM:3947
ROM:3947             ; =============== S U B R O U T I N E =======================================
ROM:3947
ROM:3947
ROM:3947             gun_port_explosion:
ROM:3947 16 7D                       ld      d, #0x7D ; '}'
ROM:3949 DD 5D                       ld      e, xl
ROM:394B EB                          ex      de, hl
ROM:394C 34                          inc     (hl)
ROM:394D 7E                          ld      a, (hl)
ROM:394E 4F                          ld      c, a
ROM:394F 0F                          rrca
ROM:3950 0F                          rrca
ROM:3951 E6 07                       and     #7
ROM:3953 D6 05                       sub     #5
ROM:3955 C6 03                       add     a, #3
ROM:3957 DC 8C 39                    call    C, adj_gun_port_for_sprite_size
ROM:395A 79                          ld      a, c
ROM:395B E6 03                       and     #3
ROM:395D C0                          ret     NZ
ROM:395E 79                          ld      a, c
ROM:395F 0F                          rrca
ROM:3960 0F                          rrca
ROM:3961 E6 07                       and     #7
ROM:3963 FE 07                       cp      #7
ROM:3965 28 0F                       jr      Z, gun_port_explosion_finsihed
ROM:3967 EB                          ex      de, hl
ROM:3968 21 7E 39                    ld      hl, #gun_port_explosion_sprite_tbl
ROM:396B CF                          rst     HL_plus_equals_2A
ROM:396C 15                          dec     d
ROM:396D 7E                          ld      a, (hl)
ROM:396E 12                          ld      (de), a
ROM:396F 23                          inc     hl
ROM:3970 1C                          inc     e
ROM:3971 16 79                       ld      d, #0x79 ; 'y'
ROM:3973 7E                          ld      a, (hl)
ROM:3974 12                          ld      (de), a
ROM:3975 C9                          ret
ROM:3976             ; ---------------------------------------------------------------------------
ROM:3976
ROM:3976             gun_port_explosion_finsihed:
ROM:3976 25                          dec     h
ROM:3977 36 00                       ld      (hl), #0
ROM:3979 26 79                       ld      h, #0x79 ; 'y'
ROM:397B 36 04                       ld      (hl), #4
ROM:397D C9                          ret
ROM:397D             ; End of function gun_port_explosion
ROM:397D
ROM:397D             ; ---------------------------------------------------------------------------
ROM:397E 60 00 61 00+gun_port_explosion_sprite_tbl:.db 0x60, 0
ROM:397E 64 03 68 03+                .db 0x61, 0
ROM:397E 6C 03 62 00+                .db 0x64, 3
ROM:397E 63 00                       .db 0x68, 3
ROM:397E                             .db 0x6C, 3
ROM:397E                             .db 0x62, 0
ROM:397E                             .db 0x63, 0
ROM:398C
ROM:398C             ; =============== S U B R O U T I N E =======================================
ROM:398C
ROM:398C
ROM:398C             adj_gun_port_for_sprite_size:
ROM:398C 26 7A                       ld      h, #0x7A ; 'z'
ROM:398E 2C                          inc     l
ROM:398F 35                          dec     (hl)
ROM:3990 24                          inc     h
ROM:3991 34                          inc     (hl)
ROM:3992 2D                          dec     l
ROM:3993 26 7D                       ld      h, #0x7D ; '}'
ROM:3995 C9                          ret
ROM:3995             ; End of function adj_gun_port_for_sprite_size
ROM:3995
ROM:3996             ; ---------------------------------------------------------------------------
ROM:3996
ROM:3996             cycle_andor_gensis_colour:
ROM:3996 3A 01 80                    ld      a, (countup_timer_1)
ROM:3999 0F                          rrca
ROM:399A 0F                          rrca
ROM:399B 0F                          rrca
ROM:399C E6 07                       and     #7
ROM:399E 21 A7 39                    ld      hl, #andor_genesis_colour_tbl
ROM:39A1 D7                          rst     0x10
ROM:39A2 7E                          ld      a, (hl)
ROM:39A3 32 40 80                    ld      (andor_genesis_colour), a
ROM:39A6 C9                          ret
ROM:39A6             ; ---------------------------------------------------------------------------
ROM:39A7 02 03 04 05+andor_genesis_colour_tbl:.db 2, 3, 4, 5, 6, 5, 4, 3
ROM:39AF             ; ---------------------------------------------------------------------------
ROM:39AF
ROM:39AF             handle_41_Andor_Genesis_obj_09:
ROM:39AF 3E 03                       ld      a, #3
ROM:39B1 32 12 79                    ld      (obj_state_tbl+0x12), a
ROM:39B4 32 13 79                    ld      (obj_state_tbl+0x13), a
ROM:39B7 3E 58                       ld      a, #0x58 ; 'X'
ROM:39B9 32 12 7C                    ld      (obj_code_tbl+0x12), a
ROM:39BC 2A 1E 7B                    ld      hl, (obj_y_tbl+0x1E)
ROM:39BF 3E 05                       ld      a, #5
ROM:39C1 84                          add     a, h
ROM:39C2 67                          ld      h, a
ROM:39C3 22 12 7B                    ld      (obj_y_tbl+0x12), hl
ROM:39C6 F7                          rst     save_PC_to_fn_tbl_and_ret
ROM:39C7 2A 1E 7A                    ld      hl, (obj_x_tbl+0x1E)
ROM:39CA 3E FB                       ld      a, #0xFB ; 'û'
ROM:39CC 84                          add     a, h
ROM:39CD 67                          ld      h, a
ROM:39CE 22 12 7A                    ld      (obj_x_tbl+0x12), hl
ROM:39D1 3A 40 80                    ld      a, (andor_genesis_colour)
ROM:39D4 32 13 7C                    ld      (obj_code_tbl+0x13), a
ROM:39D7 3A 1E 79                    ld      a, (obj_state_tbl+0x1E)
ROM:39DA FE 01                       cp      #1
ROM:39DC C0                          ret     NZ
ROM:39DD AF                          xor     a
ROM:39DE 32 12 79                    ld      (obj_state_tbl+0x12), a
ROM:39E1 32 12 7F                    ld      (obj_type_tbl+0x12), a
ROM:39E4 C3 79 30                    jp      add_obj_handler
ROM:39E7             ; ---------------------------------------------------------------------------
ROM:39E7
ROM:39E7             handle_42_Andor_Genesis_obj_08:
ROM:39E7 3E 03                       ld      a, #3
ROM:39E9 32 10 79                    ld      (obj_state_tbl+0x10), a
ROM:39EC 32 11 79                    ld      (obj_state_tbl+0x11), a
ROM:39EF 3E 80                       ld      a, #0x80 ; '€'
ROM:39F1 32 10 7C                    ld      (obj_code_tbl+0x10), a
ROM:39F4 2A 1E 7B                    ld      hl, (obj_y_tbl+0x1E)
ROM:39F7 24                          inc     h
ROM:39F8 22 10 7B                    ld      (obj_y_tbl+0x10), hl
ROM:39FB F7                          rst     save_PC_to_fn_tbl_and_ret
ROM:39FC 2A 1E 7A                    ld      hl, (obj_x_tbl+0x1E)
ROM:39FF 3E FB                       ld      a, #0xFB ; 'û'
ROM:3A01 84                          add     a, h
ROM:3A02 67                          ld      h, a
ROM:3A03 22 10 7A                    ld      (obj_x_tbl+0x10), hl
ROM:3A06 3A 40 80                    ld      a, (andor_genesis_colour)
ROM:3A09 32 11 7C                    ld      (obj_code_tbl+0x11), a
ROM:3A0C 3A 1E 79                    ld      a, (obj_state_tbl+0x1E)
ROM:3A0F FE 01                       cp      #1
ROM:3A11 C0                          ret     NZ
ROM:3A12 AF                          xor     a
ROM:3A13 32 10 79                    ld      (obj_state_tbl+0x10), a
ROM:3A16 32 10 7F                    ld      (obj_type_tbl+0x10), a
ROM:3A19 C3 79 30                    jp      add_obj_handler
ROM:3A1C             ; ---------------------------------------------------------------------------
ROM:3A1C
ROM:3A1C             handle_43_Andor_Genesis_obj_07:
ROM:3A1C 3E 03                       ld      a, #3
ROM:3A1E 32 0E 79                    ld      (obj_state_tbl+0xE), a
ROM:3A21 32 0F 79                    ld      (obj_state_tbl+0xF), a
ROM:3A24 3E 84                       ld      a, #0x84 ; '„'
ROM:3A26 32 0E 7C                    ld      (obj_code_tbl+0xE), a
ROM:3A29 2A 1E 7B                    ld      hl, (obj_y_tbl+0x1E)
ROM:3A2C 3E FD                       ld      a, #0xFD ; 'ý'
ROM:3A2E 84                          add     a, h
ROM:3A2F 67                          ld      h, a
ROM:3A30 22 0E 7B                    ld      (obj_y_tbl+0xE), hl
ROM:3A33 F7                          rst     save_PC_to_fn_tbl_and_ret
ROM:3A34 2A 1E 7A                    ld      hl, (obj_x_tbl+0x1E)
ROM:3A37 3E FB                       ld      a, #0xFB ; 'û'
ROM:3A39 84                          add     a, h
ROM:3A3A 67                          ld      h, a
ROM:3A3B 22 0E 7A                    ld      (obj_x_tbl+0xE), hl
ROM:3A3E 3A 40 80                    ld      a, (andor_genesis_colour)
ROM:3A41 32 0F 7C                    ld      (obj_code_tbl+0xF), a
ROM:3A44 3A 1E 79                    ld      a, (obj_state_tbl+0x1E)
ROM:3A47 FE 01                       cp      #1
ROM:3A49 C0                          ret     NZ
ROM:3A4A AF                          xor     a
ROM:3A4B 32 0E 79                    ld      (obj_state_tbl+0xE), a
ROM:3A4E 32 0E 7F                    ld      (obj_type_tbl+0xE), a
ROM:3A51 C3 79 30                    jp      add_obj_handler
ROM:3A54             ; ---------------------------------------------------------------------------
ROM:3A54
ROM:3A54             handle_44_Andor_Genesis_obj_06:
ROM:3A54 3E 03                       ld      a, #3
ROM:3A56 32 0C 79                    ld      (obj_state_tbl+0xC), a
ROM:3A59 32 0D 79                    ld      (obj_state_tbl+0xD), a
ROM:3A5C 3E 88                       ld      a, #0x88 ; 'ˆ'
ROM:3A5E 32 0C 7C                    ld      (obj_code_tbl+0xC), a
ROM:3A61 2A 1E 7B                    ld      hl, (obj_y_tbl+0x1E)
ROM:3A64 3E 05                       ld      a, #5
ROM:3A66 84                          add     a, h
ROM:3A67 67                          ld      h, a
ROM:3A68 22 0C 7B                    ld      (obj_y_tbl+0xC), hl
ROM:3A6B F7                          rst     save_PC_to_fn_tbl_and_ret
ROM:3A6C 2A 1E 7A                    ld      hl, (obj_x_tbl+0x1E)
ROM:3A6F 25                          dec     h
ROM:3A70 22 0C 7A                    ld      (obj_x_tbl+0xC), hl
ROM:3A73 3A 40 80                    ld      a, (andor_genesis_colour)
ROM:3A76 32 0D 7C                    ld      (obj_code_tbl+0xD), a
ROM:3A79 3A 1E 79                    ld      a, (obj_state_tbl+0x1E)
ROM:3A7C FE 01                       cp      #1
ROM:3A7E C0                          ret     NZ
ROM:3A7F AF                          xor     a
ROM:3A80 32 0C 79                    ld      (obj_state_tbl+0xC), a
ROM:3A83 32 0C 7F                    ld      (obj_type_tbl+0xC), a
ROM:3A86 C3 79 30                    jp      add_obj_handler
ROM:3A89             ; ---------------------------------------------------------------------------
ROM:3A89
ROM:3A89             handle_45_Andor_Genesis_obj_05:
ROM:3A89 3E 03                       ld      a, #3
ROM:3A8B 32 0A 79                    ld      (obj_state_tbl+0xA), a
ROM:3A8E 32 0B 79                    ld      (obj_state_tbl+0xB), a
ROM:3A91 3E 8C                       ld      a, #0x8C ; 'Œ'
ROM:3A93 32 0A 7C                    ld      (obj_code_tbl+0xA), a
ROM:3A96 2A 1E 7B                    ld      hl, (obj_y_tbl+0x1E)
ROM:3A99 24                          inc     h
ROM:3A9A 22 0A 7B                    ld      (obj_y_tbl+0xA), hl
ROM:3A9D F7                          rst     save_PC_to_fn_tbl_and_ret
ROM:3A9E 2A 1E 7A                    ld      hl, (obj_x_tbl+0x1E)
ROM:3AA1 25                          dec     h
ROM:3AA2 22 0A 7A                    ld      (obj_x_tbl+0xA), hl
ROM:3AA5 3A 40 80                    ld      a, (andor_genesis_colour)
ROM:3AA8 32 0B 7C                    ld      (obj_code_tbl+0xB), a
ROM:3AAB 3A 1E 79                    ld      a, (obj_state_tbl+0x1E)
ROM:3AAE FE 01                       cp      #1
ROM:3AB0 C0                          ret     NZ
ROM:3AB1 AF                          xor     a
ROM:3AB2 32 0A 79                    ld      (obj_state_tbl+0xA), a
ROM:3AB5 32 0A 7F                    ld      (obj_type_tbl+0xA), a
ROM:3AB8 C3 79 30                    jp      add_obj_handler
ROM:3ABB             ; ---------------------------------------------------------------------------
ROM:3ABB
ROM:3ABB             handle_46_Andor_Genesis_obj_04:
ROM:3ABB 3E 03                       ld      a, #3
ROM:3ABD 32 08 79                    ld      (obj_state_tbl+8), a
ROM:3AC0 32 09 79                    ld      (obj_state_tbl+9), a
ROM:3AC3 3E 90                       ld      a, #0x90 ; ''
ROM:3AC5 32 08 7C                    ld      (obj_code_tbl+8), a
ROM:3AC8 2A 1E 7B                    ld      hl, (obj_y_tbl+0x1E)
ROM:3ACB 3E FD                       ld      a, #0xFD ; 'ý'
ROM:3ACD 84                          add     a, h
ROM:3ACE 67                          ld      h, a
ROM:3ACF 22 08 7B                    ld      (obj_y_tbl+8), hl
ROM:3AD2 F7                          rst     save_PC_to_fn_tbl_and_ret
ROM:3AD3 2A 1E 7A                    ld      hl, (obj_x_tbl+0x1E)
ROM:3AD6 25                          dec     h
ROM:3AD7 22 08 7A                    ld      (obj_x_tbl+8), hl
ROM:3ADA 3A 40 80                    ld      a, (andor_genesis_colour)
ROM:3ADD 32 09 7C                    ld      (obj_code_tbl+9), a
ROM:3AE0 3A 1E 79                    ld      a, (obj_state_tbl+0x1E)
ROM:3AE3 FE 01                       cp      #1
ROM:3AE5 C0                          ret     NZ
ROM:3AE6 AF                          xor     a
ROM:3AE7 32 08 79                    ld      (obj_state_tbl+8), a
ROM:3AEA 32 08 7F                    ld      (obj_type_tbl+8), a
ROM:3AED C3 79 30                    jp      add_obj_handler
ROM:3AF0             ; ---------------------------------------------------------------------------
ROM:3AF0
ROM:3AF0             handle_47_Andor_Genesis_obj_03:
ROM:3AF0 3E 03                       ld      a, #3
ROM:3AF2 32 06 79                    ld      (obj_state_tbl+6), a
ROM:3AF5 32 07 79                    ld      (obj_state_tbl+7), a
ROM:3AF8 3E 94                       ld      a, #0x94 ; '”'
ROM:3AFA 32 06 7C                    ld      (obj_code_tbl+6), a
ROM:3AFD 2A 1E 7B                    ld      hl, (obj_y_tbl+0x1E)
ROM:3B00 3E 05                       ld      a, #5
ROM:3B02 84                          add     a, h
ROM:3B03 67                          ld      h, a
ROM:3B04 22 06 7B                    ld      (obj_y_tbl+6), hl
ROM:3B07 F7                          rst     save_PC_to_fn_tbl_and_ret
ROM:3B08 2A 1E 7A                    ld      hl, (obj_x_tbl+0x1E)
ROM:3B0B 3E 03                       ld      a, #3
ROM:3B0D 84                          add     a, h
ROM:3B0E 67                          ld      h, a
ROM:3B0F 22 06 7A                    ld      (obj_x_tbl+6), hl
ROM:3B12 3A 40 80                    ld      a, (andor_genesis_colour)
ROM:3B15 32 07 7C                    ld      (obj_code_tbl+7), a
ROM:3B18 3A 1E 79                    ld      a, (obj_state_tbl+0x1E)
ROM:3B1B FE 01                       cp      #1
ROM:3B1D C0                          ret     NZ
ROM:3B1E AF                          xor     a
ROM:3B1F 32 06 79                    ld      (obj_state_tbl+6), a
ROM:3B22 32 06 7F                    ld      (obj_type_tbl+6), a
ROM:3B25 C3 79 30                    jp      add_obj_handler
ROM:3B28             ; ---------------------------------------------------------------------------
ROM:3B28
ROM:3B28             handle_48_Andor_Genesis_obj_02:
ROM:3B28 3E 03                       ld      a, #3
ROM:3B2A 32 04 79                    ld      (obj_state_tbl+4), a
ROM:3B2D 32 05 79                    ld      (obj_state_tbl+5), a
ROM:3B30 3E 98                       ld      a, #0x98 ; '˜'
ROM:3B32 32 04 7C                    ld      (obj_code_tbl+4), a
ROM:3B35 2A 1E 7B                    ld      hl, (obj_y_tbl+0x1E)
ROM:3B38 24                          inc     h
ROM:3B39 22 04 7B                    ld      (obj_y_tbl+4), hl
ROM:3B3C F7                          rst     save_PC_to_fn_tbl_and_ret
ROM:3B3D 2A 1E 7A                    ld      hl, (obj_x_tbl+0x1E)
ROM:3B40 3E 03                       ld      a, #3
ROM:3B42 84                          add     a, h
ROM:3B43 67                          ld      h, a
ROM:3B44 22 04 7A                    ld      (obj_x_tbl+4), hl
ROM:3B47 3A 40 80                    ld      a, (andor_genesis_colour)
ROM:3B4A 32 05 7C                    ld      (obj_code_tbl+5), a
ROM:3B4D 3A 1E 79                    ld      a, (obj_state_tbl+0x1E)
ROM:3B50 FE 01                       cp      #1
ROM:3B52 C0                          ret     NZ
ROM:3B53 AF                          xor     a
ROM:3B54 32 04 79                    ld      (obj_state_tbl+4), a
ROM:3B57 32 04 7F                    ld      (obj_type_tbl+4), a
ROM:3B5A C3 79 30                    jp      add_obj_handler
ROM:3B5D             ; ---------------------------------------------------------------------------
ROM:3B5D
ROM:3B5D             handle_49_Andor_Genesis_obj_01:
ROM:3B5D 3E 03                       ld      a, #3
ROM:3B5F 32 02 79                    ld      (obj_state_tbl+2), a
ROM:3B62 32 03 79                    ld      (obj_state_tbl+3), a
ROM:3B65 3E 9C                       ld      a, #0x9C ; 'œ'
ROM:3B67 32 02 7C                    ld      (obj_code_tbl+2), a
ROM:3B6A 2A 1E 7B                    ld      hl, (obj_y_tbl+0x1E)
ROM:3B6D 3E FD                       ld      a, #0xFD ; 'ý'
ROM:3B6F 84                          add     a, h
ROM:3B70 67                          ld      h, a
ROM:3B71 22 02 7B                    ld      (obj_y_tbl+2), hl
ROM:3B74 F7                          rst     save_PC_to_fn_tbl_and_ret
ROM:3B75 2A 1E 7A                    ld      hl, (obj_x_tbl+0x1E)
ROM:3B78 3E 03                       ld      a, #3
ROM:3B7A 84                          add     a, h
ROM:3B7B 67                          ld      h, a
ROM:3B7C 22 02 7A                    ld      (obj_x_tbl+2), hl
ROM:3B7F 3A 40 80                    ld      a, (andor_genesis_colour)
ROM:3B82 32 03 7C                    ld      (obj_code_tbl+3), a
ROM:3B85 3A 1E 79                    ld      a, (obj_state_tbl+0x1E)
ROM:3B88 FE 01                       cp      #1
ROM:3B8A C0                          ret     NZ
ROM:3B8B AF                          xor     a
ROM:3B8C 32 02 79                    ld      (obj_state_tbl+2), a
ROM:3B8F 32 02 7F                    ld      (obj_type_tbl+2), a
ROM:3B92 C3 79 30                    jp      add_obj_handler
ROM:3B95             ; ---------------------------------------------------------------------------
ROM:3B95
ROM:3B95             handle_53_Easter_Egg:
ROM:3B95 3A 28 80                    ld      a, (attract_mode_stage)
ROM:3B98 A7                          and     a
ROM:3B99 20 6E                       jr      NZ, remove_easter_egg
ROM:3B9B 16 79                       ld      d, #0x79 ; 'y'
ROM:3B9D DD 5D                       ld      e, xl
ROM:3B9F EB                          ex      de, hl
ROM:3BA0 36 02                       ld      (hl), #2
ROM:3BA2 2C                          inc     l
ROM:3BA3 36 00                       ld      (hl), #0
ROM:3BA5 26 7C                       ld      h, #0x7C ; '|'
ROM:3BA7 2D                          dec     l
ROM:3BA8 36 00                       ld      (hl), #0
ROM:3BAA 11 B3 3B                    ld      de, #loc_3BB3
ROM:3BAD DD 73 00                    ld      0(ix), e
ROM:3BB0 DD 72 01                    ld      1(ix), d
ROM:3BB3
ROM:3BB3             loc_3BB3:
ROM:3BB3 16 79                       ld      d, #0x79 ; 'y'
ROM:3BB5 DD 5D                       ld      e, xl
ROM:3BB7 1A                          ld      a, (de)
ROM:3BB8 FE 03                       cp      #3
ROM:3BBA 28 08                       jr      Z, display_easter_egg                   ; *** DIFFERENT CALL
ROM:3BBC 16 7A                       ld      d, #0x7A ; 'z'
ROM:3BBE CD E8 30                    call    scroll_sprite_X
ROM:3BC1 C3 79 30                    jp      add_obj_handler
ROM:3BC4             ; ---------------------------------------------------------------------------
ROM:3BC4             ; *** THIS IS A DIFFERNT FN
ROM:3BC4
ROM:3BC4             display_easter_egg:
ROM:3BC4 16 7D                       ld      d, #0x7D ; '}'
ROM:3BC6 3E 80                       ld      a, #0x80 ; '€'
ROM:3BC8 12                          ld      (de), a
ROM:3BC9 C5                          push    bc
ROM:3BCA 11 15 3C                    ld      de, #str_SPECIALTHANKSFORYOU
ROM:3BCD 21 21 19                    ld      hl, #0x1921
ROM:3BD0 06 16                       ld      b, #22
ROM:3BD2 0E C0                       ld      c, #0xC0 ; 'À'
ROM:3BD4 CD FC 13                    call    display_string
ROM:3BD7 11 2B 3C                    ld      de, #str_BYGAMEDESIGNEREVEZOO
ROM:3BDA 21 22 17                    ld      hl, #0x1722
ROM:3BDD 06 17                       ld      b, #0x17
ROM:3BDF CD FC 13                    call    display_string
ROM:3BE2 11 EC 3B                    ld      de, #loc_3BEC
ROM:3BE5 DD 73 00                    ld      0(ix), e
ROM:3BE8 DD 72 01                    ld      1(ix), d
ROM:3BEB C1                          pop     bc
ROM:3BEC
ROM:3BEC             loc_3BEC:
ROM:3BEC 16 7D                       ld      d, #0x7D ; '}'
ROM:3BEE DD 5D                       ld      e, xl
ROM:3BF0 EB                          ex      de, hl
ROM:3BF1 35                          dec     (hl)
ROM:3BF2 C0                          ret     NZ
ROM:3BF3 C5                          push    bc
ROM:3BF3             ; wipe_easter_egg
ROM:3BF4 21 21 19                    ld      hl, #0x1921
ROM:3BF7 06 16                       ld      b, #0x16
ROM:3BF9 0E C0                       ld      c, #0xC0 ; 'À'
ROM:3BFB 3E 24                       ld      a, #0x24 ; '$'
ROM:3BFD CD 3A 14                    call    display_char_B_times
ROM:3C00 21 22 17                    ld      hl, #0x1722
ROM:3C03 06 17                       ld      b, #0x17
ROM:3C05 CD 3A 14                    call    display_char_B_times
ROM:3C08 C1                          pop     bc
ROM:3C09
ROM:3C09             remove_easter_egg:
ROM:3C09 16 79                       ld      d, #0x79 ; 'y'
ROM:3C0B DD 5D                       ld      e, xl
ROM:3C0D AF                          xor     a
ROM:3C0E 12                          ld      (de), a
ROM:3C0F 16 7F                       ld      d, #0x7F ; ''
ROM:3C11 12                          ld      (de), a
ROM:3C12 C3 79 30                    jp      add_obj_handler
ROM:3C12             ; ---------------------------------------------------------------------------
ROM:3C15 1C 45 3A 38+str_SPECIALTHANKSFORYOU:.db 0x1C, 0x45, 0x3A, 0x38, 0x3E, 0x36, 0x41, 0x24, 0x49 ; "Special thanks for you"
ROM:3C15 3E 36 41 24+                .db 0x3D, 0x36, 0x43, 0x40, 0x48, 0x24, 0x3B, 0x44
ROM:3C26 47 24 4E 44+byte_3C26:      .db 0x47, 0x24, 0x4E, 0x44, 0x4A
ROM:3C2B 37 4E 24 3C+str_BYGAMEDESIGNEREVEZOO:.db 0x37, 0x4E, 0x24, 0x3C, 0x36, 0x42, 0x3A, 0x24, 0x39 ; "by game designer EVEZOO"
ROM:3C2B 36 42 3A 24+                .db 0x3A, 0x48, 0x3E, 0x3C, 0x43, 0x3A, 0x47, 0x24, 0xE
ROM:3C2B 39 3A 48 3E+                .db 0x1F, 0xE, 0x23, 0x18, 0x18
ROM:3C42             ; ---------------------------------------------------------------------------
ROM:3C42
ROM:3C42             main_fn_7__protection_check:
ROM:3C42 21 A4 3C                    ld      hl, #0x3CA4
ROM:3C45 01 01 64                    ld      bc, #0x6401
ROM:3C48 CD 12 01                    call    do_06xx_xfer
ROM:3C4B F7                          rst     save_PC_to_fn_tbl_and_ret
ROM:3C4C 21 A5 3C                    ld      hl, #0x3CA5
ROM:3C4F 01 01 64                    ld      bc, #0x6401
ROM:3C52 CD 12 01                    call    do_06xx_xfer
ROM:3C55 F7                          rst     save_PC_to_fn_tbl_and_ret
ROM:3C56 21 60 80                    ld      hl, #0x8060
ROM:3C59
ROM:3C59             loc_3C59:
ROM:3C59 01 04 74                    ld      bc, #0x7404
ROM:3C5C CD E7 00                    call    do_06xx_xfer_ex_de_hl
ROM:3C5F F7                          rst     save_PC_to_fn_tbl_and_ret
ROM:3C60 3A 63 80                    ld      a, (byte_8063)
ROM:3C63 FE 05                       cp      #5
ROM:3C65 C2 00 00                    jp      NZ, RESET
ROM:3C68 F7                          rst     save_PC_to_fn_tbl_and_ret
ROM:3C69 21 A6 3C                    ld      hl, #0x3CA6
ROM:3C6C 01 01 64                    ld      bc, #0x6401
ROM:3C6F CD 12 01                    call    do_06xx_xfer
ROM:3C72 F7                          rst     save_PC_to_fn_tbl_and_ret
ROM:3C73 21 60 80                    ld      hl, #0x8060
ROM:3C76 01 04 74                    ld      bc, #0x7404
ROM:3C79 CD E7 00                    call    do_06xx_xfer_ex_de_hl
ROM:3C7C F7                          rst     save_PC_to_fn_tbl_and_ret
ROM:3C7D 3A 63 80                    ld      a, (byte_8063)
ROM:3C80 FE 95                       cp      #0x95 ; '•'
ROM:3C82 C2 00 00                    jp      NZ, RESET
ROM:3C85 F7                          rst     save_PC_to_fn_tbl_and_ret
ROM:3C86 C9                          ret
ROM:3C87             ; ---------------------------------------------------------------------------
ROM:3C87
ROM:3C87             main_fn_8__check_fn_7_code:
ROM:3C87 21 42 3C                    ld      hl, #main_fn_7__protection_check
ROM:3C8A 11 9A 3C                    ld      de, #main_fn_7_copy
ROM:3C8D 06 0A                       ld      b, #0xA
ROM:3C8F
ROM:3C8F             loc_3C8F:
ROM:3C8F 1A                          ld      a, (de)
ROM:3C90 BE                          cp      (hl)
ROM:3C91 C2 00 00                    jp      NZ, RESET
ROM:3C94 23                          inc     hl
ROM:3C95 13                          inc     de
ROM:3C96 10 F7                       djnz    loc_3C8F
ROM:3C98 F7                          rst     save_PC_to_fn_tbl_and_ret
ROM:3C99 C9                          ret
ROM:3C9A             ; ---------------------------------------------------------------------------
ROM:3C9A
ROM:3C9A             main_fn_7_copy:
ROM:3C9A 21 A4 3C                    ld      hl, #loc_3CA4
ROM:3C9D 01 01 64                    ld      bc, #0x6401
ROM:3CA0 CD 12 01                    call    do_06xx_xfer
ROM:3CA3 F7                          rst     save_PC_to_fn_tbl_and_ret
ROM:3CA4
ROM:3CA4             loc_3CA4:
ROM:3CA4 10 80                       djnz    byte_3C26
ROM:3CA6 E5                          push    hl
ROM:3CA6             ; ---------------------------------------------------------------------------
ROM:3CA7 00 0A 0A 0A+flying_enemy_type_tbl:.db 0, 0xA, 0xA, 0xA, 0xA, 0xB, 0xB, 0xB
ROM:3CA7 0A 0B 0B 0B+                .db 0xB, 0xB, 0xB, 0x56, 0x56, 0x56, 0x56, 0x56
ROM:3CA7 0B 0B 0B 56+                .db 0x56, 0x55, 0x55, 0x55, 0x55, 0x55, 0x55, 0xF
ROM:3CA7 56 56 56 56+                .db 0xF, 0xF, 0xF, 0xF, 0xF, 0xC, 0xC, 0xC
ROM:3CA7 56 55 55 55+                .db 0xC, 0xC, 0xC, 0xD, 0xD, 0xD, 0xD, 0xD
ROM:3CA7 55 55 55 0F+                .db 0xD, 0xE, 0xE, 0xE, 0xE, 8, 8, 8
ROM:3CA7 0F 0F 0F 0F+                .db 8, 8, 8, 0x11, 0x11, 0x11, 0x11, 0x11
ROM:3CA7 0F 0C 0C 0C+                .db 0x11, 0x16, 0x16, 0x16, 0x17, 0x17, 0x17, 0x17
ROM:3CA7 0C 0C 0C 0D+                .db 0x12, 0x12, 0x12, 0x12, 0x12, 0x13, 0x13, 0x13
ROM:3CA7 0D 0D 0D 0D+                .db 0x13, 0x14, 0x14, 0x14, 0x15, 0x15, 0x15, 0x15
ROM:3CA7 0D 0E 0E 0E+                .db 0x15, 0x15, 0x55, 0x55, 0x55, 0x55, 0xD, 0xD
ROM:3CA7 0E 08 08 08+                .db 8, 8, 8, 8, 0x13, 0x13, 0x15, 0x15
ROM:3CA7 08 08 08 11+                .db 0x15, 0x15, 0x10, 0x10, 0x10, 0x10, 0x10, 0x10
ROM:3CA7 11 11 11 11+                .db 0x55, 0x55, 0x55, 0x55, 0x11, 0x11, 0x11, 0x11
ROM:3CA7 11 16 16 16+                .db 0x15, 0x15, 0xE, 0xE, 0x16, 0x11, 0x11, 0x11
ROM:3CA7 17 17 17 17+                .db 0x11, 0x11, 0x58, 0x58, 0x58, 0x58, 0x58, 0x58
ROM:3D27 23 2B       obj_handler_tbl:.dw handle_01_Bacura
ROM:3D29 00 00                       .dw 0
ROM:3D2B 00 00                       .dw 0
ROM:3D2D 00 00                       .dw 0
ROM:3D2F 00 00                       .dw 0
ROM:3D31 6D 2B                       .dw handle_06_Bullet
ROM:3D33 79 2B                       .dw handle_07_Garu_Zakato_Bullet
ROM:3D35 0D 34                       .dw handle_08_Giddo_Spario
ROM:3D37 18 1E                       .dw handle_09_Brag_Spario
ROM:3D39 00 20                       .dw handle_0A_Toroid
ROM:3D3B 18 20                       .dw handle_0B_Toroid_shoots
ROM:3D3D 36 22                       .dw handle_0C_Zoshi_rnd
ROM:3D3F C4 21                       .dw handle_0D_Zoshi_top
ROM:3D41 B1 21                       .dw handle_0E_Zoshi_bottom
ROM:3D43 E7 20                       .dw handle_0F_Torkan
ROM:3D45 A8 23                       .dw handle_10_Kapi
ROM:3D47 87 24                       .dw handle_11_Terrazi
ROM:3D49 67 25                       .dw handle_12_Zakato_slow
ROM:3D4B D7 25                       .dw handle_13_Zakato_closeY
ROM:3D4D 2E 26                       .dw handle_14_Zakato_fast
ROM:3D4F 84 26                       .dw handle_15_Zakato
ROM:3D51 DF 26                       .dw handle_16_Brag_Zakato_rnd
ROM:3D53 36 27                       .dw handle_17_Brag_Zakato_closeY
ROM:3D55 4C 28                       .dw handle_18_Garu_Zakato
ROM:3D57 65 1A                       .dw handle_19_Logram_unused
ROM:3D59 38 1B                       .dw handle_1A_Derota_unused
ROM:3D5B 20 1B                       .dw handle_1B_Derota
ROM:3D5D 2C 1B                       .dw handle_1C_Derota_81B0_unused
ROM:3D5F 81 1D                       .dw handle_1D_Sol_Tower
ROM:3D61 80 19                       .dw handle_1E_Barra
ROM:3D63 10 1A                       .dw handle_1F_Zolbak
ROM:3D65 A9 19                       .dw handle_20_Garu_Barra
ROM:3D67 81 1B                       .dw handle_21_Garu_Derota
ROM:3D69 00 00                       .dw 0
ROM:3D6B 00 00                       .dw 0
ROM:3D6D 00 00                       .dw 0
ROM:3D6F 00 00                       .dw 0
ROM:3D71 4D 1A                       .dw handle_26_Logram
ROM:3D73 59 1A                       .dw handle_27_Logram_81B0_unused
ROM:3D75 00 00                       .dw 0
ROM:3D77 00 00                       .dw 0
ROM:3D79 00 00                       .dw 0
ROM:3D7B 00 00                       .dw 0
ROM:3D7D 83 2B                       .dw handle_2C_Grobda_stationary
ROM:3D7F FE 1B                       .dw handle_2D_Boza_Logram
ROM:3D81 D6 2E                       .dw handle_2E_Domogram
ROM:3D83 00 00                       .dw 0
ROM:3D85 00 00                       .dw 0
ROM:3D87 DD 28                       .dw handle_31_right_sheonite
ROM:3D89 2E 2A                       .dw handle_32_left_sheonite
ROM:3D8B 00 00                       .dw 0
ROM:3D8D 00 00                       .dw 0
ROM:3D8F 96 2B                       .dw handle_35_Grobda_fwd
ROM:3D91 A6 2B                       .dw handle_36_Grobda_crosshairs_fwd
ROM:3D93 E4 2B                       .dw handle_37_Grobda_targeted_fwd_unused
ROM:3D95 2E 2C                       .dw handle_38_Grobda_fwd_crosshairs_stop_fwd
ROM:3D97 77 2C                       .dw handle_39_Grobda_targeted_back_stop
ROM:3D99 C4 2C                       .dw handle_3A_Grobda_fwd_crosshairs_darts_fwd
ROM:3D9B 10 2D                       .dw handle_3B_Grobda_fwd_targeted_back_fwd
ROM:3D9D 5C 2D                       .dw handle_3C_Grobda_targeted_fast_fwd
ROM:3D9F A3 2D                       .dw handle_3D_Grobda_stationary_in_water
ROM:3DA1 B7 2D                       .dw handle_3E_Grobda_fwd_in_water
ROM:3DA3 C8 2D                       .dw handle_3F_Grobda_crosshairs_fwd_in_water
ROM:3DA5 F9 2D                       .dw handle_40_Grobda_fwd_targeted_back_fwd_in_water
ROM:3DA7 AF 39                       .dw handle_41_Andor_Genesis_obj_09
ROM:3DA9 E7 39                       .dw handle_42_Andor_Genesis_obj_08
ROM:3DAB 1C 3A                       .dw handle_43_Andor_Genesis_obj_07
ROM:3DAD 54 3A                       .dw handle_44_Andor_Genesis_obj_06
ROM:3DAF 89 3A                       .dw handle_45_Andor_Genesis_obj_05
ROM:3DB1 BB 3A                       .dw handle_46_Andor_Genesis_obj_04
ROM:3DB3 F0 3A                       .dw handle_47_Andor_Genesis_obj_03
ROM:3DB5 28 3B                       .dw handle_48_Andor_Genesis_obj_02
ROM:3DB7 5D 3B                       .dw handle_49_Andor_Genesis_obj_01
ROM:3DB9 74 36                       .dw handle_4A_Andor_Genesis_obj_14
ROM:3DBB D0 35                       .dw handle_4B_Andor_Genesis_obj_15
ROM:3DBD 00 00                       .dw 0
ROM:3DBF 00 00                       .dw 0
ROM:3DC1 00 00                       .dw 0
ROM:3DC3 11 37                       .dw handle_4F_Andor_Genesis_obj_13
ROM:3DC5 9C 37                       .dw handle_50_Andor_Genesis_obj_12
ROM:3DC7 27 38                       .dw handle_51_Andor_Genesis_obj_11
ROM:3DC9 B2 38                       .dw handle_52_Andor_Genesis_obj_10
ROM:3DCB 95 3B                       .dw handle_53_Easter_Egg
ROM:3DCD 7C 1E                       .dw handle_54_Bonus_Flag
ROM:3DCF 06 23                       .dw handle_55_Jara_shoots
ROM:3DD1 AC 22                       .dw handle_56_Jara
ROM:3DD3 00 00                       .dw 0
ROM:3DD5             ; new objects in Super Xevious
ROM:3DD5 81 34                       .dw handle_58_Galaxian
ROM:3DD7 57 35                       .dw handle_59_Jet_Taking_off
ROM:3DD9 19 1F                       .dw handle_5A_Jet                               ; object state table
ROM:3DDB 79 1F                       .dw handle_5B_Helicopter
ROM:3DDD A9 1F                       .dw handle_5C_Tank
ROM:3DDF D5 1F                       .dw handle_5D_Bridge
ROM:3DE1             ; end of new objects
ROM:3DE1 01 00 00 02+object_value_tbl:.db 1, 0, 0
ROM:3DE1 00 00 03 00+                .db 2, 0, 0
ROM:3DE1 00 05 00 00+                .db 3, 0, 0
ROM:3DE1 07 00 00 10+                .db 5, 0, 0
ROM:3DE1 00 00 15 00+                .db 7, 0, 0
ROM:3DE1 00 20 00 00+                .db 0x10, 0, 0
ROM:3DE1 25 00 00 30+                .db 0x15, 0, 0
ROM:3DE1 00 00 40 00+                .db 0x20, 0, 0
ROM:3DE1 00 50 00 00+                .db 0x25, 0, 0
ROM:3DE1 60 00 00 70+                .db 0x30, 0, 0
ROM:3DE1 00 00 80 00+                .db 0x40, 0, 0
ROM:3DE1 00 90 00 00+                .db 0x50, 0, 0
ROM:3DE1 00 01 00 50+                .db 0x60, 0, 0
ROM:3DE1 01 00 00 02+                .db 0x70, 0, 0
ROM:3DE1 00 50 02 00+                .db 0x80, 0, 0
ROM:3DE1 00 04 00                    .db 0x90, 0, 0
ROM:3DE1                             .db 0, 1, 0
ROM:3DE1                             .db 0x50, 1, 0
ROM:3DE1                             .db 0, 2, 0
ROM:3DE1                             .db 0x50, 2, 0
ROM:3DE1                             .db 0, 4, 0
ROM:3E20 00 10 00    pts_10000:      .db 0, 0x10, 0
ROM:3E23 00 40 0C 3F+angle_dX_dY_sheonite_tbl:.db 0, 0x40
ROM:3E23 18 3B 24 35+                .db 0xC, 0x3F
ROM:3E23 2D 2D 35 24+                .db 0x18, 0x3B
ROM:3E23 3B 18 3F 0C+                .db 0x24, 0x35
ROM:3E23 40 00 3F F4+                .db 0x2D, 0x2D
ROM:3E23 3B E8 35 DC+                .db 0x35, 0x24
ROM:3E23 2D D3 24 CB+                .db 0x3B, 0x18
ROM:3E23 18 C5 0C C1+                .db 0x3F, 0xC
ROM:3E23 00 C0 F4 C1+                .db 0x40, 0
ROM:3E23 E8                          .db 0x3F, 0xF4
ROM:3E23                             .db 0x3B, 0xE8
ROM:3E23                             .db 0x35, 0xDC
ROM:3E23                             .db 0x2D, 0xD3
ROM:3E23                             .db 0x24, 0xCB
ROM:3E23                             .db 0x18, 0xC5
ROM:3E23                             .db 0xC, 0xC1
ROM:3E23                             .db 0, 0xC0
ROM:3E23                             .db 0xF4, 0xC1
ROM:3E23                             .db 0xE8
ROM:3E48 C5                          .db 0xC5
ROM:3E49 DC CB D3 D3+                .db 0xDC, 0xCB
ROM:3E49 CB DC C5 E8+                .db 0xD3, 0xD3
ROM:3E49 C1 F4 C0 00+                .db 0xCB, 0xDC
ROM:3E49 C1 0C C5 18+                .db 0xC5, 0xE8
ROM:3E49 CB 24 D3 2D+                .db 0xC1, 0xF4
ROM:3E49 DC 35 E8 3B+                .db 0xC0, 0
ROM:3E49 F4 3F                       .db 0xC1, 0xC
ROM:3E49                             .db 0xC5, 0x18
ROM:3E49                             .db 0xCB, 0x24
ROM:3E49                             .db 0xD3, 0x2D
ROM:3E49                             .db 0xDC, 0x35
ROM:3E49                             .db 0xE8, 0x3B
ROM:3E49                             .db 0xF4, 0x3F
ROM:3E63 00 30 09 2F+angle_dX_dY_terrazi_torkan_tbl:.db 0, 0x30
ROM:3E63 12 2C 1B 28+                .db 9, 0x2F
ROM:3E63 22 22 28 1B+                .db 0x12, 0x2C
ROM:3E63 2C 12 2F 09+                .db 0x1B, 0x28
ROM:3E63 30 00 2F F7+                .db 0x22, 0x22
ROM:3E63 2C EE 28 E5+                .db 0x28, 0x1B
ROM:3E63 22 DE 1B D8+                .db 0x2C, 0x12
ROM:3E63 12 D4 09 D1+                .db 0x2F, 9
ROM:3E63 00 D0 F7 D1+                .db 0x30, 0
ROM:3E63 EE D4 E5 D8+                .db 0x2F, 0xF7
ROM:3E63 DE DE D8 E5+                .db 0x2C, 0xEE
ROM:3E63 D4 EE D1 F7+                .db 0x28, 0xE5
ROM:3E63 D0 00 D1 09+                .db 0x22, 0xDE
ROM:3E63 D4 12 D8 1B+                .db 0x1B, 0xD8
ROM:3E63 DE 22 E5 28+                .db 0x12, 0xD4
ROM:3E63 EE 2C F7 2F                 .db 9, 0xD1
ROM:3E63                             .db 0, 0xD0
ROM:3E63                             .db 0xF7, 0xD1
ROM:3E63                             .db 0xEE, 0xD4
ROM:3E63                             .db 0xE5, 0xD8
ROM:3E63                             .db 0xDE, 0xDE
ROM:3E63                             .db 0xD8, 0xE5
ROM:3E63                             .db 0xD4, 0xEE
ROM:3E63                             .db 0xD1, 0xF7
ROM:3E63                             .db 0xD0, 0
ROM:3E63                             .db 0xD1, 9
ROM:3E63                             .db 0xD4, 0x12
ROM:3E63                             .db 0xD8, 0x1B
ROM:3E63                             .db 0xDE, 0x22
ROM:3E63                             .db 0xE5, 0x28
ROM:3E63                             .db 0xEE, 0x2C
ROM:3E63                             .db 0xF7, 0x2F
ROM:3EA3 00 20 06 1F+angle_dX_dY_tbl:.db 0, 0x20
ROM:3EA3 0C 1E 11 1B+                .db 6, 0x1F
ROM:3EA3 17 17 1B 11+                .db 0xC, 0x1E
ROM:3EA3 1E 0C 1F 06+                .db 0x11, 0x1B
ROM:3EA3 20 00 1F FA+                .db 0x17, 0x17
ROM:3EA3 1E F4 1B EF+                .db 0x1B, 0x11
ROM:3EA3 17 E9 11 E5+                .db 0x1E, 0xC
ROM:3EA3 0C E2 06 E1+                .db 0x1F, 6
ROM:3EA3 00 E0 FA E1+                .db 0x20, 0
ROM:3EA3 F4 E2 EF E5+                .db 0x1F, 0xFA
ROM:3EA3 E9 E9 E5 EF+                .db 0x1E, 0xF4
ROM:3EA3 E2 F4 E1 FA+                .db 0x1B, 0xEF
ROM:3EA3 E0 00 E1 06+                .db 0x17, 0xE9
ROM:3EA3 E2 0C E5 11+                .db 0x11, 0xE5
ROM:3EA3 E9 17 EF 1B+                .db 0xC, 0xE2
ROM:3EA3 F4 1E FA 1F                 .db 6, 0xE1
ROM:3EA3                             .db 0, 0xE0
ROM:3EA3                             .db 0xFA, 0xE1
ROM:3EA3                             .db 0xF4, 0xE2
ROM:3EA3                             .db 0xEF, 0xE5
ROM:3EA3                             .db 0xE9, 0xE9
ROM:3EA3                             .db 0xE5, 0xEF
ROM:3EA3                             .db 0xE2, 0xF4
ROM:3EA3                             .db 0xE1, 0xFA
ROM:3EA3                             .db 0xE0, 0
ROM:3EA3                             .db 0xE1, 6
ROM:3EA3                             .db 0xE2, 0xC
ROM:3EA3                             .db 0xE5, 0x11
ROM:3EA3                             .db 0xE9, 0x17
ROM:3EA3                             .db 0xEF, 0x1B
ROM:3EA3                             .db 0xF4, 0x1E
ROM:3EA3                             .db 0xFA, 0x1F
ROM:3EE3 00 18 05 18+angle_dX_dY_toroid_tbl:.db 0, 0x18
ROM:3EE3 09 16 0D 14+                .db 5, 0x18
ROM:3EE3 11 11 14 0D+                .db 9, 0x16
ROM:3EE3 16 09 18 05+                .db 0xD, 0x14
ROM:3EE3 18 00 18 FB+                .db 0x11, 0x11
ROM:3EE3 16 F7 14 F3+                .db 0x14, 0xD
ROM:3EE3 11 EF 0D EC+                .db 0x16, 9
ROM:3EE3 09 EA 05 E8+                .db 0x18, 5
ROM:3EE3 00 E8 FB E8+                .db 0x18, 0
ROM:3EE3 F7 EA F3 EC+                .db 0x18, 0xFB
ROM:3EE3 EF EF EC F3+                .db 0x16, 0xF7
ROM:3EE3 EA F7 E8 FB+                .db 0x14, 0xF3
ROM:3EE3 E8 00 E8 05+                .db 0x11, 0xEF
ROM:3EE3 EA 09 EC 0D+                .db 0xD, 0xEC
ROM:3EE3 EF 11 F3 14+                .db 9, 0xEA
ROM:3EE3 F7 16 FB 18+                .db 5, 0xE8
ROM:3EE3 00 10 03 10+                .db 0, 0xE8
ROM:3EE3 06 0F 09 0D+                .db 0xFB, 0xE8
ROM:3EE3 0B 0B 0D 09+                .db 0xF7, 0xEA
ROM:3EE3 0F 06 10 03+                .db 0xF3, 0xEC
ROM:3EE3 10 00 10 FD+                .db 0xEF, 0xEF
ROM:3EE3 0F FA 0D F7+                .db 0xEC, 0xF3
ROM:3EE3 0B F5 09 F3+                .db 0xEA, 0xF7
ROM:3EE3 06 F1 03 F0+                .db 0xE8, 0xFB
ROM:3EE3 00 F0 FD F0+                .db 0xE8, 0
ROM:3EE3 FA F1 F7 F3+                .db 0xE8, 5
ROM:3EE3 F5 F5 F3 F7+                .db 0xEA, 9
ROM:3EE3 F1 FA F0 FD+                .db 0xEC, 0xD
ROM:3EE3 F0 00 F0 03+                .db 0xEF, 0x11
ROM:3EE3 F1 06 F3 09+                .db 0xF3, 0x14
ROM:3EE3 F5 0B F7 0D+                .db 0xF7, 0x16
ROM:3EE3 FA 0F FD 10                 .db 0xFB, 0x18
ROM:3EE3                             .db 0, 0x10
ROM:3EE3                             .db 3, 0x10
ROM:3EE3                             .db 6, 0xF
ROM:3EE3                             .db 9, 0xD
ROM:3EE3                             .db 0xB, 0xB
ROM:3EE3                             .db 0xD, 9
ROM:3EE3                             .db 0xF, 6
ROM:3EE3                             .db 0x10, 3
ROM:3EE3                             .db 0x10, 0
ROM:3EE3                             .db 0x10, 0xFD
ROM:3EE3                             .db 0xF, 0xFA
ROM:3EE3                             .db 0xD, 0xF7
ROM:3EE3                             .db 0xB, 0xF5
ROM:3EE3                             .db 9, 0xF3
ROM:3EE3                             .db 6, 0xF1
ROM:3EE3                             .db 3, 0xF0
ROM:3EE3                             .db 0, 0xF0
ROM:3EE3                             .db 0xFD, 0xF0
ROM:3EE3                             .db 0xFA, 0xF1
ROM:3EE3                             .db 0xF7, 0xF3
ROM:3EE3                             .db 0xF5, 0xF5
ROM:3EE3                             .db 0xF3, 0xF7
ROM:3EE3                             .db 0xF1, 0xFA
ROM:3EE3                             .db 0xF0, 0xFD
ROM:3EE3                             .db 0xF0, 0
ROM:3EE3                             .db 0xF0, 3
ROM:3EE3                             .db 0xF1, 6
ROM:3EE3                             .db 0xF3, 9
ROM:3EE3                             .db 0xF5, 0xB
ROM:3EE3                             .db 0xF7, 0xD
ROM:3EE3                             .db 0xFA, 0xF
ROM:3EE3                             .db 0xFD, 0x10
ROM:3F63 24 00 54 0E+area_offset_in_map_tbl:.db 0x24, 0, 0x54, 0xE, 0x40, 0x1A, 0x64, 4, 0x2A, 0x5C
ROM:3F63 40 1A 64 04+                .db 0xE, 4, 0x38, 0x54, 0x1A, 0
ROM:3F73 11 12 10 11+strHIGH_SCORE:  .db 0x11, 0x12, 0x10, 0x11, 0x24, 0x1C, 0xC, 0x18, 0x1B
ROM:3F73 24 1C 0C 18+                .db 0xE
ROM:3F7D 2D 2E 16 0C+strCOPYRIGHTII: .db 0x2D, 0x2E, 0x16, 0xC, 0x16, 0x15, 0x21, 0x21, 0x21 ; "(C)MCMLXXXII NAMCO"
ROM:3F7D 16 15 21 21+                .db 0x12, 0x12, 0x24, 0x17, 0xA, 0x16, 0xC, 0x18
ROM:3F8E 2D 2E 16 0C+strCOPYRIGHTIV: .db 0x2D, 0x2E, 0x16, 0xC, 0x16, 0x15, 0x21, 0x21, 0x21 ; "(C)MCMLXXXIV NAMCO"
ROM:3F8E 16 15 21 21+                .db 0x12, 0x1F, 0x24, 0x17, 0xA, 0x16, 0xC, 0x18
ROM:3F9F 0A 15 15 24+strALLRIGHTSRESERVED:.db 0xA, 0x15, 0x15, 0x24, 0x1B, 0x12, 0x10, 0x11, 0x1D ; "ALL RIGHTS RESERVED"
ROM:3F9F 1B 12 10 11+                .db 0x1C, 0x24, 0x1B, 0xE, 0x1C, 0xE, 0x1B, 0x1F, 0xE
ROM:3F9F 1D 1C 24 1B+                .db 0xD
ROM:3FB2 2D 2E 28 24+                .db 0x2D, 0x2E, 0x28, 0x24, 1, 9, 8, 2, 0x24, 0x17, 0xA
ROM:3FB2 01 09 08 02+                .db 0x16, 0xC, 0x18, 0x24, 0x15, 0x1D, 0xD, 0x50
ROM:3FC5 2F 30 31 32+strNAMCO:       .db 0x2F, 0x30, 0x31, 0x32, 0x33, 0x34, 0x35    ; "NAMCO" (logo)
ROM:3FCC FF FF FF FF+                .db 0xFF, 0xFF, 0xFF, 0xFF, 0xFF, 0xFF, 0xFF, 0xFF, 0xFF
ROM:3FCC FF FF FF FF+                .db 0xFF, 0xFF, 0xFF, 0xFF, 0xFF, 0xFF, 0xFF, 0xFF, 0xFF
ROM:3FCC FF FF FF FF+                .db 0xFF, 0xFF, 0xFF, 0xFF, 0xFF, 0xFF, 0xFF, 0xFF, 0xFF
ROM:3FCC FF FF FF FF+                .db 0xFF, 0xFF, 0xFF, 0xFF, 0xFF, 0xFF, 0xFF, 0xFF, 0xFF
ROM:3FCC FF FF FF FF+                .db 0xFF, 0xFF, 0xFF, 0xFF, 0xFF, 0xFF, 0xFF, 0xFF, 0xFF
ROM:3FCC FF FF FF FF+                .db 0xFF, 0xFF, 0xFF, 0xFF, 0xFF, 0xFF, 0x99
ROM:3FCC FF FF FF FF+; end of 'ROM'
ROM:3FCC FF FF FF FF+
bosco_dsw_r_pacman_sound_w:6800             ; ===========================================================================
bosco_dsw_r_pacman_sound_w:6800
bosco_dsw_r_pacman_sound_w:6800             ; Segment type: Regular
bosco_dsw_r_pacman_sound_w:6800                             .org 0x6800
bosco_dsw_r_pacman_sound_w:6800 ??          dsw_r__sound_w: .ds 1
bosco_dsw_r_pacman_sound_w:6801 ??                          .ds 1
bosco_dsw_r_pacman_sound_w:6802 ??                          .ds 1
bosco_dsw_r_pacman_sound_w:6803 ??                          .ds 1
bosco_dsw_r_pacman_sound_w:6804 ??                          .ds 1
bosco_dsw_r_pacman_sound_w:6805 ??                          .ds 1
bosco_dsw_r_pacman_sound_w:6806 ??                          .ds 1
bosco_dsw_r_pacman_sound_w:6807 ??                          .ds 1
bosco_dsw_r_pacman_sound_w:6808 ??                          .ds 1
bosco_dsw_r_pacman_sound_w:6809 ??                          .ds 1
bosco_dsw_r_pacman_sound_w:680A ??                          .ds 1
bosco_dsw_r_pacman_sound_w:680B ??                          .ds 1
bosco_dsw_r_pacman_sound_w:680C ??                          .ds 1
bosco_dsw_r_pacman_sound_w:680D ??                          .ds 1
bosco_dsw_r_pacman_sound_w:680E ??                          .ds 1
bosco_dsw_r_pacman_sound_w:680F ??                          .ds 1
bosco_dsw_r_pacman_sound_w:6810 ??                          .ds 1
bosco_dsw_r_pacman_sound_w:6811 ??                          .ds 1
bosco_dsw_r_pacman_sound_w:6812 ??                          .ds 1
bosco_dsw_r_pacman_sound_w:6813 ??                          .ds 1
bosco_dsw_r_pacman_sound_w:6814 ??                          .ds 1
bosco_dsw_r_pacman_sound_w:6815 ??                          .ds 1
bosco_dsw_r_pacman_sound_w:6816 ??                          .ds 1
bosco_dsw_r_pacman_sound_w:6817 ??                          .ds 1
bosco_dsw_r_pacman_sound_w:6818 ??                          .ds 1
bosco_dsw_r_pacman_sound_w:6819 ??                          .ds 1
bosco_dsw_r_pacman_sound_w:681A ??                          .ds 1
bosco_dsw_r_pacman_sound_w:681B ??                          .ds 1
bosco_dsw_r_pacman_sound_w:681C ??                          .ds 1
bosco_dsw_r_pacman_sound_w:681D ??                          .ds 1
bosco_dsw_r_pacman_sound_w:681E ??                          .ds 1
bosco_dsw_r_pacman_sound_w:681F ??                          .ds 1
bosco_dsw_r_pacman_sound_w:681F             ; end of 'bosco_dsw_r_pacman_sound_w'
bosco_dsw_r_pacman_sound_w:681F
misclatch:6820             ; ===========================================================================
misclatch:6820
misclatch:6820             ; Segment type: Regular
misclatch:6820                             .org 0x6820
misclatch:6820 ??          main_irq_ena_ack:.ds 1
misclatch:6821 ??          _sub_irq_ena_ack:.ds 1
misclatch:6822 ??          _sub2_nmi_ena:  .ds 1
misclatch:6823 ??          _sub_sub2_reset:.ds 1
misclatch:6824 ??                          .ds 1
misclatch:6825 ??                          .ds 1
misclatch:6826 ??                          .ds 1
misclatch:6827 ??                          .ds 1
misclatch:6827             ; end of 'misclatch'
misclatch:6827
watchdog:6830             ; ===========================================================================
watchdog:6830
watchdog:6830             ; Segment type: Regular
watchdog:6830                             .org 0x6830
watchdog:6830 ??          watchdog:       .ds 1
watchdog:6830             ; end of 'watchdog'
watchdog:6830
namco_06xx_data_w:7000             ; ===========================================================================
namco_06xx_data_w:7000
namco_06xx_data_w:7000             ; Segment type: Regular
namco_06xx_data_w:7000                             .org 0x7000
namco_06xx_data_w:7000 ?? ?? ?? ??+_06xx_data_w:   .ds 0x100
namco_06xx_data_w:7000 ?? ?? ?? ??+; end of 'namco_06xx_data_w'
namco_06xx_data_w:7000 ?? ?? ?? ??+
namco_06xx_ctrl_w:7100             ; ===========================================================================
namco_06xx_ctrl_w:7100
namco_06xx_ctrl_w:7100             ; Segment type: Regular
namco_06xx_ctrl_w:7100                             .org 0x7100
namco_06xx_ctrl_w:7100 ??          _06xx_ctrl_w:   .ds 1
namco_06xx_ctrl_w:7100             ; end of 'namco_06xx_ctrl_w'
namco_06xx_ctrl_w:7100
share1:7800             ; ===========================================================================
share1:7800
share1:7800             ; Segment type: Regular
share1:7800                             .org 0x7800
share1:7800 ?? ?? ?? ??+main_2_fn_tbl_1:.ds 0x40
share1:7840 ??                          .ds 1
share1:7841 ??                          .ds 1
share1:7842 ??                          .ds 1
share1:7843 ??                          .ds 1
share1:7844 ??                          .ds 1
share1:7845 ??                          .ds 1
share1:7846 ??                          .ds 1
share1:7847 ??                          .ds 1
share1:7848 ?? ?? ?? ??+main_30_fn_tbl: .ds 6
share1:784E ?? ?? ?? ??+main_2_fn_tbl_2:.ds 0x66
share1:78B4 ??                          .ds 1
share1:78B5 ??                          .ds 1
share1:78B6 ??                          .ds 1
share1:78B7 ??                          .ds 1
share1:78B8 ??                          .ds 1
share1:78B9 ??                          .ds 1
share1:78BA ??                          .ds 1
share1:78BB ??                          .ds 1
share1:78BC ??                          .ds 1
share1:78BD ??                          .ds 1
share1:78BE ??                          .ds 1
share1:78BF ??                          .ds 1
share1:78C0 ??                          .ds 1
share1:78C1 ??                          .ds 1
share1:78C2 ??                          .ds 1
share1:78C3 ??                          .ds 1
share1:78C4 ??                          .ds 1
share1:78C5 ??                          .ds 1
share1:78C6 ??                          .ds 1
share1:78C7 ??                          .ds 1
share1:78C8 ??                          .ds 1
share1:78C9 ??                          .ds 1
share1:78CA ??                          .ds 1
share1:78CB ??                          .ds 1
share1:78CC ??                          .ds 1
share1:78CD ??                          .ds 1
share1:78CE ??                          .ds 1
share1:78CF ??                          .ds 1
share1:78D0 ??                          .ds 1
share1:78D1 ??                          .ds 1
share1:78D2 ??                          .ds 1
share1:78D3 ??                          .ds 1
share1:78D4 ??                          .ds 1
share1:78D5 ??                          .ds 1
share1:78D6 ??                          .ds 1
share1:78D7 ??                          .ds 1
share1:78D8 ??                          .ds 1
share1:78D9 ??                          .ds 1
share1:78DA ??                          .ds 1
share1:78DB ??                          .ds 1
share1:78DC ??                          .ds 1
share1:78DD ??                          .ds 1
share1:78DE ??                          .ds 1
share1:78DF ??                          .ds 1
share1:78E0 ??                          .ds 1
share1:78E1 ??                          .ds 1
share1:78E2 ??                          .ds 1
share1:78E3 ??                          .ds 1
share1:78E4 ??                          .ds 1
share1:78E5 ??                          .ds 1
share1:78E6 ??                          .ds 1
share1:78E7 ??                          .ds 1
share1:78E8 ??                          .ds 1
share1:78E9 ??                          .ds 1
share1:78EA ??                          .ds 1
share1:78EB ??                          .ds 1
share1:78EC ??                          .ds 1
share1:78ED ??                          .ds 1
share1:78EE ??                          .ds 1
share1:78EF ??                          .ds 1
share1:78F0 ??                          .ds 1
share1:78F1 ??                          .ds 1
share1:78F2 ??                          .ds 1
share1:78F3 ??                          .ds 1
share1:78F4 ??                          .ds 1
share1:78F5 ??                          .ds 1
share1:78F6 ??                          .ds 1
share1:78F7 ??                          .ds 1
share1:78F8 ??                          .ds 1
share1:78F9 ??                          .ds 1
share1:78FA ??                          .ds 1
share1:78FB ??                          .ds 1
share1:78FC ??                          .ds 1
share1:78FD ??                          .ds 1
share1:78FE ??                          .ds 1
share1:78FF ??                          .ds 1
share1:7900 ?? ?? ?? ??+obj_state_tbl:  .ds 0x80
share1:7980 ?? ?? ?? ??+                .ds 0x80
share1:7A00 ?? ?? ?? ??+obj_x_tbl:      .ds 0x80
share1:7A80 ?? ?? ?? ??+obj_dx_tbl:     .ds 0x80
share1:7B00 ?? ?? ?? ??+obj_y_tbl:      .ds 0x80
share1:7B80 ?? ?? ?? ??+obj_dy_tbl:     .ds 0x80
share1:7C00 ?? ?? ?? ??+obj_code_tbl:   .ds 0x80
share1:7C80 ?? ?? ?? ??+obj_pts_tbl:    .ds 0x80
share1:7D00 ?? ?? ?? ??+obj_timer_tbl:  .ds 0x80
share1:7D80 ?? ?? ?? ??+                .ds 0x80
share1:7E00 ?? ?? ?? ??+obj_ffreq_tbl:  .ds 0x80
share1:7E80 ?? ?? ?? ??+                .ds 0x80
share1:7F00 ?? ?? ?? ??+obj_type_tbl:   .ds 0x80
share1:7F80 ?? ?? ?? ??+                .ds 0x80
share1:7F80 ?? ?? ?? ??+; end of 'share1'
share1:7F80 ?? ?? ?? ??+
xevious_sr1:8000             ; ===========================================================================
xevious_sr1:8000
xevious_sr1:8000             ; Segment type: Regular
xevious_sr1:8000                             .org 0x8000
xevious_sr1:8000 ??          vb_semaphore_main:.ds 1
xevious_sr1:8001 ??          countup_timer_1:.ds 1
xevious_sr1:8002 ??          vb_semaphore_sub:.ds 1
xevious_sr1:8003 ??          flip_screen_flag:.ds 1
xevious_sr1:8004 ??          start_of_06xx_queue:.ds 1
xevious_sr1:8005 ??                          .ds 1
xevious_sr1:8006 ??          end_of_06xx_queue:.ds 1
xevious_sr1:8007 ??                          .ds 1
xevious_sr1:8008 ?? ??       pseudo_random_seed:.ds 2
xevious_sr1:800A ??          unk_800A:       .ds 1
xevious_sr1:800B ??                          .ds 1
xevious_sr1:800C ?? ??       bg_scroll_x_shadow:.ds 2
xevious_sr1:800E ??                          .ds 1
xevious_sr1:800F ??                          .ds 1
xevious_sr1:8010 ?? ??       scroll_cntr:    .ds 2
xevious_sr1:8012 ??                          .ds 1
xevious_sr1:8013 ??          area_offset_in_map:.ds 1
xevious_sr1:8014 ??          scroll_delta:   .ds 1
xevious_sr1:8015 ??                          .ds 1
xevious_sr1:8016 ??          dswb:           .ds 1
xevious_sr1:8017 ??          dswa_0115:      .ds 1
xevious_sr1:8018 ??          unk_8018:       .ds 1
xevious_sr1:8019 ??          P1_inputs:      .ds 1
xevious_sr1:801A ??                          .ds 1
xevious_sr1:801B ??          start_pressed:  .ds 1
xevious_sr1:801C ??          pulsing_colour_1:.ds 1
xevious_sr1:801D ??                          .ds 1
xevious_sr1:801E ??                          .ds 1
xevious_sr1:801F ??                          .ds 1
xevious_sr1:8020 ??          cocktail:       .ds 1
xevious_sr1:8021 ??          curr_player:    .ds 1
xevious_sr1:8022 ??          two_player_game:.ds 1
xevious_sr1:8023 ??          is_real_game:   .ds 1
xevious_sr1:8024 ??          RAM_high_score: .ds 1
xevious_sr1:8025 ??                          .ds 1
xevious_sr1:8026 ??          high_score_msb: .ds 1
xevious_sr1:8027 ??          unk_8027:       .ds 1
xevious_sr1:8028 ??          attract_mode_stage:.ds 1
xevious_sr1:8029 ??          num_credits:    .ds 1
xevious_sr1:802A ??          scroll_disabled:.ds 1
xevious_sr1:802B ??          num_flying_enemies:.ds 1
xevious_sr1:802C ??          flying_enemy_type_tbl_offset:.ds 1
xevious_sr1:802D ??          num_bacura:     .ds 1
xevious_sr1:802E ??          sheonite_end_flag:.ds 1
xevious_sr1:802F ??          andor_genesis_end_flag:.ds 1
xevious_sr1:8030 ??          shot_flag:      .ds 1
xevious_sr1:8031 ??                          .ds 1
xevious_sr1:8032 ??          shot_timer_init_value:.ds 1
xevious_sr1:8033 ??          shot_timer:     .ds 1
xevious_sr1:8034 ??                          .ds 1
xevious_sr1:8035 ??                          .ds 1
xevious_sr1:8036 ??                          .ds 1
xevious_sr1:8037 ??                          .ds 1
xevious_sr1:8038 ??                          .ds 1
xevious_sr1:8039 ??                          .ds 1
xevious_sr1:803A ??                          .ds 1
xevious_sr1:803B ??                          .ds 1
xevious_sr1:803C ??                          .ds 1
xevious_sr1:803D ??                          .ds 1
xevious_sr1:803E ??                          .ds 1
xevious_sr1:803F ??                          .ds 1
xevious_sr1:8040 ??          andor_genesis_colour:.ds 1
xevious_sr1:8041 ??          countdown_timer_1:.ds 1
xevious_sr1:8042 ??                          .ds 1
xevious_sr1:8043 ??          pulsing_colour_2:.ds 1
xevious_sr1:8044 ??          solvalou_exploding:.ds 1
xevious_sr1:8045 ??                          .ds 1
xevious_sr1:8046 ??          new_high_score_entry_index:.ds 1
xevious_sr1:8047 ??                          .ds 1
xevious_sr1:8048 ??                          .ds 1
xevious_sr1:8049 ??                          .ds 1
xevious_sr1:804A ??                          .ds 1
xevious_sr1:804B ??                          .ds 1
xevious_sr1:804C ??                          .ds 1
xevious_sr1:804D ??          name_entry_char_cnt:.ds 1
xevious_sr1:804E ??                          .ds 1
xevious_sr1:804F ??                          .ds 1
xevious_sr1:8050 ?? ??       name_entry_curr_char_screen_offset:.ds 2
xevious_sr1:8052 ?? ??       name_entry_ptr_curr_char:.ds 2
xevious_sr1:8054 ??                          .ds 1
xevious_sr1:8055 ??                          .ds 1
xevious_sr1:8056 ??                          .ds 1
xevious_sr1:8057 ??                          .ds 1
xevious_sr1:8058 ??                          .ds 1
xevious_sr1:8059 ??                          .ds 1
xevious_sr1:805A ??                          .ds 1
xevious_sr1:805B ??                          .ds 1
xevious_sr1:805C ??                          .ds 1
xevious_sr1:805D ??                          .ds 1
xevious_sr1:805E ??                          .ds 1
xevious_sr1:805F ??                          .ds 1
xevious_sr1:8060 ??                          .ds 1
xevious_sr1:8061 ??                          .ds 1
xevious_sr1:8062 ??                          .ds 1
xevious_sr1:8063 ??          byte_8063:      .ds 1
xevious_sr1:8064 ??                          .ds 1
xevious_sr1:8065 ??                          .ds 1
xevious_sr1:8066 ??                          .ds 1
xevious_sr1:8067 ??                          .ds 1
xevious_sr1:8068 ??                          .ds 1
xevious_sr1:8069 ??                          .ds 1
xevious_sr1:806A ??                          .ds 1
xevious_sr1:806B ??                          .ds 1
xevious_sr1:806C ??                          .ds 1
xevious_sr1:806D ??                          .ds 1
xevious_sr1:806E ??                          .ds 1
xevious_sr1:806F ??                          .ds 1
xevious_sr1:8070 ??                          .ds 1
xevious_sr1:8071 ??                          .ds 1
xevious_sr1:8072 ??                          .ds 1
xevious_sr1:8073 ??                          .ds 1
xevious_sr1:8074 ??                          .ds 1
xevious_sr1:8075 ??                          .ds 1
xevious_sr1:8076 ??                          .ds 1
xevious_sr1:8077 ??                          .ds 1
xevious_sr1:8078 ??                          .ds 1
xevious_sr1:8079 ??                          .ds 1
xevious_sr1:807A ??                          .ds 1
xevious_sr1:807B ??                          .ds 1
xevious_sr1:807C ??                          .ds 1
xevious_sr1:807D ??                          .ds 1
xevious_sr1:807E ??                          .ds 1
xevious_sr1:807F ??                          .ds 1
xevious_sr1:8080 ??          unk_8080:       .ds 1
xevious_sr1:8081 ??                          .ds 1
xevious_sr1:8082 ??                          .ds 1
xevious_sr1:8083 ??                          .ds 1
xevious_sr1:8084 ??                          .ds 1
xevious_sr1:8085 ??          byte_8085:      .ds 1
xevious_sr1:8086 ??                          .ds 1
xevious_sr1:8087 ??                          .ds 1
xevious_sr1:8088 ??                          .ds 1
xevious_sr1:8089 ??                          .ds 1
xevious_sr1:808A ??                          .ds 1
xevious_sr1:808B ??                          .ds 1
xevious_sr1:808C ??                          .ds 1
xevious_sr1:808D ??                          .ds 1
xevious_sr1:808E ??                          .ds 1
xevious_sr1:808F ??                          .ds 1
xevious_sr1:8090 ??          unk_8090:       .ds 1
xevious_sr1:8091 ??                          .ds 1
xevious_sr1:8092 ??                          .ds 1
xevious_sr1:8093 ??                          .ds 1
xevious_sr1:8094 ??                          .ds 1
xevious_sr1:8095 ??          byte_8095:      .ds 1
xevious_sr1:8096 ??                          .ds 1
xevious_sr1:8097 ??                          .ds 1
xevious_sr1:8098 ??                          .ds 1
xevious_sr1:8099 ??                          .ds 1
xevious_sr1:809A ??                          .ds 1
xevious_sr1:809B ??                          .ds 1
xevious_sr1:809C ??                          .ds 1
xevious_sr1:809D ??                          .ds 1
xevious_sr1:809E ??                          .ds 1
xevious_sr1:809F ??                          .ds 1
xevious_sr1:80A0 ??          unk_80A0:       .ds 1
xevious_sr1:80A1 ??                          .ds 1
xevious_sr1:80A2 ??                          .ds 1
xevious_sr1:80A3 ??                          .ds 1
xevious_sr1:80A4 ??                          .ds 1
xevious_sr1:80A5 ??                          .ds 1
xevious_sr1:80A6 ??          byte_80A6:      .ds 1
xevious_sr1:80A7 ??                          .ds 1
xevious_sr1:80A8 ??                          .ds 1
xevious_sr1:80A9 ??          byte_80A9:      .ds 1
xevious_sr1:80AA ??          byte_80AA:      .ds 1
xevious_sr1:80AB ??          byte_80AB:      .ds 1
xevious_sr1:80AC ??          byte_80AC:      .ds 1
xevious_sr1:80AD ??          byte_80AD:      .ds 1
xevious_sr1:80AE ??          byte_80AE:      .ds 1
xevious_sr1:80AF ??                          .ds 1
xevious_sr1:80B0 ??                          .ds 1
xevious_sr1:80B1 ??                          .ds 1
xevious_sr1:80B2 ??                          .ds 1
xevious_sr1:80B3 ??                          .ds 1
xevious_sr1:80B4 ??                          .ds 1
xevious_sr1:80B5 ??                          .ds 1
xevious_sr1:80B6 ??                          .ds 1
xevious_sr1:80B7 ??                          .ds 1
xevious_sr1:80B8 ??                          .ds 1
xevious_sr1:80B9 ??                          .ds 1
xevious_sr1:80BA ??                          .ds 1
xevious_sr1:80BB ??                          .ds 1
xevious_sr1:80BC ??                          .ds 1
xevious_sr1:80BD ??                          .ds 1
xevious_sr1:80BE ??                          .ds 1
xevious_sr1:80BF ??                          .ds 1
xevious_sr1:80C0 ??                          .ds 1
xevious_sr1:80C1 ??                          .ds 1
xevious_sr1:80C2 ??                          .ds 1
xevious_sr1:80C3 ??                          .ds 1
xevious_sr1:80C4 ??                          .ds 1
xevious_sr1:80C5 ??                          .ds 1
xevious_sr1:80C6 ??                          .ds 1
xevious_sr1:80C7 ??                          .ds 1
xevious_sr1:80C8 ??                          .ds 1
xevious_sr1:80C9 ??                          .ds 1
xevious_sr1:80CA ??                          .ds 1
xevious_sr1:80CB ??                          .ds 1
xevious_sr1:80CC ??                          .ds 1
xevious_sr1:80CD ??                          .ds 1
xevious_sr1:80CE ??                          .ds 1
xevious_sr1:80CF ??                          .ds 1
xevious_sr1:80D0 ??                          .ds 1
xevious_sr1:80D1 ??                          .ds 1
xevious_sr1:80D2 ??                          .ds 1
xevious_sr1:80D3 ??                          .ds 1
xevious_sr1:80D4 ??                          .ds 1
xevious_sr1:80D5 ??                          .ds 1
xevious_sr1:80D6 ??                          .ds 1
xevious_sr1:80D7 ??                          .ds 1
xevious_sr1:80D8 ??                          .ds 1
xevious_sr1:80D9 ??                          .ds 1
xevious_sr1:80DA ??                          .ds 1
xevious_sr1:80DB ??                          .ds 1
xevious_sr1:80DC ??                          .ds 1
xevious_sr1:80DD ??                          .ds 1
xevious_sr1:80DE ??                          .ds 1
xevious_sr1:80DF ??                          .ds 1
xevious_sr1:80E0 ??                          .ds 1
xevious_sr1:80E1 ??                          .ds 1
xevious_sr1:80E2 ??                          .ds 1
xevious_sr1:80E3 ??                          .ds 1
xevious_sr1:80E4 ??                          .ds 1
xevious_sr1:80E5 ??                          .ds 1
xevious_sr1:80E6 ??                          .ds 1
xevious_sr1:80E7 ??                          .ds 1
xevious_sr1:80E8 ??                          .ds 1
xevious_sr1:80E9 ??                          .ds 1
xevious_sr1:80EA ??                          .ds 1
xevious_sr1:80EB ??                          .ds 1
xevious_sr1:80EC ??                          .ds 1
xevious_sr1:80ED ??                          .ds 1
xevious_sr1:80EE ??                          .ds 1
xevious_sr1:80EF ??                          .ds 1
xevious_sr1:80F0 ??                          .ds 1
xevious_sr1:80F1 ??                          .ds 1
xevious_sr1:80F2 ??                          .ds 1
xevious_sr1:80F3 ??                          .ds 1
xevious_sr1:80F4 ??                          .ds 1
xevious_sr1:80F5 ??                          .ds 1
xevious_sr1:80F6 ??                          .ds 1
xevious_sr1:80F7 ??                          .ds 1
xevious_sr1:80F8 ??                          .ds 1
xevious_sr1:80F9 ??                          .ds 1
xevious_sr1:80FA ??                          .ds 1
xevious_sr1:80FB ??                          .ds 1
xevious_sr1:80FC ??                          .ds 1
xevious_sr1:80FD ??                          .ds 1
xevious_sr1:80FE ??                          .ds 1
xevious_sr1:80FF ??                          .ds 1
xevious_sr1:8100 ?? ?? ?? ??+spriteram_shadow:.ds 0x80
xevious_sr1:8180 ??          curr_player_score_lsb:.ds 1
xevious_sr1:8181 ??          curr_player_score_Ks:.ds 1
xevious_sr1:8182 ??          curr_player_score_msb:.ds 1
xevious_sr1:8183 ??          curr_player_solvalou_left:.ds 1
xevious_sr1:8184 ??                          .ds 1
xevious_sr1:8185 ??          area_obj_ptr_lsb:.ds 1
xevious_sr1:8186 ??          area_obj_ptr_msb:.ds 1
xevious_sr1:8187 ??          area:           .ds 1
xevious_sr1:8188 ??          enemy_AI_level: .ds 1
xevious_sr1:8189 ?? ??       next_bonus_life_Ks:.ds 2
xevious_sr1:818B ??          solvalou_number:.ds 1
xevious_sr1:818C ??          bonus_life_none:.ds 1
xevious_sr1:818D ??                          .ds 1
xevious_sr1:818E ??                          .ds 1
xevious_sr1:818F ??                          .ds 1
xevious_sr1:8190 ??                          .ds 1
xevious_sr1:8191 ??                          .ds 1
xevious_sr1:8192 ??                          .ds 1
xevious_sr1:8193 ??                          .ds 1
xevious_sr1:8194 ??                          .ds 1
xevious_sr1:8195 ??                          .ds 1
xevious_sr1:8196 ??                          .ds 1
xevious_sr1:8197 ??                          .ds 1
xevious_sr1:8198 ??                          .ds 1
xevious_sr1:8199 ??                          .ds 1
xevious_sr1:819A ??                          .ds 1
xevious_sr1:819B ??                          .ds 1
xevious_sr1:819C ??                          .ds 1
xevious_sr1:819D ??                          .ds 1
xevious_sr1:819E ??                          .ds 1
xevious_sr1:819F ??                          .ds 1
xevious_sr1:81A0 ??          ffreq_mask_derota:.ds 1
xevious_sr1:81A1 ??          ffreq_mask_kapi:.ds 1
xevious_sr1:81A2 ??          ffreq_mask_terrazi:.ds 1
xevious_sr1:81A3 ??          ffreq_mask_logram:.ds 1
xevious_sr1:81A4 ??          ffreq_mask_zoshi:.ds 1
xevious_sr1:81A5 ??          ffreq_mask_boza_logram:.ds 1
xevious_sr1:81A6 ??          ffreq_mask_domogram:.ds 1
xevious_sr1:81A7 ??          ffreq_mask_andor_genesis:.ds 1
xevious_sr1:81A8 ??                          .ds 1
xevious_sr1:81A9 ??                          .ds 1
xevious_sr1:81AA ??                          .ds 1
xevious_sr1:81AB ??                          .ds 1
xevious_sr1:81AC ??                          .ds 1
xevious_sr1:81AD ??                          .ds 1
xevious_sr1:81AE ??                          .ds 1
xevious_sr1:81AF ??                          .ds 1
xevious_sr1:81B0 ??          ffreq_mask_81B0_unused:.ds 1
xevious_sr1:81B1 ??          gnd_stop_firing_row:.ds 1
xevious_sr1:81B2 ??                          .ds 1
xevious_sr1:81B3 ??                          .ds 1
xevious_sr1:81B4 ??                          .ds 1
xevious_sr1:81B5 ??                          .ds 1
xevious_sr1:81B6 ??                          .ds 1
xevious_sr1:81B7 ??                          .ds 1
xevious_sr1:81B8 ??                          .ds 1
xevious_sr1:81B9 ??                          .ds 1
xevious_sr1:81BA ??                          .ds 1
xevious_sr1:81BB ??                          .ds 1
xevious_sr1:81BC ??                          .ds 1
xevious_sr1:81BD ??                          .ds 1
xevious_sr1:81BE ??                          .ds 1
xevious_sr1:81BF ??                          .ds 1
xevious_sr1:81C0 ??          other_player_score_lsb:.ds 1
xevious_sr1:81C1 ??                          .ds 1
xevious_sr1:81C2 ??          other_player_score_msb:.ds 1
xevious_sr1:81C3 ??          other_player_solvalou_left:.ds 1
xevious_sr1:81C4 ??                          .ds 1
xevious_sr1:81C5 ??                          .ds 1
xevious_sr1:81C6 ??                          .ds 1
xevious_sr1:81C7 ??                          .ds 1
xevious_sr1:81C8 ??                          .ds 1
xevious_sr1:81C9 ??                          .ds 1
xevious_sr1:81CA ??                          .ds 1
xevious_sr1:81CB ??                          .ds 1
xevious_sr1:81CC ??                          .ds 1
xevious_sr1:81CD ??                          .ds 1
xevious_sr1:81CE ??                          .ds 1
xevious_sr1:81CF ??                          .ds 1
xevious_sr1:81D0 ??                          .ds 1
xevious_sr1:81D1 ??                          .ds 1
xevious_sr1:81D2 ??                          .ds 1
xevious_sr1:81D3 ??                          .ds 1
xevious_sr1:81D4 ??                          .ds 1
xevious_sr1:81D5 ??                          .ds 1
xevious_sr1:81D6 ??                          .ds 1
xevious_sr1:81D7 ??                          .ds 1
xevious_sr1:81D8 ??                          .ds 1
xevious_sr1:81D9 ??                          .ds 1
xevious_sr1:81DA ??                          .ds 1
xevious_sr1:81DB ??                          .ds 1
xevious_sr1:81DC ??                          .ds 1
xevious_sr1:81DD ??                          .ds 1
xevious_sr1:81DE ??                          .ds 1
xevious_sr1:81DF ??                          .ds 1
xevious_sr1:81E0 ??                          .ds 1
xevious_sr1:81E1 ??                          .ds 1
xevious_sr1:81E2 ??                          .ds 1
xevious_sr1:81E3 ??                          .ds 1
xevious_sr1:81E4 ??                          .ds 1
xevious_sr1:81E5 ??                          .ds 1
xevious_sr1:81E6 ??                          .ds 1
xevious_sr1:81E7 ??                          .ds 1
xevious_sr1:81E8 ??                          .ds 1
xevious_sr1:81E9 ??                          .ds 1
xevious_sr1:81EA ??                          .ds 1
xevious_sr1:81EB ??                          .ds 1
xevious_sr1:81EC ??                          .ds 1
xevious_sr1:81ED ??                          .ds 1
xevious_sr1:81EE ??                          .ds 1
xevious_sr1:81EF ??                          .ds 1
xevious_sr1:81F0 ??                          .ds 1
xevious_sr1:81F1 ??                          .ds 1
xevious_sr1:81F2 ??                          .ds 1
xevious_sr1:81F3 ??                          .ds 1
xevious_sr1:81F4 ??                          .ds 1
xevious_sr1:81F5 ??                          .ds 1
xevious_sr1:81F6 ??                          .ds 1
xevious_sr1:81F7 ??                          .ds 1
xevious_sr1:81F8 ??                          .ds 1
xevious_sr1:81F9 ??                          .ds 1
xevious_sr1:81FA ??                          .ds 1
xevious_sr1:81FB ??                          .ds 1
xevious_sr1:81FC ??                          .ds 1
xevious_sr1:81FD ??                          .ds 1
xevious_sr1:81FE ??                          .ds 1
xevious_sr1:81FF ??                          .ds 1
xevious_sr1:8200 ?? ?? ?? ??+spriteram_2_shadow:.ds 0x80
xevious_sr1:8280 ?? ?? ?? ??+main_fn_tbl_RAM:.ds 0x40
xevious_sr1:82C0 ??                          .ds 1
xevious_sr1:82C1 ??                          .ds 1
xevious_sr1:82C2 ??                          .ds 1
xevious_sr1:82C3 ??                          .ds 1
xevious_sr1:82C4 ??                          .ds 1
xevious_sr1:82C5 ??                          .ds 1
xevious_sr1:82C6 ??                          .ds 1
xevious_sr1:82C7 ??                          .ds 1
xevious_sr1:82C8 ??                          .ds 1
xevious_sr1:82C9 ??                          .ds 1
xevious_sr1:82CA ??                          .ds 1
xevious_sr1:82CB ??                          .ds 1
xevious_sr1:82CC ??                          .ds 1
xevious_sr1:82CD ??                          .ds 1
xevious_sr1:82CE ??                          .ds 1
xevious_sr1:82CF ??                          .ds 1
xevious_sr1:82D0 ??                          .ds 1
xevious_sr1:82D1 ??                          .ds 1
xevious_sr1:82D2 ??                          .ds 1
xevious_sr1:82D3 ??                          .ds 1
xevious_sr1:82D4 ??                          .ds 1
xevious_sr1:82D5 ??                          .ds 1
xevious_sr1:82D6 ??                          .ds 1
xevious_sr1:82D7 ??                          .ds 1
xevious_sr1:82D8 ??                          .ds 1
xevious_sr1:82D9 ??                          .ds 1
xevious_sr1:82DA ??                          .ds 1
xevious_sr1:82DB ??                          .ds 1
xevious_sr1:82DC ??                          .ds 1
xevious_sr1:82DD ??                          .ds 1
xevious_sr1:82DE ??                          .ds 1
xevious_sr1:82DF ??                          .ds 1
xevious_sr1:82E0 ??                          .ds 1
xevious_sr1:82E1 ??                          .ds 1
xevious_sr1:82E2 ??                          .ds 1
xevious_sr1:82E3 ??                          .ds 1
xevious_sr1:82E4 ??                          .ds 1
xevious_sr1:82E5 ??                          .ds 1
xevious_sr1:82E6 ??                          .ds 1
xevious_sr1:82E7 ??                          .ds 1
xevious_sr1:82E8 ??                          .ds 1
xevious_sr1:82E9 ??                          .ds 1
xevious_sr1:82EA ??                          .ds 1
xevious_sr1:82EB ??                          .ds 1
xevious_sr1:82EC ??                          .ds 1
xevious_sr1:82ED ??                          .ds 1
xevious_sr1:82EE ??                          .ds 1
xevious_sr1:82EF ??                          .ds 1
xevious_sr1:82F0 ??                          .ds 1
xevious_sr1:82F1 ??                          .ds 1
xevious_sr1:82F2 ??                          .ds 1
xevious_sr1:82F3 ??                          .ds 1
xevious_sr1:82F4 ??                          .ds 1
xevious_sr1:82F5 ??                          .ds 1
xevious_sr1:82F6 ??                          .ds 1
xevious_sr1:82F7 ??                          .ds 1
xevious_sr1:82F8 ??                          .ds 1
xevious_sr1:82F9 ??                          .ds 1
xevious_sr1:82FA ??                          .ds 1
xevious_sr1:82FB ??                          .ds 1
xevious_sr1:82FC ??                          .ds 1
xevious_sr1:82FD ??                          .ds 1
xevious_sr1:82FE ??                          .ds 1
xevious_sr1:82FF ??                          .ds 1
xevious_sr1:8300 ?? ?? ?? ??+spriteram_3_shadow:.ds 0x80
xevious_sr1:8380 ??                          .ds 1
xevious_sr1:8381 ??                          .ds 1
xevious_sr1:8382 ??                          .ds 1
xevious_sr1:8383 ??                          .ds 1
xevious_sr1:8384 ??                          .ds 1
xevious_sr1:8385 ??                          .ds 1
xevious_sr1:8386 ??                          .ds 1
xevious_sr1:8387 ??                          .ds 1
xevious_sr1:8388 ??                          .ds 1
xevious_sr1:8389 ??                          .ds 1
xevious_sr1:838A ??                          .ds 1
xevious_sr1:838B ??                          .ds 1
xevious_sr1:838C ??                          .ds 1
xevious_sr1:838D ??                          .ds 1
xevious_sr1:838E ??                          .ds 1
xevious_sr1:838F ??                          .ds 1
xevious_sr1:8390 ??                          .ds 1
xevious_sr1:8391 ??                          .ds 1
xevious_sr1:8392 ??                          .ds 1
xevious_sr1:8393 ??                          .ds 1
xevious_sr1:8394 ??                          .ds 1
xevious_sr1:8395 ??                          .ds 1
xevious_sr1:8396 ??                          .ds 1
xevious_sr1:8397 ??                          .ds 1
xevious_sr1:8398 ??                          .ds 1
xevious_sr1:8399 ??                          .ds 1
xevious_sr1:839A ??                          .ds 1
xevious_sr1:839B ??                          .ds 1
xevious_sr1:839C ??                          .ds 1
xevious_sr1:839D ??                          .ds 1
xevious_sr1:839E ??                          .ds 1
xevious_sr1:839F ??                          .ds 1
xevious_sr1:83A0 ??                          .ds 1
xevious_sr1:83A1 ??                          .ds 1
xevious_sr1:83A2 ??                          .ds 1
xevious_sr1:83A3 ??                          .ds 1
xevious_sr1:83A4 ??                          .ds 1
xevious_sr1:83A5 ??                          .ds 1
xevious_sr1:83A6 ??                          .ds 1
xevious_sr1:83A7 ??                          .ds 1
xevious_sr1:83A8 ??                          .ds 1
xevious_sr1:83A9 ??                          .ds 1
xevious_sr1:83AA ??                          .ds 1
xevious_sr1:83AB ??                          .ds 1
xevious_sr1:83AC ??                          .ds 1
xevious_sr1:83AD ??                          .ds 1
xevious_sr1:83AE ??                          .ds 1
xevious_sr1:83AF ??                          .ds 1
xevious_sr1:83B0 ??                          .ds 1
xevious_sr1:83B1 ??                          .ds 1
xevious_sr1:83B2 ??                          .ds 1
xevious_sr1:83B3 ??                          .ds 1
xevious_sr1:83B4 ??                          .ds 1
xevious_sr1:83B5 ??                          .ds 1
xevious_sr1:83B6 ??                          .ds 1
xevious_sr1:83B7 ??                          .ds 1
xevious_sr1:83B8 ??                          .ds 1
xevious_sr1:83B9 ??                          .ds 1
xevious_sr1:83BA ??                          .ds 1
xevious_sr1:83BB ??                          .ds 1
xevious_sr1:83BC ??                          .ds 1
xevious_sr1:83BD ??                          .ds 1
xevious_sr1:83BE ??                          .ds 1
xevious_sr1:83BF ??                          .ds 1
xevious_sr1:83C0 ??                          .ds 1
xevious_sr1:83C1 ??                          .ds 1
xevious_sr1:83C2 ??                          .ds 1
xevious_sr1:83C3 ??                          .ds 1
xevious_sr1:83C4 ??                          .ds 1
xevious_sr1:83C5 ??                          .ds 1
xevious_sr1:83C6 ??                          .ds 1
xevious_sr1:83C7 ??                          .ds 1
xevious_sr1:83C8 ??                          .ds 1
xevious_sr1:83C9 ??                          .ds 1
xevious_sr1:83CA ??                          .ds 1
xevious_sr1:83CB ??                          .ds 1
xevious_sr1:83CC ??                          .ds 1
xevious_sr1:83CD ??                          .ds 1
xevious_sr1:83CE ??                          .ds 1
xevious_sr1:83CF ??                          .ds 1
xevious_sr1:83D0 ??                          .ds 1
xevious_sr1:83D1 ??                          .ds 1
xevious_sr1:83D2 ??                          .ds 1
xevious_sr1:83D3 ??                          .ds 1
xevious_sr1:83D4 ??                          .ds 1
xevious_sr1:83D5 ??                          .ds 1
xevious_sr1:83D6 ??                          .ds 1
xevious_sr1:83D7 ??                          .ds 1
xevious_sr1:83D8 ??                          .ds 1
xevious_sr1:83D9 ??                          .ds 1
xevious_sr1:83DA ??                          .ds 1
xevious_sr1:83DB ??                          .ds 1
xevious_sr1:83DC ??                          .ds 1
xevious_sr1:83DD ??                          .ds 1
xevious_sr1:83DE ??                          .ds 1
xevious_sr1:83DF ??                          .ds 1
xevious_sr1:83E0 ??                          .ds 1
xevious_sr1:83E1 ??                          .ds 1
xevious_sr1:83E2 ??                          .ds 1
xevious_sr1:83E3 ??                          .ds 1
xevious_sr1:83E4 ??                          .ds 1
xevious_sr1:83E5 ??                          .ds 1
xevious_sr1:83E6 ??                          .ds 1
xevious_sr1:83E7 ??                          .ds 1
xevious_sr1:83E8 ??                          .ds 1
xevious_sr1:83E9 ??                          .ds 1
xevious_sr1:83EA ??                          .ds 1
xevious_sr1:83EB ??                          .ds 1
xevious_sr1:83EC ??                          .ds 1
xevious_sr1:83ED ??                          .ds 1
xevious_sr1:83EE ??                          .ds 1
xevious_sr1:83EF ??                          .ds 1
xevious_sr1:83F0 ??                          .ds 1
xevious_sr1:83F1 ??                          .ds 1
xevious_sr1:83F2 ??                          .ds 1
xevious_sr1:83F3 ??                          .ds 1
xevious_sr1:83F4 ??                          .ds 1
xevious_sr1:83F5 ??                          .ds 1
xevious_sr1:83F6 ??                          .ds 1
xevious_sr1:83F7 ??                          .ds 1
xevious_sr1:83F8 ??                          .ds 1
xevious_sr1:83F9 ??                          .ds 1
xevious_sr1:83FA ??                          .ds 1
xevious_sr1:83FB ??                          .ds 1
xevious_sr1:83FC ??                          .ds 1
xevious_sr1:83FD ??                          .ds 1
xevious_sr1:83FE ??                          .ds 1
xevious_sr1:83FF ??                          .ds 1
xevious_sr1:8400 ??                          .ds 1
xevious_sr1:8401 ??                          .ds 1
xevious_sr1:8402 ??                          .ds 1
xevious_sr1:8403 ??                          .ds 1
xevious_sr1:8404 ??                          .ds 1
xevious_sr1:8405 ??                          .ds 1
xevious_sr1:8406 ??                          .ds 1
xevious_sr1:8407 ??                          .ds 1
xevious_sr1:8408 ??                          .ds 1
xevious_sr1:8409 ??                          .ds 1
xevious_sr1:840A ??                          .ds 1
xevious_sr1:840B ??                          .ds 1
xevious_sr1:840C ??                          .ds 1
xevious_sr1:840D ??                          .ds 1
xevious_sr1:840E ??                          .ds 1
xevious_sr1:840F ??                          .ds 1
xevious_sr1:8410 ??                          .ds 1
xevious_sr1:8411 ??                          .ds 1
xevious_sr1:8412 ??                          .ds 1
xevious_sr1:8413 ??                          .ds 1
xevious_sr1:8414 ??                          .ds 1
xevious_sr1:8415 ??                          .ds 1
xevious_sr1:8416 ??                          .ds 1
xevious_sr1:8417 ??                          .ds 1
xevious_sr1:8418 ??                          .ds 1
xevious_sr1:8419 ??                          .ds 1
xevious_sr1:841A ??                          .ds 1
xevious_sr1:841B ??                          .ds 1
xevious_sr1:841C ??                          .ds 1
xevious_sr1:841D ??                          .ds 1
xevious_sr1:841E ??                          .ds 1
xevious_sr1:841F ??                          .ds 1
xevious_sr1:8420 ??                          .ds 1
xevious_sr1:8421 ??                          .ds 1
xevious_sr1:8422 ??          bacura_inc_cnt: .ds 1
xevious_sr1:8423 ??          one_second_cntr:.ds 1
xevious_sr1:8424 ??                          .ds 1
xevious_sr1:8425 ??                          .ds 1
xevious_sr1:8426 ??                          .ds 1
xevious_sr1:8427 ??                          .ds 1
xevious_sr1:8428 ??                          .ds 1
xevious_sr1:8429 ??                          .ds 1
xevious_sr1:842A ??                          .ds 1
xevious_sr1:842B ??                          .ds 1
xevious_sr1:842C ??                          .ds 1
xevious_sr1:842D ??                          .ds 1
xevious_sr1:842E ??                          .ds 1
xevious_sr1:842F ??                          .ds 1
xevious_sr1:8430 ??                          .ds 1
xevious_sr1:8431 ??                          .ds 1
xevious_sr1:8432 ??                          .ds 1
xevious_sr1:8433 ??                          .ds 1
xevious_sr1:8434 ??                          .ds 1
xevious_sr1:8435 ??                          .ds 1
xevious_sr1:8436 ??                          .ds 1
xevious_sr1:8437 ??                          .ds 1
xevious_sr1:8438 ??                          .ds 1
xevious_sr1:8439 ??                          .ds 1
xevious_sr1:843A ??                          .ds 1
xevious_sr1:843B ??                          .ds 1
xevious_sr1:843C ??                          .ds 1
xevious_sr1:843D ??                          .ds 1
xevious_sr1:843E ??                          .ds 1
xevious_sr1:843F ??                          .ds 1
xevious_sr1:8440 ??                          .ds 1
xevious_sr1:8441 ??                          .ds 1
xevious_sr1:8442 ??                          .ds 1
xevious_sr1:8443 ??                          .ds 1
xevious_sr1:8444 ??                          .ds 1
xevious_sr1:8445 ??                          .ds 1
xevious_sr1:8446 ??                          .ds 1
xevious_sr1:8447 ??                          .ds 1
xevious_sr1:8448 ??                          .ds 1
xevious_sr1:8449 ??                          .ds 1
xevious_sr1:844A ??                          .ds 1
xevious_sr1:844B ??                          .ds 1
xevious_sr1:844C ??                          .ds 1
xevious_sr1:844D ??                          .ds 1
xevious_sr1:844E ??                          .ds 1
xevious_sr1:844F ??                          .ds 1
xevious_sr1:8450 ??                          .ds 1
xevious_sr1:8451 ??                          .ds 1
xevious_sr1:8452 ??                          .ds 1
xevious_sr1:8453 ??                          .ds 1
xevious_sr1:8454 ??                          .ds 1
xevious_sr1:8455 ??                          .ds 1
xevious_sr1:8456 ??                          .ds 1
xevious_sr1:8457 ??                          .ds 1
xevious_sr1:8458 ??                          .ds 1
xevious_sr1:8459 ??                          .ds 1
xevious_sr1:845A ??                          .ds 1
xevious_sr1:845B ??                          .ds 1
xevious_sr1:845C ??                          .ds 1
xevious_sr1:845D ??                          .ds 1
xevious_sr1:845E ??                          .ds 1
xevious_sr1:845F ??                          .ds 1
xevious_sr1:8460 ??                          .ds 1
xevious_sr1:8461 ??                          .ds 1
xevious_sr1:8462 ??                          .ds 1
xevious_sr1:8463 ??                          .ds 1
xevious_sr1:8464 ??                          .ds 1
xevious_sr1:8465 ??                          .ds 1
xevious_sr1:8466 ??                          .ds 1
xevious_sr1:8467 ??                          .ds 1
xevious_sr1:8468 ??                          .ds 1
xevious_sr1:8469 ??                          .ds 1
xevious_sr1:846A ??                          .ds 1
xevious_sr1:846B ??                          .ds 1
xevious_sr1:846C ??                          .ds 1
xevious_sr1:846D ??                          .ds 1
xevious_sr1:846E ??                          .ds 1
xevious_sr1:846F ??                          .ds 1
xevious_sr1:8470 ??                          .ds 1
xevious_sr1:8471 ??                          .ds 1
xevious_sr1:8472 ??                          .ds 1
xevious_sr1:8473 ??                          .ds 1
xevious_sr1:8474 ??                          .ds 1
xevious_sr1:8475 ??                          .ds 1
xevious_sr1:8476 ??                          .ds 1
xevious_sr1:8477 ??                          .ds 1
xevious_sr1:8478 ??                          .ds 1
xevious_sr1:8479 ??                          .ds 1
xevious_sr1:847A ??                          .ds 1
xevious_sr1:847B ??                          .ds 1
xevious_sr1:847C ??                          .ds 1
xevious_sr1:847D ??                          .ds 1
xevious_sr1:847E ??                          .ds 1
xevious_sr1:847F ??                          .ds 1
xevious_sr1:8480 ??                          .ds 1
xevious_sr1:8481 ??                          .ds 1
xevious_sr1:8482 ??                          .ds 1
xevious_sr1:8483 ??                          .ds 1
xevious_sr1:8484 ??                          .ds 1
xevious_sr1:8485 ??                          .ds 1
xevious_sr1:8486 ??                          .ds 1
xevious_sr1:8487 ??                          .ds 1
xevious_sr1:8488 ??                          .ds 1
xevious_sr1:8489 ??                          .ds 1
xevious_sr1:848A ??                          .ds 1
xevious_sr1:848B ??                          .ds 1
xevious_sr1:848C ??                          .ds 1
xevious_sr1:848D ??                          .ds 1
xevious_sr1:848E ??                          .ds 1
xevious_sr1:848F ??                          .ds 1
xevious_sr1:8490 ??                          .ds 1
xevious_sr1:8491 ??                          .ds 1
xevious_sr1:8492 ??                          .ds 1
xevious_sr1:8493 ??                          .ds 1
xevious_sr1:8494 ??                          .ds 1
xevious_sr1:8495 ??                          .ds 1
xevious_sr1:8496 ??                          .ds 1
xevious_sr1:8497 ??                          .ds 1
xevious_sr1:8498 ??                          .ds 1
xevious_sr1:8499 ??                          .ds 1
xevious_sr1:849A ??                          .ds 1
xevious_sr1:849B ??                          .ds 1
xevious_sr1:849C ??                          .ds 1
xevious_sr1:849D ??                          .ds 1
xevious_sr1:849E ??                          .ds 1
xevious_sr1:849F ??                          .ds 1
xevious_sr1:84A0 ??                          .ds 1
xevious_sr1:84A1 ??                          .ds 1
xevious_sr1:84A2 ??                          .ds 1
xevious_sr1:84A3 ??                          .ds 1
xevious_sr1:84A4 ??                          .ds 1
xevious_sr1:84A5 ??                          .ds 1
xevious_sr1:84A6 ??                          .ds 1
xevious_sr1:84A7 ??                          .ds 1
xevious_sr1:84A8 ??                          .ds 1
xevious_sr1:84A9 ??                          .ds 1
xevious_sr1:84AA ??                          .ds 1
xevious_sr1:84AB ??                          .ds 1
xevious_sr1:84AC ??                          .ds 1
xevious_sr1:84AD ??                          .ds 1
xevious_sr1:84AE ??                          .ds 1
xevious_sr1:84AF ??                          .ds 1
xevious_sr1:84B0 ??                          .ds 1
xevious_sr1:84B1 ??                          .ds 1
xevious_sr1:84B2 ??                          .ds 1
xevious_sr1:84B3 ??                          .ds 1
xevious_sr1:84B4 ??                          .ds 1
xevious_sr1:84B5 ??                          .ds 1
xevious_sr1:84B6 ??                          .ds 1
xevious_sr1:84B7 ??                          .ds 1
xevious_sr1:84B8 ??                          .ds 1
xevious_sr1:84B9 ??                          .ds 1
xevious_sr1:84BA ??                          .ds 1
xevious_sr1:84BB ??                          .ds 1
xevious_sr1:84BC ??                          .ds 1
xevious_sr1:84BD ??                          .ds 1
xevious_sr1:84BE ??                          .ds 1
xevious_sr1:84BF ??                          .ds 1
xevious_sr1:84C0 ??                          .ds 1
xevious_sr1:84C1 ??                          .ds 1
xevious_sr1:84C2 ??                          .ds 1
xevious_sr1:84C3 ??                          .ds 1
xevious_sr1:84C4 ??                          .ds 1
xevious_sr1:84C5 ??                          .ds 1
xevious_sr1:84C6 ??                          .ds 1
xevious_sr1:84C7 ??                          .ds 1
xevious_sr1:84C8 ??                          .ds 1
xevious_sr1:84C9 ??                          .ds 1
xevious_sr1:84CA ??                          .ds 1
xevious_sr1:84CB ??                          .ds 1
xevious_sr1:84CC ??                          .ds 1
xevious_sr1:84CD ??                          .ds 1
xevious_sr1:84CE ??                          .ds 1
xevious_sr1:84CF ??                          .ds 1
xevious_sr1:84D0 ??                          .ds 1
xevious_sr1:84D1 ??                          .ds 1
xevious_sr1:84D2 ??                          .ds 1
xevious_sr1:84D3 ??                          .ds 1
xevious_sr1:84D4 ??                          .ds 1
xevious_sr1:84D5 ??                          .ds 1
xevious_sr1:84D6 ??                          .ds 1
xevious_sr1:84D7 ??                          .ds 1
xevious_sr1:84D8 ??                          .ds 1
xevious_sr1:84D9 ??                          .ds 1
xevious_sr1:84DA ??                          .ds 1
xevious_sr1:84DB ??                          .ds 1
xevious_sr1:84DC ??                          .ds 1
xevious_sr1:84DD ??                          .ds 1
xevious_sr1:84DE ??                          .ds 1
xevious_sr1:84DF ??                          .ds 1
xevious_sr1:84E0 ??                          .ds 1
xevious_sr1:84E1 ??                          .ds 1
xevious_sr1:84E2 ??                          .ds 1
xevious_sr1:84E3 ??                          .ds 1
xevious_sr1:84E4 ??                          .ds 1
xevious_sr1:84E5 ??                          .ds 1
xevious_sr1:84E6 ??                          .ds 1
xevious_sr1:84E7 ??                          .ds 1
xevious_sr1:84E8 ??                          .ds 1
xevious_sr1:84E9 ??                          .ds 1
xevious_sr1:84EA ??                          .ds 1
xevious_sr1:84EB ??                          .ds 1
xevious_sr1:84EC ??                          .ds 1
xevious_sr1:84ED ??                          .ds 1
xevious_sr1:84EE ??                          .ds 1
xevious_sr1:84EF ??                          .ds 1
xevious_sr1:84F0 ??                          .ds 1
xevious_sr1:84F1 ??                          .ds 1
xevious_sr1:84F2 ??                          .ds 1
xevious_sr1:84F3 ??                          .ds 1
xevious_sr1:84F4 ??                          .ds 1
xevious_sr1:84F5 ??                          .ds 1
xevious_sr1:84F6 ??                          .ds 1
xevious_sr1:84F7 ??                          .ds 1
xevious_sr1:84F8 ??                          .ds 1
xevious_sr1:84F9 ??                          .ds 1
xevious_sr1:84FA ??                          .ds 1
xevious_sr1:84FB ??                          .ds 1
xevious_sr1:84FC ??                          .ds 1
xevious_sr1:84FD ??                          .ds 1
xevious_sr1:84FE ??                          .ds 1
xevious_sr1:84FF ??                          .ds 1
xevious_sr1:8500 ?? ?? ??    RAM_test_result_final_score:.ds 3
xevious_sr1:8503 ?? ?? ?? ??+name_buffer:    .ds 0xA
xevious_sr1:850D ?? ?? ??                    .ds 3
xevious_sr1:8510 ??          high_score_1st_lsb:.ds 1
xevious_sr1:8511 ??                          .ds 1
xevious_sr1:8512 ??          high_score_1st_msb:.ds 1
xevious_sr1:8513 ??          high_score_1st_name:.ds 1
xevious_sr1:8514 ??                          .ds 1
xevious_sr1:8515 ??                          .ds 1
xevious_sr1:8516 ??                          .ds 1
xevious_sr1:8517 ??                          .ds 1
xevious_sr1:8518 ??                          .ds 1
xevious_sr1:8519 ??                          .ds 1
xevious_sr1:851A ??                          .ds 1
xevious_sr1:851B ??                          .ds 1
xevious_sr1:851C ??                          .ds 1
xevious_sr1:851D ??                          .ds 1
xevious_sr1:851E ??                          .ds 1
xevious_sr1:851F ??                          .ds 1
xevious_sr1:8520 ??                          .ds 1
xevious_sr1:8521 ??                          .ds 1
xevious_sr1:8522 ??          high_score_2nd_msb:.ds 1
xevious_sr1:8523 ??          high_score_2nd_name:.ds 1
xevious_sr1:8524 ??                          .ds 1
xevious_sr1:8525 ??                          .ds 1
xevious_sr1:8526 ??                          .ds 1
xevious_sr1:8527 ??                          .ds 1
xevious_sr1:8528 ??                          .ds 1
xevious_sr1:8529 ??                          .ds 1
xevious_sr1:852A ??                          .ds 1
xevious_sr1:852B ??                          .ds 1
xevious_sr1:852C ??                          .ds 1
xevious_sr1:852D ??                          .ds 1
xevious_sr1:852E ??                          .ds 1
xevious_sr1:852F ??                          .ds 1
xevious_sr1:8530 ??                          .ds 1
xevious_sr1:8531 ??                          .ds 1
xevious_sr1:8532 ??          high_score_3rd_msb:.ds 1
xevious_sr1:8533 ??          high_score_3rd_name:.ds 1
xevious_sr1:8534 ??                          .ds 1
xevious_sr1:8535 ??                          .ds 1
xevious_sr1:8536 ??                          .ds 1
xevious_sr1:8537 ??                          .ds 1
xevious_sr1:8538 ??                          .ds 1
xevious_sr1:8539 ??                          .ds 1
xevious_sr1:853A ??                          .ds 1
xevious_sr1:853B ??                          .ds 1
xevious_sr1:853C ??                          .ds 1
xevious_sr1:853D ??                          .ds 1
xevious_sr1:853E ??                          .ds 1
xevious_sr1:853F ??                          .ds 1
xevious_sr1:8540 ??                          .ds 1
xevious_sr1:8541 ??                          .ds 1
xevious_sr1:8542 ??          high_score_4th_msb:.ds 1
xevious_sr1:8543 ??          high_score_4th_name:.ds 1
xevious_sr1:8544 ??                          .ds 1
xevious_sr1:8545 ??                          .ds 1
xevious_sr1:8546 ??                          .ds 1
xevious_sr1:8547 ??                          .ds 1
xevious_sr1:8548 ??                          .ds 1
xevious_sr1:8549 ??                          .ds 1
xevious_sr1:854A ??                          .ds 1
xevious_sr1:854B ??                          .ds 1
xevious_sr1:854C ??                          .ds 1
xevious_sr1:854D ??                          .ds 1
xevious_sr1:854E ??                          .ds 1
xevious_sr1:854F ??                          .ds 1
xevious_sr1:8550 ??                          .ds 1
xevious_sr1:8551 ??                          .ds 1
xevious_sr1:8552 ??          high_score_5th_msb:.ds 1
xevious_sr1:8553 ??          high_score_5th_name:.ds 1
xevious_sr1:8554 ??                          .ds 1
xevious_sr1:8555 ??                          .ds 1
xevious_sr1:8556 ??                          .ds 1
xevious_sr1:8557 ??                          .ds 1
xevious_sr1:8558 ??                          .ds 1
xevious_sr1:8559 ??                          .ds 1
xevious_sr1:855A ??                          .ds 1
xevious_sr1:855B ??                          .ds 1
xevious_sr1:855C ??                          .ds 1
xevious_sr1:855D ??                          .ds 1
xevious_sr1:855E ??                          .ds 1
xevious_sr1:855F ??                          .ds 1
xevious_sr1:8560 ??          unk_8560:       .ds 1
xevious_sr1:8561 ??                          .ds 1
xevious_sr1:8562 ??                          .ds 1
xevious_sr1:8563 ??          coinage_a_coins:.ds 1
xevious_sr1:8564 ??          coinage_a_credits:.ds 1
xevious_sr1:8565 ??          coinage_b_coins:.ds 1
xevious_sr1:8566 ??          coinage_b_credits:.ds 1
xevious_sr1:8567 ??                          .ds 1
xevious_sr1:8568 ??                          .ds 1
xevious_sr1:8569 ??                          .ds 1
xevious_sr1:856A ??                          .ds 1
xevious_sr1:856B ??                          .ds 1
xevious_sr1:856C ??                          .ds 1
xevious_sr1:856D ??                          .ds 1
xevious_sr1:856E ??                          .ds 1
xevious_sr1:856F ??                          .ds 1
xevious_sr1:8570 ??                          .ds 1
xevious_sr1:8571 ??          rom_cksum_tbl:  .ds 1
xevious_sr1:8572 ??                          .ds 1
xevious_sr1:8573 ??                          .ds 1
xevious_sr1:8574 ??          main_rom_cksum_tbl:.ds 1
xevious_sr1:8575 ??                          .ds 1
xevious_sr1:8576 ??                          .ds 1
xevious_sr1:8577 ??                          .ds 1
xevious_sr1:8578 ??                          .ds 1
xevious_sr1:8579 ??                          .ds 1
xevious_sr1:857A ??                          .ds 1
xevious_sr1:857B ??                          .ds 1
xevious_sr1:857C ??                          .ds 1
xevious_sr1:857D ??                          .ds 1
xevious_sr1:857E ??                          .ds 1
xevious_sr1:857F ??                          .ds 1
xevious_sr1:8580 ??                          .ds 1
xevious_sr1:8581 ??                          .ds 1
xevious_sr1:8582 ??                          .ds 1
xevious_sr1:8583 ??                          .ds 1
xevious_sr1:8584 ??                          .ds 1
xevious_sr1:8585 ??                          .ds 1
xevious_sr1:8586 ??                          .ds 1
xevious_sr1:8587 ??                          .ds 1
xevious_sr1:8588 ??                          .ds 1
xevious_sr1:8589 ??                          .ds 1
xevious_sr1:858A ??                          .ds 1
xevious_sr1:858B ??                          .ds 1
xevious_sr1:858C ??                          .ds 1
xevious_sr1:858D ??                          .ds 1
xevious_sr1:858E ??                          .ds 1
xevious_sr1:858F ??                          .ds 1
xevious_sr1:8590 ??                          .ds 1
xevious_sr1:8591 ??                          .ds 1
xevious_sr1:8592 ??                          .ds 1
xevious_sr1:8593 ??                          .ds 1
xevious_sr1:8594 ??                          .ds 1
xevious_sr1:8595 ??                          .ds 1
xevious_sr1:8596 ??                          .ds 1
xevious_sr1:8597 ??                          .ds 1
xevious_sr1:8598 ??                          .ds 1
xevious_sr1:8599 ??                          .ds 1
xevious_sr1:859A ??                          .ds 1
xevious_sr1:859B ??                          .ds 1
xevious_sr1:859C ??                          .ds 1
xevious_sr1:859D ??                          .ds 1
xevious_sr1:859E ??                          .ds 1
xevious_sr1:859F ??                          .ds 1
xevious_sr1:85A0 ??                          .ds 1
xevious_sr1:85A1 ??                          .ds 1
xevious_sr1:85A2 ??                          .ds 1
xevious_sr1:85A3 ??                          .ds 1
xevious_sr1:85A4 ??                          .ds 1
xevious_sr1:85A5 ??                          .ds 1
xevious_sr1:85A6 ??                          .ds 1
xevious_sr1:85A7 ??                          .ds 1
xevious_sr1:85A8 ??                          .ds 1
xevious_sr1:85A9 ??                          .ds 1
xevious_sr1:85AA ??                          .ds 1
xevious_sr1:85AB ??                          .ds 1
xevious_sr1:85AC ??          unk_85AC:       .ds 1
xevious_sr1:85AD ??          maincpu_inited: .ds 1
xevious_sr1:85AE ??                          .ds 1
xevious_sr1:85AF ??                          .ds 1
xevious_sr1:85B0 ??                          .ds 1
xevious_sr1:85B1 ??                          .ds 1
xevious_sr1:85B2 ??                          .ds 1
xevious_sr1:85B3 ??                          .ds 1
xevious_sr1:85B4 ??                          .ds 1
xevious_sr1:85B5 ??                          .ds 1
xevious_sr1:85B6 ??                          .ds 1
xevious_sr1:85B7 ??                          .ds 1
xevious_sr1:85B8 ??                          .ds 1
xevious_sr1:85B9 ??                          .ds 1
xevious_sr1:85BA ??                          .ds 1
xevious_sr1:85BB ??                          .ds 1
xevious_sr1:85BC ??                          .ds 1
xevious_sr1:85BD ??                          .ds 1
xevious_sr1:85BE ??                          .ds 1
xevious_sr1:85BF ??                          .ds 1
xevious_sr1:85C0 ??                          .ds 1
xevious_sr1:85C1 ??                          .ds 1
xevious_sr1:85C2 ??                          .ds 1
xevious_sr1:85C3 ??                          .ds 1
xevious_sr1:85C4 ??                          .ds 1
xevious_sr1:85C5 ??                          .ds 1
xevious_sr1:85C6 ??                          .ds 1
xevious_sr1:85C7 ??                          .ds 1
xevious_sr1:85C8 ??                          .ds 1
xevious_sr1:85C9 ??                          .ds 1
xevious_sr1:85CA ??                          .ds 1
xevious_sr1:85CB ??                          .ds 1
xevious_sr1:85CC ??                          .ds 1
xevious_sr1:85CD ??                          .ds 1
xevious_sr1:85CE ??                          .ds 1
xevious_sr1:85CF ??                          .ds 1
xevious_sr1:85D0 ??                          .ds 1
xevious_sr1:85D1 ??                          .ds 1
xevious_sr1:85D2 ??                          .ds 1
xevious_sr1:85D3 ??                          .ds 1
xevious_sr1:85D4 ??                          .ds 1
xevious_sr1:85D5 ??                          .ds 1
xevious_sr1:85D6 ??                          .ds 1
xevious_sr1:85D7 ??                          .ds 1
xevious_sr1:85D8 ??                          .ds 1
xevious_sr1:85D9 ??                          .ds 1
xevious_sr1:85DA ??                          .ds 1
xevious_sr1:85DB ??                          .ds 1
xevious_sr1:85DC ??                          .ds 1
xevious_sr1:85DD ??                          .ds 1
xevious_sr1:85DE ??                          .ds 1
xevious_sr1:85DF ??                          .ds 1
xevious_sr1:85E0 ??                          .ds 1
xevious_sr1:85E1 ??                          .ds 1
xevious_sr1:85E2 ??                          .ds 1
xevious_sr1:85E3 ??                          .ds 1
xevious_sr1:85E4 ??                          .ds 1
xevious_sr1:85E5 ??                          .ds 1
xevious_sr1:85E6 ??                          .ds 1
xevious_sr1:85E7 ??                          .ds 1
xevious_sr1:85E8 ??                          .ds 1
xevious_sr1:85E9 ??                          .ds 1
xevious_sr1:85EA ??                          .ds 1
xevious_sr1:85EB ??                          .ds 1
xevious_sr1:85EC ??                          .ds 1
xevious_sr1:85ED ??                          .ds 1
xevious_sr1:85EE ??                          .ds 1
xevious_sr1:85EF ??                          .ds 1
xevious_sr1:85F0 ??                          .ds 1
xevious_sr1:85F1 ??                          .ds 1
xevious_sr1:85F2 ??                          .ds 1
xevious_sr1:85F3 ??                          .ds 1
xevious_sr1:85F4 ??                          .ds 1
xevious_sr1:85F5 ??                          .ds 1
xevious_sr1:85F6 ??                          .ds 1
xevious_sr1:85F7 ??                          .ds 1
xevious_sr1:85F8 ??                          .ds 1
xevious_sr1:85F9 ??                          .ds 1
xevious_sr1:85FA ??                          .ds 1
xevious_sr1:85FB ??                          .ds 1
xevious_sr1:85FC ??                          .ds 1
xevious_sr1:85FD ??                          .ds 1
xevious_sr1:85FE ??                          .ds 1
xevious_sr1:85FF ??                          .ds 1
xevious_sr1:8600 ??                          .ds 1
xevious_sr1:8601 ??                          .ds 1
xevious_sr1:8602 ??                          .ds 1
xevious_sr1:8603 ??                          .ds 1
xevious_sr1:8604 ??                          .ds 1
xevious_sr1:8605 ??                          .ds 1
xevious_sr1:8606 ??                          .ds 1
xevious_sr1:8607 ??                          .ds 1
xevious_sr1:8608 ??                          .ds 1
xevious_sr1:8609 ??                          .ds 1
xevious_sr1:860A ??                          .ds 1
xevious_sr1:860B ??                          .ds 1
xevious_sr1:860C ??                          .ds 1
xevious_sr1:860D ??                          .ds 1
xevious_sr1:860E ??                          .ds 1
xevious_sr1:860F ??                          .ds 1
xevious_sr1:8610 ??                          .ds 1
xevious_sr1:8611 ??                          .ds 1
xevious_sr1:8612 ??                          .ds 1
xevious_sr1:8613 ??                          .ds 1
xevious_sr1:8614 ??                          .ds 1
xevious_sr1:8615 ??                          .ds 1
xevious_sr1:8616 ??                          .ds 1
xevious_sr1:8617 ??                          .ds 1
xevious_sr1:8618 ??                          .ds 1
xevious_sr1:8619 ??                          .ds 1
xevious_sr1:861A ??                          .ds 1
xevious_sr1:861B ??                          .ds 1
xevious_sr1:861C ??                          .ds 1
xevious_sr1:861D ??                          .ds 1
xevious_sr1:861E ??                          .ds 1
xevious_sr1:861F ??                          .ds 1
xevious_sr1:8620 ??                          .ds 1
xevious_sr1:8621 ??                          .ds 1
xevious_sr1:8622 ??                          .ds 1
xevious_sr1:8623 ??                          .ds 1
xevious_sr1:8624 ??                          .ds 1
xevious_sr1:8625 ??                          .ds 1
xevious_sr1:8626 ??                          .ds 1
xevious_sr1:8627 ??                          .ds 1
xevious_sr1:8628 ??                          .ds 1
xevious_sr1:8629 ??                          .ds 1
xevious_sr1:862A ??                          .ds 1
xevious_sr1:862B ??                          .ds 1
xevious_sr1:862C ??                          .ds 1
xevious_sr1:862D ??                          .ds 1
xevious_sr1:862E ??                          .ds 1
xevious_sr1:862F ??                          .ds 1
xevious_sr1:8630 ??                          .ds 1
xevious_sr1:8631 ??                          .ds 1
xevious_sr1:8632 ??                          .ds 1
xevious_sr1:8633 ??                          .ds 1
xevious_sr1:8634 ??                          .ds 1
xevious_sr1:8635 ??                          .ds 1
xevious_sr1:8636 ??                          .ds 1
xevious_sr1:8637 ??                          .ds 1
xevious_sr1:8638 ??                          .ds 1
xevious_sr1:8639 ??                          .ds 1
xevious_sr1:863A ??                          .ds 1
xevious_sr1:863B ??                          .ds 1
xevious_sr1:863C ??                          .ds 1
xevious_sr1:863D ??                          .ds 1
xevious_sr1:863E ??                          .ds 1
xevious_sr1:863F ??                          .ds 1
xevious_sr1:8640 ??                          .ds 1
xevious_sr1:8641 ??                          .ds 1
xevious_sr1:8642 ??                          .ds 1
xevious_sr1:8643 ??                          .ds 1
xevious_sr1:8644 ??                          .ds 1
xevious_sr1:8645 ??                          .ds 1
xevious_sr1:8646 ??                          .ds 1
xevious_sr1:8647 ??                          .ds 1
xevious_sr1:8648 ??                          .ds 1
xevious_sr1:8649 ??                          .ds 1
xevious_sr1:864A ??                          .ds 1
xevious_sr1:864B ??                          .ds 1
xevious_sr1:864C ??                          .ds 1
xevious_sr1:864D ??                          .ds 1
xevious_sr1:864E ??                          .ds 1
xevious_sr1:864F ??                          .ds 1
xevious_sr1:8650 ??                          .ds 1
xevious_sr1:8651 ??                          .ds 1
xevious_sr1:8652 ??                          .ds 1
xevious_sr1:8653 ??                          .ds 1
xevious_sr1:8654 ??                          .ds 1
xevious_sr1:8655 ??                          .ds 1
xevious_sr1:8656 ??                          .ds 1
xevious_sr1:8657 ??                          .ds 1
xevious_sr1:8658 ??                          .ds 1
xevious_sr1:8659 ??                          .ds 1
xevious_sr1:865A ??                          .ds 1
xevious_sr1:865B ??                          .ds 1
xevious_sr1:865C ??                          .ds 1
xevious_sr1:865D ??                          .ds 1
xevious_sr1:865E ??                          .ds 1
xevious_sr1:865F ??                          .ds 1
xevious_sr1:8660 ??                          .ds 1
xevious_sr1:8661 ??                          .ds 1
xevious_sr1:8662 ??                          .ds 1
xevious_sr1:8663 ??                          .ds 1
xevious_sr1:8664 ??                          .ds 1
xevious_sr1:8665 ??                          .ds 1
xevious_sr1:8666 ??                          .ds 1
xevious_sr1:8667 ??                          .ds 1
xevious_sr1:8668 ??                          .ds 1
xevious_sr1:8669 ??                          .ds 1
xevious_sr1:866A ??                          .ds 1
xevious_sr1:866B ??                          .ds 1
xevious_sr1:866C ??                          .ds 1
xevious_sr1:866D ??                          .ds 1
xevious_sr1:866E ??                          .ds 1
xevious_sr1:866F ??                          .ds 1
xevious_sr1:8670 ??                          .ds 1
xevious_sr1:8671 ??                          .ds 1
xevious_sr1:8672 ??                          .ds 1
xevious_sr1:8673 ??                          .ds 1
xevious_sr1:8674 ??                          .ds 1
xevious_sr1:8675 ??                          .ds 1
xevious_sr1:8676 ??                          .ds 1
xevious_sr1:8677 ??                          .ds 1
xevious_sr1:8678 ??                          .ds 1
xevious_sr1:8679 ??                          .ds 1
xevious_sr1:867A ??                          .ds 1
xevious_sr1:867B ??                          .ds 1
xevious_sr1:867C ??                          .ds 1
xevious_sr1:867D ??                          .ds 1
xevious_sr1:867E ??                          .ds 1
xevious_sr1:867F ??                          .ds 1
xevious_sr1:8680 ??                          .ds 1
xevious_sr1:8681 ??                          .ds 1
xevious_sr1:8682 ??                          .ds 1
xevious_sr1:8683 ??                          .ds 1
xevious_sr1:8684 ??                          .ds 1
xevious_sr1:8685 ??                          .ds 1
xevious_sr1:8686 ??                          .ds 1
xevious_sr1:8687 ??                          .ds 1
xevious_sr1:8688 ??                          .ds 1
xevious_sr1:8689 ??                          .ds 1
xevious_sr1:868A ??                          .ds 1
xevious_sr1:868B ??                          .ds 1
xevious_sr1:868C ??                          .ds 1
xevious_sr1:868D ??                          .ds 1
xevious_sr1:868E ??                          .ds 1
xevious_sr1:868F ??                          .ds 1
xevious_sr1:8690 ??                          .ds 1
xevious_sr1:8691 ??                          .ds 1
xevious_sr1:8692 ??                          .ds 1
xevious_sr1:8693 ??                          .ds 1
xevious_sr1:8694 ??                          .ds 1
xevious_sr1:8695 ??                          .ds 1
xevious_sr1:8696 ??                          .ds 1
xevious_sr1:8697 ??                          .ds 1
xevious_sr1:8698 ??                          .ds 1
xevious_sr1:8699 ??                          .ds 1
xevious_sr1:869A ??                          .ds 1
xevious_sr1:869B ??                          .ds 1
xevious_sr1:869C ??                          .ds 1
xevious_sr1:869D ??                          .ds 1
xevious_sr1:869E ??                          .ds 1
xevious_sr1:869F ??                          .ds 1
xevious_sr1:86A0 ??                          .ds 1
xevious_sr1:86A1 ??                          .ds 1
xevious_sr1:86A2 ??                          .ds 1
xevious_sr1:86A3 ??                          .ds 1
xevious_sr1:86A4 ??                          .ds 1
xevious_sr1:86A5 ??                          .ds 1
xevious_sr1:86A6 ??                          .ds 1
xevious_sr1:86A7 ??                          .ds 1
xevious_sr1:86A8 ??                          .ds 1
xevious_sr1:86A9 ??                          .ds 1
xevious_sr1:86AA ??                          .ds 1
xevious_sr1:86AB ??                          .ds 1
xevious_sr1:86AC ??                          .ds 1
xevious_sr1:86AD ??                          .ds 1
xevious_sr1:86AE ??                          .ds 1
xevious_sr1:86AF ??                          .ds 1
xevious_sr1:86B0 ??                          .ds 1
xevious_sr1:86B1 ??                          .ds 1
xevious_sr1:86B2 ??                          .ds 1
xevious_sr1:86B3 ??                          .ds 1
xevious_sr1:86B4 ??                          .ds 1
xevious_sr1:86B5 ??                          .ds 1
xevious_sr1:86B6 ??                          .ds 1
xevious_sr1:86B7 ??                          .ds 1
xevious_sr1:86B8 ??                          .ds 1
xevious_sr1:86B9 ??                          .ds 1
xevious_sr1:86BA ??                          .ds 1
xevious_sr1:86BB ??                          .ds 1
xevious_sr1:86BC ??                          .ds 1
xevious_sr1:86BD ??                          .ds 1
xevious_sr1:86BE ??                          .ds 1
xevious_sr1:86BF ??                          .ds 1
xevious_sr1:86C0 ??                          .ds 1
xevious_sr1:86C1 ??                          .ds 1
xevious_sr1:86C2 ??                          .ds 1
xevious_sr1:86C3 ??                          .ds 1
xevious_sr1:86C4 ??                          .ds 1
xevious_sr1:86C5 ??                          .ds 1
xevious_sr1:86C6 ??                          .ds 1
xevious_sr1:86C7 ??                          .ds 1
xevious_sr1:86C8 ??                          .ds 1
xevious_sr1:86C9 ??                          .ds 1
xevious_sr1:86CA ??                          .ds 1
xevious_sr1:86CB ??                          .ds 1
xevious_sr1:86CC ??                          .ds 1
xevious_sr1:86CD ??                          .ds 1
xevious_sr1:86CE ??                          .ds 1
xevious_sr1:86CF ??                          .ds 1
xevious_sr1:86D0 ??                          .ds 1
xevious_sr1:86D1 ??                          .ds 1
xevious_sr1:86D2 ??                          .ds 1
xevious_sr1:86D3 ??                          .ds 1
xevious_sr1:86D4 ??                          .ds 1
xevious_sr1:86D5 ??                          .ds 1
xevious_sr1:86D6 ??                          .ds 1
xevious_sr1:86D7 ??                          .ds 1
xevious_sr1:86D8 ??                          .ds 1
xevious_sr1:86D9 ??                          .ds 1
xevious_sr1:86DA ??                          .ds 1
xevious_sr1:86DB ??                          .ds 1
xevious_sr1:86DC ??                          .ds 1
xevious_sr1:86DD ??                          .ds 1
xevious_sr1:86DE ??                          .ds 1
xevious_sr1:86DF ??                          .ds 1
xevious_sr1:86E0 ??                          .ds 1
xevious_sr1:86E1 ??                          .ds 1
xevious_sr1:86E2 ??                          .ds 1
xevious_sr1:86E3 ??                          .ds 1
xevious_sr1:86E4 ??                          .ds 1
xevious_sr1:86E5 ??                          .ds 1
xevious_sr1:86E6 ??                          .ds 1
xevious_sr1:86E7 ??                          .ds 1
xevious_sr1:86E8 ??                          .ds 1
xevious_sr1:86E9 ??                          .ds 1
xevious_sr1:86EA ??                          .ds 1
xevious_sr1:86EB ??                          .ds 1
xevious_sr1:86EC ??                          .ds 1
xevious_sr1:86ED ??                          .ds 1
xevious_sr1:86EE ??                          .ds 1
xevious_sr1:86EF ??                          .ds 1
xevious_sr1:86F0 ??                          .ds 1
xevious_sr1:86F1 ??                          .ds 1
xevious_sr1:86F2 ??                          .ds 1
xevious_sr1:86F3 ??                          .ds 1
xevious_sr1:86F4 ??                          .ds 1
xevious_sr1:86F5 ??                          .ds 1
xevious_sr1:86F6 ??                          .ds 1
xevious_sr1:86F7 ??                          .ds 1
xevious_sr1:86F8 ??                          .ds 1
xevious_sr1:86F9 ??                          .ds 1
xevious_sr1:86FA ??                          .ds 1
xevious_sr1:86FB ??                          .ds 1
xevious_sr1:86FC ??                          .ds 1
xevious_sr1:86FD ??                          .ds 1
xevious_sr1:86FE ??                          .ds 1
xevious_sr1:86FF ??                          .ds 1
xevious_sr1:8700 ??                          .ds 1
xevious_sr1:8701 ??                          .ds 1
xevious_sr1:8702 ??                          .ds 1
xevious_sr1:8703 ??                          .ds 1
xevious_sr1:8704 ??                          .ds 1
xevious_sr1:8705 ??                          .ds 1
xevious_sr1:8706 ??                          .ds 1
xevious_sr1:8707 ??                          .ds 1
xevious_sr1:8708 ??                          .ds 1
xevious_sr1:8709 ??                          .ds 1
xevious_sr1:870A ??                          .ds 1
xevious_sr1:870B ??                          .ds 1
xevious_sr1:870C ??                          .ds 1
xevious_sr1:870D ??                          .ds 1
xevious_sr1:870E ??                          .ds 1
xevious_sr1:870F ??                          .ds 1
xevious_sr1:8710 ??                          .ds 1
xevious_sr1:8711 ??                          .ds 1
xevious_sr1:8712 ??                          .ds 1
xevious_sr1:8713 ??                          .ds 1
xevious_sr1:8714 ??                          .ds 1
xevious_sr1:8715 ??                          .ds 1
xevious_sr1:8716 ??                          .ds 1
xevious_sr1:8717 ??                          .ds 1
xevious_sr1:8718 ??                          .ds 1
xevious_sr1:8719 ??                          .ds 1
xevious_sr1:871A ??                          .ds 1
xevious_sr1:871B ??                          .ds 1
xevious_sr1:871C ??                          .ds 1
xevious_sr1:871D ??                          .ds 1
xevious_sr1:871E ??                          .ds 1
xevious_sr1:871F ??                          .ds 1
xevious_sr1:8720 ??                          .ds 1
xevious_sr1:8721 ??                          .ds 1
xevious_sr1:8722 ??                          .ds 1
xevious_sr1:8723 ??                          .ds 1
xevious_sr1:8724 ??                          .ds 1
xevious_sr1:8725 ??                          .ds 1
xevious_sr1:8726 ??                          .ds 1
xevious_sr1:8727 ??                          .ds 1
xevious_sr1:8728 ??                          .ds 1
xevious_sr1:8729 ??                          .ds 1
xevious_sr1:872A ??                          .ds 1
xevious_sr1:872B ??                          .ds 1
xevious_sr1:872C ??                          .ds 1
xevious_sr1:872D ??                          .ds 1
xevious_sr1:872E ??                          .ds 1
xevious_sr1:872F ??                          .ds 1
xevious_sr1:8730 ??                          .ds 1
xevious_sr1:8731 ??                          .ds 1
xevious_sr1:8732 ??                          .ds 1
xevious_sr1:8733 ??                          .ds 1
xevious_sr1:8734 ??                          .ds 1
xevious_sr1:8735 ??                          .ds 1
xevious_sr1:8736 ??                          .ds 1
xevious_sr1:8737 ??                          .ds 1
xevious_sr1:8738 ??                          .ds 1
xevious_sr1:8739 ??                          .ds 1
xevious_sr1:873A ??                          .ds 1
xevious_sr1:873B ??                          .ds 1
xevious_sr1:873C ??                          .ds 1
xevious_sr1:873D ??                          .ds 1
xevious_sr1:873E ??                          .ds 1
xevious_sr1:873F ??                          .ds 1
xevious_sr1:8740 ??                          .ds 1
xevious_sr1:8741 ??                          .ds 1
xevious_sr1:8742 ??                          .ds 1
xevious_sr1:8743 ??                          .ds 1
xevious_sr1:8744 ??                          .ds 1
xevious_sr1:8745 ??                          .ds 1
xevious_sr1:8746 ??                          .ds 1
xevious_sr1:8747 ??                          .ds 1
xevious_sr1:8748 ??                          .ds 1
xevious_sr1:8749 ??                          .ds 1
xevious_sr1:874A ??                          .ds 1
xevious_sr1:874B ??                          .ds 1
xevious_sr1:874C ??                          .ds 1
xevious_sr1:874D ??                          .ds 1
xevious_sr1:874E ??                          .ds 1
xevious_sr1:874F ??                          .ds 1
xevious_sr1:8750 ??                          .ds 1
xevious_sr1:8751 ??                          .ds 1
xevious_sr1:8752 ??                          .ds 1
xevious_sr1:8753 ??                          .ds 1
xevious_sr1:8754 ??                          .ds 1
xevious_sr1:8755 ??                          .ds 1
xevious_sr1:8756 ??                          .ds 1
xevious_sr1:8757 ??                          .ds 1
xevious_sr1:8758 ??                          .ds 1
xevious_sr1:8759 ??                          .ds 1
xevious_sr1:875A ??                          .ds 1
xevious_sr1:875B ??                          .ds 1
xevious_sr1:875C ??                          .ds 1
xevious_sr1:875D ??                          .ds 1
xevious_sr1:875E ??                          .ds 1
xevious_sr1:875F ??                          .ds 1
xevious_sr1:8760 ??                          .ds 1
xevious_sr1:8761 ??                          .ds 1
xevious_sr1:8762 ??                          .ds 1
xevious_sr1:8763 ??                          .ds 1
xevious_sr1:8764 ??                          .ds 1
xevious_sr1:8765 ??                          .ds 1
xevious_sr1:8766 ??                          .ds 1
xevious_sr1:8767 ??                          .ds 1
xevious_sr1:8768 ??                          .ds 1
xevious_sr1:8769 ??                          .ds 1
xevious_sr1:876A ??                          .ds 1
xevious_sr1:876B ??                          .ds 1
xevious_sr1:876C ??                          .ds 1
xevious_sr1:876D ??                          .ds 1
xevious_sr1:876E ??                          .ds 1
xevious_sr1:876F ??                          .ds 1
xevious_sr1:8770 ??                          .ds 1
xevious_sr1:8771 ??                          .ds 1
xevious_sr1:8772 ??                          .ds 1
xevious_sr1:8773 ??                          .ds 1
xevious_sr1:8774 ??                          .ds 1
xevious_sr1:8775 ??                          .ds 1
xevious_sr1:8776 ??                          .ds 1
xevious_sr1:8777 ??                          .ds 1
xevious_sr1:8778 ??                          .ds 1
xevious_sr1:8779 ??                          .ds 1
xevious_sr1:877A ??                          .ds 1
xevious_sr1:877B ??                          .ds 1
xevious_sr1:877C ??                          .ds 1
xevious_sr1:877D ??                          .ds 1
xevious_sr1:877E ??                          .ds 1
xevious_sr1:877F ??                          .ds 1
xevious_sr1:8780 ?? ?? ?? ??+spriteram_2:    .ds 0x80
xevious_sr1:8780 ?? ?? ?? ??+; end of 'xevious_sr1'
xevious_sr1:8780 ?? ?? ?? ??+
xevious_sr2:9000             ; ===========================================================================
xevious_sr2:9000
xevious_sr2:9000             ; Segment type: Regular
xevious_sr2:9000                             .org 0x9000
xevious_sr2:9000 ??                          .ds 1
xevious_sr2:9001 ??                          .ds 1
xevious_sr2:9002 ??                          .ds 1
xevious_sr2:9003 ??                          .ds 1
xevious_sr2:9004 ??                          .ds 1
xevious_sr2:9005 ??                          .ds 1
xevious_sr2:9006 ??                          .ds 1
xevious_sr2:9007 ??                          .ds 1
xevious_sr2:9008 ??                          .ds 1
xevious_sr2:9009 ??                          .ds 1
xevious_sr2:900A ??                          .ds 1
xevious_sr2:900B ??                          .ds 1
xevious_sr2:900C ??                          .ds 1
xevious_sr2:900D ??                          .ds 1
xevious_sr2:900E ??                          .ds 1
xevious_sr2:900F ??                          .ds 1
xevious_sr2:9010 ??                          .ds 1
xevious_sr2:9011 ??                          .ds 1
xevious_sr2:9012 ??                          .ds 1
xevious_sr2:9013 ??                          .ds 1
xevious_sr2:9014 ??                          .ds 1
xevious_sr2:9015 ??                          .ds 1
xevious_sr2:9016 ??                          .ds 1
xevious_sr2:9017 ??                          .ds 1
xevious_sr2:9018 ??                          .ds 1
xevious_sr2:9019 ??                          .ds 1
xevious_sr2:901A ??                          .ds 1
xevious_sr2:901B ??                          .ds 1
xevious_sr2:901C ??                          .ds 1
xevious_sr2:901D ??                          .ds 1
xevious_sr2:901E ??                          .ds 1
xevious_sr2:901F ??                          .ds 1
xevious_sr2:9020 ??                          .ds 1
xevious_sr2:9021 ??                          .ds 1
xevious_sr2:9022 ??                          .ds 1
xevious_sr2:9023 ??                          .ds 1
xevious_sr2:9024 ??                          .ds 1
xevious_sr2:9025 ??                          .ds 1
xevious_sr2:9026 ??                          .ds 1
xevious_sr2:9027 ??                          .ds 1
xevious_sr2:9028 ??                          .ds 1
xevious_sr2:9029 ??                          .ds 1
xevious_sr2:902A ??                          .ds 1
xevious_sr2:902B ??                          .ds 1
xevious_sr2:902C ??                          .ds 1
xevious_sr2:902D ??                          .ds 1
xevious_sr2:902E ??                          .ds 1
xevious_sr2:902F ??                          .ds 1
xevious_sr2:9030 ??                          .ds 1
xevious_sr2:9031 ??                          .ds 1
xevious_sr2:9032 ??                          .ds 1
xevious_sr2:9033 ??                          .ds 1
xevious_sr2:9034 ??                          .ds 1
xevious_sr2:9035 ??                          .ds 1
xevious_sr2:9036 ??                          .ds 1
xevious_sr2:9037 ??                          .ds 1
xevious_sr2:9038 ??                          .ds 1
xevious_sr2:9039 ??                          .ds 1
xevious_sr2:903A ??                          .ds 1
xevious_sr2:903B ??                          .ds 1
xevious_sr2:903C ??                          .ds 1
xevious_sr2:903D ??                          .ds 1
xevious_sr2:903E ??                          .ds 1
xevious_sr2:903F ??                          .ds 1
xevious_sr2:9040 ??                          .ds 1
xevious_sr2:9041 ??                          .ds 1
xevious_sr2:9042 ??                          .ds 1
xevious_sr2:9043 ??                          .ds 1
xevious_sr2:9044 ??                          .ds 1
xevious_sr2:9045 ??                          .ds 1
xevious_sr2:9046 ??                          .ds 1
xevious_sr2:9047 ??                          .ds 1
xevious_sr2:9048 ??                          .ds 1
xevious_sr2:9049 ??                          .ds 1
xevious_sr2:904A ??                          .ds 1
xevious_sr2:904B ??                          .ds 1
xevious_sr2:904C ??                          .ds 1
xevious_sr2:904D ??                          .ds 1
xevious_sr2:904E ??                          .ds 1
xevious_sr2:904F ??                          .ds 1
xevious_sr2:9050 ??                          .ds 1
xevious_sr2:9051 ??                          .ds 1
xevious_sr2:9052 ??                          .ds 1
xevious_sr2:9053 ??                          .ds 1
xevious_sr2:9054 ??                          .ds 1
xevious_sr2:9055 ??                          .ds 1
xevious_sr2:9056 ??                          .ds 1
xevious_sr2:9057 ??                          .ds 1
xevious_sr2:9058 ??                          .ds 1
xevious_sr2:9059 ??                          .ds 1
xevious_sr2:905A ??                          .ds 1
xevious_sr2:905B ??                          .ds 1
xevious_sr2:905C ??                          .ds 1
xevious_sr2:905D ??                          .ds 1
xevious_sr2:905E ??                          .ds 1
xevious_sr2:905F ??                          .ds 1
xevious_sr2:9060 ??                          .ds 1
xevious_sr2:9061 ??                          .ds 1
xevious_sr2:9062 ??                          .ds 1
xevious_sr2:9063 ??                          .ds 1
xevious_sr2:9064 ??                          .ds 1
xevious_sr2:9065 ??                          .ds 1
xevious_sr2:9066 ??                          .ds 1
xevious_sr2:9067 ??                          .ds 1
xevious_sr2:9068 ??                          .ds 1
xevious_sr2:9069 ??                          .ds 1
xevious_sr2:906A ??                          .ds 1
xevious_sr2:906B ??                          .ds 1
xevious_sr2:906C ??                          .ds 1
xevious_sr2:906D ??                          .ds 1
xevious_sr2:906E ??                          .ds 1
xevious_sr2:906F ??                          .ds 1
xevious_sr2:9070 ??                          .ds 1
xevious_sr2:9071 ??                          .ds 1
xevious_sr2:9072 ??                          .ds 1
xevious_sr2:9073 ??                          .ds 1
xevious_sr2:9074 ??                          .ds 1
xevious_sr2:9075 ??                          .ds 1
xevious_sr2:9076 ??                          .ds 1
xevious_sr2:9077 ??                          .ds 1
xevious_sr2:9078 ??                          .ds 1
xevious_sr2:9079 ??                          .ds 1
xevious_sr2:907A ??                          .ds 1
xevious_sr2:907B ??                          .ds 1
xevious_sr2:907C ??                          .ds 1
xevious_sr2:907D ??                          .ds 1
xevious_sr2:907E ??                          .ds 1
xevious_sr2:907F ??                          .ds 1
xevious_sr2:9080 ??                          .ds 1
xevious_sr2:9081 ??                          .ds 1
xevious_sr2:9082 ??                          .ds 1
xevious_sr2:9083 ??                          .ds 1
xevious_sr2:9084 ??                          .ds 1
xevious_sr2:9085 ??                          .ds 1
xevious_sr2:9086 ??                          .ds 1
xevious_sr2:9087 ??                          .ds 1
xevious_sr2:9088 ??                          .ds 1
xevious_sr2:9089 ??                          .ds 1
xevious_sr2:908A ??                          .ds 1
xevious_sr2:908B ??                          .ds 1
xevious_sr2:908C ??                          .ds 1
xevious_sr2:908D ??                          .ds 1
xevious_sr2:908E ??                          .ds 1
xevious_sr2:908F ??                          .ds 1
xevious_sr2:9090 ??                          .ds 1
xevious_sr2:9091 ??                          .ds 1
xevious_sr2:9092 ??                          .ds 1
xevious_sr2:9093 ??                          .ds 1
xevious_sr2:9094 ??                          .ds 1
xevious_sr2:9095 ??                          .ds 1
xevious_sr2:9096 ??                          .ds 1
xevious_sr2:9097 ??                          .ds 1
xevious_sr2:9098 ??                          .ds 1
xevious_sr2:9099 ??                          .ds 1
xevious_sr2:909A ??                          .ds 1
xevious_sr2:909B ??                          .ds 1
xevious_sr2:909C ??                          .ds 1
xevious_sr2:909D ??                          .ds 1
xevious_sr2:909E ??                          .ds 1
xevious_sr2:909F ??                          .ds 1
xevious_sr2:90A0 ??                          .ds 1
xevious_sr2:90A1 ??                          .ds 1
xevious_sr2:90A2 ??                          .ds 1
xevious_sr2:90A3 ??                          .ds 1
xevious_sr2:90A4 ??                          .ds 1
xevious_sr2:90A5 ??                          .ds 1
xevious_sr2:90A6 ??                          .ds 1
xevious_sr2:90A7 ??                          .ds 1
xevious_sr2:90A8 ??                          .ds 1
xevious_sr2:90A9 ??                          .ds 1
xevious_sr2:90AA ??                          .ds 1
xevious_sr2:90AB ??                          .ds 1
xevious_sr2:90AC ??                          .ds 1
xevious_sr2:90AD ??                          .ds 1
xevious_sr2:90AE ??                          .ds 1
xevious_sr2:90AF ??                          .ds 1
xevious_sr2:90B0 ??                          .ds 1
xevious_sr2:90B1 ??                          .ds 1
xevious_sr2:90B2 ??                          .ds 1
xevious_sr2:90B3 ??                          .ds 1
xevious_sr2:90B4 ??                          .ds 1
xevious_sr2:90B5 ??                          .ds 1
xevious_sr2:90B6 ??                          .ds 1
xevious_sr2:90B7 ??                          .ds 1
xevious_sr2:90B8 ??                          .ds 1
xevious_sr2:90B9 ??                          .ds 1
xevious_sr2:90BA ??                          .ds 1
xevious_sr2:90BB ??                          .ds 1
xevious_sr2:90BC ??                          .ds 1
xevious_sr2:90BD ??                          .ds 1
xevious_sr2:90BE ??                          .ds 1
xevious_sr2:90BF ??                          .ds 1
xevious_sr2:90C0 ??                          .ds 1
xevious_sr2:90C1 ??                          .ds 1
xevious_sr2:90C2 ??                          .ds 1
xevious_sr2:90C3 ??                          .ds 1
xevious_sr2:90C4 ??                          .ds 1
xevious_sr2:90C5 ??                          .ds 1
xevious_sr2:90C6 ??                          .ds 1
xevious_sr2:90C7 ??                          .ds 1
xevious_sr2:90C8 ??                          .ds 1
xevious_sr2:90C9 ??                          .ds 1
xevious_sr2:90CA ??                          .ds 1
xevious_sr2:90CB ??                          .ds 1
xevious_sr2:90CC ??                          .ds 1
xevious_sr2:90CD ??                          .ds 1
xevious_sr2:90CE ??                          .ds 1
xevious_sr2:90CF ??                          .ds 1
xevious_sr2:90D0 ??                          .ds 1
xevious_sr2:90D1 ??                          .ds 1
xevious_sr2:90D2 ??                          .ds 1
xevious_sr2:90D3 ??                          .ds 1
xevious_sr2:90D4 ??                          .ds 1
xevious_sr2:90D5 ??                          .ds 1
xevious_sr2:90D6 ??                          .ds 1
xevious_sr2:90D7 ??                          .ds 1
xevious_sr2:90D8 ??                          .ds 1
xevious_sr2:90D9 ??                          .ds 1
xevious_sr2:90DA ??                          .ds 1
xevious_sr2:90DB ??                          .ds 1
xevious_sr2:90DC ??                          .ds 1
xevious_sr2:90DD ??                          .ds 1
xevious_sr2:90DE ??                          .ds 1
xevious_sr2:90DF ??                          .ds 1
xevious_sr2:90E0 ??                          .ds 1
xevious_sr2:90E1 ??                          .ds 1
xevious_sr2:90E2 ??                          .ds 1
xevious_sr2:90E3 ??                          .ds 1
xevious_sr2:90E4 ??                          .ds 1
xevious_sr2:90E5 ??                          .ds 1
xevious_sr2:90E6 ??                          .ds 1
xevious_sr2:90E7 ??                          .ds 1
xevious_sr2:90E8 ??                          .ds 1
xevious_sr2:90E9 ??                          .ds 1
xevious_sr2:90EA ??                          .ds 1
xevious_sr2:90EB ??                          .ds 1
xevious_sr2:90EC ??                          .ds 1
xevious_sr2:90ED ??                          .ds 1
xevious_sr2:90EE ??                          .ds 1
xevious_sr2:90EF ??                          .ds 1
xevious_sr2:90F0 ??                          .ds 1
xevious_sr2:90F1 ??                          .ds 1
xevious_sr2:90F2 ??                          .ds 1
xevious_sr2:90F3 ??                          .ds 1
xevious_sr2:90F4 ??                          .ds 1
xevious_sr2:90F5 ??                          .ds 1
xevious_sr2:90F6 ??                          .ds 1
xevious_sr2:90F7 ??                          .ds 1
xevious_sr2:90F8 ??                          .ds 1
xevious_sr2:90F9 ??                          .ds 1
xevious_sr2:90FA ??                          .ds 1
xevious_sr2:90FB ??                          .ds 1
xevious_sr2:90FC ??                          .ds 1
xevious_sr2:90FD ??                          .ds 1
xevious_sr2:90FE ??                          .ds 1
xevious_sr2:90FF ??                          .ds 1
xevious_sr2:9100 ??                          .ds 1
xevious_sr2:9101 ??                          .ds 1
xevious_sr2:9102 ??                          .ds 1
xevious_sr2:9103 ??                          .ds 1
xevious_sr2:9104 ??                          .ds 1
xevious_sr2:9105 ??                          .ds 1
xevious_sr2:9106 ??                          .ds 1
xevious_sr2:9107 ??                          .ds 1
xevious_sr2:9108 ??                          .ds 1
xevious_sr2:9109 ??                          .ds 1
xevious_sr2:910A ??                          .ds 1
xevious_sr2:910B ??                          .ds 1
xevious_sr2:910C ??                          .ds 1
xevious_sr2:910D ??                          .ds 1
xevious_sr2:910E ??                          .ds 1
xevious_sr2:910F ??                          .ds 1
xevious_sr2:9110 ??                          .ds 1
xevious_sr2:9111 ??                          .ds 1
xevious_sr2:9112 ??                          .ds 1
xevious_sr2:9113 ??                          .ds 1
xevious_sr2:9114 ??                          .ds 1
xevious_sr2:9115 ??                          .ds 1
xevious_sr2:9116 ??                          .ds 1
xevious_sr2:9117 ??                          .ds 1
xevious_sr2:9118 ??                          .ds 1
xevious_sr2:9119 ??                          .ds 1
xevious_sr2:911A ??                          .ds 1
xevious_sr2:911B ??                          .ds 1
xevious_sr2:911C ??                          .ds 1
xevious_sr2:911D ??                          .ds 1
xevious_sr2:911E ??                          .ds 1
xevious_sr2:911F ??                          .ds 1
xevious_sr2:9120 ??                          .ds 1
xevious_sr2:9121 ??                          .ds 1
xevious_sr2:9122 ??                          .ds 1
xevious_sr2:9123 ??                          .ds 1
xevious_sr2:9124 ??                          .ds 1
xevious_sr2:9125 ??                          .ds 1
xevious_sr2:9126 ??                          .ds 1
xevious_sr2:9127 ??                          .ds 1
xevious_sr2:9128 ??                          .ds 1
xevious_sr2:9129 ??                          .ds 1
xevious_sr2:912A ??                          .ds 1
xevious_sr2:912B ??                          .ds 1
xevious_sr2:912C ??                          .ds 1
xevious_sr2:912D ??                          .ds 1
xevious_sr2:912E ??                          .ds 1
xevious_sr2:912F ??                          .ds 1
xevious_sr2:9130 ??                          .ds 1
xevious_sr2:9131 ??                          .ds 1
xevious_sr2:9132 ??                          .ds 1
xevious_sr2:9133 ??                          .ds 1
xevious_sr2:9134 ??                          .ds 1
xevious_sr2:9135 ??                          .ds 1
xevious_sr2:9136 ??                          .ds 1
xevious_sr2:9137 ??                          .ds 1
xevious_sr2:9138 ??                          .ds 1
xevious_sr2:9139 ??                          .ds 1
xevious_sr2:913A ??                          .ds 1
xevious_sr2:913B ??                          .ds 1
xevious_sr2:913C ??                          .ds 1
xevious_sr2:913D ??                          .ds 1
xevious_sr2:913E ??                          .ds 1
xevious_sr2:913F ??                          .ds 1
xevious_sr2:9140 ??                          .ds 1
xevious_sr2:9141 ??                          .ds 1
xevious_sr2:9142 ??                          .ds 1
xevious_sr2:9143 ??                          .ds 1
xevious_sr2:9144 ??                          .ds 1
xevious_sr2:9145 ??                          .ds 1
xevious_sr2:9146 ??                          .ds 1
xevious_sr2:9147 ??                          .ds 1
xevious_sr2:9148 ??                          .ds 1
xevious_sr2:9149 ??                          .ds 1
xevious_sr2:914A ??                          .ds 1
xevious_sr2:914B ??                          .ds 1
xevious_sr2:914C ??                          .ds 1
xevious_sr2:914D ??                          .ds 1
xevious_sr2:914E ??                          .ds 1
xevious_sr2:914F ??                          .ds 1
xevious_sr2:9150 ??                          .ds 1
xevious_sr2:9151 ??                          .ds 1
xevious_sr2:9152 ??                          .ds 1
xevious_sr2:9153 ??                          .ds 1
xevious_sr2:9154 ??                          .ds 1
xevious_sr2:9155 ??                          .ds 1
xevious_sr2:9156 ??                          .ds 1
xevious_sr2:9157 ??                          .ds 1
xevious_sr2:9158 ??                          .ds 1
xevious_sr2:9159 ??                          .ds 1
xevious_sr2:915A ??                          .ds 1
xevious_sr2:915B ??                          .ds 1
xevious_sr2:915C ??                          .ds 1
xevious_sr2:915D ??                          .ds 1
xevious_sr2:915E ??                          .ds 1
xevious_sr2:915F ??                          .ds 1
xevious_sr2:9160 ??                          .ds 1
xevious_sr2:9161 ??                          .ds 1
xevious_sr2:9162 ??                          .ds 1
xevious_sr2:9163 ??                          .ds 1
xevious_sr2:9164 ??                          .ds 1
xevious_sr2:9165 ??                          .ds 1
xevious_sr2:9166 ??                          .ds 1
xevious_sr2:9167 ??                          .ds 1
xevious_sr2:9168 ??                          .ds 1
xevious_sr2:9169 ??                          .ds 1
xevious_sr2:916A ??                          .ds 1
xevious_sr2:916B ??                          .ds 1
xevious_sr2:916C ??                          .ds 1
xevious_sr2:916D ??                          .ds 1
xevious_sr2:916E ??                          .ds 1
xevious_sr2:916F ??                          .ds 1
xevious_sr2:9170 ??                          .ds 1
xevious_sr2:9171 ??                          .ds 1
xevious_sr2:9172 ??                          .ds 1
xevious_sr2:9173 ??                          .ds 1
xevious_sr2:9174 ??                          .ds 1
xevious_sr2:9175 ??                          .ds 1
xevious_sr2:9176 ??                          .ds 1
xevious_sr2:9177 ??                          .ds 1
xevious_sr2:9178 ??                          .ds 1
xevious_sr2:9179 ??                          .ds 1
xevious_sr2:917A ??                          .ds 1
xevious_sr2:917B ??                          .ds 1
xevious_sr2:917C ??                          .ds 1
xevious_sr2:917D ??                          .ds 1
xevious_sr2:917E ??                          .ds 1
xevious_sr2:917F ??                          .ds 1
xevious_sr2:9180 ??                          .ds 1
xevious_sr2:9181 ??                          .ds 1
xevious_sr2:9182 ??                          .ds 1
xevious_sr2:9183 ??                          .ds 1
xevious_sr2:9184 ??                          .ds 1
xevious_sr2:9185 ??                          .ds 1
xevious_sr2:9186 ??                          .ds 1
xevious_sr2:9187 ??                          .ds 1
xevious_sr2:9188 ??                          .ds 1
xevious_sr2:9189 ??                          .ds 1
xevious_sr2:918A ??                          .ds 1
xevious_sr2:918B ??                          .ds 1
xevious_sr2:918C ??                          .ds 1
xevious_sr2:918D ??                          .ds 1
xevious_sr2:918E ??                          .ds 1
xevious_sr2:918F ??                          .ds 1
xevious_sr2:9190 ??                          .ds 1
xevious_sr2:9191 ??                          .ds 1
xevious_sr2:9192 ??                          .ds 1
xevious_sr2:9193 ??                          .ds 1
xevious_sr2:9194 ??                          .ds 1
xevious_sr2:9195 ??                          .ds 1
xevious_sr2:9196 ??                          .ds 1
xevious_sr2:9197 ??                          .ds 1
xevious_sr2:9198 ??                          .ds 1
xevious_sr2:9199 ??                          .ds 1
xevious_sr2:919A ??                          .ds 1
xevious_sr2:919B ??                          .ds 1
xevious_sr2:919C ??                          .ds 1
xevious_sr2:919D ??                          .ds 1
xevious_sr2:919E ??                          .ds 1
xevious_sr2:919F ??                          .ds 1
xevious_sr2:91A0 ??                          .ds 1
xevious_sr2:91A1 ??                          .ds 1
xevious_sr2:91A2 ??                          .ds 1
xevious_sr2:91A3 ??                          .ds 1
xevious_sr2:91A4 ??                          .ds 1
xevious_sr2:91A5 ??                          .ds 1
xevious_sr2:91A6 ??                          .ds 1
xevious_sr2:91A7 ??                          .ds 1
xevious_sr2:91A8 ??                          .ds 1
xevious_sr2:91A9 ??                          .ds 1
xevious_sr2:91AA ??                          .ds 1
xevious_sr2:91AB ??                          .ds 1
xevious_sr2:91AC ??                          .ds 1
xevious_sr2:91AD ??                          .ds 1
xevious_sr2:91AE ??                          .ds 1
xevious_sr2:91AF ??                          .ds 1
xevious_sr2:91B0 ??                          .ds 1
xevious_sr2:91B1 ??                          .ds 1
xevious_sr2:91B2 ??                          .ds 1
xevious_sr2:91B3 ??                          .ds 1
xevious_sr2:91B4 ??                          .ds 1
xevious_sr2:91B5 ??                          .ds 1
xevious_sr2:91B6 ??                          .ds 1
xevious_sr2:91B7 ??                          .ds 1
xevious_sr2:91B8 ??                          .ds 1
xevious_sr2:91B9 ??                          .ds 1
xevious_sr2:91BA ??                          .ds 1
xevious_sr2:91BB ??                          .ds 1
xevious_sr2:91BC ??                          .ds 1
xevious_sr2:91BD ??                          .ds 1
xevious_sr2:91BE ??                          .ds 1
xevious_sr2:91BF ??                          .ds 1
xevious_sr2:91C0 ??                          .ds 1
xevious_sr2:91C1 ??                          .ds 1
xevious_sr2:91C2 ??                          .ds 1
xevious_sr2:91C3 ??                          .ds 1
xevious_sr2:91C4 ??                          .ds 1
xevious_sr2:91C5 ??                          .ds 1
xevious_sr2:91C6 ??                          .ds 1
xevious_sr2:91C7 ??                          .ds 1
xevious_sr2:91C8 ??                          .ds 1
xevious_sr2:91C9 ??                          .ds 1
xevious_sr2:91CA ??                          .ds 1
xevious_sr2:91CB ??                          .ds 1
xevious_sr2:91CC ??                          .ds 1
xevious_sr2:91CD ??                          .ds 1
xevious_sr2:91CE ??                          .ds 1
xevious_sr2:91CF ??                          .ds 1
xevious_sr2:91D0 ??                          .ds 1
xevious_sr2:91D1 ??                          .ds 1
xevious_sr2:91D2 ??                          .ds 1
xevious_sr2:91D3 ??                          .ds 1
xevious_sr2:91D4 ??                          .ds 1
xevious_sr2:91D5 ??                          .ds 1
xevious_sr2:91D6 ??                          .ds 1
xevious_sr2:91D7 ??                          .ds 1
xevious_sr2:91D8 ??                          .ds 1
xevious_sr2:91D9 ??                          .ds 1
xevious_sr2:91DA ??                          .ds 1
xevious_sr2:91DB ??                          .ds 1
xevious_sr2:91DC ??                          .ds 1
xevious_sr2:91DD ??                          .ds 1
xevious_sr2:91DE ??                          .ds 1
xevious_sr2:91DF ??                          .ds 1
xevious_sr2:91E0 ??                          .ds 1
xevious_sr2:91E1 ??                          .ds 1
xevious_sr2:91E2 ??                          .ds 1
xevious_sr2:91E3 ??                          .ds 1
xevious_sr2:91E4 ??                          .ds 1
xevious_sr2:91E5 ??                          .ds 1
xevious_sr2:91E6 ??                          .ds 1
xevious_sr2:91E7 ??                          .ds 1
xevious_sr2:91E8 ??                          .ds 1
xevious_sr2:91E9 ??                          .ds 1
xevious_sr2:91EA ??                          .ds 1
xevious_sr2:91EB ??                          .ds 1
xevious_sr2:91EC ??                          .ds 1
xevious_sr2:91ED ??                          .ds 1
xevious_sr2:91EE ??                          .ds 1
xevious_sr2:91EF ??                          .ds 1
xevious_sr2:91F0 ??                          .ds 1
xevious_sr2:91F1 ??                          .ds 1
xevious_sr2:91F2 ??                          .ds 1
xevious_sr2:91F3 ??                          .ds 1
xevious_sr2:91F4 ??                          .ds 1
xevious_sr2:91F5 ??                          .ds 1
xevious_sr2:91F6 ??                          .ds 1
xevious_sr2:91F7 ??                          .ds 1
xevious_sr2:91F8 ??                          .ds 1
xevious_sr2:91F9 ??                          .ds 1
xevious_sr2:91FA ??                          .ds 1
xevious_sr2:91FB ??                          .ds 1
xevious_sr2:91FC ??                          .ds 1
xevious_sr2:91FD ??                          .ds 1
xevious_sr2:91FE ??                          .ds 1
xevious_sr2:91FF ??                          .ds 1
xevious_sr2:9200 ?? ?? ?? ??+stack_frame_buffer:.ds 0x100
xevious_sr2:9300 ??                          .ds 1
xevious_sr2:9301 ??                          .ds 1
xevious_sr2:9302 ??                          .ds 1
xevious_sr2:9303 ??                          .ds 1
xevious_sr2:9304 ??                          .ds 1
xevious_sr2:9305 ??                          .ds 1
xevious_sr2:9306 ??                          .ds 1
xevious_sr2:9307 ??                          .ds 1
xevious_sr2:9308 ??                          .ds 1
xevious_sr2:9309 ??                          .ds 1
xevious_sr2:930A ??                          .ds 1
xevious_sr2:930B ??                          .ds 1
xevious_sr2:930C ??                          .ds 1
xevious_sr2:930D ??                          .ds 1
xevious_sr2:930E ??                          .ds 1
xevious_sr2:930F ??                          .ds 1
xevious_sr2:9310 ??                          .ds 1
xevious_sr2:9311 ??                          .ds 1
xevious_sr2:9312 ??                          .ds 1
xevious_sr2:9313 ??                          .ds 1
xevious_sr2:9314 ??                          .ds 1
xevious_sr2:9315 ??                          .ds 1
xevious_sr2:9316 ??                          .ds 1
xevious_sr2:9317 ??                          .ds 1
xevious_sr2:9318 ??                          .ds 1
xevious_sr2:9319 ??                          .ds 1
xevious_sr2:931A ??                          .ds 1
xevious_sr2:931B ??                          .ds 1
xevious_sr2:931C ??                          .ds 1
xevious_sr2:931D ??                          .ds 1
xevious_sr2:931E ??                          .ds 1
xevious_sr2:931F ??                          .ds 1
xevious_sr2:9320 ??                          .ds 1
xevious_sr2:9321 ??                          .ds 1
xevious_sr2:9322 ??                          .ds 1
xevious_sr2:9323 ??                          .ds 1
xevious_sr2:9324 ??                          .ds 1
xevious_sr2:9325 ??                          .ds 1
xevious_sr2:9326 ??                          .ds 1
xevious_sr2:9327 ??                          .ds 1
xevious_sr2:9328 ??                          .ds 1
xevious_sr2:9329 ??                          .ds 1
xevious_sr2:932A ??                          .ds 1
xevious_sr2:932B ??                          .ds 1
xevious_sr2:932C ??                          .ds 1
xevious_sr2:932D ??                          .ds 1
xevious_sr2:932E ??                          .ds 1
xevious_sr2:932F ??                          .ds 1
xevious_sr2:9330 ??                          .ds 1
xevious_sr2:9331 ??                          .ds 1
xevious_sr2:9332 ??                          .ds 1
xevious_sr2:9333 ??                          .ds 1
xevious_sr2:9334 ??                          .ds 1
xevious_sr2:9335 ??                          .ds 1
xevious_sr2:9336 ??                          .ds 1
xevious_sr2:9337 ??                          .ds 1
xevious_sr2:9338 ??                          .ds 1
xevious_sr2:9339 ??                          .ds 1
xevious_sr2:933A ??                          .ds 1
xevious_sr2:933B ??                          .ds 1
xevious_sr2:933C ??                          .ds 1
xevious_sr2:933D ??                          .ds 1
xevious_sr2:933E ??                          .ds 1
xevious_sr2:933F ??                          .ds 1
xevious_sr2:9340 ??                          .ds 1
xevious_sr2:9341 ??                          .ds 1
xevious_sr2:9342 ??                          .ds 1
xevious_sr2:9343 ??                          .ds 1
xevious_sr2:9344 ??                          .ds 1
xevious_sr2:9345 ??                          .ds 1
xevious_sr2:9346 ??                          .ds 1
xevious_sr2:9347 ??                          .ds 1
xevious_sr2:9348 ??                          .ds 1
xevious_sr2:9349 ??                          .ds 1
xevious_sr2:934A ??                          .ds 1
xevious_sr2:934B ??                          .ds 1
xevious_sr2:934C ??                          .ds 1
xevious_sr2:934D ??                          .ds 1
xevious_sr2:934E ??                          .ds 1
xevious_sr2:934F ??                          .ds 1
xevious_sr2:9350 ??                          .ds 1
xevious_sr2:9351 ??                          .ds 1
xevious_sr2:9352 ??                          .ds 1
xevious_sr2:9353 ??                          .ds 1
xevious_sr2:9354 ??                          .ds 1
xevious_sr2:9355 ??                          .ds 1
xevious_sr2:9356 ??                          .ds 1
xevious_sr2:9357 ??                          .ds 1
xevious_sr2:9358 ??                          .ds 1
xevious_sr2:9359 ??                          .ds 1
xevious_sr2:935A ??                          .ds 1
xevious_sr2:935B ??                          .ds 1
xevious_sr2:935C ??                          .ds 1
xevious_sr2:935D ??                          .ds 1
xevious_sr2:935E ??                          .ds 1
xevious_sr2:935F ??                          .ds 1
xevious_sr2:9360 ??                          .ds 1
xevious_sr2:9361 ??                          .ds 1
xevious_sr2:9362 ??                          .ds 1
xevious_sr2:9363 ??                          .ds 1
xevious_sr2:9364 ??                          .ds 1
xevious_sr2:9365 ??                          .ds 1
xevious_sr2:9366 ??                          .ds 1
xevious_sr2:9367 ??                          .ds 1
xevious_sr2:9368 ??                          .ds 1
xevious_sr2:9369 ??                          .ds 1
xevious_sr2:936A ??                          .ds 1
xevious_sr2:936B ??                          .ds 1
xevious_sr2:936C ??                          .ds 1
xevious_sr2:936D ??                          .ds 1
xevious_sr2:936E ??                          .ds 1
xevious_sr2:936F ??                          .ds 1
xevious_sr2:9370 ??                          .ds 1
xevious_sr2:9371 ??                          .ds 1
xevious_sr2:9372 ??                          .ds 1
xevious_sr2:9373 ??                          .ds 1
xevious_sr2:9374 ??                          .ds 1
xevious_sr2:9375 ??                          .ds 1
xevious_sr2:9376 ??                          .ds 1
xevious_sr2:9377 ??                          .ds 1
xevious_sr2:9378 ??                          .ds 1
xevious_sr2:9379 ??                          .ds 1
xevious_sr2:937A ??                          .ds 1
xevious_sr2:937B ??                          .ds 1
xevious_sr2:937C ??                          .ds 1
xevious_sr2:937D ??                          .ds 1
xevious_sr2:937E ??                          .ds 1
xevious_sr2:937F ??                          .ds 1
xevious_sr2:9380 ??                          .ds 1
xevious_sr2:9381 ??                          .ds 1
xevious_sr2:9382 ??                          .ds 1
xevious_sr2:9383 ??                          .ds 1
xevious_sr2:9384 ??                          .ds 1
xevious_sr2:9385 ??                          .ds 1
xevious_sr2:9386 ??                          .ds 1
xevious_sr2:9387 ??                          .ds 1
xevious_sr2:9388 ??                          .ds 1
xevious_sr2:9389 ??                          .ds 1
xevious_sr2:938A ??                          .ds 1
xevious_sr2:938B ??                          .ds 1
xevious_sr2:938C ??                          .ds 1
xevious_sr2:938D ??                          .ds 1
xevious_sr2:938E ??                          .ds 1
xevious_sr2:938F ??                          .ds 1
xevious_sr2:9390 ??                          .ds 1
xevious_sr2:9391 ??                          .ds 1
xevious_sr2:9392 ??                          .ds 1
xevious_sr2:9393 ??                          .ds 1
xevious_sr2:9394 ??                          .ds 1
xevious_sr2:9395 ??                          .ds 1
xevious_sr2:9396 ??                          .ds 1
xevious_sr2:9397 ??                          .ds 1
xevious_sr2:9398 ??                          .ds 1
xevious_sr2:9399 ??                          .ds 1
xevious_sr2:939A ??                          .ds 1
xevious_sr2:939B ??                          .ds 1
xevious_sr2:939C ??                          .ds 1
xevious_sr2:939D ??                          .ds 1
xevious_sr2:939E ??                          .ds 1
xevious_sr2:939F ??                          .ds 1
xevious_sr2:93A0 ??                          .ds 1
xevious_sr2:93A1 ??                          .ds 1
xevious_sr2:93A2 ??                          .ds 1
xevious_sr2:93A3 ??                          .ds 1
xevious_sr2:93A4 ??                          .ds 1
xevious_sr2:93A5 ??                          .ds 1
xevious_sr2:93A6 ??                          .ds 1
xevious_sr2:93A7 ??                          .ds 1
xevious_sr2:93A8 ??                          .ds 1
xevious_sr2:93A9 ??                          .ds 1
xevious_sr2:93AA ??                          .ds 1
xevious_sr2:93AB ??                          .ds 1
xevious_sr2:93AC ??                          .ds 1
xevious_sr2:93AD ??                          .ds 1
xevious_sr2:93AE ??                          .ds 1
xevious_sr2:93AF ??                          .ds 1
xevious_sr2:93B0 ??                          .ds 1
xevious_sr2:93B1 ??                          .ds 1
xevious_sr2:93B2 ??                          .ds 1
xevious_sr2:93B3 ??                          .ds 1
xevious_sr2:93B4 ??                          .ds 1
xevious_sr2:93B5 ??                          .ds 1
xevious_sr2:93B6 ??                          .ds 1
xevious_sr2:93B7 ??                          .ds 1
xevious_sr2:93B8 ??                          .ds 1
xevious_sr2:93B9 ??                          .ds 1
xevious_sr2:93BA ??                          .ds 1
xevious_sr2:93BB ??                          .ds 1
xevious_sr2:93BC ??                          .ds 1
xevious_sr2:93BD ??                          .ds 1
xevious_sr2:93BE ??                          .ds 1
xevious_sr2:93BF ??                          .ds 1
xevious_sr2:93C0 ??                          .ds 1
xevious_sr2:93C1 ??                          .ds 1
xevious_sr2:93C2 ??                          .ds 1
xevious_sr2:93C3 ??                          .ds 1
xevious_sr2:93C4 ??                          .ds 1
xevious_sr2:93C5 ??                          .ds 1
xevious_sr2:93C6 ??                          .ds 1
xevious_sr2:93C7 ??                          .ds 1
xevious_sr2:93C8 ??                          .ds 1
xevious_sr2:93C9 ??                          .ds 1
xevious_sr2:93CA ??                          .ds 1
xevious_sr2:93CB ??                          .ds 1
xevious_sr2:93CC ??                          .ds 1
xevious_sr2:93CD ??                          .ds 1
xevious_sr2:93CE ??                          .ds 1
xevious_sr2:93CF ??                          .ds 1
xevious_sr2:93D0 ??                          .ds 1
xevious_sr2:93D1 ??                          .ds 1
xevious_sr2:93D2 ??                          .ds 1
xevious_sr2:93D3 ??                          .ds 1
xevious_sr2:93D4 ??                          .ds 1
xevious_sr2:93D5 ??                          .ds 1
xevious_sr2:93D6 ??                          .ds 1
xevious_sr2:93D7 ??                          .ds 1
xevious_sr2:93D8 ??                          .ds 1
xevious_sr2:93D9 ??                          .ds 1
xevious_sr2:93DA ??                          .ds 1
xevious_sr2:93DB ??                          .ds 1
xevious_sr2:93DC ??                          .ds 1
xevious_sr2:93DD ??                          .ds 1
xevious_sr2:93DE ??                          .ds 1
xevious_sr2:93DF ??                          .ds 1
xevious_sr2:93E0 ??                          .ds 1
xevious_sr2:93E1 ??                          .ds 1
xevious_sr2:93E2 ??                          .ds 1
xevious_sr2:93E3 ??                          .ds 1
xevious_sr2:93E4 ??                          .ds 1
xevious_sr2:93E5 ??                          .ds 1
xevious_sr2:93E6 ??                          .ds 1
xevious_sr2:93E7 ??                          .ds 1
xevious_sr2:93E8 ??                          .ds 1
xevious_sr2:93E9 ??                          .ds 1
xevious_sr2:93EA ??                          .ds 1
xevious_sr2:93EB ??                          .ds 1
xevious_sr2:93EC ??                          .ds 1
xevious_sr2:93ED ??                          .ds 1
xevious_sr2:93EE ??                          .ds 1
xevious_sr2:93EF ??                          .ds 1
xevious_sr2:93F0 ??                          .ds 1
xevious_sr2:93F1 ??                          .ds 1
xevious_sr2:93F2 ??                          .ds 1
xevious_sr2:93F3 ??                          .ds 1
xevious_sr2:93F4 ??                          .ds 1
xevious_sr2:93F5 ??                          .ds 1
xevious_sr2:93F6 ??                          .ds 1
xevious_sr2:93F7 ??                          .ds 1
xevious_sr2:93F8 ??                          .ds 1
xevious_sr2:93F9 ??                          .ds 1
xevious_sr2:93FA ??                          .ds 1
xevious_sr2:93FB ??                          .ds 1
xevious_sr2:93FC ??                          .ds 1
xevious_sr2:93FD ??                          .ds 1
xevious_sr2:93FE ??                          .ds 1
xevious_sr2:93FF ??                          .ds 1
xevious_sr2:9400 ??                          .ds 1
xevious_sr2:9401 ??                          .ds 1
xevious_sr2:9402 ??                          .ds 1
xevious_sr2:9403 ??                          .ds 1
xevious_sr2:9404 ??                          .ds 1
xevious_sr2:9405 ??                          .ds 1
xevious_sr2:9406 ??                          .ds 1
xevious_sr2:9407 ??                          .ds 1
xevious_sr2:9408 ??                          .ds 1
xevious_sr2:9409 ??                          .ds 1
xevious_sr2:940A ??                          .ds 1
xevious_sr2:940B ??                          .ds 1
xevious_sr2:940C ??                          .ds 1
xevious_sr2:940D ??                          .ds 1
xevious_sr2:940E ??                          .ds 1
xevious_sr2:940F ??                          .ds 1
xevious_sr2:9410 ??                          .ds 1
xevious_sr2:9411 ??                          .ds 1
xevious_sr2:9412 ??                          .ds 1
xevious_sr2:9413 ??                          .ds 1
xevious_sr2:9414 ??                          .ds 1
xevious_sr2:9415 ??                          .ds 1
xevious_sr2:9416 ??                          .ds 1
xevious_sr2:9417 ??                          .ds 1
xevious_sr2:9418 ??                          .ds 1
xevious_sr2:9419 ??                          .ds 1
xevious_sr2:941A ??                          .ds 1
xevious_sr2:941B ??                          .ds 1
xevious_sr2:941C ??                          .ds 1
xevious_sr2:941D ??                          .ds 1
xevious_sr2:941E ??                          .ds 1
xevious_sr2:941F ??                          .ds 1
xevious_sr2:9420 ??                          .ds 1
xevious_sr2:9421 ??                          .ds 1
xevious_sr2:9422 ??                          .ds 1
xevious_sr2:9423 ??                          .ds 1
xevious_sr2:9424 ??                          .ds 1
xevious_sr2:9425 ??                          .ds 1
xevious_sr2:9426 ??                          .ds 1
xevious_sr2:9427 ??                          .ds 1
xevious_sr2:9428 ??                          .ds 1
xevious_sr2:9429 ??                          .ds 1
xevious_sr2:942A ??                          .ds 1
xevious_sr2:942B ??                          .ds 1
xevious_sr2:942C ??                          .ds 1
xevious_sr2:942D ??                          .ds 1
xevious_sr2:942E ??                          .ds 1
xevious_sr2:942F ??                          .ds 1
xevious_sr2:9430 ??                          .ds 1
xevious_sr2:9431 ??                          .ds 1
xevious_sr2:9432 ??                          .ds 1
xevious_sr2:9433 ??                          .ds 1
xevious_sr2:9434 ??                          .ds 1
xevious_sr2:9435 ??                          .ds 1
xevious_sr2:9436 ??                          .ds 1
xevious_sr2:9437 ??                          .ds 1
xevious_sr2:9438 ??                          .ds 1
xevious_sr2:9439 ??                          .ds 1
xevious_sr2:943A ??                          .ds 1
xevious_sr2:943B ??                          .ds 1
xevious_sr2:943C ??                          .ds 1
xevious_sr2:943D ??                          .ds 1
xevious_sr2:943E ??                          .ds 1
xevious_sr2:943F ??                          .ds 1
xevious_sr2:9440 ??                          .ds 1
xevious_sr2:9441 ??                          .ds 1
xevious_sr2:9442 ??                          .ds 1
xevious_sr2:9443 ??                          .ds 1
xevious_sr2:9444 ??                          .ds 1
xevious_sr2:9445 ??                          .ds 1
xevious_sr2:9446 ??                          .ds 1
xevious_sr2:9447 ??                          .ds 1
xevious_sr2:9448 ??                          .ds 1
xevious_sr2:9449 ??                          .ds 1
xevious_sr2:944A ??                          .ds 1
xevious_sr2:944B ??                          .ds 1
xevious_sr2:944C ??                          .ds 1
xevious_sr2:944D ??                          .ds 1
xevious_sr2:944E ??                          .ds 1
xevious_sr2:944F ??                          .ds 1
xevious_sr2:9450 ??                          .ds 1
xevious_sr2:9451 ??                          .ds 1
xevious_sr2:9452 ??                          .ds 1
xevious_sr2:9453 ??                          .ds 1
xevious_sr2:9454 ??                          .ds 1
xevious_sr2:9455 ??                          .ds 1
xevious_sr2:9456 ??                          .ds 1
xevious_sr2:9457 ??                          .ds 1
xevious_sr2:9458 ??                          .ds 1
xevious_sr2:9459 ??                          .ds 1
xevious_sr2:945A ??                          .ds 1
xevious_sr2:945B ??                          .ds 1
xevious_sr2:945C ??                          .ds 1
xevious_sr2:945D ??                          .ds 1
xevious_sr2:945E ??                          .ds 1
xevious_sr2:945F ??                          .ds 1
xevious_sr2:9460 ??                          .ds 1
xevious_sr2:9461 ??                          .ds 1
xevious_sr2:9462 ??                          .ds 1
xevious_sr2:9463 ??                          .ds 1
xevious_sr2:9464 ??                          .ds 1
xevious_sr2:9465 ??                          .ds 1
xevious_sr2:9466 ??                          .ds 1
xevious_sr2:9467 ??                          .ds 1
xevious_sr2:9468 ??                          .ds 1
xevious_sr2:9469 ??                          .ds 1
xevious_sr2:946A ??                          .ds 1
xevious_sr2:946B ??                          .ds 1
xevious_sr2:946C ??                          .ds 1
xevious_sr2:946D ??                          .ds 1
xevious_sr2:946E ??                          .ds 1
xevious_sr2:946F ??                          .ds 1
xevious_sr2:9470 ??                          .ds 1
xevious_sr2:9471 ??                          .ds 1
xevious_sr2:9472 ??                          .ds 1
xevious_sr2:9473 ??                          .ds 1
xevious_sr2:9474 ??                          .ds 1
xevious_sr2:9475 ??                          .ds 1
xevious_sr2:9476 ??                          .ds 1
xevious_sr2:9477 ??                          .ds 1
xevious_sr2:9478 ??                          .ds 1
xevious_sr2:9479 ??                          .ds 1
xevious_sr2:947A ??                          .ds 1
xevious_sr2:947B ??                          .ds 1
xevious_sr2:947C ??                          .ds 1
xevious_sr2:947D ??                          .ds 1
xevious_sr2:947E ??                          .ds 1
xevious_sr2:947F ??                          .ds 1
xevious_sr2:9480 ??                          .ds 1
xevious_sr2:9481 ??                          .ds 1
xevious_sr2:9482 ??                          .ds 1
xevious_sr2:9483 ??                          .ds 1
xevious_sr2:9484 ??                          .ds 1
xevious_sr2:9485 ??                          .ds 1
xevious_sr2:9486 ??                          .ds 1
xevious_sr2:9487 ??                          .ds 1
xevious_sr2:9488 ??                          .ds 1
xevious_sr2:9489 ??                          .ds 1
xevious_sr2:948A ??                          .ds 1
xevious_sr2:948B ??                          .ds 1
xevious_sr2:948C ??                          .ds 1
xevious_sr2:948D ??                          .ds 1
xevious_sr2:948E ??                          .ds 1
xevious_sr2:948F ??                          .ds 1
xevious_sr2:9490 ??                          .ds 1
xevious_sr2:9491 ??                          .ds 1
xevious_sr2:9492 ??                          .ds 1
xevious_sr2:9493 ??                          .ds 1
xevious_sr2:9494 ??                          .ds 1
xevious_sr2:9495 ??                          .ds 1
xevious_sr2:9496 ??                          .ds 1
xevious_sr2:9497 ??                          .ds 1
xevious_sr2:9498 ??                          .ds 1
xevious_sr2:9499 ??                          .ds 1
xevious_sr2:949A ??                          .ds 1
xevious_sr2:949B ??                          .ds 1
xevious_sr2:949C ??                          .ds 1
xevious_sr2:949D ??                          .ds 1
xevious_sr2:949E ??                          .ds 1
xevious_sr2:949F ??                          .ds 1
xevious_sr2:94A0 ??                          .ds 1
xevious_sr2:94A1 ??                          .ds 1
xevious_sr2:94A2 ??                          .ds 1
xevious_sr2:94A3 ??                          .ds 1
xevious_sr2:94A4 ??                          .ds 1
xevious_sr2:94A5 ??                          .ds 1
xevious_sr2:94A6 ??                          .ds 1
xevious_sr2:94A7 ??                          .ds 1
xevious_sr2:94A8 ??                          .ds 1
xevious_sr2:94A9 ??                          .ds 1
xevious_sr2:94AA ??                          .ds 1
xevious_sr2:94AB ??                          .ds 1
xevious_sr2:94AC ??                          .ds 1
xevious_sr2:94AD ??                          .ds 1
xevious_sr2:94AE ??                          .ds 1
xevious_sr2:94AF ??                          .ds 1
xevious_sr2:94B0 ??                          .ds 1
xevious_sr2:94B1 ??                          .ds 1
xevious_sr2:94B2 ??                          .ds 1
xevious_sr2:94B3 ??                          .ds 1
xevious_sr2:94B4 ??                          .ds 1
xevious_sr2:94B5 ??                          .ds 1
xevious_sr2:94B6 ??                          .ds 1
xevious_sr2:94B7 ??                          .ds 1
xevious_sr2:94B8 ??                          .ds 1
xevious_sr2:94B9 ??                          .ds 1
xevious_sr2:94BA ??                          .ds 1
xevious_sr2:94BB ??                          .ds 1
xevious_sr2:94BC ??                          .ds 1
xevious_sr2:94BD ??                          .ds 1
xevious_sr2:94BE ??                          .ds 1
xevious_sr2:94BF ??                          .ds 1
xevious_sr2:94C0 ??                          .ds 1
xevious_sr2:94C1 ??                          .ds 1
xevious_sr2:94C2 ??                          .ds 1
xevious_sr2:94C3 ??                          .ds 1
xevious_sr2:94C4 ??                          .ds 1
xevious_sr2:94C5 ??                          .ds 1
xevious_sr2:94C6 ??                          .ds 1
xevious_sr2:94C7 ??                          .ds 1
xevious_sr2:94C8 ??                          .ds 1
xevious_sr2:94C9 ??                          .ds 1
xevious_sr2:94CA ??                          .ds 1
xevious_sr2:94CB ??                          .ds 1
xevious_sr2:94CC ??                          .ds 1
xevious_sr2:94CD ??                          .ds 1
xevious_sr2:94CE ??                          .ds 1
xevious_sr2:94CF ??                          .ds 1
xevious_sr2:94D0 ??                          .ds 1
xevious_sr2:94D1 ??                          .ds 1
xevious_sr2:94D2 ??                          .ds 1
xevious_sr2:94D3 ??                          .ds 1
xevious_sr2:94D4 ??                          .ds 1
xevious_sr2:94D5 ??                          .ds 1
xevious_sr2:94D6 ??                          .ds 1
xevious_sr2:94D7 ??                          .ds 1
xevious_sr2:94D8 ??                          .ds 1
xevious_sr2:94D9 ??                          .ds 1
xevious_sr2:94DA ??                          .ds 1
xevious_sr2:94DB ??                          .ds 1
xevious_sr2:94DC ??                          .ds 1
xevious_sr2:94DD ??                          .ds 1
xevious_sr2:94DE ??                          .ds 1
xevious_sr2:94DF ??                          .ds 1
xevious_sr2:94E0 ??                          .ds 1
xevious_sr2:94E1 ??                          .ds 1
xevious_sr2:94E2 ??                          .ds 1
xevious_sr2:94E3 ??                          .ds 1
xevious_sr2:94E4 ??                          .ds 1
xevious_sr2:94E5 ??                          .ds 1
xevious_sr2:94E6 ??                          .ds 1
xevious_sr2:94E7 ??                          .ds 1
xevious_sr2:94E8 ??                          .ds 1
xevious_sr2:94E9 ??                          .ds 1
xevious_sr2:94EA ??                          .ds 1
xevious_sr2:94EB ??                          .ds 1
xevious_sr2:94EC ??                          .ds 1
xevious_sr2:94ED ??                          .ds 1
xevious_sr2:94EE ??                          .ds 1
xevious_sr2:94EF ??                          .ds 1
xevious_sr2:94F0 ??                          .ds 1
xevious_sr2:94F1 ??                          .ds 1
xevious_sr2:94F2 ??                          .ds 1
xevious_sr2:94F3 ??                          .ds 1
xevious_sr2:94F4 ??                          .ds 1
xevious_sr2:94F5 ??                          .ds 1
xevious_sr2:94F6 ??                          .ds 1
xevious_sr2:94F7 ??                          .ds 1
xevious_sr2:94F8 ??                          .ds 1
xevious_sr2:94F9 ??                          .ds 1
xevious_sr2:94FA ??                          .ds 1
xevious_sr2:94FB ??                          .ds 1
xevious_sr2:94FC ??                          .ds 1
xevious_sr2:94FD ??                          .ds 1
xevious_sr2:94FE ??                          .ds 1
xevious_sr2:94FF ??                          .ds 1
xevious_sr2:9500 ??                          .ds 1
xevious_sr2:9501 ??                          .ds 1
xevious_sr2:9502 ??                          .ds 1
xevious_sr2:9503 ??                          .ds 1
xevious_sr2:9504 ??                          .ds 1
xevious_sr2:9505 ??                          .ds 1
xevious_sr2:9506 ??                          .ds 1
xevious_sr2:9507 ??                          .ds 1
xevious_sr2:9508 ??                          .ds 1
xevious_sr2:9509 ??                          .ds 1
xevious_sr2:950A ??                          .ds 1
xevious_sr2:950B ??                          .ds 1
xevious_sr2:950C ??                          .ds 1
xevious_sr2:950D ??                          .ds 1
xevious_sr2:950E ??                          .ds 1
xevious_sr2:950F ??                          .ds 1
xevious_sr2:9510 ??                          .ds 1
xevious_sr2:9511 ??                          .ds 1
xevious_sr2:9512 ??                          .ds 1
xevious_sr2:9513 ??                          .ds 1
xevious_sr2:9514 ??                          .ds 1
xevious_sr2:9515 ??                          .ds 1
xevious_sr2:9516 ??                          .ds 1
xevious_sr2:9517 ??                          .ds 1
xevious_sr2:9518 ??                          .ds 1
xevious_sr2:9519 ??                          .ds 1
xevious_sr2:951A ??                          .ds 1
xevious_sr2:951B ??                          .ds 1
xevious_sr2:951C ??                          .ds 1
xevious_sr2:951D ??                          .ds 1
xevious_sr2:951E ??                          .ds 1
xevious_sr2:951F ??                          .ds 1
xevious_sr2:9520 ??                          .ds 1
xevious_sr2:9521 ??                          .ds 1
xevious_sr2:9522 ??                          .ds 1
xevious_sr2:9523 ??                          .ds 1
xevious_sr2:9524 ??                          .ds 1
xevious_sr2:9525 ??                          .ds 1
xevious_sr2:9526 ??                          .ds 1
xevious_sr2:9527 ??                          .ds 1
xevious_sr2:9528 ??                          .ds 1
xevious_sr2:9529 ??                          .ds 1
xevious_sr2:952A ??                          .ds 1
xevious_sr2:952B ??                          .ds 1
xevious_sr2:952C ??                          .ds 1
xevious_sr2:952D ??                          .ds 1
xevious_sr2:952E ??                          .ds 1
xevious_sr2:952F ??                          .ds 1
xevious_sr2:9530 ??                          .ds 1
xevious_sr2:9531 ??                          .ds 1
xevious_sr2:9532 ??                          .ds 1
xevious_sr2:9533 ??                          .ds 1
xevious_sr2:9534 ??                          .ds 1
xevious_sr2:9535 ??                          .ds 1
xevious_sr2:9536 ??                          .ds 1
xevious_sr2:9537 ??                          .ds 1
xevious_sr2:9538 ??                          .ds 1
xevious_sr2:9539 ??                          .ds 1
xevious_sr2:953A ??                          .ds 1
xevious_sr2:953B ??                          .ds 1
xevious_sr2:953C ??                          .ds 1
xevious_sr2:953D ??                          .ds 1
xevious_sr2:953E ??                          .ds 1
xevious_sr2:953F ??                          .ds 1
xevious_sr2:9540 ??                          .ds 1
xevious_sr2:9541 ??                          .ds 1
xevious_sr2:9542 ??                          .ds 1
xevious_sr2:9543 ??                          .ds 1
xevious_sr2:9544 ??                          .ds 1
xevious_sr2:9545 ??                          .ds 1
xevious_sr2:9546 ??                          .ds 1
xevious_sr2:9547 ??                          .ds 1
xevious_sr2:9548 ??                          .ds 1
xevious_sr2:9549 ??                          .ds 1
xevious_sr2:954A ??                          .ds 1
xevious_sr2:954B ??                          .ds 1
xevious_sr2:954C ??                          .ds 1
xevious_sr2:954D ??                          .ds 1
xevious_sr2:954E ??                          .ds 1
xevious_sr2:954F ??                          .ds 1
xevious_sr2:9550 ??                          .ds 1
xevious_sr2:9551 ??                          .ds 1
xevious_sr2:9552 ??                          .ds 1
xevious_sr2:9553 ??                          .ds 1
xevious_sr2:9554 ??                          .ds 1
xevious_sr2:9555 ??                          .ds 1
xevious_sr2:9556 ??                          .ds 1
xevious_sr2:9557 ??                          .ds 1
xevious_sr2:9558 ??                          .ds 1
xevious_sr2:9559 ??                          .ds 1
xevious_sr2:955A ??                          .ds 1
xevious_sr2:955B ??                          .ds 1
xevious_sr2:955C ??                          .ds 1
xevious_sr2:955D ??                          .ds 1
xevious_sr2:955E ??                          .ds 1
xevious_sr2:955F ??                          .ds 1
xevious_sr2:9560 ??                          .ds 1
xevious_sr2:9561 ??                          .ds 1
xevious_sr2:9562 ??                          .ds 1
xevious_sr2:9563 ??                          .ds 1
xevious_sr2:9564 ??                          .ds 1
xevious_sr2:9565 ??                          .ds 1
xevious_sr2:9566 ??                          .ds 1
xevious_sr2:9567 ??                          .ds 1
xevious_sr2:9568 ??                          .ds 1
xevious_sr2:9569 ??                          .ds 1
xevious_sr2:956A ??                          .ds 1
xevious_sr2:956B ??                          .ds 1
xevious_sr2:956C ??                          .ds 1
xevious_sr2:956D ??                          .ds 1
xevious_sr2:956E ??                          .ds 1
xevious_sr2:956F ??                          .ds 1
xevious_sr2:9570 ??                          .ds 1
xevious_sr2:9571 ??                          .ds 1
xevious_sr2:9572 ??                          .ds 1
xevious_sr2:9573 ??                          .ds 1
xevious_sr2:9574 ??                          .ds 1
xevious_sr2:9575 ??                          .ds 1
xevious_sr2:9576 ??                          .ds 1
xevious_sr2:9577 ??                          .ds 1
xevious_sr2:9578 ??                          .ds 1
xevious_sr2:9579 ??                          .ds 1
xevious_sr2:957A ??                          .ds 1
xevious_sr2:957B ??                          .ds 1
xevious_sr2:957C ??                          .ds 1
xevious_sr2:957D ??                          .ds 1
xevious_sr2:957E ??                          .ds 1
xevious_sr2:957F ??                          .ds 1
xevious_sr2:9580 ??                          .ds 1
xevious_sr2:9581 ??                          .ds 1
xevious_sr2:9582 ??                          .ds 1
xevious_sr2:9583 ??                          .ds 1
xevious_sr2:9584 ??                          .ds 1
xevious_sr2:9585 ??                          .ds 1
xevious_sr2:9586 ??                          .ds 1
xevious_sr2:9587 ??                          .ds 1
xevious_sr2:9588 ??                          .ds 1
xevious_sr2:9589 ??                          .ds 1
xevious_sr2:958A ??                          .ds 1
xevious_sr2:958B ??                          .ds 1
xevious_sr2:958C ??                          .ds 1
xevious_sr2:958D ??                          .ds 1
xevious_sr2:958E ??                          .ds 1
xevious_sr2:958F ??                          .ds 1
xevious_sr2:9590 ??                          .ds 1
xevious_sr2:9591 ??                          .ds 1
xevious_sr2:9592 ??                          .ds 1
xevious_sr2:9593 ??                          .ds 1
xevious_sr2:9594 ??                          .ds 1
xevious_sr2:9595 ??                          .ds 1
xevious_sr2:9596 ??                          .ds 1
xevious_sr2:9597 ??                          .ds 1
xevious_sr2:9598 ??                          .ds 1
xevious_sr2:9599 ??                          .ds 1
xevious_sr2:959A ??                          .ds 1
xevious_sr2:959B ??                          .ds 1
xevious_sr2:959C ??                          .ds 1
xevious_sr2:959D ??                          .ds 1
xevious_sr2:959E ??                          .ds 1
xevious_sr2:959F ??                          .ds 1
xevious_sr2:95A0 ??                          .ds 1
xevious_sr2:95A1 ??                          .ds 1
xevious_sr2:95A2 ??                          .ds 1
xevious_sr2:95A3 ??                          .ds 1
xevious_sr2:95A4 ??                          .ds 1
xevious_sr2:95A5 ??                          .ds 1
xevious_sr2:95A6 ??                          .ds 1
xevious_sr2:95A7 ??                          .ds 1
xevious_sr2:95A8 ??                          .ds 1
xevious_sr2:95A9 ??                          .ds 1
xevious_sr2:95AA ??                          .ds 1
xevious_sr2:95AB ??                          .ds 1
xevious_sr2:95AC ??                          .ds 1
xevious_sr2:95AD ??                          .ds 1
xevious_sr2:95AE ??                          .ds 1
xevious_sr2:95AF ??                          .ds 1
xevious_sr2:95B0 ??                          .ds 1
xevious_sr2:95B1 ??                          .ds 1
xevious_sr2:95B2 ??                          .ds 1
xevious_sr2:95B3 ??                          .ds 1
xevious_sr2:95B4 ??                          .ds 1
xevious_sr2:95B5 ??                          .ds 1
xevious_sr2:95B6 ??                          .ds 1
xevious_sr2:95B7 ??                          .ds 1
xevious_sr2:95B8 ??                          .ds 1
xevious_sr2:95B9 ??                          .ds 1
xevious_sr2:95BA ??                          .ds 1
xevious_sr2:95BB ??                          .ds 1
xevious_sr2:95BC ??                          .ds 1
xevious_sr2:95BD ??                          .ds 1
xevious_sr2:95BE ??                          .ds 1
xevious_sr2:95BF ??                          .ds 1
xevious_sr2:95C0 ??                          .ds 1
xevious_sr2:95C1 ??                          .ds 1
xevious_sr2:95C2 ??                          .ds 1
xevious_sr2:95C3 ??                          .ds 1
xevious_sr2:95C4 ??                          .ds 1
xevious_sr2:95C5 ??                          .ds 1
xevious_sr2:95C6 ??                          .ds 1
xevious_sr2:95C7 ??                          .ds 1
xevious_sr2:95C8 ??                          .ds 1
xevious_sr2:95C9 ??                          .ds 1
xevious_sr2:95CA ??                          .ds 1
xevious_sr2:95CB ??                          .ds 1
xevious_sr2:95CC ??                          .ds 1
xevious_sr2:95CD ??                          .ds 1
xevious_sr2:95CE ??                          .ds 1
xevious_sr2:95CF ??                          .ds 1
xevious_sr2:95D0 ??                          .ds 1
xevious_sr2:95D1 ??                          .ds 1
xevious_sr2:95D2 ??                          .ds 1
xevious_sr2:95D3 ??                          .ds 1
xevious_sr2:95D4 ??                          .ds 1
xevious_sr2:95D5 ??                          .ds 1
xevious_sr2:95D6 ??                          .ds 1
xevious_sr2:95D7 ??                          .ds 1
xevious_sr2:95D8 ??                          .ds 1
xevious_sr2:95D9 ??                          .ds 1
xevious_sr2:95DA ??                          .ds 1
xevious_sr2:95DB ??                          .ds 1
xevious_sr2:95DC ??                          .ds 1
xevious_sr2:95DD ??                          .ds 1
xevious_sr2:95DE ??                          .ds 1
xevious_sr2:95DF ??                          .ds 1
xevious_sr2:95E0 ??                          .ds 1
xevious_sr2:95E1 ??                          .ds 1
xevious_sr2:95E2 ??                          .ds 1
xevious_sr2:95E3 ??                          .ds 1
xevious_sr2:95E4 ??                          .ds 1
xevious_sr2:95E5 ??                          .ds 1
xevious_sr2:95E6 ??                          .ds 1
xevious_sr2:95E7 ??                          .ds 1
xevious_sr2:95E8 ??                          .ds 1
xevious_sr2:95E9 ??                          .ds 1
xevious_sr2:95EA ??                          .ds 1
xevious_sr2:95EB ??                          .ds 1
xevious_sr2:95EC ??                          .ds 1
xevious_sr2:95ED ??                          .ds 1
xevious_sr2:95EE ??                          .ds 1
xevious_sr2:95EF ??                          .ds 1
xevious_sr2:95F0 ??                          .ds 1
xevious_sr2:95F1 ??                          .ds 1
xevious_sr2:95F2 ??                          .ds 1
xevious_sr2:95F3 ??                          .ds 1
xevious_sr2:95F4 ??                          .ds 1
xevious_sr2:95F5 ??                          .ds 1
xevious_sr2:95F6 ??                          .ds 1
xevious_sr2:95F7 ??                          .ds 1
xevious_sr2:95F8 ??                          .ds 1
xevious_sr2:95F9 ??                          .ds 1
xevious_sr2:95FA ??                          .ds 1
xevious_sr2:95FB ??                          .ds 1
xevious_sr2:95FC ??                          .ds 1
xevious_sr2:95FD ??                          .ds 1
xevious_sr2:95FE ??                          .ds 1
xevious_sr2:95FF ??                          .ds 1
xevious_sr2:9600 ??                          .ds 1
xevious_sr2:9601 ??                          .ds 1
xevious_sr2:9602 ??                          .ds 1
xevious_sr2:9603 ??                          .ds 1
xevious_sr2:9604 ??                          .ds 1
xevious_sr2:9605 ??                          .ds 1
xevious_sr2:9606 ??                          .ds 1
xevious_sr2:9607 ??                          .ds 1
xevious_sr2:9608 ??                          .ds 1
xevious_sr2:9609 ??                          .ds 1
xevious_sr2:960A ??                          .ds 1
xevious_sr2:960B ??                          .ds 1
xevious_sr2:960C ??                          .ds 1
xevious_sr2:960D ??                          .ds 1
xevious_sr2:960E ??                          .ds 1
xevious_sr2:960F ??                          .ds 1
xevious_sr2:9610 ??                          .ds 1
xevious_sr2:9611 ??                          .ds 1
xevious_sr2:9612 ??                          .ds 1
xevious_sr2:9613 ??                          .ds 1
xevious_sr2:9614 ??                          .ds 1
xevious_sr2:9615 ??                          .ds 1
xevious_sr2:9616 ??                          .ds 1
xevious_sr2:9617 ??                          .ds 1
xevious_sr2:9618 ??                          .ds 1
xevious_sr2:9619 ??                          .ds 1
xevious_sr2:961A ??                          .ds 1
xevious_sr2:961B ??                          .ds 1
xevious_sr2:961C ??                          .ds 1
xevious_sr2:961D ??                          .ds 1
xevious_sr2:961E ??                          .ds 1
xevious_sr2:961F ??                          .ds 1
xevious_sr2:9620 ??                          .ds 1
xevious_sr2:9621 ??                          .ds 1
xevious_sr2:9622 ??                          .ds 1
xevious_sr2:9623 ??                          .ds 1
xevious_sr2:9624 ??                          .ds 1
xevious_sr2:9625 ??                          .ds 1
xevious_sr2:9626 ??                          .ds 1
xevious_sr2:9627 ??                          .ds 1
xevious_sr2:9628 ??                          .ds 1
xevious_sr2:9629 ??                          .ds 1
xevious_sr2:962A ??                          .ds 1
xevious_sr2:962B ??                          .ds 1
xevious_sr2:962C ??                          .ds 1
xevious_sr2:962D ??                          .ds 1
xevious_sr2:962E ??                          .ds 1
xevious_sr2:962F ??                          .ds 1
xevious_sr2:9630 ??                          .ds 1
xevious_sr2:9631 ??                          .ds 1
xevious_sr2:9632 ??                          .ds 1
xevious_sr2:9633 ??                          .ds 1
xevious_sr2:9634 ??                          .ds 1
xevious_sr2:9635 ??                          .ds 1
xevious_sr2:9636 ??                          .ds 1
xevious_sr2:9637 ??                          .ds 1
xevious_sr2:9638 ??                          .ds 1
xevious_sr2:9639 ??                          .ds 1
xevious_sr2:963A ??                          .ds 1
xevious_sr2:963B ??                          .ds 1
xevious_sr2:963C ??                          .ds 1
xevious_sr2:963D ??                          .ds 1
xevious_sr2:963E ??                          .ds 1
xevious_sr2:963F ??                          .ds 1
xevious_sr2:9640 ??                          .ds 1
xevious_sr2:9641 ??                          .ds 1
xevious_sr2:9642 ??                          .ds 1
xevious_sr2:9643 ??                          .ds 1
xevious_sr2:9644 ??                          .ds 1
xevious_sr2:9645 ??                          .ds 1
xevious_sr2:9646 ??                          .ds 1
xevious_sr2:9647 ??                          .ds 1
xevious_sr2:9648 ??                          .ds 1
xevious_sr2:9649 ??                          .ds 1
xevious_sr2:964A ??                          .ds 1
xevious_sr2:964B ??                          .ds 1
xevious_sr2:964C ??                          .ds 1
xevious_sr2:964D ??                          .ds 1
xevious_sr2:964E ??                          .ds 1
xevious_sr2:964F ??                          .ds 1
xevious_sr2:9650 ??                          .ds 1
xevious_sr2:9651 ??                          .ds 1
xevious_sr2:9652 ??                          .ds 1
xevious_sr2:9653 ??                          .ds 1
xevious_sr2:9654 ??                          .ds 1
xevious_sr2:9655 ??                          .ds 1
xevious_sr2:9656 ??                          .ds 1
xevious_sr2:9657 ??                          .ds 1
xevious_sr2:9658 ??                          .ds 1
xevious_sr2:9659 ??                          .ds 1
xevious_sr2:965A ??                          .ds 1
xevious_sr2:965B ??                          .ds 1
xevious_sr2:965C ??                          .ds 1
xevious_sr2:965D ??                          .ds 1
xevious_sr2:965E ??                          .ds 1
xevious_sr2:965F ??                          .ds 1
xevious_sr2:9660 ??                          .ds 1
xevious_sr2:9661 ??                          .ds 1
xevious_sr2:9662 ??                          .ds 1
xevious_sr2:9663 ??                          .ds 1
xevious_sr2:9664 ??                          .ds 1
xevious_sr2:9665 ??                          .ds 1
xevious_sr2:9666 ??                          .ds 1
xevious_sr2:9667 ??                          .ds 1
xevious_sr2:9668 ??                          .ds 1
xevious_sr2:9669 ??                          .ds 1
xevious_sr2:966A ??                          .ds 1
xevious_sr2:966B ??                          .ds 1
xevious_sr2:966C ??                          .ds 1
xevious_sr2:966D ??                          .ds 1
xevious_sr2:966E ??                          .ds 1
xevious_sr2:966F ??                          .ds 1
xevious_sr2:9670 ??                          .ds 1
xevious_sr2:9671 ??                          .ds 1
xevious_sr2:9672 ??                          .ds 1
xevious_sr2:9673 ??                          .ds 1
xevious_sr2:9674 ??                          .ds 1
xevious_sr2:9675 ??                          .ds 1
xevious_sr2:9676 ??                          .ds 1
xevious_sr2:9677 ??                          .ds 1
xevious_sr2:9678 ??                          .ds 1
xevious_sr2:9679 ??                          .ds 1
xevious_sr2:967A ??                          .ds 1
xevious_sr2:967B ??                          .ds 1
xevious_sr2:967C ??                          .ds 1
xevious_sr2:967D ??                          .ds 1
xevious_sr2:967E ??                          .ds 1
xevious_sr2:967F ??                          .ds 1
xevious_sr2:9680 ??                          .ds 1
xevious_sr2:9681 ??                          .ds 1
xevious_sr2:9682 ??                          .ds 1
xevious_sr2:9683 ??                          .ds 1
xevious_sr2:9684 ??                          .ds 1
xevious_sr2:9685 ??                          .ds 1
xevious_sr2:9686 ??                          .ds 1
xevious_sr2:9687 ??                          .ds 1
xevious_sr2:9688 ??                          .ds 1
xevious_sr2:9689 ??                          .ds 1
xevious_sr2:968A ??                          .ds 1
xevious_sr2:968B ??                          .ds 1
xevious_sr2:968C ??                          .ds 1
xevious_sr2:968D ??                          .ds 1
xevious_sr2:968E ??                          .ds 1
xevious_sr2:968F ??                          .ds 1
xevious_sr2:9690 ??                          .ds 1
xevious_sr2:9691 ??                          .ds 1
xevious_sr2:9692 ??                          .ds 1
xevious_sr2:9693 ??                          .ds 1
xevious_sr2:9694 ??                          .ds 1
xevious_sr2:9695 ??                          .ds 1
xevious_sr2:9696 ??                          .ds 1
xevious_sr2:9697 ??                          .ds 1
xevious_sr2:9698 ??                          .ds 1
xevious_sr2:9699 ??                          .ds 1
xevious_sr2:969A ??                          .ds 1
xevious_sr2:969B ??                          .ds 1
xevious_sr2:969C ??                          .ds 1
xevious_sr2:969D ??                          .ds 1
xevious_sr2:969E ??                          .ds 1
xevious_sr2:969F ??                          .ds 1
xevious_sr2:96A0 ??                          .ds 1
xevious_sr2:96A1 ??                          .ds 1
xevious_sr2:96A2 ??                          .ds 1
xevious_sr2:96A3 ??                          .ds 1
xevious_sr2:96A4 ??                          .ds 1
xevious_sr2:96A5 ??                          .ds 1
xevious_sr2:96A6 ??                          .ds 1
xevious_sr2:96A7 ??                          .ds 1
xevious_sr2:96A8 ??                          .ds 1
xevious_sr2:96A9 ??                          .ds 1
xevious_sr2:96AA ??                          .ds 1
xevious_sr2:96AB ??                          .ds 1
xevious_sr2:96AC ??                          .ds 1
xevious_sr2:96AD ??                          .ds 1
xevious_sr2:96AE ??                          .ds 1
xevious_sr2:96AF ??                          .ds 1
xevious_sr2:96B0 ??                          .ds 1
xevious_sr2:96B1 ??                          .ds 1
xevious_sr2:96B2 ??                          .ds 1
xevious_sr2:96B3 ??                          .ds 1
xevious_sr2:96B4 ??                          .ds 1
xevious_sr2:96B5 ??                          .ds 1
xevious_sr2:96B6 ??                          .ds 1
xevious_sr2:96B7 ??                          .ds 1
xevious_sr2:96B8 ??                          .ds 1
xevious_sr2:96B9 ??                          .ds 1
xevious_sr2:96BA ??                          .ds 1
xevious_sr2:96BB ??                          .ds 1
xevious_sr2:96BC ??                          .ds 1
xevious_sr2:96BD ??                          .ds 1
xevious_sr2:96BE ??                          .ds 1
xevious_sr2:96BF ??                          .ds 1
xevious_sr2:96C0 ??                          .ds 1
xevious_sr2:96C1 ??                          .ds 1
xevious_sr2:96C2 ??                          .ds 1
xevious_sr2:96C3 ??                          .ds 1
xevious_sr2:96C4 ??                          .ds 1
xevious_sr2:96C5 ??                          .ds 1
xevious_sr2:96C6 ??                          .ds 1
xevious_sr2:96C7 ??                          .ds 1
xevious_sr2:96C8 ??                          .ds 1
xevious_sr2:96C9 ??                          .ds 1
xevious_sr2:96CA ??                          .ds 1
xevious_sr2:96CB ??                          .ds 1
xevious_sr2:96CC ??                          .ds 1
xevious_sr2:96CD ??                          .ds 1
xevious_sr2:96CE ??                          .ds 1
xevious_sr2:96CF ??                          .ds 1
xevious_sr2:96D0 ??                          .ds 1
xevious_sr2:96D1 ??                          .ds 1
xevious_sr2:96D2 ??                          .ds 1
xevious_sr2:96D3 ??                          .ds 1
xevious_sr2:96D4 ??                          .ds 1
xevious_sr2:96D5 ??                          .ds 1
xevious_sr2:96D6 ??                          .ds 1
xevious_sr2:96D7 ??                          .ds 1
xevious_sr2:96D8 ??                          .ds 1
xevious_sr2:96D9 ??                          .ds 1
xevious_sr2:96DA ??                          .ds 1
xevious_sr2:96DB ??                          .ds 1
xevious_sr2:96DC ??                          .ds 1
xevious_sr2:96DD ??                          .ds 1
xevious_sr2:96DE ??                          .ds 1
xevious_sr2:96DF ??                          .ds 1
xevious_sr2:96E0 ??                          .ds 1
xevious_sr2:96E1 ??                          .ds 1
xevious_sr2:96E2 ??                          .ds 1
xevious_sr2:96E3 ??                          .ds 1
xevious_sr2:96E4 ??                          .ds 1
xevious_sr2:96E5 ??                          .ds 1
xevious_sr2:96E6 ??                          .ds 1
xevious_sr2:96E7 ??                          .ds 1
xevious_sr2:96E8 ??                          .ds 1
xevious_sr2:96E9 ??                          .ds 1
xevious_sr2:96EA ??                          .ds 1
xevious_sr2:96EB ??                          .ds 1
xevious_sr2:96EC ??                          .ds 1
xevious_sr2:96ED ??                          .ds 1
xevious_sr2:96EE ??                          .ds 1
xevious_sr2:96EF ??                          .ds 1
xevious_sr2:96F0 ??                          .ds 1
xevious_sr2:96F1 ??                          .ds 1
xevious_sr2:96F2 ??                          .ds 1
xevious_sr2:96F3 ??                          .ds 1
xevious_sr2:96F4 ??                          .ds 1
xevious_sr2:96F5 ??                          .ds 1
xevious_sr2:96F6 ??                          .ds 1
xevious_sr2:96F7 ??                          .ds 1
xevious_sr2:96F8 ??                          .ds 1
xevious_sr2:96F9 ??                          .ds 1
xevious_sr2:96FA ??                          .ds 1
xevious_sr2:96FB ??                          .ds 1
xevious_sr2:96FC ??                          .ds 1
xevious_sr2:96FD ??                          .ds 1
xevious_sr2:96FE ??                          .ds 1
xevious_sr2:96FF ??                          .ds 1
xevious_sr2:9700 ??                          .ds 1
xevious_sr2:9701 ??                          .ds 1
xevious_sr2:9702 ??                          .ds 1
xevious_sr2:9703 ??                          .ds 1
xevious_sr2:9704 ??                          .ds 1
xevious_sr2:9705 ??                          .ds 1
xevious_sr2:9706 ??                          .ds 1
xevious_sr2:9707 ??                          .ds 1
xevious_sr2:9708 ??                          .ds 1
xevious_sr2:9709 ??                          .ds 1
xevious_sr2:970A ??                          .ds 1
xevious_sr2:970B ??                          .ds 1
xevious_sr2:970C ??                          .ds 1
xevious_sr2:970D ??                          .ds 1
xevious_sr2:970E ??                          .ds 1
xevious_sr2:970F ??                          .ds 1
xevious_sr2:9710 ??                          .ds 1
xevious_sr2:9711 ??                          .ds 1
xevious_sr2:9712 ??                          .ds 1
xevious_sr2:9713 ??                          .ds 1
xevious_sr2:9714 ??                          .ds 1
xevious_sr2:9715 ??                          .ds 1
xevious_sr2:9716 ??                          .ds 1
xevious_sr2:9717 ??                          .ds 1
xevious_sr2:9718 ??                          .ds 1
xevious_sr2:9719 ??                          .ds 1
xevious_sr2:971A ??                          .ds 1
xevious_sr2:971B ??                          .ds 1
xevious_sr2:971C ??                          .ds 1
xevious_sr2:971D ??                          .ds 1
xevious_sr2:971E ??                          .ds 1
xevious_sr2:971F ??                          .ds 1
xevious_sr2:9720 ??                          .ds 1
xevious_sr2:9721 ??                          .ds 1
xevious_sr2:9722 ??                          .ds 1
xevious_sr2:9723 ??                          .ds 1
xevious_sr2:9724 ??                          .ds 1
xevious_sr2:9725 ??                          .ds 1
xevious_sr2:9726 ??                          .ds 1
xevious_sr2:9727 ??                          .ds 1
xevious_sr2:9728 ??                          .ds 1
xevious_sr2:9729 ??                          .ds 1
xevious_sr2:972A ??                          .ds 1
xevious_sr2:972B ??                          .ds 1
xevious_sr2:972C ??                          .ds 1
xevious_sr2:972D ??                          .ds 1
xevious_sr2:972E ??                          .ds 1
xevious_sr2:972F ??                          .ds 1
xevious_sr2:9730 ??                          .ds 1
xevious_sr2:9731 ??                          .ds 1
xevious_sr2:9732 ??                          .ds 1
xevious_sr2:9733 ??                          .ds 1
xevious_sr2:9734 ??                          .ds 1
xevious_sr2:9735 ??                          .ds 1
xevious_sr2:9736 ??                          .ds 1
xevious_sr2:9737 ??                          .ds 1
xevious_sr2:9738 ??                          .ds 1
xevious_sr2:9739 ??                          .ds 1
xevious_sr2:973A ??                          .ds 1
xevious_sr2:973B ??                          .ds 1
xevious_sr2:973C ??                          .ds 1
xevious_sr2:973D ??                          .ds 1
xevious_sr2:973E ??                          .ds 1
xevious_sr2:973F ??                          .ds 1
xevious_sr2:9740 ??                          .ds 1
xevious_sr2:9741 ??                          .ds 1
xevious_sr2:9742 ??                          .ds 1
xevious_sr2:9743 ??                          .ds 1
xevious_sr2:9744 ??                          .ds 1
xevious_sr2:9745 ??                          .ds 1
xevious_sr2:9746 ??                          .ds 1
xevious_sr2:9747 ??                          .ds 1
xevious_sr2:9748 ??                          .ds 1
xevious_sr2:9749 ??                          .ds 1
xevious_sr2:974A ??                          .ds 1
xevious_sr2:974B ??                          .ds 1
xevious_sr2:974C ??                          .ds 1
xevious_sr2:974D ??                          .ds 1
xevious_sr2:974E ??                          .ds 1
xevious_sr2:974F ??                          .ds 1
xevious_sr2:9750 ??                          .ds 1
xevious_sr2:9751 ??                          .ds 1
xevious_sr2:9752 ??                          .ds 1
xevious_sr2:9753 ??                          .ds 1
xevious_sr2:9754 ??                          .ds 1
xevious_sr2:9755 ??                          .ds 1
xevious_sr2:9756 ??                          .ds 1
xevious_sr2:9757 ??                          .ds 1
xevious_sr2:9758 ??                          .ds 1
xevious_sr2:9759 ??                          .ds 1
xevious_sr2:975A ??                          .ds 1
xevious_sr2:975B ??                          .ds 1
xevious_sr2:975C ??                          .ds 1
xevious_sr2:975D ??                          .ds 1
xevious_sr2:975E ??                          .ds 1
xevious_sr2:975F ??                          .ds 1
xevious_sr2:9760 ??                          .ds 1
xevious_sr2:9761 ??                          .ds 1
xevious_sr2:9762 ??                          .ds 1
xevious_sr2:9763 ??                          .ds 1
xevious_sr2:9764 ??                          .ds 1
xevious_sr2:9765 ??                          .ds 1
xevious_sr2:9766 ??                          .ds 1
xevious_sr2:9767 ??                          .ds 1
xevious_sr2:9768 ??                          .ds 1
xevious_sr2:9769 ??                          .ds 1
xevious_sr2:976A ??                          .ds 1
xevious_sr2:976B ??                          .ds 1
xevious_sr2:976C ??                          .ds 1
xevious_sr2:976D ??                          .ds 1
xevious_sr2:976E ??                          .ds 1
xevious_sr2:976F ??                          .ds 1
xevious_sr2:9770 ??                          .ds 1
xevious_sr2:9771 ??                          .ds 1
xevious_sr2:9772 ??                          .ds 1
xevious_sr2:9773 ??                          .ds 1
xevious_sr2:9774 ??                          .ds 1
xevious_sr2:9775 ??                          .ds 1
xevious_sr2:9776 ??                          .ds 1
xevious_sr2:9777 ??                          .ds 1
xevious_sr2:9778 ??                          .ds 1
xevious_sr2:9779 ??                          .ds 1
xevious_sr2:977A ??                          .ds 1
xevious_sr2:977B ??                          .ds 1
xevious_sr2:977C ??                          .ds 1
xevious_sr2:977D ??                          .ds 1
xevious_sr2:977E ??                          .ds 1
xevious_sr2:977F ??                          .ds 1
xevious_sr2:9780 ?? ?? ?? ??+spriteram_3:    .ds 0x80
xevious_sr2:9780 ?? ?? ?? ??+; end of 'xevious_sr2'
xevious_sr2:9780 ?? ?? ?? ??+
xevious_sr3:A000             ; ===========================================================================
xevious_sr3:A000
xevious_sr3:A000             ; Segment type: Regular
xevious_sr3:A000                             .org 0xA000
xevious_sr3:A000 ??          unk_A000:       .ds 1
xevious_sr3:A001 ??          unk_A001:       .ds 1
xevious_sr3:A002 ??          highest_score_snd:.ds 1
xevious_sr3:A003 ??          high_score_snd: .ds 1
xevious_sr3:A004 ??          extra_solvalou_snd:.ds 1
xevious_sr3:A005 ??          flying_enemy_hit_snd:.ds 1
xevious_sr3:A006 ??          garu_zakato_snd:.ds 1
xevious_sr3:A007 ??          andor_genesis_snd:.ds 1
xevious_sr3:A008 ??          sheonite_snd:   .ds 1
xevious_sr3:A009 ??          teleport_snd:   .ds 1
xevious_sr3:A00A ??          bacura_hit_snd: .ds 1
xevious_sr3:A00B ??          shot_snd:       .ds 1
xevious_sr3:A00C ??          bomb_snd:       .ds 1
xevious_sr3:A00D ??          bonus_flag_snd: .ds 1
xevious_sr3:A00E ??          solvalou_snd:   .ds 1
xevious_sr3:A00F ??                          .ds 1
xevious_sr3:A010 ??                          .ds 1
xevious_sr3:A011 ??                          .ds 1
xevious_sr3:A012 ??                          .ds 1
xevious_sr3:A013 ??                          .ds 1
xevious_sr3:A014 ??                          .ds 1
xevious_sr3:A015 ??                          .ds 1
xevious_sr3:A016 ??          unk_A016:       .ds 1
xevious_sr3:A017 ??          unk_A017:       .ds 1
xevious_sr3:A018 ??                          .ds 1
xevious_sr3:A019 ??                          .ds 1
xevious_sr3:A01A ??                          .ds 1
xevious_sr3:A01B ??                          .ds 1
xevious_sr3:A01C ??                          .ds 1
xevious_sr3:A01D ??                          .ds 1
xevious_sr3:A01E ??                          .ds 1
xevious_sr3:A01F ??                          .ds 1
xevious_sr3:A020 ??          unk_A020:       .ds 1
xevious_sr3:A021 ??                          .ds 1
xevious_sr3:A022 ??          unk_A022:       .ds 1
xevious_sr3:A023 ??                          .ds 1
xevious_sr3:A024 ??                          .ds 1
xevious_sr3:A025 ??                          .ds 1
xevious_sr3:A026 ??                          .ds 1
xevious_sr3:A027 ??                          .ds 1
xevious_sr3:A028 ??                          .ds 1
xevious_sr3:A029 ??                          .ds 1
xevious_sr3:A02A ??                          .ds 1
xevious_sr3:A02B ??                          .ds 1
xevious_sr3:A02C ??                          .ds 1
xevious_sr3:A02D ??                          .ds 1
xevious_sr3:A02E ??                          .ds 1
xevious_sr3:A02F ??                          .ds 1
xevious_sr3:A030 ??                          .ds 1
xevious_sr3:A031 ??                          .ds 1
xevious_sr3:A032 ??                          .ds 1
xevious_sr3:A033 ??                          .ds 1
xevious_sr3:A034 ??                          .ds 1
xevious_sr3:A035 ??                          .ds 1
xevious_sr3:A036 ??                          .ds 1
xevious_sr3:A037 ??                          .ds 1
xevious_sr3:A038 ??                          .ds 1
xevious_sr3:A039 ??                          .ds 1
xevious_sr3:A03A ??                          .ds 1
xevious_sr3:A03B ??                          .ds 1
xevious_sr3:A03C ??                          .ds 1
xevious_sr3:A03D ??                          .ds 1
xevious_sr3:A03E ??                          .ds 1
xevious_sr3:A03F ??                          .ds 1
xevious_sr3:A040 ??                          .ds 1
xevious_sr3:A041 ??                          .ds 1
xevious_sr3:A042 ??                          .ds 1
xevious_sr3:A043 ??                          .ds 1
xevious_sr3:A044 ??                          .ds 1
xevious_sr3:A045 ??                          .ds 1
xevious_sr3:A046 ??                          .ds 1
xevious_sr3:A047 ??                          .ds 1
xevious_sr3:A048 ??                          .ds 1
xevious_sr3:A049 ??                          .ds 1
xevious_sr3:A04A ??                          .ds 1
xevious_sr3:A04B ??                          .ds 1
xevious_sr3:A04C ??                          .ds 1
xevious_sr3:A04D ??                          .ds 1
xevious_sr3:A04E ??                          .ds 1
xevious_sr3:A04F ??                          .ds 1
xevious_sr3:A050 ??                          .ds 1
xevious_sr3:A051 ??                          .ds 1
xevious_sr3:A052 ??                          .ds 1
xevious_sr3:A053 ??                          .ds 1
xevious_sr3:A054 ??                          .ds 1
xevious_sr3:A055 ??                          .ds 1
xevious_sr3:A056 ??                          .ds 1
xevious_sr3:A057 ??                          .ds 1
xevious_sr3:A058 ??                          .ds 1
xevious_sr3:A059 ??                          .ds 1
xevious_sr3:A05A ??                          .ds 1
xevious_sr3:A05B ??                          .ds 1
xevious_sr3:A05C ??                          .ds 1
xevious_sr3:A05D ??                          .ds 1
xevious_sr3:A05E ??                          .ds 1
xevious_sr3:A05F ??                          .ds 1
xevious_sr3:A060 ??                          .ds 1
xevious_sr3:A061 ??                          .ds 1
xevious_sr3:A062 ??                          .ds 1
xevious_sr3:A063 ??                          .ds 1
xevious_sr3:A064 ??                          .ds 1
xevious_sr3:A065 ??                          .ds 1
xevious_sr3:A066 ??                          .ds 1
xevious_sr3:A067 ??                          .ds 1
xevious_sr3:A068 ??                          .ds 1
xevious_sr3:A069 ??                          .ds 1
xevious_sr3:A06A ??                          .ds 1
xevious_sr3:A06B ??                          .ds 1
xevious_sr3:A06C ??                          .ds 1
xevious_sr3:A06D ??                          .ds 1
xevious_sr3:A06E ??                          .ds 1
xevious_sr3:A06F ??                          .ds 1
xevious_sr3:A070 ??                          .ds 1
xevious_sr3:A071 ??                          .ds 1
xevious_sr3:A072 ??                          .ds 1
xevious_sr3:A073 ??                          .ds 1
xevious_sr3:A074 ??                          .ds 1
xevious_sr3:A075 ??                          .ds 1
xevious_sr3:A076 ??                          .ds 1
xevious_sr3:A077 ??                          .ds 1
xevious_sr3:A078 ??                          .ds 1
xevious_sr3:A079 ??                          .ds 1
xevious_sr3:A07A ??                          .ds 1
xevious_sr3:A07B ??                          .ds 1
xevious_sr3:A07C ??                          .ds 1
xevious_sr3:A07D ??                          .ds 1
xevious_sr3:A07E ??                          .ds 1
xevious_sr3:A07F ??                          .ds 1
xevious_sr3:A080 ??                          .ds 1
xevious_sr3:A081 ??                          .ds 1
xevious_sr3:A082 ??                          .ds 1
xevious_sr3:A083 ??                          .ds 1
xevious_sr3:A084 ??                          .ds 1
xevious_sr3:A085 ??                          .ds 1
xevious_sr3:A086 ??                          .ds 1
xevious_sr3:A087 ??                          .ds 1
xevious_sr3:A088 ??                          .ds 1
xevious_sr3:A089 ??                          .ds 1
xevious_sr3:A08A ??                          .ds 1
xevious_sr3:A08B ??                          .ds 1
xevious_sr3:A08C ??                          .ds 1
xevious_sr3:A08D ??                          .ds 1
xevious_sr3:A08E ??                          .ds 1
xevious_sr3:A08F ??                          .ds 1
xevious_sr3:A090 ??                          .ds 1
xevious_sr3:A091 ??                          .ds 1
xevious_sr3:A092 ??                          .ds 1
xevious_sr3:A093 ??                          .ds 1
xevious_sr3:A094 ??                          .ds 1
xevious_sr3:A095 ??                          .ds 1
xevious_sr3:A096 ??                          .ds 1
xevious_sr3:A097 ??                          .ds 1
xevious_sr3:A098 ??                          .ds 1
xevious_sr3:A099 ??                          .ds 1
xevious_sr3:A09A ??                          .ds 1
xevious_sr3:A09B ??                          .ds 1
xevious_sr3:A09C ??                          .ds 1
xevious_sr3:A09D ??                          .ds 1
xevious_sr3:A09E ??                          .ds 1
xevious_sr3:A09F ??                          .ds 1
xevious_sr3:A0A0 ??                          .ds 1
xevious_sr3:A0A1 ??                          .ds 1
xevious_sr3:A0A2 ??                          .ds 1
xevious_sr3:A0A3 ??                          .ds 1
xevious_sr3:A0A4 ??                          .ds 1
xevious_sr3:A0A5 ??                          .ds 1
xevious_sr3:A0A6 ??                          .ds 1
xevious_sr3:A0A7 ??                          .ds 1
xevious_sr3:A0A8 ??                          .ds 1
xevious_sr3:A0A9 ??                          .ds 1
xevious_sr3:A0AA ??                          .ds 1
xevious_sr3:A0AB ??                          .ds 1
xevious_sr3:A0AC ??                          .ds 1
xevious_sr3:A0AD ??                          .ds 1
xevious_sr3:A0AE ??                          .ds 1
xevious_sr3:A0AF ??                          .ds 1
xevious_sr3:A0B0 ??                          .ds 1
xevious_sr3:A0B1 ??                          .ds 1
xevious_sr3:A0B2 ??                          .ds 1
xevious_sr3:A0B3 ??                          .ds 1
xevious_sr3:A0B4 ??                          .ds 1
xevious_sr3:A0B5 ??                          .ds 1
xevious_sr3:A0B6 ??                          .ds 1
xevious_sr3:A0B7 ??                          .ds 1
xevious_sr3:A0B8 ??                          .ds 1
xevious_sr3:A0B9 ??                          .ds 1
xevious_sr3:A0BA ??                          .ds 1
xevious_sr3:A0BB ??                          .ds 1
xevious_sr3:A0BC ??                          .ds 1
xevious_sr3:A0BD ??                          .ds 1
xevious_sr3:A0BE ??                          .ds 1
xevious_sr3:A0BF ??                          .ds 1
xevious_sr3:A0C0 ??                          .ds 1
xevious_sr3:A0C1 ??                          .ds 1
xevious_sr3:A0C2 ??                          .ds 1
xevious_sr3:A0C3 ??                          .ds 1
xevious_sr3:A0C4 ??                          .ds 1
xevious_sr3:A0C5 ??                          .ds 1
xevious_sr3:A0C6 ??                          .ds 1
xevious_sr3:A0C7 ??                          .ds 1
xevious_sr3:A0C8 ??                          .ds 1
xevious_sr3:A0C9 ??                          .ds 1
xevious_sr3:A0CA ??                          .ds 1
xevious_sr3:A0CB ??                          .ds 1
xevious_sr3:A0CC ??                          .ds 1
xevious_sr3:A0CD ??                          .ds 1
xevious_sr3:A0CE ??                          .ds 1
xevious_sr3:A0CF ??                          .ds 1
xevious_sr3:A0D0 ??                          .ds 1
xevious_sr3:A0D1 ??                          .ds 1
xevious_sr3:A0D2 ??                          .ds 1
xevious_sr3:A0D3 ??                          .ds 1
xevious_sr3:A0D4 ??                          .ds 1
xevious_sr3:A0D5 ??                          .ds 1
xevious_sr3:A0D6 ??                          .ds 1
xevious_sr3:A0D7 ??                          .ds 1
xevious_sr3:A0D8 ??                          .ds 1
xevious_sr3:A0D9 ??                          .ds 1
xevious_sr3:A0DA ??                          .ds 1
xevious_sr3:A0DB ??                          .ds 1
xevious_sr3:A0DC ??                          .ds 1
xevious_sr3:A0DD ??                          .ds 1
xevious_sr3:A0DE ??                          .ds 1
xevious_sr3:A0DF ??                          .ds 1
xevious_sr3:A0E0 ??                          .ds 1
xevious_sr3:A0E1 ??                          .ds 1
xevious_sr3:A0E2 ??                          .ds 1
xevious_sr3:A0E3 ??                          .ds 1
xevious_sr3:A0E4 ??                          .ds 1
xevious_sr3:A0E5 ??                          .ds 1
xevious_sr3:A0E6 ??                          .ds 1
xevious_sr3:A0E7 ??                          .ds 1
xevious_sr3:A0E8 ??                          .ds 1
xevious_sr3:A0E9 ??                          .ds 1
xevious_sr3:A0EA ??                          .ds 1
xevious_sr3:A0EB ??                          .ds 1
xevious_sr3:A0EC ??                          .ds 1
xevious_sr3:A0ED ??                          .ds 1
xevious_sr3:A0EE ??                          .ds 1
xevious_sr3:A0EF ??                          .ds 1
xevious_sr3:A0F0 ??                          .ds 1
xevious_sr3:A0F1 ??                          .ds 1
xevious_sr3:A0F2 ??                          .ds 1
xevious_sr3:A0F3 ??                          .ds 1
xevious_sr3:A0F4 ??                          .ds 1
xevious_sr3:A0F5 ??                          .ds 1
xevious_sr3:A0F6 ??                          .ds 1
xevious_sr3:A0F7 ??                          .ds 1
xevious_sr3:A0F8 ??                          .ds 1
xevious_sr3:A0F9 ??                          .ds 1
xevious_sr3:A0FA ??                          .ds 1
xevious_sr3:A0FB ??                          .ds 1
xevious_sr3:A0FC ??                          .ds 1
xevious_sr3:A0FD ??                          .ds 1
xevious_sr3:A0FE ??                          .ds 1
xevious_sr3:A0FF ??                          .ds 1
xevious_sr3:A100 ??                          .ds 1
xevious_sr3:A101 ??                          .ds 1
xevious_sr3:A102 ??                          .ds 1
xevious_sr3:A103 ??                          .ds 1
xevious_sr3:A104 ??                          .ds 1
xevious_sr3:A105 ??                          .ds 1
xevious_sr3:A106 ??                          .ds 1
xevious_sr3:A107 ??                          .ds 1
xevious_sr3:A108 ??                          .ds 1
xevious_sr3:A109 ??                          .ds 1
xevious_sr3:A10A ??                          .ds 1
xevious_sr3:A10B ??                          .ds 1
xevious_sr3:A10C ??                          .ds 1
xevious_sr3:A10D ??                          .ds 1
xevious_sr3:A10E ??                          .ds 1
xevious_sr3:A10F ??                          .ds 1
xevious_sr3:A110 ??                          .ds 1
xevious_sr3:A111 ??                          .ds 1
xevious_sr3:A112 ??                          .ds 1
xevious_sr3:A113 ??                          .ds 1
xevious_sr3:A114 ??                          .ds 1
xevious_sr3:A115 ??                          .ds 1
xevious_sr3:A116 ??                          .ds 1
xevious_sr3:A117 ??                          .ds 1
xevious_sr3:A118 ??                          .ds 1
xevious_sr3:A119 ??                          .ds 1
xevious_sr3:A11A ??                          .ds 1
xevious_sr3:A11B ??                          .ds 1
xevious_sr3:A11C ??                          .ds 1
xevious_sr3:A11D ??                          .ds 1
xevious_sr3:A11E ??                          .ds 1
xevious_sr3:A11F ??                          .ds 1
xevious_sr3:A120 ??                          .ds 1
xevious_sr3:A121 ??                          .ds 1
xevious_sr3:A122 ??                          .ds 1
xevious_sr3:A123 ??                          .ds 1
xevious_sr3:A124 ??                          .ds 1
xevious_sr3:A125 ??                          .ds 1
xevious_sr3:A126 ??                          .ds 1
xevious_sr3:A127 ??                          .ds 1
xevious_sr3:A128 ??                          .ds 1
xevious_sr3:A129 ??                          .ds 1
xevious_sr3:A12A ??                          .ds 1
xevious_sr3:A12B ??                          .ds 1
xevious_sr3:A12C ??                          .ds 1
xevious_sr3:A12D ??                          .ds 1
xevious_sr3:A12E ??                          .ds 1
xevious_sr3:A12F ??                          .ds 1
xevious_sr3:A130 ??                          .ds 1
xevious_sr3:A131 ??                          .ds 1
xevious_sr3:A132 ??                          .ds 1
xevious_sr3:A133 ??                          .ds 1
xevious_sr3:A134 ??                          .ds 1
xevious_sr3:A135 ??                          .ds 1
xevious_sr3:A136 ??                          .ds 1
xevious_sr3:A137 ??                          .ds 1
xevious_sr3:A138 ??                          .ds 1
xevious_sr3:A139 ??                          .ds 1
xevious_sr3:A13A ??                          .ds 1
xevious_sr3:A13B ??                          .ds 1
xevious_sr3:A13C ??                          .ds 1
xevious_sr3:A13D ??                          .ds 1
xevious_sr3:A13E ??                          .ds 1
xevious_sr3:A13F ??                          .ds 1
xevious_sr3:A140 ??                          .ds 1
xevious_sr3:A141 ??                          .ds 1
xevious_sr3:A142 ??                          .ds 1
xevious_sr3:A143 ??                          .ds 1
xevious_sr3:A144 ??                          .ds 1
xevious_sr3:A145 ??                          .ds 1
xevious_sr3:A146 ??                          .ds 1
xevious_sr3:A147 ??                          .ds 1
xevious_sr3:A148 ??                          .ds 1
xevious_sr3:A149 ??                          .ds 1
xevious_sr3:A14A ??                          .ds 1
xevious_sr3:A14B ??                          .ds 1
xevious_sr3:A14C ??                          .ds 1
xevious_sr3:A14D ??                          .ds 1
xevious_sr3:A14E ??                          .ds 1
xevious_sr3:A14F ??                          .ds 1
xevious_sr3:A150 ??                          .ds 1
xevious_sr3:A151 ??                          .ds 1
xevious_sr3:A152 ??                          .ds 1
xevious_sr3:A153 ??                          .ds 1
xevious_sr3:A154 ??                          .ds 1
xevious_sr3:A155 ??                          .ds 1
xevious_sr3:A156 ??                          .ds 1
xevious_sr3:A157 ??                          .ds 1
xevious_sr3:A158 ??                          .ds 1
xevious_sr3:A159 ??                          .ds 1
xevious_sr3:A15A ??                          .ds 1
xevious_sr3:A15B ??                          .ds 1
xevious_sr3:A15C ??                          .ds 1
xevious_sr3:A15D ??                          .ds 1
xevious_sr3:A15E ??                          .ds 1
xevious_sr3:A15F ??                          .ds 1
xevious_sr3:A160 ??                          .ds 1
xevious_sr3:A161 ??                          .ds 1
xevious_sr3:A162 ??                          .ds 1
xevious_sr3:A163 ??                          .ds 1
xevious_sr3:A164 ??                          .ds 1
xevious_sr3:A165 ??                          .ds 1
xevious_sr3:A166 ??                          .ds 1
xevious_sr3:A167 ??                          .ds 1
xevious_sr3:A168 ??                          .ds 1
xevious_sr3:A169 ??                          .ds 1
xevious_sr3:A16A ??                          .ds 1
xevious_sr3:A16B ??                          .ds 1
xevious_sr3:A16C ??                          .ds 1
xevious_sr3:A16D ??                          .ds 1
xevious_sr3:A16E ??                          .ds 1
xevious_sr3:A16F ??                          .ds 1
xevious_sr3:A170 ??                          .ds 1
xevious_sr3:A171 ??                          .ds 1
xevious_sr3:A172 ??                          .ds 1
xevious_sr3:A173 ??                          .ds 1
xevious_sr3:A174 ??                          .ds 1
xevious_sr3:A175 ??                          .ds 1
xevious_sr3:A176 ??                          .ds 1
xevious_sr3:A177 ??                          .ds 1
xevious_sr3:A178 ??                          .ds 1
xevious_sr3:A179 ??                          .ds 1
xevious_sr3:A17A ??                          .ds 1
xevious_sr3:A17B ??                          .ds 1
xevious_sr3:A17C ??                          .ds 1
xevious_sr3:A17D ??                          .ds 1
xevious_sr3:A17E ??                          .ds 1
xevious_sr3:A17F ??                          .ds 1
xevious_sr3:A180 ??                          .ds 1
xevious_sr3:A181 ??                          .ds 1
xevious_sr3:A182 ??                          .ds 1
xevious_sr3:A183 ??                          .ds 1
xevious_sr3:A184 ??                          .ds 1
xevious_sr3:A185 ??                          .ds 1
xevious_sr3:A186 ??                          .ds 1
xevious_sr3:A187 ??                          .ds 1
xevious_sr3:A188 ??                          .ds 1
xevious_sr3:A189 ??                          .ds 1
xevious_sr3:A18A ??                          .ds 1
xevious_sr3:A18B ??                          .ds 1
xevious_sr3:A18C ??                          .ds 1
xevious_sr3:A18D ??                          .ds 1
xevious_sr3:A18E ??                          .ds 1
xevious_sr3:A18F ??                          .ds 1
xevious_sr3:A190 ??                          .ds 1
xevious_sr3:A191 ??                          .ds 1
xevious_sr3:A192 ??                          .ds 1
xevious_sr3:A193 ??                          .ds 1
xevious_sr3:A194 ??                          .ds 1
xevious_sr3:A195 ??                          .ds 1
xevious_sr3:A196 ??                          .ds 1
xevious_sr3:A197 ??                          .ds 1
xevious_sr3:A198 ??                          .ds 1
xevious_sr3:A199 ??                          .ds 1
xevious_sr3:A19A ??                          .ds 1
xevious_sr3:A19B ??                          .ds 1
xevious_sr3:A19C ??                          .ds 1
xevious_sr3:A19D ??                          .ds 1
xevious_sr3:A19E ??                          .ds 1
xevious_sr3:A19F ??                          .ds 1
xevious_sr3:A1A0 ??                          .ds 1
xevious_sr3:A1A1 ??                          .ds 1
xevious_sr3:A1A2 ??                          .ds 1
xevious_sr3:A1A3 ??                          .ds 1
xevious_sr3:A1A4 ??                          .ds 1
xevious_sr3:A1A5 ??                          .ds 1
xevious_sr3:A1A6 ??                          .ds 1
xevious_sr3:A1A7 ??                          .ds 1
xevious_sr3:A1A8 ??                          .ds 1
xevious_sr3:A1A9 ??                          .ds 1
xevious_sr3:A1AA ??                          .ds 1
xevious_sr3:A1AB ??                          .ds 1
xevious_sr3:A1AC ??                          .ds 1
xevious_sr3:A1AD ??                          .ds 1
xevious_sr3:A1AE ??                          .ds 1
xevious_sr3:A1AF ??                          .ds 1
xevious_sr3:A1B0 ??                          .ds 1
xevious_sr3:A1B1 ??                          .ds 1
xevious_sr3:A1B2 ??                          .ds 1
xevious_sr3:A1B3 ??                          .ds 1
xevious_sr3:A1B4 ??                          .ds 1
xevious_sr3:A1B5 ??                          .ds 1
xevious_sr3:A1B6 ??                          .ds 1
xevious_sr3:A1B7 ??                          .ds 1
xevious_sr3:A1B8 ??                          .ds 1
xevious_sr3:A1B9 ??                          .ds 1
xevious_sr3:A1BA ??                          .ds 1
xevious_sr3:A1BB ??                          .ds 1
xevious_sr3:A1BC ??                          .ds 1
xevious_sr3:A1BD ??                          .ds 1
xevious_sr3:A1BE ??                          .ds 1
xevious_sr3:A1BF ??                          .ds 1
xevious_sr3:A1C0 ??                          .ds 1
xevious_sr3:A1C1 ??                          .ds 1
xevious_sr3:A1C2 ??                          .ds 1
xevious_sr3:A1C3 ??                          .ds 1
xevious_sr3:A1C4 ??                          .ds 1
xevious_sr3:A1C5 ??                          .ds 1
xevious_sr3:A1C6 ??                          .ds 1
xevious_sr3:A1C7 ??                          .ds 1
xevious_sr3:A1C8 ??                          .ds 1
xevious_sr3:A1C9 ??                          .ds 1
xevious_sr3:A1CA ??                          .ds 1
xevious_sr3:A1CB ??                          .ds 1
xevious_sr3:A1CC ??                          .ds 1
xevious_sr3:A1CD ??                          .ds 1
xevious_sr3:A1CE ??                          .ds 1
xevious_sr3:A1CF ??                          .ds 1
xevious_sr3:A1D0 ??                          .ds 1
xevious_sr3:A1D1 ??                          .ds 1
xevious_sr3:A1D2 ??                          .ds 1
xevious_sr3:A1D3 ??                          .ds 1
xevious_sr3:A1D4 ??                          .ds 1
xevious_sr3:A1D5 ??                          .ds 1
xevious_sr3:A1D6 ??                          .ds 1
xevious_sr3:A1D7 ??                          .ds 1
xevious_sr3:A1D8 ??                          .ds 1
xevious_sr3:A1D9 ??                          .ds 1
xevious_sr3:A1DA ??                          .ds 1
xevious_sr3:A1DB ??                          .ds 1
xevious_sr3:A1DC ??                          .ds 1
xevious_sr3:A1DD ??                          .ds 1
xevious_sr3:A1DE ??                          .ds 1
xevious_sr3:A1DF ??                          .ds 1
xevious_sr3:A1E0 ??                          .ds 1
xevious_sr3:A1E1 ??                          .ds 1
xevious_sr3:A1E2 ??                          .ds 1
xevious_sr3:A1E3 ??                          .ds 1
xevious_sr3:A1E4 ??                          .ds 1
xevious_sr3:A1E5 ??                          .ds 1
xevious_sr3:A1E6 ??                          .ds 1
xevious_sr3:A1E7 ??                          .ds 1
xevious_sr3:A1E8 ??                          .ds 1
xevious_sr3:A1E9 ??                          .ds 1
xevious_sr3:A1EA ??                          .ds 1
xevious_sr3:A1EB ??                          .ds 1
xevious_sr3:A1EC ??                          .ds 1
xevious_sr3:A1ED ??                          .ds 1
xevious_sr3:A1EE ??                          .ds 1
xevious_sr3:A1EF ??                          .ds 1
xevious_sr3:A1F0 ??                          .ds 1
xevious_sr3:A1F1 ??                          .ds 1
xevious_sr3:A1F2 ??                          .ds 1
xevious_sr3:A1F3 ??                          .ds 1
xevious_sr3:A1F4 ??                          .ds 1
xevious_sr3:A1F5 ??                          .ds 1
xevious_sr3:A1F6 ??                          .ds 1
xevious_sr3:A1F7 ??                          .ds 1
xevious_sr3:A1F8 ??                          .ds 1
xevious_sr3:A1F9 ??                          .ds 1
xevious_sr3:A1FA ??                          .ds 1
xevious_sr3:A1FB ??                          .ds 1
xevious_sr3:A1FC ??                          .ds 1
xevious_sr3:A1FD ??                          .ds 1
xevious_sr3:A1FE ??                          .ds 1
xevious_sr3:A1FF ??                          .ds 1
xevious_sr3:A200 ??                          .ds 1
xevious_sr3:A201 ??                          .ds 1
xevious_sr3:A202 ??                          .ds 1
xevious_sr3:A203 ??                          .ds 1
xevious_sr3:A204 ??                          .ds 1
xevious_sr3:A205 ??                          .ds 1
xevious_sr3:A206 ??                          .ds 1
xevious_sr3:A207 ??                          .ds 1
xevious_sr3:A208 ??                          .ds 1
xevious_sr3:A209 ??                          .ds 1
xevious_sr3:A20A ??                          .ds 1
xevious_sr3:A20B ??                          .ds 1
xevious_sr3:A20C ??                          .ds 1
xevious_sr3:A20D ??                          .ds 1
xevious_sr3:A20E ??                          .ds 1
xevious_sr3:A20F ??                          .ds 1
xevious_sr3:A210 ??                          .ds 1
xevious_sr3:A211 ??                          .ds 1
xevious_sr3:A212 ??                          .ds 1
xevious_sr3:A213 ??                          .ds 1
xevious_sr3:A214 ??                          .ds 1
xevious_sr3:A215 ??                          .ds 1
xevious_sr3:A216 ??                          .ds 1
xevious_sr3:A217 ??                          .ds 1
xevious_sr3:A218 ??                          .ds 1
xevious_sr3:A219 ??                          .ds 1
xevious_sr3:A21A ??                          .ds 1
xevious_sr3:A21B ??                          .ds 1
xevious_sr3:A21C ??                          .ds 1
xevious_sr3:A21D ??                          .ds 1
xevious_sr3:A21E ??                          .ds 1
xevious_sr3:A21F ??                          .ds 1
xevious_sr3:A220 ??                          .ds 1
xevious_sr3:A221 ??                          .ds 1
xevious_sr3:A222 ??                          .ds 1
xevious_sr3:A223 ??                          .ds 1
xevious_sr3:A224 ??                          .ds 1
xevious_sr3:A225 ??                          .ds 1
xevious_sr3:A226 ??                          .ds 1
xevious_sr3:A227 ??                          .ds 1
xevious_sr3:A228 ??                          .ds 1
xevious_sr3:A229 ??                          .ds 1
xevious_sr3:A22A ??                          .ds 1
xevious_sr3:A22B ??                          .ds 1
xevious_sr3:A22C ??                          .ds 1
xevious_sr3:A22D ??                          .ds 1
xevious_sr3:A22E ??                          .ds 1
xevious_sr3:A22F ??                          .ds 1
xevious_sr3:A230 ??                          .ds 1
xevious_sr3:A231 ??                          .ds 1
xevious_sr3:A232 ??                          .ds 1
xevious_sr3:A233 ??                          .ds 1
xevious_sr3:A234 ??                          .ds 1
xevious_sr3:A235 ??                          .ds 1
xevious_sr3:A236 ??                          .ds 1
xevious_sr3:A237 ??                          .ds 1
xevious_sr3:A238 ??                          .ds 1
xevious_sr3:A239 ??                          .ds 1
xevious_sr3:A23A ??                          .ds 1
xevious_sr3:A23B ??                          .ds 1
xevious_sr3:A23C ??                          .ds 1
xevious_sr3:A23D ??                          .ds 1
xevious_sr3:A23E ??                          .ds 1
xevious_sr3:A23F ??                          .ds 1
xevious_sr3:A240 ??                          .ds 1
xevious_sr3:A241 ??                          .ds 1
xevious_sr3:A242 ??                          .ds 1
xevious_sr3:A243 ??                          .ds 1
xevious_sr3:A244 ??                          .ds 1
xevious_sr3:A245 ??                          .ds 1
xevious_sr3:A246 ??                          .ds 1
xevious_sr3:A247 ??                          .ds 1
xevious_sr3:A248 ??                          .ds 1
xevious_sr3:A249 ??                          .ds 1
xevious_sr3:A24A ??                          .ds 1
xevious_sr3:A24B ??                          .ds 1
xevious_sr3:A24C ??                          .ds 1
xevious_sr3:A24D ??                          .ds 1
xevious_sr3:A24E ??                          .ds 1
xevious_sr3:A24F ??                          .ds 1
xevious_sr3:A250 ??                          .ds 1
xevious_sr3:A251 ??                          .ds 1
xevious_sr3:A252 ??                          .ds 1
xevious_sr3:A253 ??                          .ds 1
xevious_sr3:A254 ??                          .ds 1
xevious_sr3:A255 ??                          .ds 1
xevious_sr3:A256 ??                          .ds 1
xevious_sr3:A257 ??                          .ds 1
xevious_sr3:A258 ??                          .ds 1
xevious_sr3:A259 ??                          .ds 1
xevious_sr3:A25A ??                          .ds 1
xevious_sr3:A25B ??                          .ds 1
xevious_sr3:A25C ??                          .ds 1
xevious_sr3:A25D ??                          .ds 1
xevious_sr3:A25E ??                          .ds 1
xevious_sr3:A25F ??                          .ds 1
xevious_sr3:A260 ??                          .ds 1
xevious_sr3:A261 ??                          .ds 1
xevious_sr3:A262 ??                          .ds 1
xevious_sr3:A263 ??                          .ds 1
xevious_sr3:A264 ??                          .ds 1
xevious_sr3:A265 ??                          .ds 1
xevious_sr3:A266 ??                          .ds 1
xevious_sr3:A267 ??                          .ds 1
xevious_sr3:A268 ??                          .ds 1
xevious_sr3:A269 ??                          .ds 1
xevious_sr3:A26A ??                          .ds 1
xevious_sr3:A26B ??                          .ds 1
xevious_sr3:A26C ??                          .ds 1
xevious_sr3:A26D ??                          .ds 1
xevious_sr3:A26E ??                          .ds 1
xevious_sr3:A26F ??                          .ds 1
xevious_sr3:A270 ??                          .ds 1
xevious_sr3:A271 ??                          .ds 1
xevious_sr3:A272 ??                          .ds 1
xevious_sr3:A273 ??                          .ds 1
xevious_sr3:A274 ??                          .ds 1
xevious_sr3:A275 ??                          .ds 1
xevious_sr3:A276 ??                          .ds 1
xevious_sr3:A277 ??                          .ds 1
xevious_sr3:A278 ??                          .ds 1
xevious_sr3:A279 ??                          .ds 1
xevious_sr3:A27A ??                          .ds 1
xevious_sr3:A27B ??                          .ds 1
xevious_sr3:A27C ??                          .ds 1
xevious_sr3:A27D ??                          .ds 1
xevious_sr3:A27E ??                          .ds 1
xevious_sr3:A27F ??                          .ds 1
xevious_sr3:A280 ??                          .ds 1
xevious_sr3:A281 ??                          .ds 1
xevious_sr3:A282 ??                          .ds 1
xevious_sr3:A283 ??                          .ds 1
xevious_sr3:A284 ??                          .ds 1
xevious_sr3:A285 ??                          .ds 1
xevious_sr3:A286 ??                          .ds 1
xevious_sr3:A287 ??                          .ds 1
xevious_sr3:A288 ??                          .ds 1
xevious_sr3:A289 ??                          .ds 1
xevious_sr3:A28A ??                          .ds 1
xevious_sr3:A28B ??                          .ds 1
xevious_sr3:A28C ??                          .ds 1
xevious_sr3:A28D ??                          .ds 1
xevious_sr3:A28E ??                          .ds 1
xevious_sr3:A28F ??                          .ds 1
xevious_sr3:A290 ??                          .ds 1
xevious_sr3:A291 ??                          .ds 1
xevious_sr3:A292 ??                          .ds 1
xevious_sr3:A293 ??                          .ds 1
xevious_sr3:A294 ??                          .ds 1
xevious_sr3:A295 ??                          .ds 1
xevious_sr3:A296 ??                          .ds 1
xevious_sr3:A297 ??                          .ds 1
xevious_sr3:A298 ??                          .ds 1
xevious_sr3:A299 ??                          .ds 1
xevious_sr3:A29A ??                          .ds 1
xevious_sr3:A29B ??                          .ds 1
xevious_sr3:A29C ??                          .ds 1
xevious_sr3:A29D ??                          .ds 1
xevious_sr3:A29E ??                          .ds 1
xevious_sr3:A29F ??                          .ds 1
xevious_sr3:A2A0 ??                          .ds 1
xevious_sr3:A2A1 ??                          .ds 1
xevious_sr3:A2A2 ??                          .ds 1
xevious_sr3:A2A3 ??                          .ds 1
xevious_sr3:A2A4 ??                          .ds 1
xevious_sr3:A2A5 ??                          .ds 1
xevious_sr3:A2A6 ??                          .ds 1
xevious_sr3:A2A7 ??                          .ds 1
xevious_sr3:A2A8 ??                          .ds 1
xevious_sr3:A2A9 ??                          .ds 1
xevious_sr3:A2AA ??                          .ds 1
xevious_sr3:A2AB ??                          .ds 1
xevious_sr3:A2AC ??                          .ds 1
xevious_sr3:A2AD ??                          .ds 1
xevious_sr3:A2AE ??                          .ds 1
xevious_sr3:A2AF ??                          .ds 1
xevious_sr3:A2B0 ??                          .ds 1
xevious_sr3:A2B1 ??                          .ds 1
xevious_sr3:A2B2 ??                          .ds 1
xevious_sr3:A2B3 ??                          .ds 1
xevious_sr3:A2B4 ??                          .ds 1
xevious_sr3:A2B5 ??                          .ds 1
xevious_sr3:A2B6 ??                          .ds 1
xevious_sr3:A2B7 ??                          .ds 1
xevious_sr3:A2B8 ??                          .ds 1
xevious_sr3:A2B9 ??                          .ds 1
xevious_sr3:A2BA ??                          .ds 1
xevious_sr3:A2BB ??                          .ds 1
xevious_sr3:A2BC ??                          .ds 1
xevious_sr3:A2BD ??                          .ds 1
xevious_sr3:A2BE ??                          .ds 1
xevious_sr3:A2BF ??                          .ds 1
xevious_sr3:A2C0 ??                          .ds 1
xevious_sr3:A2C1 ??                          .ds 1
xevious_sr3:A2C2 ??                          .ds 1
xevious_sr3:A2C3 ??                          .ds 1
xevious_sr3:A2C4 ??                          .ds 1
xevious_sr3:A2C5 ??                          .ds 1
xevious_sr3:A2C6 ??                          .ds 1
xevious_sr3:A2C7 ??                          .ds 1
xevious_sr3:A2C8 ??                          .ds 1
xevious_sr3:A2C9 ??                          .ds 1
xevious_sr3:A2CA ??                          .ds 1
xevious_sr3:A2CB ??                          .ds 1
xevious_sr3:A2CC ??                          .ds 1
xevious_sr3:A2CD ??                          .ds 1
xevious_sr3:A2CE ??                          .ds 1
xevious_sr3:A2CF ??                          .ds 1
xevious_sr3:A2D0 ??                          .ds 1
xevious_sr3:A2D1 ??                          .ds 1
xevious_sr3:A2D2 ??                          .ds 1
xevious_sr3:A2D3 ??                          .ds 1
xevious_sr3:A2D4 ??                          .ds 1
xevious_sr3:A2D5 ??                          .ds 1
xevious_sr3:A2D6 ??                          .ds 1
xevious_sr3:A2D7 ??                          .ds 1
xevious_sr3:A2D8 ??                          .ds 1
xevious_sr3:A2D9 ??                          .ds 1
xevious_sr3:A2DA ??                          .ds 1
xevious_sr3:A2DB ??                          .ds 1
xevious_sr3:A2DC ??                          .ds 1
xevious_sr3:A2DD ??                          .ds 1
xevious_sr3:A2DE ??                          .ds 1
xevious_sr3:A2DF ??                          .ds 1
xevious_sr3:A2E0 ??                          .ds 1
xevious_sr3:A2E1 ??                          .ds 1
xevious_sr3:A2E2 ??                          .ds 1
xevious_sr3:A2E3 ??                          .ds 1
xevious_sr3:A2E4 ??                          .ds 1
xevious_sr3:A2E5 ??                          .ds 1
xevious_sr3:A2E6 ??                          .ds 1
xevious_sr3:A2E7 ??                          .ds 1
xevious_sr3:A2E8 ??                          .ds 1
xevious_sr3:A2E9 ??                          .ds 1
xevious_sr3:A2EA ??                          .ds 1
xevious_sr3:A2EB ??                          .ds 1
xevious_sr3:A2EC ??                          .ds 1
xevious_sr3:A2ED ??                          .ds 1
xevious_sr3:A2EE ??                          .ds 1
xevious_sr3:A2EF ??                          .ds 1
xevious_sr3:A2F0 ??                          .ds 1
xevious_sr3:A2F1 ??                          .ds 1
xevious_sr3:A2F2 ??                          .ds 1
xevious_sr3:A2F3 ??                          .ds 1
xevious_sr3:A2F4 ??                          .ds 1
xevious_sr3:A2F5 ??                          .ds 1
xevious_sr3:A2F6 ??                          .ds 1
xevious_sr3:A2F7 ??                          .ds 1
xevious_sr3:A2F8 ??                          .ds 1
xevious_sr3:A2F9 ??                          .ds 1
xevious_sr3:A2FA ??                          .ds 1
xevious_sr3:A2FB ??                          .ds 1
xevious_sr3:A2FC ??                          .ds 1
xevious_sr3:A2FD ??                          .ds 1
xevious_sr3:A2FE ??                          .ds 1
xevious_sr3:A2FF ??                          .ds 1
xevious_sr3:A300 ??                          .ds 1
xevious_sr3:A301 ??                          .ds 1
xevious_sr3:A302 ??                          .ds 1
xevious_sr3:A303 ??                          .ds 1
xevious_sr3:A304 ??                          .ds 1
xevious_sr3:A305 ??                          .ds 1
xevious_sr3:A306 ??                          .ds 1
xevious_sr3:A307 ??                          .ds 1
xevious_sr3:A308 ??                          .ds 1
xevious_sr3:A309 ??                          .ds 1
xevious_sr3:A30A ??                          .ds 1
xevious_sr3:A30B ??                          .ds 1
xevious_sr3:A30C ??                          .ds 1
xevious_sr3:A30D ??                          .ds 1
xevious_sr3:A30E ??                          .ds 1
xevious_sr3:A30F ??                          .ds 1
xevious_sr3:A310 ??                          .ds 1
xevious_sr3:A311 ??                          .ds 1
xevious_sr3:A312 ??                          .ds 1
xevious_sr3:A313 ??                          .ds 1
xevious_sr3:A314 ??                          .ds 1
xevious_sr3:A315 ??                          .ds 1
xevious_sr3:A316 ??                          .ds 1
xevious_sr3:A317 ??                          .ds 1
xevious_sr3:A318 ??                          .ds 1
xevious_sr3:A319 ??                          .ds 1
xevious_sr3:A31A ??                          .ds 1
xevious_sr3:A31B ??                          .ds 1
xevious_sr3:A31C ??                          .ds 1
xevious_sr3:A31D ??                          .ds 1
xevious_sr3:A31E ??                          .ds 1
xevious_sr3:A31F ??                          .ds 1
xevious_sr3:A320 ??                          .ds 1
xevious_sr3:A321 ??                          .ds 1
xevious_sr3:A322 ??                          .ds 1
xevious_sr3:A323 ??                          .ds 1
xevious_sr3:A324 ??                          .ds 1
xevious_sr3:A325 ??                          .ds 1
xevious_sr3:A326 ??                          .ds 1
xevious_sr3:A327 ??                          .ds 1
xevious_sr3:A328 ??                          .ds 1
xevious_sr3:A329 ??                          .ds 1
xevious_sr3:A32A ??                          .ds 1
xevious_sr3:A32B ??                          .ds 1
xevious_sr3:A32C ??                          .ds 1
xevious_sr3:A32D ??                          .ds 1
xevious_sr3:A32E ??                          .ds 1
xevious_sr3:A32F ??                          .ds 1
xevious_sr3:A330 ??                          .ds 1
xevious_sr3:A331 ??                          .ds 1
xevious_sr3:A332 ??                          .ds 1
xevious_sr3:A333 ??                          .ds 1
xevious_sr3:A334 ??                          .ds 1
xevious_sr3:A335 ??                          .ds 1
xevious_sr3:A336 ??                          .ds 1
xevious_sr3:A337 ??                          .ds 1
xevious_sr3:A338 ??                          .ds 1
xevious_sr3:A339 ??                          .ds 1
xevious_sr3:A33A ??                          .ds 1
xevious_sr3:A33B ??                          .ds 1
xevious_sr3:A33C ??                          .ds 1
xevious_sr3:A33D ??                          .ds 1
xevious_sr3:A33E ??                          .ds 1
xevious_sr3:A33F ??                          .ds 1
xevious_sr3:A340 ??                          .ds 1
xevious_sr3:A341 ??                          .ds 1
xevious_sr3:A342 ??                          .ds 1
xevious_sr3:A343 ??                          .ds 1
xevious_sr3:A344 ??                          .ds 1
xevious_sr3:A345 ??                          .ds 1
xevious_sr3:A346 ??                          .ds 1
xevious_sr3:A347 ??                          .ds 1
xevious_sr3:A348 ??                          .ds 1
xevious_sr3:A349 ??                          .ds 1
xevious_sr3:A34A ??                          .ds 1
xevious_sr3:A34B ??                          .ds 1
xevious_sr3:A34C ??                          .ds 1
xevious_sr3:A34D ??                          .ds 1
xevious_sr3:A34E ??                          .ds 1
xevious_sr3:A34F ??                          .ds 1
xevious_sr3:A350 ??                          .ds 1
xevious_sr3:A351 ??                          .ds 1
xevious_sr3:A352 ??                          .ds 1
xevious_sr3:A353 ??                          .ds 1
xevious_sr3:A354 ??                          .ds 1
xevious_sr3:A355 ??                          .ds 1
xevious_sr3:A356 ??                          .ds 1
xevious_sr3:A357 ??                          .ds 1
xevious_sr3:A358 ??                          .ds 1
xevious_sr3:A359 ??                          .ds 1
xevious_sr3:A35A ??                          .ds 1
xevious_sr3:A35B ??                          .ds 1
xevious_sr3:A35C ??                          .ds 1
xevious_sr3:A35D ??                          .ds 1
xevious_sr3:A35E ??                          .ds 1
xevious_sr3:A35F ??                          .ds 1
xevious_sr3:A360 ??                          .ds 1
xevious_sr3:A361 ??                          .ds 1
xevious_sr3:A362 ??                          .ds 1
xevious_sr3:A363 ??                          .ds 1
xevious_sr3:A364 ??                          .ds 1
xevious_sr3:A365 ??                          .ds 1
xevious_sr3:A366 ??                          .ds 1
xevious_sr3:A367 ??                          .ds 1
xevious_sr3:A368 ??                          .ds 1
xevious_sr3:A369 ??                          .ds 1
xevious_sr3:A36A ??                          .ds 1
xevious_sr3:A36B ??                          .ds 1
xevious_sr3:A36C ??                          .ds 1
xevious_sr3:A36D ??                          .ds 1
xevious_sr3:A36E ??                          .ds 1
xevious_sr3:A36F ??                          .ds 1
xevious_sr3:A370 ??                          .ds 1
xevious_sr3:A371 ??                          .ds 1
xevious_sr3:A372 ??                          .ds 1
xevious_sr3:A373 ??                          .ds 1
xevious_sr3:A374 ??                          .ds 1
xevious_sr3:A375 ??                          .ds 1
xevious_sr3:A376 ??                          .ds 1
xevious_sr3:A377 ??                          .ds 1
xevious_sr3:A378 ??                          .ds 1
xevious_sr3:A379 ??                          .ds 1
xevious_sr3:A37A ??                          .ds 1
xevious_sr3:A37B ??                          .ds 1
xevious_sr3:A37C ??                          .ds 1
xevious_sr3:A37D ??                          .ds 1
xevious_sr3:A37E ??                          .ds 1
xevious_sr3:A37F ??                          .ds 1
xevious_sr3:A380 ??                          .ds 1
xevious_sr3:A381 ??                          .ds 1
xevious_sr3:A382 ??                          .ds 1
xevious_sr3:A383 ??                          .ds 1
xevious_sr3:A384 ??                          .ds 1
xevious_sr3:A385 ??                          .ds 1
xevious_sr3:A386 ??                          .ds 1
xevious_sr3:A387 ??                          .ds 1
xevious_sr3:A388 ??                          .ds 1
xevious_sr3:A389 ??                          .ds 1
xevious_sr3:A38A ??                          .ds 1
xevious_sr3:A38B ??                          .ds 1
xevious_sr3:A38C ??                          .ds 1
xevious_sr3:A38D ??                          .ds 1
xevious_sr3:A38E ??                          .ds 1
xevious_sr3:A38F ??                          .ds 1
xevious_sr3:A390 ??                          .ds 1
xevious_sr3:A391 ??                          .ds 1
xevious_sr3:A392 ??                          .ds 1
xevious_sr3:A393 ??                          .ds 1
xevious_sr3:A394 ??                          .ds 1
xevious_sr3:A395 ??                          .ds 1
xevious_sr3:A396 ??                          .ds 1
xevious_sr3:A397 ??                          .ds 1
xevious_sr3:A398 ??                          .ds 1
xevious_sr3:A399 ??                          .ds 1
xevious_sr3:A39A ??                          .ds 1
xevious_sr3:A39B ??                          .ds 1
xevious_sr3:A39C ??                          .ds 1
xevious_sr3:A39D ??                          .ds 1
xevious_sr3:A39E ??                          .ds 1
xevious_sr3:A39F ??                          .ds 1
xevious_sr3:A3A0 ??                          .ds 1
xevious_sr3:A3A1 ??                          .ds 1
xevious_sr3:A3A2 ??                          .ds 1
xevious_sr3:A3A3 ??                          .ds 1
xevious_sr3:A3A4 ??                          .ds 1
xevious_sr3:A3A5 ??                          .ds 1
xevious_sr3:A3A6 ??                          .ds 1
xevious_sr3:A3A7 ??                          .ds 1
xevious_sr3:A3A8 ??                          .ds 1
xevious_sr3:A3A9 ??                          .ds 1
xevious_sr3:A3AA ??                          .ds 1
xevious_sr3:A3AB ??                          .ds 1
xevious_sr3:A3AC ??                          .ds 1
xevious_sr3:A3AD ??                          .ds 1
xevious_sr3:A3AE ??                          .ds 1
xevious_sr3:A3AF ??                          .ds 1
xevious_sr3:A3B0 ??                          .ds 1
xevious_sr3:A3B1 ??                          .ds 1
xevious_sr3:A3B2 ??                          .ds 1
xevious_sr3:A3B3 ??                          .ds 1
xevious_sr3:A3B4 ??                          .ds 1
xevious_sr3:A3B5 ??                          .ds 1
xevious_sr3:A3B6 ??                          .ds 1
xevious_sr3:A3B7 ??                          .ds 1
xevious_sr3:A3B8 ??                          .ds 1
xevious_sr3:A3B9 ??                          .ds 1
xevious_sr3:A3BA ??                          .ds 1
xevious_sr3:A3BB ??                          .ds 1
xevious_sr3:A3BC ??                          .ds 1
xevious_sr3:A3BD ??                          .ds 1
xevious_sr3:A3BE ??                          .ds 1
xevious_sr3:A3BF ??                          .ds 1
xevious_sr3:A3C0 ??                          .ds 1
xevious_sr3:A3C1 ??                          .ds 1
xevious_sr3:A3C2 ??                          .ds 1
xevious_sr3:A3C3 ??                          .ds 1
xevious_sr3:A3C4 ??                          .ds 1
xevious_sr3:A3C5 ??                          .ds 1
xevious_sr3:A3C6 ??                          .ds 1
xevious_sr3:A3C7 ??                          .ds 1
xevious_sr3:A3C8 ??                          .ds 1
xevious_sr3:A3C9 ??                          .ds 1
xevious_sr3:A3CA ??                          .ds 1
xevious_sr3:A3CB ??                          .ds 1
xevious_sr3:A3CC ??                          .ds 1
xevious_sr3:A3CD ??                          .ds 1
xevious_sr3:A3CE ??                          .ds 1
xevious_sr3:A3CF ??                          .ds 1
xevious_sr3:A3D0 ??                          .ds 1
xevious_sr3:A3D1 ??                          .ds 1
xevious_sr3:A3D2 ??                          .ds 1
xevious_sr3:A3D3 ??                          .ds 1
xevious_sr3:A3D4 ??                          .ds 1
xevious_sr3:A3D5 ??                          .ds 1
xevious_sr3:A3D6 ??                          .ds 1
xevious_sr3:A3D7 ??                          .ds 1
xevious_sr3:A3D8 ??                          .ds 1
xevious_sr3:A3D9 ??                          .ds 1
xevious_sr3:A3DA ??                          .ds 1
xevious_sr3:A3DB ??                          .ds 1
xevious_sr3:A3DC ??                          .ds 1
xevious_sr3:A3DD ??                          .ds 1
xevious_sr3:A3DE ??                          .ds 1
xevious_sr3:A3DF ??                          .ds 1
xevious_sr3:A3E0 ??                          .ds 1
xevious_sr3:A3E1 ??                          .ds 1
xevious_sr3:A3E2 ??                          .ds 1
xevious_sr3:A3E3 ??                          .ds 1
xevious_sr3:A3E4 ??                          .ds 1
xevious_sr3:A3E5 ??                          .ds 1
xevious_sr3:A3E6 ??                          .ds 1
xevious_sr3:A3E7 ??                          .ds 1
xevious_sr3:A3E8 ??                          .ds 1
xevious_sr3:A3E9 ??                          .ds 1
xevious_sr3:A3EA ??                          .ds 1
xevious_sr3:A3EB ??                          .ds 1
xevious_sr3:A3EC ??                          .ds 1
xevious_sr3:A3ED ??                          .ds 1
xevious_sr3:A3EE ??                          .ds 1
xevious_sr3:A3EF ??                          .ds 1
xevious_sr3:A3F0 ??                          .ds 1
xevious_sr3:A3F1 ??                          .ds 1
xevious_sr3:A3F2 ??                          .ds 1
xevious_sr3:A3F3 ??                          .ds 1
xevious_sr3:A3F4 ??                          .ds 1
xevious_sr3:A3F5 ??                          .ds 1
xevious_sr3:A3F6 ??                          .ds 1
xevious_sr3:A3F7 ??                          .ds 1
xevious_sr3:A3F8 ??                          .ds 1
xevious_sr3:A3F9 ??                          .ds 1
xevious_sr3:A3FA ??                          .ds 1
xevious_sr3:A3FB ??                          .ds 1
xevious_sr3:A3FC ??                          .ds 1
xevious_sr3:A3FD ??                          .ds 1
xevious_sr3:A3FE ??                          .ds 1
xevious_sr3:A3FF ??                          .ds 1
xevious_sr3:A400 ?? ?? ?? ??+area_object_tbl_tbl_RAM:.ds 0x20
xevious_sr3:A420 ??                          .ds 1
xevious_sr3:A421 ??                          .ds 1
xevious_sr3:A422 ??                          .ds 1
xevious_sr3:A423 ??                          .ds 1
xevious_sr3:A424 ??                          .ds 1
xevious_sr3:A425 ??                          .ds 1
xevious_sr3:A426 ??                          .ds 1
xevious_sr3:A427 ??                          .ds 1
xevious_sr3:A428 ??                          .ds 1
xevious_sr3:A429 ??                          .ds 1
xevious_sr3:A42A ??                          .ds 1
xevious_sr3:A42B ??                          .ds 1
xevious_sr3:A42C ??                          .ds 1
xevious_sr3:A42D ??                          .ds 1
xevious_sr3:A42E ??                          .ds 1
xevious_sr3:A42F ??                          .ds 1
xevious_sr3:A430 ??                          .ds 1
xevious_sr3:A431 ??                          .ds 1
xevious_sr3:A432 ??                          .ds 1
xevious_sr3:A433 ??                          .ds 1
xevious_sr3:A434 ??                          .ds 1
xevious_sr3:A435 ??                          .ds 1
xevious_sr3:A436 ??                          .ds 1
xevious_sr3:A437 ??                          .ds 1
xevious_sr3:A438 ??                          .ds 1
xevious_sr3:A439 ??                          .ds 1
xevious_sr3:A43A ??                          .ds 1
xevious_sr3:A43B ??                          .ds 1
xevious_sr3:A43C ??                          .ds 1
xevious_sr3:A43D ??                          .ds 1
xevious_sr3:A43E ??                          .ds 1
xevious_sr3:A43F ??                          .ds 1
xevious_sr3:A440 ??                          .ds 1
xevious_sr3:A441 ??                          .ds 1
xevious_sr3:A442 ??                          .ds 1
xevious_sr3:A443 ??                          .ds 1
xevious_sr3:A444 ??                          .ds 1
xevious_sr3:A445 ??                          .ds 1
xevious_sr3:A446 ??                          .ds 1
xevious_sr3:A447 ??                          .ds 1
xevious_sr3:A448 ??                          .ds 1
xevious_sr3:A449 ??                          .ds 1
xevious_sr3:A44A ??                          .ds 1
xevious_sr3:A44B ??                          .ds 1
xevious_sr3:A44C ??                          .ds 1
xevious_sr3:A44D ??                          .ds 1
xevious_sr3:A44E ??                          .ds 1
xevious_sr3:A44F ??                          .ds 1
xevious_sr3:A450 ??                          .ds 1
xevious_sr3:A451 ??                          .ds 1
xevious_sr3:A452 ??                          .ds 1
xevious_sr3:A453 ??                          .ds 1
xevious_sr3:A454 ??                          .ds 1
xevious_sr3:A455 ??                          .ds 1
xevious_sr3:A456 ??                          .ds 1
xevious_sr3:A457 ??                          .ds 1
xevious_sr3:A458 ??                          .ds 1
xevious_sr3:A459 ??                          .ds 1
xevious_sr3:A45A ??                          .ds 1
xevious_sr3:A45B ??                          .ds 1
xevious_sr3:A45C ??                          .ds 1
xevious_sr3:A45D ??                          .ds 1
xevious_sr3:A45E ??                          .ds 1
xevious_sr3:A45F ??                          .ds 1
xevious_sr3:A460 ??                          .ds 1
xevious_sr3:A461 ??                          .ds 1
xevious_sr3:A462 ??                          .ds 1
xevious_sr3:A463 ??                          .ds 1
xevious_sr3:A464 ??                          .ds 1
xevious_sr3:A465 ??                          .ds 1
xevious_sr3:A466 ??                          .ds 1
xevious_sr3:A467 ??                          .ds 1
xevious_sr3:A468 ??                          .ds 1
xevious_sr3:A469 ??                          .ds 1
xevious_sr3:A46A ??                          .ds 1
xevious_sr3:A46B ??                          .ds 1
xevious_sr3:A46C ??                          .ds 1
xevious_sr3:A46D ??                          .ds 1
xevious_sr3:A46E ??                          .ds 1
xevious_sr3:A46F ??                          .ds 1
xevious_sr3:A470 ??                          .ds 1
xevious_sr3:A471 ??                          .ds 1
xevious_sr3:A472 ??                          .ds 1
xevious_sr3:A473 ??                          .ds 1
xevious_sr3:A474 ??                          .ds 1
xevious_sr3:A475 ??                          .ds 1
xevious_sr3:A476 ??                          .ds 1
xevious_sr3:A477 ??                          .ds 1
xevious_sr3:A478 ??                          .ds 1
xevious_sr3:A479 ??                          .ds 1
xevious_sr3:A47A ??                          .ds 1
xevious_sr3:A47B ??                          .ds 1
xevious_sr3:A47C ??                          .ds 1
xevious_sr3:A47D ??                          .ds 1
xevious_sr3:A47E ??                          .ds 1
xevious_sr3:A47F ??                          .ds 1
xevious_sr3:A480 ??                          .ds 1
xevious_sr3:A481 ??                          .ds 1
xevious_sr3:A482 ??                          .ds 1
xevious_sr3:A483 ??                          .ds 1
xevious_sr3:A484 ??                          .ds 1
xevious_sr3:A485 ??                          .ds 1
xevious_sr3:A486 ??                          .ds 1
xevious_sr3:A487 ??                          .ds 1
xevious_sr3:A488 ??                          .ds 1
xevious_sr3:A489 ??                          .ds 1
xevious_sr3:A48A ??                          .ds 1
xevious_sr3:A48B ??                          .ds 1
xevious_sr3:A48C ??                          .ds 1
xevious_sr3:A48D ??                          .ds 1
xevious_sr3:A48E ??                          .ds 1
xevious_sr3:A48F ??                          .ds 1
xevious_sr3:A490 ??                          .ds 1
xevious_sr3:A491 ??                          .ds 1
xevious_sr3:A492 ??                          .ds 1
xevious_sr3:A493 ??                          .ds 1
xevious_sr3:A494 ??                          .ds 1
xevious_sr3:A495 ??                          .ds 1
xevious_sr3:A496 ??                          .ds 1
xevious_sr3:A497 ??                          .ds 1
xevious_sr3:A498 ??                          .ds 1
xevious_sr3:A499 ??                          .ds 1
xevious_sr3:A49A ??                          .ds 1
xevious_sr3:A49B ??                          .ds 1
xevious_sr3:A49C ??                          .ds 1
xevious_sr3:A49D ??                          .ds 1
xevious_sr3:A49E ??                          .ds 1
xevious_sr3:A49F ??                          .ds 1
xevious_sr3:A4A0 ??                          .ds 1
xevious_sr3:A4A1 ??                          .ds 1
xevious_sr3:A4A2 ??                          .ds 1
xevious_sr3:A4A3 ??                          .ds 1
xevious_sr3:A4A4 ??                          .ds 1
xevious_sr3:A4A5 ??                          .ds 1
xevious_sr3:A4A6 ??                          .ds 1
xevious_sr3:A4A7 ??                          .ds 1
xevious_sr3:A4A8 ??                          .ds 1
xevious_sr3:A4A9 ??                          .ds 1
xevious_sr3:A4AA ??                          .ds 1
xevious_sr3:A4AB ??                          .ds 1
xevious_sr3:A4AC ??                          .ds 1
xevious_sr3:A4AD ??                          .ds 1
xevious_sr3:A4AE ??                          .ds 1
xevious_sr3:A4AF ??                          .ds 1
xevious_sr3:A4B0 ??                          .ds 1
xevious_sr3:A4B1 ??                          .ds 1
xevious_sr3:A4B2 ??                          .ds 1
xevious_sr3:A4B3 ??                          .ds 1
xevious_sr3:A4B4 ??                          .ds 1
xevious_sr3:A4B5 ??                          .ds 1
xevious_sr3:A4B6 ??                          .ds 1
xevious_sr3:A4B7 ??                          .ds 1
xevious_sr3:A4B8 ??                          .ds 1
xevious_sr3:A4B9 ??                          .ds 1
xevious_sr3:A4BA ??                          .ds 1
xevious_sr3:A4BB ??                          .ds 1
xevious_sr3:A4BC ??                          .ds 1
xevious_sr3:A4BD ??                          .ds 1
xevious_sr3:A4BE ??                          .ds 1
xevious_sr3:A4BF ??                          .ds 1
xevious_sr3:A4C0 ??                          .ds 1
xevious_sr3:A4C1 ??                          .ds 1
xevious_sr3:A4C2 ??                          .ds 1
xevious_sr3:A4C3 ??                          .ds 1
xevious_sr3:A4C4 ??                          .ds 1
xevious_sr3:A4C5 ??                          .ds 1
xevious_sr3:A4C6 ??                          .ds 1
xevious_sr3:A4C7 ??                          .ds 1
xevious_sr3:A4C8 ??                          .ds 1
xevious_sr3:A4C9 ??                          .ds 1
xevious_sr3:A4CA ??                          .ds 1
xevious_sr3:A4CB ??                          .ds 1
xevious_sr3:A4CC ??                          .ds 1
xevious_sr3:A4CD ??                          .ds 1
xevious_sr3:A4CE ??                          .ds 1
xevious_sr3:A4CF ??                          .ds 1
xevious_sr3:A4D0 ??                          .ds 1
xevious_sr3:A4D1 ??                          .ds 1
xevious_sr3:A4D2 ??                          .ds 1
xevious_sr3:A4D3 ??                          .ds 1
xevious_sr3:A4D4 ??                          .ds 1
xevious_sr3:A4D5 ??                          .ds 1
xevious_sr3:A4D6 ??                          .ds 1
xevious_sr3:A4D7 ??                          .ds 1
xevious_sr3:A4D8 ??                          .ds 1
xevious_sr3:A4D9 ??                          .ds 1
xevious_sr3:A4DA ??                          .ds 1
xevious_sr3:A4DB ??                          .ds 1
xevious_sr3:A4DC ??                          .ds 1
xevious_sr3:A4DD ??                          .ds 1
xevious_sr3:A4DE ??                          .ds 1
xevious_sr3:A4DF ??                          .ds 1
xevious_sr3:A4E0 ??                          .ds 1
xevious_sr3:A4E1 ??                          .ds 1
xevious_sr3:A4E2 ??                          .ds 1
xevious_sr3:A4E3 ??                          .ds 1
xevious_sr3:A4E4 ??                          .ds 1
xevious_sr3:A4E5 ??                          .ds 1
xevious_sr3:A4E6 ??                          .ds 1
xevious_sr3:A4E7 ??                          .ds 1
xevious_sr3:A4E8 ??                          .ds 1
xevious_sr3:A4E9 ??                          .ds 1
xevious_sr3:A4EA ??                          .ds 1
xevious_sr3:A4EB ??                          .ds 1
xevious_sr3:A4EC ??                          .ds 1
xevious_sr3:A4ED ??                          .ds 1
xevious_sr3:A4EE ??                          .ds 1
xevious_sr3:A4EF ??                          .ds 1
xevious_sr3:A4F0 ??                          .ds 1
xevious_sr3:A4F1 ??                          .ds 1
xevious_sr3:A4F2 ??                          .ds 1
xevious_sr3:A4F3 ??                          .ds 1
xevious_sr3:A4F4 ??                          .ds 1
xevious_sr3:A4F5 ??                          .ds 1
xevious_sr3:A4F6 ??                          .ds 1
xevious_sr3:A4F7 ??                          .ds 1
xevious_sr3:A4F8 ??                          .ds 1
xevious_sr3:A4F9 ??                          .ds 1
xevious_sr3:A4FA ??                          .ds 1
xevious_sr3:A4FB ??                          .ds 1
xevious_sr3:A4FC ??                          .ds 1
xevious_sr3:A4FD ??                          .ds 1
xevious_sr3:A4FE ??                          .ds 1
xevious_sr3:A4FF ??                          .ds 1
xevious_sr3:A500 ??                          .ds 1
xevious_sr3:A501 ??                          .ds 1
xevious_sr3:A502 ??                          .ds 1
xevious_sr3:A503 ??                          .ds 1
xevious_sr3:A504 ??                          .ds 1
xevious_sr3:A505 ??                          .ds 1
xevious_sr3:A506 ??                          .ds 1
xevious_sr3:A507 ??                          .ds 1
xevious_sr3:A508 ??                          .ds 1
xevious_sr3:A509 ??                          .ds 1
xevious_sr3:A50A ??                          .ds 1
xevious_sr3:A50B ??                          .ds 1
xevious_sr3:A50C ??                          .ds 1
xevious_sr3:A50D ??                          .ds 1
xevious_sr3:A50E ??                          .ds 1
xevious_sr3:A50F ??                          .ds 1
xevious_sr3:A510 ??                          .ds 1
xevious_sr3:A511 ??                          .ds 1
xevious_sr3:A512 ??                          .ds 1
xevious_sr3:A513 ??                          .ds 1
xevious_sr3:A514 ??                          .ds 1
xevious_sr3:A515 ??                          .ds 1
xevious_sr3:A516 ??                          .ds 1
xevious_sr3:A517 ??                          .ds 1
xevious_sr3:A518 ??                          .ds 1
xevious_sr3:A519 ??                          .ds 1
xevious_sr3:A51A ??                          .ds 1
xevious_sr3:A51B ??                          .ds 1
xevious_sr3:A51C ??                          .ds 1
xevious_sr3:A51D ??                          .ds 1
xevious_sr3:A51E ??                          .ds 1
xevious_sr3:A51F ??                          .ds 1
xevious_sr3:A520 ??                          .ds 1
xevious_sr3:A521 ??                          .ds 1
xevious_sr3:A522 ??                          .ds 1
xevious_sr3:A523 ??                          .ds 1
xevious_sr3:A524 ??                          .ds 1
xevious_sr3:A525 ??                          .ds 1
xevious_sr3:A526 ??                          .ds 1
xevious_sr3:A527 ??                          .ds 1
xevious_sr3:A528 ??                          .ds 1
xevious_sr3:A529 ??                          .ds 1
xevious_sr3:A52A ??                          .ds 1
xevious_sr3:A52B ??                          .ds 1
xevious_sr3:A52C ??                          .ds 1
xevious_sr3:A52D ??                          .ds 1
xevious_sr3:A52E ??                          .ds 1
xevious_sr3:A52F ??                          .ds 1
xevious_sr3:A530 ??                          .ds 1
xevious_sr3:A531 ??                          .ds 1
xevious_sr3:A532 ??                          .ds 1
xevious_sr3:A533 ??                          .ds 1
xevious_sr3:A534 ??                          .ds 1
xevious_sr3:A535 ??                          .ds 1
xevious_sr3:A536 ??                          .ds 1
xevious_sr3:A537 ??                          .ds 1
xevious_sr3:A538 ??                          .ds 1
xevious_sr3:A539 ??                          .ds 1
xevious_sr3:A53A ??                          .ds 1
xevious_sr3:A53B ??                          .ds 1
xevious_sr3:A53C ??                          .ds 1
xevious_sr3:A53D ??                          .ds 1
xevious_sr3:A53E ??                          .ds 1
xevious_sr3:A53F ??                          .ds 1
xevious_sr3:A540 ??                          .ds 1
xevious_sr3:A541 ??                          .ds 1
xevious_sr3:A542 ??                          .ds 1
xevious_sr3:A543 ??                          .ds 1
xevious_sr3:A544 ??                          .ds 1
xevious_sr3:A545 ??                          .ds 1
xevious_sr3:A546 ??                          .ds 1
xevious_sr3:A547 ??                          .ds 1
xevious_sr3:A548 ??                          .ds 1
xevious_sr3:A549 ??                          .ds 1
xevious_sr3:A54A ??                          .ds 1
xevious_sr3:A54B ??                          .ds 1
xevious_sr3:A54C ??                          .ds 1
xevious_sr3:A54D ??                          .ds 1
xevious_sr3:A54E ??                          .ds 1
xevious_sr3:A54F ??                          .ds 1
xevious_sr3:A550 ??                          .ds 1
xevious_sr3:A551 ??                          .ds 1
xevious_sr3:A552 ??                          .ds 1
xevious_sr3:A553 ??                          .ds 1
xevious_sr3:A554 ??                          .ds 1
xevious_sr3:A555 ??                          .ds 1
xevious_sr3:A556 ??                          .ds 1
xevious_sr3:A557 ??                          .ds 1
xevious_sr3:A558 ??                          .ds 1
xevious_sr3:A559 ??                          .ds 1
xevious_sr3:A55A ??                          .ds 1
xevious_sr3:A55B ??                          .ds 1
xevious_sr3:A55C ??                          .ds 1
xevious_sr3:A55D ??                          .ds 1
xevious_sr3:A55E ??                          .ds 1
xevious_sr3:A55F ??                          .ds 1
xevious_sr3:A560 ??                          .ds 1
xevious_sr3:A561 ??                          .ds 1
xevious_sr3:A562 ??                          .ds 1
xevious_sr3:A563 ??                          .ds 1
xevious_sr3:A564 ??                          .ds 1
xevious_sr3:A565 ??                          .ds 1
xevious_sr3:A566 ??                          .ds 1
xevious_sr3:A567 ??                          .ds 1
xevious_sr3:A568 ??                          .ds 1
xevious_sr3:A569 ??                          .ds 1
xevious_sr3:A56A ??                          .ds 1
xevious_sr3:A56B ??                          .ds 1
xevious_sr3:A56C ??                          .ds 1
xevious_sr3:A56D ??                          .ds 1
xevious_sr3:A56E ??                          .ds 1
xevious_sr3:A56F ??                          .ds 1
xevious_sr3:A570 ??                          .ds 1
xevious_sr3:A571 ??                          .ds 1
xevious_sr3:A572 ??                          .ds 1
xevious_sr3:A573 ??                          .ds 1
xevious_sr3:A574 ??                          .ds 1
xevious_sr3:A575 ??                          .ds 1
xevious_sr3:A576 ??                          .ds 1
xevious_sr3:A577 ??                          .ds 1
xevious_sr3:A578 ??                          .ds 1
xevious_sr3:A579 ??                          .ds 1
xevious_sr3:A57A ??                          .ds 1
xevious_sr3:A57B ??                          .ds 1
xevious_sr3:A57C ??                          .ds 1
xevious_sr3:A57D ??                          .ds 1
xevious_sr3:A57E ??                          .ds 1
xevious_sr3:A57F ??                          .ds 1
xevious_sr3:A580 ??                          .ds 1
xevious_sr3:A581 ??                          .ds 1
xevious_sr3:A582 ??                          .ds 1
xevious_sr3:A583 ??                          .ds 1
xevious_sr3:A584 ??                          .ds 1
xevious_sr3:A585 ??                          .ds 1
xevious_sr3:A586 ??                          .ds 1
xevious_sr3:A587 ??                          .ds 1
xevious_sr3:A588 ??                          .ds 1
xevious_sr3:A589 ??                          .ds 1
xevious_sr3:A58A ??                          .ds 1
xevious_sr3:A58B ??                          .ds 1
xevious_sr3:A58C ??                          .ds 1
xevious_sr3:A58D ??                          .ds 1
xevious_sr3:A58E ??                          .ds 1
xevious_sr3:A58F ??                          .ds 1
xevious_sr3:A590 ??                          .ds 1
xevious_sr3:A591 ??                          .ds 1
xevious_sr3:A592 ??                          .ds 1
xevious_sr3:A593 ??                          .ds 1
xevious_sr3:A594 ??                          .ds 1
xevious_sr3:A595 ??                          .ds 1
xevious_sr3:A596 ??                          .ds 1
xevious_sr3:A597 ??                          .ds 1
xevious_sr3:A598 ??                          .ds 1
xevious_sr3:A599 ??                          .ds 1
xevious_sr3:A59A ??                          .ds 1
xevious_sr3:A59B ??                          .ds 1
xevious_sr3:A59C ??                          .ds 1
xevious_sr3:A59D ??                          .ds 1
xevious_sr3:A59E ??                          .ds 1
xevious_sr3:A59F ??                          .ds 1
xevious_sr3:A5A0 ??                          .ds 1
xevious_sr3:A5A1 ??                          .ds 1
xevious_sr3:A5A2 ??                          .ds 1
xevious_sr3:A5A3 ??                          .ds 1
xevious_sr3:A5A4 ??                          .ds 1
xevious_sr3:A5A5 ??                          .ds 1
xevious_sr3:A5A6 ??                          .ds 1
xevious_sr3:A5A7 ??                          .ds 1
xevious_sr3:A5A8 ??                          .ds 1
xevious_sr3:A5A9 ??                          .ds 1
xevious_sr3:A5AA ??                          .ds 1
xevious_sr3:A5AB ??                          .ds 1
xevious_sr3:A5AC ??                          .ds 1
xevious_sr3:A5AD ??                          .ds 1
xevious_sr3:A5AE ??                          .ds 1
xevious_sr3:A5AF ??                          .ds 1
xevious_sr3:A5B0 ??                          .ds 1
xevious_sr3:A5B1 ??                          .ds 1
xevious_sr3:A5B2 ??                          .ds 1
xevious_sr3:A5B3 ??                          .ds 1
xevious_sr3:A5B4 ??                          .ds 1
xevious_sr3:A5B5 ??                          .ds 1
xevious_sr3:A5B6 ??                          .ds 1
xevious_sr3:A5B7 ??                          .ds 1
xevious_sr3:A5B8 ??                          .ds 1
xevious_sr3:A5B9 ??                          .ds 1
xevious_sr3:A5BA ??                          .ds 1
xevious_sr3:A5BB ??                          .ds 1
xevious_sr3:A5BC ??                          .ds 1
xevious_sr3:A5BD ??                          .ds 1
xevious_sr3:A5BE ??                          .ds 1
xevious_sr3:A5BF ??                          .ds 1
xevious_sr3:A5C0 ??                          .ds 1
xevious_sr3:A5C1 ??                          .ds 1
xevious_sr3:A5C2 ??                          .ds 1
xevious_sr3:A5C3 ??                          .ds 1
xevious_sr3:A5C4 ??                          .ds 1
xevious_sr3:A5C5 ??                          .ds 1
xevious_sr3:A5C6 ??                          .ds 1
xevious_sr3:A5C7 ??                          .ds 1
xevious_sr3:A5C8 ??                          .ds 1
xevious_sr3:A5C9 ??                          .ds 1
xevious_sr3:A5CA ??                          .ds 1
xevious_sr3:A5CB ??                          .ds 1
xevious_sr3:A5CC ??                          .ds 1
xevious_sr3:A5CD ??                          .ds 1
xevious_sr3:A5CE ??                          .ds 1
xevious_sr3:A5CF ??                          .ds 1
xevious_sr3:A5D0 ??                          .ds 1
xevious_sr3:A5D1 ??                          .ds 1
xevious_sr3:A5D2 ??                          .ds 1
xevious_sr3:A5D3 ??                          .ds 1
xevious_sr3:A5D4 ??                          .ds 1
xevious_sr3:A5D5 ??                          .ds 1
xevious_sr3:A5D6 ??                          .ds 1
xevious_sr3:A5D7 ??                          .ds 1
xevious_sr3:A5D8 ??                          .ds 1
xevious_sr3:A5D9 ??                          .ds 1
xevious_sr3:A5DA ??                          .ds 1
xevious_sr3:A5DB ??                          .ds 1
xevious_sr3:A5DC ??                          .ds 1
xevious_sr3:A5DD ??                          .ds 1
xevious_sr3:A5DE ??                          .ds 1
xevious_sr3:A5DF ??                          .ds 1
xevious_sr3:A5E0 ??                          .ds 1
xevious_sr3:A5E1 ??                          .ds 1
xevious_sr3:A5E2 ??                          .ds 1
xevious_sr3:A5E3 ??                          .ds 1
xevious_sr3:A5E4 ??                          .ds 1
xevious_sr3:A5E5 ??                          .ds 1
xevious_sr3:A5E6 ??                          .ds 1
xevious_sr3:A5E7 ??                          .ds 1
xevious_sr3:A5E8 ??                          .ds 1
xevious_sr3:A5E9 ??                          .ds 1
xevious_sr3:A5EA ??                          .ds 1
xevious_sr3:A5EB ??                          .ds 1
xevious_sr3:A5EC ??                          .ds 1
xevious_sr3:A5ED ??                          .ds 1
xevious_sr3:A5EE ??                          .ds 1
xevious_sr3:A5EF ??                          .ds 1
xevious_sr3:A5F0 ??                          .ds 1
xevious_sr3:A5F1 ??                          .ds 1
xevious_sr3:A5F2 ??                          .ds 1
xevious_sr3:A5F3 ??                          .ds 1
xevious_sr3:A5F4 ??                          .ds 1
xevious_sr3:A5F5 ??                          .ds 1
xevious_sr3:A5F6 ??                          .ds 1
xevious_sr3:A5F7 ??                          .ds 1
xevious_sr3:A5F8 ??                          .ds 1
xevious_sr3:A5F9 ??                          .ds 1
xevious_sr3:A5FA ??                          .ds 1
xevious_sr3:A5FB ??                          .ds 1
xevious_sr3:A5FC ??                          .ds 1
xevious_sr3:A5FD ??                          .ds 1
xevious_sr3:A5FE ??                          .ds 1
xevious_sr3:A5FF ??                          .ds 1
xevious_sr3:A600 ??                          .ds 1
xevious_sr3:A601 ??                          .ds 1
xevious_sr3:A602 ??                          .ds 1
xevious_sr3:A603 ??                          .ds 1
xevious_sr3:A604 ??                          .ds 1
xevious_sr3:A605 ??                          .ds 1
xevious_sr3:A606 ??                          .ds 1
xevious_sr3:A607 ??                          .ds 1
xevious_sr3:A608 ??                          .ds 1
xevious_sr3:A609 ??                          .ds 1
xevious_sr3:A60A ??                          .ds 1
xevious_sr3:A60B ??                          .ds 1
xevious_sr3:A60C ??                          .ds 1
xevious_sr3:A60D ??                          .ds 1
xevious_sr3:A60E ??                          .ds 1
xevious_sr3:A60F ??                          .ds 1
xevious_sr3:A610 ??                          .ds 1
xevious_sr3:A611 ??                          .ds 1
xevious_sr3:A612 ??                          .ds 1
xevious_sr3:A613 ??                          .ds 1
xevious_sr3:A614 ??                          .ds 1
xevious_sr3:A615 ??                          .ds 1
xevious_sr3:A616 ??                          .ds 1
xevious_sr3:A617 ??                          .ds 1
xevious_sr3:A618 ??                          .ds 1
xevious_sr3:A619 ??                          .ds 1
xevious_sr3:A61A ??                          .ds 1
xevious_sr3:A61B ??                          .ds 1
xevious_sr3:A61C ??                          .ds 1
xevious_sr3:A61D ??                          .ds 1
xevious_sr3:A61E ??                          .ds 1
xevious_sr3:A61F ??                          .ds 1
xevious_sr3:A620 ??                          .ds 1
xevious_sr3:A621 ??                          .ds 1
xevious_sr3:A622 ??                          .ds 1
xevious_sr3:A623 ??                          .ds 1
xevious_sr3:A624 ??                          .ds 1
xevious_sr3:A625 ??                          .ds 1
xevious_sr3:A626 ??                          .ds 1
xevious_sr3:A627 ??                          .ds 1
xevious_sr3:A628 ??                          .ds 1
xevious_sr3:A629 ??                          .ds 1
xevious_sr3:A62A ??                          .ds 1
xevious_sr3:A62B ??                          .ds 1
xevious_sr3:A62C ??                          .ds 1
xevious_sr3:A62D ??                          .ds 1
xevious_sr3:A62E ??                          .ds 1
xevious_sr3:A62F ??                          .ds 1
xevious_sr3:A630 ??                          .ds 1
xevious_sr3:A631 ??                          .ds 1
xevious_sr3:A632 ??                          .ds 1
xevious_sr3:A633 ??                          .ds 1
xevious_sr3:A634 ??                          .ds 1
xevious_sr3:A635 ??                          .ds 1
xevious_sr3:A636 ??                          .ds 1
xevious_sr3:A637 ??                          .ds 1
xevious_sr3:A638 ??                          .ds 1
xevious_sr3:A639 ??                          .ds 1
xevious_sr3:A63A ??                          .ds 1
xevious_sr3:A63B ??                          .ds 1
xevious_sr3:A63C ??                          .ds 1
xevious_sr3:A63D ??                          .ds 1
xevious_sr3:A63E ??                          .ds 1
xevious_sr3:A63F ??                          .ds 1
xevious_sr3:A640 ??                          .ds 1
xevious_sr3:A641 ??                          .ds 1
xevious_sr3:A642 ??                          .ds 1
xevious_sr3:A643 ??                          .ds 1
xevious_sr3:A644 ??                          .ds 1
xevious_sr3:A645 ??                          .ds 1
xevious_sr3:A646 ??                          .ds 1
xevious_sr3:A647 ??                          .ds 1
xevious_sr3:A648 ??                          .ds 1
xevious_sr3:A649 ??                          .ds 1
xevious_sr3:A64A ??                          .ds 1
xevious_sr3:A64B ??                          .ds 1
xevious_sr3:A64C ??                          .ds 1
xevious_sr3:A64D ??                          .ds 1
xevious_sr3:A64E ??                          .ds 1
xevious_sr3:A64F ??                          .ds 1
xevious_sr3:A650 ??                          .ds 1
xevious_sr3:A651 ??                          .ds 1
xevious_sr3:A652 ??                          .ds 1
xevious_sr3:A653 ??                          .ds 1
xevious_sr3:A654 ??                          .ds 1
xevious_sr3:A655 ??                          .ds 1
xevious_sr3:A656 ??                          .ds 1
xevious_sr3:A657 ??                          .ds 1
xevious_sr3:A658 ??                          .ds 1
xevious_sr3:A659 ??                          .ds 1
xevious_sr3:A65A ??                          .ds 1
xevious_sr3:A65B ??                          .ds 1
xevious_sr3:A65C ??                          .ds 1
xevious_sr3:A65D ??                          .ds 1
xevious_sr3:A65E ??                          .ds 1
xevious_sr3:A65F ??                          .ds 1
xevious_sr3:A660 ??                          .ds 1
xevious_sr3:A661 ??                          .ds 1
xevious_sr3:A662 ??                          .ds 1
xevious_sr3:A663 ??                          .ds 1
xevious_sr3:A664 ??                          .ds 1
xevious_sr3:A665 ??                          .ds 1
xevious_sr3:A666 ??                          .ds 1
xevious_sr3:A667 ??                          .ds 1
xevious_sr3:A668 ??                          .ds 1
xevious_sr3:A669 ??                          .ds 1
xevious_sr3:A66A ??                          .ds 1
xevious_sr3:A66B ??                          .ds 1
xevious_sr3:A66C ??                          .ds 1
xevious_sr3:A66D ??                          .ds 1
xevious_sr3:A66E ??                          .ds 1
xevious_sr3:A66F ??                          .ds 1
xevious_sr3:A670 ??                          .ds 1
xevious_sr3:A671 ??                          .ds 1
xevious_sr3:A672 ??                          .ds 1
xevious_sr3:A673 ??                          .ds 1
xevious_sr3:A674 ??                          .ds 1
xevious_sr3:A675 ??                          .ds 1
xevious_sr3:A676 ??                          .ds 1
xevious_sr3:A677 ??                          .ds 1
xevious_sr3:A678 ??                          .ds 1
xevious_sr3:A679 ??                          .ds 1
xevious_sr3:A67A ??                          .ds 1
xevious_sr3:A67B ??                          .ds 1
xevious_sr3:A67C ??                          .ds 1
xevious_sr3:A67D ??                          .ds 1
xevious_sr3:A67E ??                          .ds 1
xevious_sr3:A67F ??                          .ds 1
xevious_sr3:A680 ??                          .ds 1
xevious_sr3:A681 ??                          .ds 1
xevious_sr3:A682 ??                          .ds 1
xevious_sr3:A683 ??                          .ds 1
xevious_sr3:A684 ??                          .ds 1
xevious_sr3:A685 ??                          .ds 1
xevious_sr3:A686 ??                          .ds 1
xevious_sr3:A687 ??                          .ds 1
xevious_sr3:A688 ??                          .ds 1
xevious_sr3:A689 ??                          .ds 1
xevious_sr3:A68A ??                          .ds 1
xevious_sr3:A68B ??                          .ds 1
xevious_sr3:A68C ??                          .ds 1
xevious_sr3:A68D ??                          .ds 1
xevious_sr3:A68E ??                          .ds 1
xevious_sr3:A68F ??                          .ds 1
xevious_sr3:A690 ??                          .ds 1
xevious_sr3:A691 ??                          .ds 1
xevious_sr3:A692 ??                          .ds 1
xevious_sr3:A693 ??                          .ds 1
xevious_sr3:A694 ??                          .ds 1
xevious_sr3:A695 ??                          .ds 1
xevious_sr3:A696 ??                          .ds 1
xevious_sr3:A697 ??                          .ds 1
xevious_sr3:A698 ??                          .ds 1
xevious_sr3:A699 ??                          .ds 1
xevious_sr3:A69A ??                          .ds 1
xevious_sr3:A69B ??                          .ds 1
xevious_sr3:A69C ??                          .ds 1
xevious_sr3:A69D ??                          .ds 1
xevious_sr3:A69E ??                          .ds 1
xevious_sr3:A69F ??                          .ds 1
xevious_sr3:A6A0 ??                          .ds 1
xevious_sr3:A6A1 ??                          .ds 1
xevious_sr3:A6A2 ??                          .ds 1
xevious_sr3:A6A3 ??                          .ds 1
xevious_sr3:A6A4 ??                          .ds 1
xevious_sr3:A6A5 ??                          .ds 1
xevious_sr3:A6A6 ??                          .ds 1
xevious_sr3:A6A7 ??                          .ds 1
xevious_sr3:A6A8 ??                          .ds 1
xevious_sr3:A6A9 ??                          .ds 1
xevious_sr3:A6AA ??                          .ds 1
xevious_sr3:A6AB ??                          .ds 1
xevious_sr3:A6AC ??                          .ds 1
xevious_sr3:A6AD ??                          .ds 1
xevious_sr3:A6AE ??                          .ds 1
xevious_sr3:A6AF ??                          .ds 1
xevious_sr3:A6B0 ??                          .ds 1
xevious_sr3:A6B1 ??                          .ds 1
xevious_sr3:A6B2 ??                          .ds 1
xevious_sr3:A6B3 ??                          .ds 1
xevious_sr3:A6B4 ??                          .ds 1
xevious_sr3:A6B5 ??                          .ds 1
xevious_sr3:A6B6 ??                          .ds 1
xevious_sr3:A6B7 ??                          .ds 1
xevious_sr3:A6B8 ??                          .ds 1
xevious_sr3:A6B9 ??                          .ds 1
xevious_sr3:A6BA ??                          .ds 1
xevious_sr3:A6BB ??                          .ds 1
xevious_sr3:A6BC ??                          .ds 1
xevious_sr3:A6BD ??                          .ds 1
xevious_sr3:A6BE ??                          .ds 1
xevious_sr3:A6BF ??                          .ds 1
xevious_sr3:A6C0 ??                          .ds 1
xevious_sr3:A6C1 ??                          .ds 1
xevious_sr3:A6C2 ??                          .ds 1
xevious_sr3:A6C3 ??                          .ds 1
xevious_sr3:A6C4 ??                          .ds 1
xevious_sr3:A6C5 ??                          .ds 1
xevious_sr3:A6C6 ??                          .ds 1
xevious_sr3:A6C7 ??                          .ds 1
xevious_sr3:A6C8 ??                          .ds 1
xevious_sr3:A6C9 ??                          .ds 1
xevious_sr3:A6CA ??                          .ds 1
xevious_sr3:A6CB ??                          .ds 1
xevious_sr3:A6CC ??                          .ds 1
xevious_sr3:A6CD ??                          .ds 1
xevious_sr3:A6CE ??                          .ds 1
xevious_sr3:A6CF ??                          .ds 1
xevious_sr3:A6D0 ??                          .ds 1
xevious_sr3:A6D1 ??                          .ds 1
xevious_sr3:A6D2 ??                          .ds 1
xevious_sr3:A6D3 ??                          .ds 1
xevious_sr3:A6D4 ??                          .ds 1
xevious_sr3:A6D5 ??                          .ds 1
xevious_sr3:A6D6 ??                          .ds 1
xevious_sr3:A6D7 ??                          .ds 1
xevious_sr3:A6D8 ??                          .ds 1
xevious_sr3:A6D9 ??                          .ds 1
xevious_sr3:A6DA ??                          .ds 1
xevious_sr3:A6DB ??                          .ds 1
xevious_sr3:A6DC ??                          .ds 1
xevious_sr3:A6DD ??                          .ds 1
xevious_sr3:A6DE ??                          .ds 1
xevious_sr3:A6DF ??                          .ds 1
xevious_sr3:A6E0 ??                          .ds 1
xevious_sr3:A6E1 ??                          .ds 1
xevious_sr3:A6E2 ??                          .ds 1
xevious_sr3:A6E3 ??                          .ds 1
xevious_sr3:A6E4 ??                          .ds 1
xevious_sr3:A6E5 ??                          .ds 1
xevious_sr3:A6E6 ??                          .ds 1
xevious_sr3:A6E7 ??                          .ds 1
xevious_sr3:A6E8 ??                          .ds 1
xevious_sr3:A6E9 ??                          .ds 1
xevious_sr3:A6EA ??                          .ds 1
xevious_sr3:A6EB ??                          .ds 1
xevious_sr3:A6EC ??                          .ds 1
xevious_sr3:A6ED ??                          .ds 1
xevious_sr3:A6EE ??                          .ds 1
xevious_sr3:A6EF ??                          .ds 1
xevious_sr3:A6F0 ??                          .ds 1
xevious_sr3:A6F1 ??                          .ds 1
xevious_sr3:A6F2 ??                          .ds 1
xevious_sr3:A6F3 ??                          .ds 1
xevious_sr3:A6F4 ??                          .ds 1
xevious_sr3:A6F5 ??                          .ds 1
xevious_sr3:A6F6 ??                          .ds 1
xevious_sr3:A6F7 ??                          .ds 1
xevious_sr3:A6F8 ??                          .ds 1
xevious_sr3:A6F9 ??                          .ds 1
xevious_sr3:A6FA ??                          .ds 1
xevious_sr3:A6FB ??                          .ds 1
xevious_sr3:A6FC ??                          .ds 1
xevious_sr3:A6FD ??                          .ds 1
xevious_sr3:A6FE ??                          .ds 1
xevious_sr3:A6FF ??                          .ds 1
xevious_sr3:A700 ??                          .ds 1
xevious_sr3:A701 ??                          .ds 1
xevious_sr3:A702 ??                          .ds 1
xevious_sr3:A703 ??                          .ds 1
xevious_sr3:A704 ??                          .ds 1
xevious_sr3:A705 ??                          .ds 1
xevious_sr3:A706 ??                          .ds 1
xevious_sr3:A707 ??                          .ds 1
xevious_sr3:A708 ??                          .ds 1
xevious_sr3:A709 ??                          .ds 1
xevious_sr3:A70A ??                          .ds 1
xevious_sr3:A70B ??                          .ds 1
xevious_sr3:A70C ??                          .ds 1
xevious_sr3:A70D ??                          .ds 1
xevious_sr3:A70E ??                          .ds 1
xevious_sr3:A70F ??                          .ds 1
xevious_sr3:A710 ??                          .ds 1
xevious_sr3:A711 ??                          .ds 1
xevious_sr3:A712 ??                          .ds 1
xevious_sr3:A713 ??                          .ds 1
xevious_sr3:A714 ??                          .ds 1
xevious_sr3:A715 ??                          .ds 1
xevious_sr3:A716 ??                          .ds 1
xevious_sr3:A717 ??                          .ds 1
xevious_sr3:A718 ??                          .ds 1
xevious_sr3:A719 ??                          .ds 1
xevious_sr3:A71A ??                          .ds 1
xevious_sr3:A71B ??                          .ds 1
xevious_sr3:A71C ??                          .ds 1
xevious_sr3:A71D ??                          .ds 1
xevious_sr3:A71E ??                          .ds 1
xevious_sr3:A71F ??                          .ds 1
xevious_sr3:A720 ??                          .ds 1
xevious_sr3:A721 ??                          .ds 1
xevious_sr3:A722 ??                          .ds 1
xevious_sr3:A723 ??                          .ds 1
xevious_sr3:A724 ??                          .ds 1
xevious_sr3:A725 ??                          .ds 1
xevious_sr3:A726 ??                          .ds 1
xevious_sr3:A727 ??                          .ds 1
xevious_sr3:A728 ??                          .ds 1
xevious_sr3:A729 ??                          .ds 1
xevious_sr3:A72A ??                          .ds 1
xevious_sr3:A72B ??                          .ds 1
xevious_sr3:A72C ??                          .ds 1
xevious_sr3:A72D ??                          .ds 1
xevious_sr3:A72E ??                          .ds 1
xevious_sr3:A72F ??                          .ds 1
xevious_sr3:A730 ??                          .ds 1
xevious_sr3:A731 ??                          .ds 1
xevious_sr3:A732 ??                          .ds 1
xevious_sr3:A733 ??                          .ds 1
xevious_sr3:A734 ??                          .ds 1
xevious_sr3:A735 ??                          .ds 1
xevious_sr3:A736 ??                          .ds 1
xevious_sr3:A737 ??                          .ds 1
xevious_sr3:A738 ??                          .ds 1
xevious_sr3:A739 ??                          .ds 1
xevious_sr3:A73A ??                          .ds 1
xevious_sr3:A73B ??                          .ds 1
xevious_sr3:A73C ??                          .ds 1
xevious_sr3:A73D ??                          .ds 1
xevious_sr3:A73E ??                          .ds 1
xevious_sr3:A73F ??                          .ds 1
xevious_sr3:A740 ??                          .ds 1
xevious_sr3:A741 ??                          .ds 1
xevious_sr3:A742 ??                          .ds 1
xevious_sr3:A743 ??                          .ds 1
xevious_sr3:A744 ??                          .ds 1
xevious_sr3:A745 ??                          .ds 1
xevious_sr3:A746 ??                          .ds 1
xevious_sr3:A747 ??                          .ds 1
xevious_sr3:A748 ??                          .ds 1
xevious_sr3:A749 ??                          .ds 1
xevious_sr3:A74A ??                          .ds 1
xevious_sr3:A74B ??                          .ds 1
xevious_sr3:A74C ??                          .ds 1
xevious_sr3:A74D ??                          .ds 1
xevious_sr3:A74E ??                          .ds 1
xevious_sr3:A74F ??                          .ds 1
xevious_sr3:A750 ??                          .ds 1
xevious_sr3:A751 ??                          .ds 1
xevious_sr3:A752 ??                          .ds 1
xevious_sr3:A753 ??                          .ds 1
xevious_sr3:A754 ??                          .ds 1
xevious_sr3:A755 ??                          .ds 1
xevious_sr3:A756 ??                          .ds 1
xevious_sr3:A757 ??                          .ds 1
xevious_sr3:A758 ??                          .ds 1
xevious_sr3:A759 ??                          .ds 1
xevious_sr3:A75A ??                          .ds 1
xevious_sr3:A75B ??                          .ds 1
xevious_sr3:A75C ??                          .ds 1
xevious_sr3:A75D ??                          .ds 1
xevious_sr3:A75E ??                          .ds 1
xevious_sr3:A75F ??                          .ds 1
xevious_sr3:A760 ??                          .ds 1
xevious_sr3:A761 ??                          .ds 1
xevious_sr3:A762 ??                          .ds 1
xevious_sr3:A763 ??                          .ds 1
xevious_sr3:A764 ??                          .ds 1
xevious_sr3:A765 ??                          .ds 1
xevious_sr3:A766 ??                          .ds 1
xevious_sr3:A767 ??                          .ds 1
xevious_sr3:A768 ??                          .ds 1
xevious_sr3:A769 ??                          .ds 1
xevious_sr3:A76A ??                          .ds 1
xevious_sr3:A76B ??                          .ds 1
xevious_sr3:A76C ??                          .ds 1
xevious_sr3:A76D ??                          .ds 1
xevious_sr3:A76E ??                          .ds 1
xevious_sr3:A76F ??                          .ds 1
xevious_sr3:A770 ??                          .ds 1
xevious_sr3:A771 ??                          .ds 1
xevious_sr3:A772 ??                          .ds 1
xevious_sr3:A773 ??                          .ds 1
xevious_sr3:A774 ??                          .ds 1
xevious_sr3:A775 ??                          .ds 1
xevious_sr3:A776 ??                          .ds 1
xevious_sr3:A777 ??                          .ds 1
xevious_sr3:A778 ??                          .ds 1
xevious_sr3:A779 ??                          .ds 1
xevious_sr3:A77A ??                          .ds 1
xevious_sr3:A77B ??                          .ds 1
xevious_sr3:A77C ??                          .ds 1
xevious_sr3:A77D ??                          .ds 1
xevious_sr3:A77E ??                          .ds 1
xevious_sr3:A77F ??                          .ds 1
xevious_sr3:A780 ?? ?? ?? ??+spriteram:      .ds 0x80
xevious_sr3:A780 ?? ?? ?? ??+; end of 'xevious_sr3'
xevious_sr3:A780 ?? ?? ?? ??+
fg_colorram:B000             ; ===========================================================================
fg_colorram:B000
fg_colorram:B000             ; Segment type: Regular
fg_colorram:B000                             .org 0xB000
fg_colorram:B000 ?? ?? ?? ??+fg_colorram:    .ds 0x800
fg_colorram:B000 ?? ?? ?? ??+; end of 'fg_colorram'
fg_colorram:B000 ?? ?? ?? ??+
bg_colorram:B800             ; ===========================================================================
bg_colorram:B800
bg_colorram:B800             ; Segment type: Regular
bg_colorram:B800                             .org 0xB800
bg_colorram:B800 ?? ?? ?? ??+bg_colorram:    .ds 0x800
bg_colorram:B800 ?? ?? ?? ??+; end of 'bg_colorram'
bg_colorram:B800 ?? ?? ?? ??+
fg_videoram:C000             ; ===========================================================================
fg_videoram:C000
fg_videoram:C000             ; Segment type: Regular
fg_videoram:C000                             .org 0xC000
fg_videoram:C000 ?? ?? ?? ??+fg_videoram:    .ds 0x800
fg_videoram:C000 ?? ?? ?? ??+; end of 'fg_videoram'
fg_videoram:C000 ?? ?? ?? ??+
bg_videoram:C800             ; ===========================================================================
bg_videoram:C800
bg_videoram:C800             ; Segment type: Regular
bg_videoram:C800                             .org 0xC800
bg_videoram:C800 ?? ?? ?? ??+bg_videoram:    .ds 0x800
bg_videoram:C800 ?? ?? ?? ??+; end of 'bg_videoram'
bg_videoram:C800 ?? ?? ?? ??+
xevious_vh_latch_w:D000             ; ===========================================================================
xevious_vh_latch_w:D000
xevious_vh_latch_w:D000             ; Segment type: Regular
xevious_vh_latch_w:D000                             .org 0xD000
xevious_vh_latch_w:D000 ??                          .ds 1
xevious_vh_latch_w:D001 ??                          .ds 1
xevious_vh_latch_w:D002 ??                          .ds 1
xevious_vh_latch_w:D003 ??                          .ds 1
xevious_vh_latch_w:D004 ??                          .ds 1
xevious_vh_latch_w:D005 ??                          .ds 1
xevious_vh_latch_w:D006 ??                          .ds 1
xevious_vh_latch_w:D007 ??                          .ds 1
xevious_vh_latch_w:D008 ??                          .ds 1
xevious_vh_latch_w:D009 ??                          .ds 1
xevious_vh_latch_w:D00A ??                          .ds 1
xevious_vh_latch_w:D00B ??                          .ds 1
xevious_vh_latch_w:D00C ??                          .ds 1
xevious_vh_latch_w:D00D ??                          .ds 1
xevious_vh_latch_w:D00E ??                          .ds 1
xevious_vh_latch_w:D00F ??                          .ds 1
xevious_vh_latch_w:D010 ??          fg_scroll_x:    .ds 1
xevious_vh_latch_w:D011 ??                          .ds 1
xevious_vh_latch_w:D012 ??                          .ds 1
xevious_vh_latch_w:D013 ??                          .ds 1
xevious_vh_latch_w:D014 ??                          .ds 1
xevious_vh_latch_w:D015 ??                          .ds 1
xevious_vh_latch_w:D016 ??                          .ds 1
xevious_vh_latch_w:D017 ??                          .ds 1
xevious_vh_latch_w:D018 ??                          .ds 1
xevious_vh_latch_w:D019 ??                          .ds 1
xevious_vh_latch_w:D01A ??                          .ds 1
xevious_vh_latch_w:D01B ??                          .ds 1
xevious_vh_latch_w:D01C ??                          .ds 1
xevious_vh_latch_w:D01D ??                          .ds 1
xevious_vh_latch_w:D01E ??                          .ds 1
xevious_vh_latch_w:D01F ??                          .ds 1
xevious_vh_latch_w:D020 ??                          .ds 1
xevious_vh_latch_w:D021 ??                          .ds 1
xevious_vh_latch_w:D022 ??                          .ds 1
xevious_vh_latch_w:D023 ??                          .ds 1
xevious_vh_latch_w:D024 ??                          .ds 1
xevious_vh_latch_w:D025 ??                          .ds 1
xevious_vh_latch_w:D026 ??                          .ds 1
xevious_vh_latch_w:D027 ??                          .ds 1
xevious_vh_latch_w:D028 ??                          .ds 1
xevious_vh_latch_w:D029 ??                          .ds 1
xevious_vh_latch_w:D02A ??                          .ds 1
xevious_vh_latch_w:D02B ??                          .ds 1
xevious_vh_latch_w:D02C ??                          .ds 1
xevious_vh_latch_w:D02D ??                          .ds 1
xevious_vh_latch_w:D02E ??                          .ds 1
xevious_vh_latch_w:D02F ??                          .ds 1
xevious_vh_latch_w:D030 ??          fg_scroll_y:    .ds 1
xevious_vh_latch_w:D031 ??                          .ds 1
xevious_vh_latch_w:D032 ??                          .ds 1
xevious_vh_latch_w:D033 ??                          .ds 1
xevious_vh_latch_w:D034 ??                          .ds 1
xevious_vh_latch_w:D035 ??                          .ds 1
xevious_vh_latch_w:D036 ??                          .ds 1
xevious_vh_latch_w:D037 ??                          .ds 1
xevious_vh_latch_w:D038 ??                          .ds 1
xevious_vh_latch_w:D039 ??                          .ds 1
xevious_vh_latch_w:D03A ??                          .ds 1
xevious_vh_latch_w:D03B ??                          .ds 1
xevious_vh_latch_w:D03C ??                          .ds 1
xevious_vh_latch_w:D03D ??                          .ds 1
xevious_vh_latch_w:D03E ??                          .ds 1
xevious_vh_latch_w:D03F ??                          .ds 1
xevious_vh_latch_w:D040 ??                          .ds 1
xevious_vh_latch_w:D041 ??                          .ds 1
xevious_vh_latch_w:D042 ??                          .ds 1
xevious_vh_latch_w:D043 ??                          .ds 1
xevious_vh_latch_w:D044 ??                          .ds 1
xevious_vh_latch_w:D045 ??                          .ds 1
xevious_vh_latch_w:D046 ??                          .ds 1
xevious_vh_latch_w:D047 ??                          .ds 1
xevious_vh_latch_w:D048 ??                          .ds 1
xevious_vh_latch_w:D049 ??                          .ds 1
xevious_vh_latch_w:D04A ??                          .ds 1
xevious_vh_latch_w:D04B ??                          .ds 1
xevious_vh_latch_w:D04C ??                          .ds 1
xevious_vh_latch_w:D04D ??                          .ds 1
xevious_vh_latch_w:D04E ??                          .ds 1
xevious_vh_latch_w:D04F ??                          .ds 1
xevious_vh_latch_w:D050 ??                          .ds 1
xevious_vh_latch_w:D051 ??                          .ds 1
xevious_vh_latch_w:D052 ??                          .ds 1
xevious_vh_latch_w:D053 ??                          .ds 1
xevious_vh_latch_w:D054 ??                          .ds 1
xevious_vh_latch_w:D055 ??                          .ds 1
xevious_vh_latch_w:D056 ??                          .ds 1
xevious_vh_latch_w:D057 ??                          .ds 1
xevious_vh_latch_w:D058 ??                          .ds 1
xevious_vh_latch_w:D059 ??                          .ds 1
xevious_vh_latch_w:D05A ??                          .ds 1
xevious_vh_latch_w:D05B ??                          .ds 1
xevious_vh_latch_w:D05C ??                          .ds 1
xevious_vh_latch_w:D05D ??                          .ds 1
xevious_vh_latch_w:D05E ??                          .ds 1
xevious_vh_latch_w:D05F ??                          .ds 1
xevious_vh_latch_w:D060 ??                          .ds 1
xevious_vh_latch_w:D061 ??                          .ds 1
xevious_vh_latch_w:D062 ??                          .ds 1
xevious_vh_latch_w:D063 ??                          .ds 1
xevious_vh_latch_w:D064 ??                          .ds 1
xevious_vh_latch_w:D065 ??                          .ds 1
xevious_vh_latch_w:D066 ??                          .ds 1
xevious_vh_latch_w:D067 ??                          .ds 1
xevious_vh_latch_w:D068 ??                          .ds 1
xevious_vh_latch_w:D069 ??                          .ds 1
xevious_vh_latch_w:D06A ??                          .ds 1
xevious_vh_latch_w:D06B ??                          .ds 1
xevious_vh_latch_w:D06C ??                          .ds 1
xevious_vh_latch_w:D06D ??                          .ds 1
xevious_vh_latch_w:D06E ??                          .ds 1
xevious_vh_latch_w:D06F ??                          .ds 1
xevious_vh_latch_w:D070 ??          flip_screen_hw: .ds 1
xevious_vh_latch_w:D071 ??                          .ds 1
xevious_vh_latch_w:D072 ??                          .ds 1
xevious_vh_latch_w:D073 ??                          .ds 1
xevious_vh_latch_w:D074 ??                          .ds 1
xevious_vh_latch_w:D075 ??                          .ds 1
xevious_vh_latch_w:D076 ??                          .ds 1
xevious_vh_latch_w:D077 ??                          .ds 1
xevious_vh_latch_w:D078 ??                          .ds 1
xevious_vh_latch_w:D079 ??                          .ds 1
xevious_vh_latch_w:D07A ??                          .ds 1
xevious_vh_latch_w:D07B ??                          .ds 1
xevious_vh_latch_w:D07C ??                          .ds 1
xevious_vh_latch_w:D07D ??                          .ds 1
xevious_vh_latch_w:D07E ??                          .ds 1
xevious_vh_latch_w:D07F ??                          .ds 1
xevious_vh_latch_w:D07F             ; end of 'xevious_vh_latch_w'
xevious_vh_latch_w:D07F
xevious_vh_latch_w:D07F             ; end of file
