ROM:0000             ; +---------------------------------------------+
ROM:0000             ; | Super Xevious SUB ROM Disassembly v1.00rc1  |
ROM:0000             ; | - by tcdev (msmcdoug@gmail.com)             |
ROM:0000             ; | (to be read in conjunction with Xevious RE) |
ROM:0000             ; +---------------------------------------------+
ROM:0000             ;
ROM:0000             ; File Name   : C:\dev\pace\pacedev.net\sw\re\platform\arcade\xevious\re\sxevious\sub.bin
ROM:0000             ; Format      : Binary file
ROM:0000             ; Base Address: 0000h Range: 0000h - 2000h Loaded length: 00002000h
ROM:0000
ROM:0000             ; Processor       : z80 []
ROM:0000             ; Target assembler: ASxxxx by Alan R. Baldwin v1.5
ROM:0000                    .area   idaseg (ABS)
ROM:0000                    .hd64 ; this is needed only for HD64180
ROM:0000
ROM:0000             ; ===========================================================================
ROM:0000
ROM:0000             ; Segment type: Pure code
ROM:0000
ROM:0000             RESET:
ROM:0000 C3 2E 03                    jp      START
ROM:0000             ; ---------------------------------------------------------------------------
ROM:0003 12                          .db 0x12
ROM:0004 42                          .db 0x42 ; B
ROM:0005
ROM:0005             ; =============== S U B R O U T I N E =======================================
ROM:0005
ROM:0005
ROM:0005             HL_equals_2A:                           ; CODE XREF: HL_equals_2A+1Cp
ROM:0005                                                     ; HL_equals_2A+24p
ROM:0005 21 00 00                    ld      hl, #0
ROM:0008
ROM:0008             HL_plus_equals_2A:                      ; CODE XREF: ROM:017Ap
ROM:0008                                                     ; ROM:0314p ...
ROM:0008 87                          add     a, a
ROM:0009 D2 58 00                    jp      NC, HL_plus_equals_cont
ROM:000C 25                          dec     h
ROM:000D C3 58 00                    jp      HL_plus_equals_cont
ROM:0010             ; ---------------------------------------------------------------------------
ROM:0010
ROM:0010             HL_plus_equals_A:                       ; CODE XREF: ROM:0175p
ROM:0010                                                     ; display_1up_2up+7p ...
ROM:0010 A7                          and     a
ROM:0011 F2 58 00                    jp      P, HL_plus_equals_cont
ROM:0014 25                          dec     h
ROM:0015 C3 58 00                    jp      HL_plus_equals_cont
ROM:0018             ; ---------------------------------------------------------------------------
ROM:0018 A7                          and     a
ROM:0019 F0                          ret     P
ROM:001A ED 44                       neg
ROM:001C C9                          ret
ROM:001C             ; ---------------------------------------------------------------------------
ROM:001D 33                          .db 0x33 ; 3
ROM:001E 33                          .db 0x33 ; 3
ROM:001F             ; ---------------------------------------------------------------------------
ROM:001F
ROM:001F             null_fn:                                ; DATA XREF: ROM:0393o
ROM:001F                                                     ; ROM:0395o ...
ROM:001F C9                          ret
ROM:0020             ; ---------------------------------------------------------------------------
ROM:0020 EB                          ex      de, hl
ROM:0021 CD 05 00                    call    HL_equals_2A
ROM:0024 29                          add     hl, hl
ROM:0025 19                          add     hl, de
ROM:0026 C9                          ret
ROM:0026             ; ---------------------------------------------------------------------------
ROM:0027 FF                          .db 0xFF
ROM:0028             ; ---------------------------------------------------------------------------
ROM:0028
ROM:0028             HL_plus_equals_8A:                      ; CODE XREF: ROM:07E3p
ROM:0028                                                     ; DATA XREF: ROM:07E3o
ROM:0028 EB                          ex      de, hl
ROM:0029 CD 05 00                    call    HL_equals_2A
ROM:002C 29                          add     hl, hl
ROM:002D 29                          add     hl, hl
ROM:002E 19                          add     hl, de
ROM:002F C9                          ret
ROM:0030             ; ---------------------------------------------------------------------------
ROM:0030
ROM:0030             save_PC_to_fn_tbl_and_ret:              ; CODE XREF: ROM:_sub_fn_3__handle_next_areap
ROM:0030                                                     ; ROM:02F3p
ROM:0030                                                     ; DATA XREF: ...
ROM:0030 E1                          pop     hl
ROM:0031 DD 75 00                    ld      0(ix), l
ROM:0034 DD 74 01                    ld      1(ix), h
ROM:0037 C9                          ret
ROM:0038             ; ---------------------------------------------------------------------------
ROM:0038
ROM:0038             calc_color_video_ram_addr:              ; CODE XREF: get_map_row+34p
ROM:0038 3A 03 80                    ld      a, (flip_screen_flag)
ROM:003B A7                          and     a
ROM:003C 3E 03                       ld      a, #3
ROM:003E 28 04                       jr      Z, loc_44
ROM:0040 25                          dec     h
ROM:0041 25                          dec     h
ROM:0042 3E 19                       ld      a, #0x19
ROM:0044
ROM:0044             loc_44:                                 ; CODE XREF: HL_equals_2A+39j
ROM:0044 85                          add     a, l
ROM:0045 E6 3F                       and     #0x3F ; '?'
ROM:0047 6F                          ld      l, a
ROM:0048 3E 03                       ld      a, #3
ROM:004A 84                          add     a, h
ROM:004B 0F                          rrca
ROM:004C 0F                          rrca
ROM:004D 67                          ld      h, a
ROM:004E E6 C0                       and     #0xC0 ; 'À'
ROM:0050 B5                          or      l
ROM:0051 6F                          ld      l, a
ROM:0052 7C                          ld      a, h
ROM:0053 E6 07                       and     #7
ROM:0055 81                          add     a, c
ROM:0056 67                          ld      h, a
ROM:0057 C9                          ret
ROM:0058             ; ---------------------------------------------------------------------------
ROM:0058
ROM:0058             HL_plus_equals_cont:                    ; CODE XREF: HL_equals_2A+4j
ROM:0058                                                     ; HL_equals_2A+8j ...
ROM:0058 85                          add     a, l
ROM:0059 6F                          ld      l, a
ROM:005A D0                          ret     NC
ROM:005B 24                          inc     h
ROM:005C C9                          ret
ROM:005C             ; End of function HL_equals_2A
ROM:005C
ROM:005C             ; ---------------------------------------------------------------------------
ROM:005D 0E                          .db  0xE
ROM:005E 12                          .db 0x12
ROM:005F 1B                          .db 0x1B
ROM:0060 1B                          .db 0x1B
ROM:0061 22                          .db 0x22 ; "
ROM:0062 24                          .db 0x24 ; $
ROM:0063 16                          .db 0x16
ROM:0064 18                          .db 0x18
ROM:0065 1E                          .db 0x1E
ROM:0066             ; ---------------------------------------------------------------------------
ROM:0066
ROM:0066             NMI:
ROM:0066 ED 45                       retn
ROM:0068             ; ---------------------------------------------------------------------------
ROM:0068 11 17 93                    ld      de, #0x9317
ROM:006B 21 16 93                    ld      hl, #0x9316
ROM:006E 01 13 00                    ld      bc, #0x13
ROM:0071 ED B8                       lddr
ROM:0073 DD 21 60 01                 ld      ix, #0x160
ROM:0077 1E 00                       ld      e, #0
ROM:0079 01 04 05                    ld      bc, #0x504
ROM:007C
ROM:007C             loc_7C:                                 ; CODE XREF: ROM:008Aj
ROM:007C DD 7E 00                    ld      a, 0(ix)
ROM:007F DD 23                       inc     ix
ROM:0081 6F                          ld      l, a
ROM:0082 26 20                       ld      h, #0x20 ; ' '
ROM:0084 7E                          ld      a, (hl)
ROM:0085 7B                          ld      a, e
ROM:0086 81                          add     a, c
ROM:0087 5F                          ld      e, a
ROM:0088 7E                          ld      a, (hl)
ROM:0089 12                          ld      (de), a
ROM:008A 10 F0                       djnz    loc_7C
ROM:008C 06 05                       ld      b, #5
ROM:008E 21 04 93                    ld      hl, #0x9304
ROM:0091
ROM:0091             loc_91:                                 ; CODE XREF: ROM:009Ej
ROM:0091 7E                          ld      a, (hl)
ROM:0092 2C                          inc     l
ROM:0093 B6                          or      (hl)
ROM:0094 2C                          inc     l
ROM:0095 2F                          cpl
ROM:0096 A6                          and     (hl)
ROM:0097 2C                          inc     l
ROM:0098 A6                          and     (hl)
ROM:0099 2C                          inc     l
ROM:009A E6 0F                       and     #0xF
ROM:009C 20 04                       jr      NZ, loc_A2
ROM:009E 10 F1                       djnz    loc_91
ROM:00A0 18 40                       jr      loc_E2
ROM:00A2             ; ---------------------------------------------------------------------------
ROM:00A2
ROM:00A2             loc_A2:                                 ; CODE XREF: ROM:009Cj
ROM:00A2 05                          dec     b
ROM:00A3 28 4F                       jr      Z, loc_F4
ROM:00A5 05                          dec     b
ROM:00A6 CB 20                       sla     b
ROM:00A8 CB 20                       sla     b
ROM:00AA
ROM:00AA             loc_AA:                                 ; CODE XREF: ROM:00AEj
ROM:00AA 0F                          rrca
ROM:00AB 38 03                       jr      C, loc_B0
ROM:00AD 04                          inc     b
ROM:00AE 18 FA                       jr      loc_AA
ROM:00B0             ; ---------------------------------------------------------------------------
ROM:00B0
ROM:00B0             loc_B0:                                 ; CODE XREF: ROM:00ABj
ROM:00B0 3A 00 93                    ld      a, (unk_9300)
ROM:00B3 CB 3F                       srl     a
ROM:00B5 5F                          ld      e, a
ROM:00B6 CB 11                       rl      c
ROM:00B8 C6 01                       add     a, #1
ROM:00BA 6F                          ld      l, a
ROM:00BB 26 93                       ld      h, #0x93 ; '“'
ROM:00BD 7E                          ld      a, (hl)
ROM:00BE CB 41                       bit     0, c
ROM:00C0 28 04                       jr      Z, loc_C6
ROM:00C2 07                          rlca
ROM:00C3 07                          rlca
ROM:00C4 07                          rlca
ROM:00C5 07                          rlca
ROM:00C6
ROM:00C6             loc_C6:                                 ; CODE XREF: ROM:00C0j
ROM:00C6 E6 F0                       and     #0xF0 ; 'ð'
ROM:00C8 B0                          or      b
ROM:00C9 CB 41                       bit     0, c
ROM:00CB 28 04                       jr      Z, loc_D1
ROM:00CD 07                          rlca
ROM:00CE 07                          rlca
ROM:00CF 07                          rlca
ROM:00D0 07                          rlca
ROM:00D1
ROM:00D1             loc_D1:                                 ; CODE XREF: ROM:00CBj
ROM:00D1 77                          ld      (hl), a
ROM:00D2 3A 00 93                    ld      a, (unk_9300)
ROM:00D5 A7                          and     a
ROM:00D6 20 02                       jr      NZ, loc_DA
ROM:00D8 3E 02                       ld      a, #2
ROM:00DA
ROM:00DA             loc_DA:                                 ; CODE XREF: ROM:00D6j
ROM:00DA 3D                          dec     a
ROM:00DB 32 00 93                    ld      (unk_9300), a
ROM:00DE 7B                          ld      a, e
ROM:00DF A7                          and     a
ROM:00E0 28 09                       jr      Z, loc_EB
ROM:00E2
ROM:00E2             loc_E2:                                 ; CODE XREF: ROM:00A0j
ROM:00E2                                                     ; ROM:010Bj ...
ROM:00E2 2A 02 93                    ld      hl, (unk_9302)
ROM:00E5 7E                          ld      a, (hl)
ROM:00E6 32 01 93                    ld      (some_bcd_value), a
ROM:00E9 18 42                       jr      display_some_bcd_value
ROM:00EB             ; ---------------------------------------------------------------------------
ROM:00EB
ROM:00EB             loc_EB:                                 ; CODE XREF: ROM:00E0j
ROM:00EB 2A 02 93                    ld      hl, (unk_9302)
ROM:00EE 3A 01 93                    ld      a, (some_bcd_value)
ROM:00F1 77                          ld      (hl), a
ROM:00F2 18 39                       jr      display_some_bcd_value
ROM:00F4             ; ---------------------------------------------------------------------------
ROM:00F4
ROM:00F4             loc_F4:                                 ; CODE XREF: ROM:00A3j
ROM:00F4 4F                          ld      c, a
ROM:00F5 21 00 93                    ld      hl, #0x9300
ROM:00F8 CB 41                       bit     0, c
ROM:00FA 20 2D                       jr      NZ, loc_129
ROM:00FC 7E                          ld      a, (hl)
ROM:00FD CB 3F                       srl     a
ROM:00FF 28 13                       jr      Z, loc_114
ROM:0101 CB 59                       bit     3, c
ROM:0103 20 0C                       jr      NZ, loc_111
ROM:0105 7E                          ld      a, (hl)
ROM:0106 FE 05                       cp      #5
ROM:0108 30 03                       jr      NC, loc_10D
ROM:010A 34                          inc     (hl)
ROM:010B 18 D5                       jr      loc_E2
ROM:010D             ; ---------------------------------------------------------------------------
ROM:010D
ROM:010D             loc_10D:                                ; CODE XREF: ROM:0108j
ROM:010D 36 05                       ld      (hl), #5
ROM:010F 18 D1                       jr      loc_E2
ROM:0111             ; ---------------------------------------------------------------------------
ROM:0111
ROM:0111             loc_111:                                ; CODE XREF: ROM:0103j
ROM:0111 35                          dec     (hl)
ROM:0112 18 CE                       jr      loc_E2
ROM:0114             ; ---------------------------------------------------------------------------
ROM:0114
ROM:0114             loc_114:                                ; CODE XREF: ROM:00FFj
ROM:0114 2A 02 93                    ld      hl, (unk_9302)
ROM:0117 CB 59                       bit     3, c
ROM:0119 20 03                       jr      NZ, loc_11E
ROM:011B 2B                          dec     hl
ROM:011C 18 01                       jr      loc_11F
ROM:011E             ; ---------------------------------------------------------------------------
ROM:011E
ROM:011E             loc_11E:                                ; CODE XREF: ROM:0119j
ROM:011E 23                          inc     hl
ROM:011F
ROM:011F             loc_11F:                                ; CODE XREF: ROM:011Cj
ROM:011F 22 02 93                    ld      (unk_9302), hl
ROM:0122 3E 01                       ld      a, #1
ROM:0124 32 00 93                    ld      (unk_9300), a
ROM:0127 18 B9                       jr      loc_E2
ROM:0129             ; ---------------------------------------------------------------------------
ROM:0129
ROM:0129             loc_129:                                ; CODE XREF: ROM:00FAj
ROM:0129 36 05                       ld      (hl), #5
ROM:012B 18 B5                       jr      loc_E2
ROM:012D             ; ---------------------------------------------------------------------------
ROM:012D
ROM:012D             display_some_bcd_value:                 ; CODE XREF: ROM:00E9j
ROM:012D                                                     ; ROM:00F2j
ROM:012D 21 E2 C0                    ld      hl, # fg_videoram+0xE2
ROM:0130 11 01 93                    ld      de, #some_bcd_value
ROM:0133 06 03                       ld      b, #3
ROM:0135
ROM:0135             loc_135:                                ; CODE XREF: ROM:013Aj
ROM:0135 1A                          ld      a, (de)
ROM:0136 1C                          inc     e
ROM:0137 CD 51 01                    call    sub_151
ROM:013A 10 F9                       djnz    loc_135
ROM:013C 21 E2 B0                    ld      hl, # fg_colorram+0xE2
ROM:013F 3A 00 93                    ld      a, (unk_9300)
ROM:0142 06 06                       ld      b, #6
ROM:0144
ROM:0144             loc_144:                                ; CODE XREF: ROM:014Ej
ROM:0144 A7                          and     a
ROM:0145 0E 04                       ld      c, #4
ROM:0147 28 02                       jr      Z, loc_14B
ROM:0149 0E 0C                       ld      c, #0xC
ROM:014B
ROM:014B             loc_14B:                                ; CODE XREF: ROM:0147j
ROM:014B 71                          ld      (hl), c
ROM:014C 2D                          dec     l
ROM:014D 3D                          dec     a
ROM:014E 10 F4                       djnz    loc_144
ROM:0150 C9                          ret
ROM:0151
ROM:0151             ; =============== S U B R O U T I N E =======================================
ROM:0151
ROM:0151
ROM:0151             sub_151:                                ; CODE XREF: ROM:0137p
ROM:0151 4F                          ld      c, a
ROM:0152 E6 0F                       and     #0xF
ROM:0154 77                          ld      (hl), a
ROM:0155 2D                          dec     l
ROM:0156 79                          ld      a, c
ROM:0157 07                          rlca
ROM:0158 07                          rlca
ROM:0159 07                          rlca
ROM:015A 07                          rlca
ROM:015B E6 0F                       and     #0xF
ROM:015D 77                          ld      (hl), a
ROM:015E 2D                          dec     l
ROM:015F C9                          ret
ROM:015F             ; End of function sub_151
ROM:015F
ROM:015F             ; ---------------------------------------------------------------------------
ROM:0160 FD                          .db 0xFD ; ý
ROM:0161 FB                          .db 0xFB ; û
ROM:0162 F7                          .db 0xF7 ; ÷
ROM:0163 EF                          .db 0xEF ; ï
ROM:0164 FE                          .db 0xFE ; þ
ROM:0165             ; ---------------------------------------------------------------------------
ROM:0165
ROM:0165             _sub_fn_2__handle_objects:              ; DATA XREF: ROM:0389o
ROM:0165 2A 85 81                    ld      hl, (area_obj_ptr)
ROM:0168 3A 11 80                    ld      a, (scroll_cntr+1)
ROM:016B BE                          cp      (hl)
ROM:016C C0                          ret     NZ
ROM:016D 23                          inc     hl
ROM:016E 4D                          ld      c, l
ROM:016F 44                          ld      b, h
ROM:0170 03                          inc     bc
ROM:0171 7E                          ld      a, (hl)
ROM:0172 21 7F 01                    ld      hl, #loc_17F
ROM:0175 D7                          rst     HL_plus_equals_A
ROM:0176 7E                          ld      a, (hl)
ROM:0177 21 DD 01                    ld      hl, #_sub_fn_2_handler
ROM:017A CF                          rst     HL_plus_equals_2A
ROM:017B 5E                          ld      e, (hl)
ROM:017C 23                          inc     hl
ROM:017D 56                          ld      d, (hl)
ROM:017E EB                          ex      de, hl
ROM:017F
ROM:017F             loc_17F:                                ; DATA XREF: ROM:0172o
ROM:017F E9                          jp      (hl)
ROM:017F             ; ---------------------------------------------------------------------------
ROM:0180 00 02 03 04+                .db 0, 2, 3, 4, 5, 0, 0, 0, 0, 0, 0, 0, 0, 0, 0, 0, 0
ROM:0180 05 00 00 00+                .db 0, 0, 0, 0, 0, 0, 0, 0xE, 0xE, 1, 0, 1, 1, 1, 1, 1
ROM:0180 00 00 00 00+                .db 6, 7, 8, 9, 1, 1, 0xA, 0xB, 0xC, 0xD, 1, 1, 0xF, 0x10
ROM:0180 00 00 00 00+                .db 0x11, 0, 0, 0x12, 0x13, 1, 1, 1, 1, 1, 1, 1, 1, 1
ROM:0180 00 00 00 00+                .db 1, 1, 1, 1, 1, 1, 1, 1, 1, 1, 1, 1, 1, 1, 0x14, 0x15
ROM:0180 00 00 00 00+                .db 0x16, 0, 0, 0, 0, 1, 0, 0, 0, 0x17, 0, 0, 0, 1, 1
ROM:0180 0E 0E 01 00+                .db 1
ROM:01DD 0D 02       _sub_fn_2_handler:.dw _sub_2_fn_0__type_only ; DATA XREF: ROM:0177o
ROM:01DF 1B 02                       .dw _sub_2_fn_1__ground_object
ROM:01E1 8C 05                       .dw _sub_2_fn_2__set_flying_enemies
ROM:01E3 A0 05                       .dw _sub_2_fn_3__inc_enemy_AI_and_flying_enemies
ROM:01E5 BE 05                       .dw _sub_2_fn_4__set_AI_level_UNUSED
ROM:01E7 CC 05                       .dw _sub_2_fn_5__reset_flying_enemies
ROM:01E9 39 02                       .dw _sub_2_fn_6__set_bacura_inc_cnt
ROM:01EB A7 07                       .dw _sub_2_fn_7__reset_num_bacura
ROM:01ED 0D 06                       .dw _sub_2_fn_8__fire_freq_mask_derota
ROM:01EF 17 06                       .dw _sub_2_fn_9__fire_freq_mask_logram
ROM:01F1 5D 06                       .dw _sub_2_fn_10__gnd_stop_firing_row
ROM:01F3 21 06                       .dw _sub_2_fn_11__fire_freq_mask_zoshi
ROM:01F5 2B 06                       .dw _sub_2_fn_12__fire_freq_mask_terrazi
ROM:01F7 35 06                       .dw _sub_2_fn_13__fire_freq_mask_kapi
ROM:01F9 43 02                       .dw _sub_2_fn_14__UNUSED
ROM:01FB B0 07                       .dw _sub_2_fn_15__domogram
ROM:01FD 3F 06                       .dw _sub_2_fn_16__fire_freq_mask_boza_logram
ROM:01FF 49 06                       .dw _sub_2_fn_17__fire_freq_mask_domogram
ROM:0201 FD 07                       .dw _sub_2_fn_18__sheonite_start
ROM:0203 0F 08                       .dw _sub_2_fn_19__sheonite_end
ROM:0205 19 08                       .dw _sub_2_fn_20__andor_genesis_start
ROM:0207 54 08                       .dw _sub_2_fn_21__andor_genesis_end
ROM:0209 53 06                       .dw _sub_2_fn_22__fire_freq_mask_andor_genesis
ROM:020B DB 05                       .dw _sub_2_fn_23__adjust_AI_level_based_on_score
ROM:020D             ; ---------------------------------------------------------------------------
ROM:020D
ROM:020D             _sub_2_fn_0__type_only:                 ; DATA XREF: ROM:_sub_fn_2_handlero
ROM:020D 26 7F                       ld      h, #0x7F ; ''
ROM:020F 0A                          ld      a, (bc)
ROM:0210 6F                          ld      l, a
ROM:0211 0B                          dec     bc
ROM:0212 0A                          ld      a, (bc)
ROM:0213 77                          ld      (hl), a
ROM:0214 03                          inc     bc
ROM:0215 03                          inc     bc
ROM:0216 ED 43 85 81                 ld      (area_obj_ptr), bc
ROM:021A C9                          ret
ROM:021B             ; ---------------------------------------------------------------------------
ROM:021B
ROM:021B             _sub_2_fn_1__ground_object:             ; DATA XREF: ROM:01DFo
ROM:021B 26 7F                       ld      h, #0x7F ; ''
ROM:021D 0A                          ld      a, (bc)
ROM:021E 6F                          ld      l, a
ROM:021F 0B                          dec     bc
ROM:0220 0A                          ld      a, (bc)
ROM:0221 77                          ld      (hl), a
ROM:0222 03                          inc     bc
ROM:0223 03                          inc     bc
ROM:0224 26 7B                       ld      h, #0x7B ; '{'
ROM:0226 0A                          ld      a, (bc)
ROM:0227 0F                          rrca
ROM:0228 0F                          rrca
ROM:0229 0F                          rrca
ROM:022A 5F                          ld      e, a
ROM:022B E6 E0                       and     #0xE0 ; 'à'
ROM:022D 77                          ld      (hl), a
ROM:022E 2C                          inc     l
ROM:022F 7B                          ld      a, e
ROM:0230 E6 1F                       and     #0x1F
ROM:0232 77                          ld      (hl), a
ROM:0233 03                          inc     bc
ROM:0234 ED 43 85 81                 ld      (area_obj_ptr), bc
ROM:0238 C9                          ret
ROM:0239             ; ---------------------------------------------------------------------------
ROM:0239
ROM:0239             _sub_2_fn_6__set_bacura_inc_cnt:        ; DATA XREF: ROM:01E9o
ROM:0239 0A                          ld      a, (bc)
ROM:023A 32 22 84                    ld      (bacura_inc_cnt), a
ROM:023D 03                          inc     bc
ROM:023E ED 43 85 81                 ld      (area_obj_ptr), bc
ROM:0242 C9                          ret
ROM:0243             ; ---------------------------------------------------------------------------
ROM:0243
ROM:0243             _sub_2_fn_14__UNUSED:                   ; DATA XREF: ROM:01F9o
ROM:0243 26 7F                       ld      h, #0x7F ; ''
ROM:0245 0A                          ld      a, (bc)
ROM:0246 6F                          ld      l, a
ROM:0247 0B                          dec     bc
ROM:0248 0A                          ld      a, (bc)
ROM:0249 77                          ld      (hl), a
ROM:024A 03                          inc     bc
ROM:024B 03                          inc     bc
ROM:024C 26 7B                       ld      h, #0x7B ; '{'
ROM:024E 0A                          ld      a, (bc)
ROM:024F 0F                          rrca
ROM:0250 0F                          rrca
ROM:0251 0F                          rrca
ROM:0252 5F                          ld      e, a
ROM:0253 E6 E0                       and     #0xE0 ; 'à'
ROM:0255 77                          ld      (hl), a
ROM:0256 2C                          inc     l
ROM:0257 7B                          ld      a, e
ROM:0258 E6 1F                       and     #0x1F
ROM:025A 77                          ld      (hl), a
ROM:025B 03                          inc     bc
ROM:025C 2D                          dec     l
ROM:025D 26 7E                       ld      h, #0x7E ; '~'
ROM:025F 0A                          ld      a, (bc)
ROM:0260 77                          ld      (hl), a
ROM:0261 03                          inc     bc
ROM:0262 ED 43 85 81                 ld      (area_obj_ptr), bc
ROM:0266 C9                          ret
ROM:0267             ; ---------------------------------------------------------------------------
ROM:0267
ROM:0267             _sub_fn_6__display_1UP_2UP:             ; DATA XREF: ROM:0391o
ROM:0267 3A AD 85                    ld      a, (maincpu_inited)
ROM:026A FE 00                       cp      #0
ROM:026C C8                          ret     Z
ROM:026D 3A 01 80                    ld      a, (countup_timer_1)
ROM:0270 0F                          rrca
ROM:0271 0F                          rrca
ROM:0272 0F                          rrca
ROM:0273 0F                          rrca
ROM:0274 E6 01                       and     #1
ROM:0276 47                          ld      b, a
ROM:0277 21 00 18                    ld      hl, #0x1800
ROM:027A 11 00 05                    ld      de, #0x500
ROM:027D 3A 21 80                    ld      a, (curr_player)
ROM:0280 A7                          and     a
ROM:0281 28 01                       jr      Z, loc_284
ROM:0283 EB                          ex      de, hl
ROM:0284
ROM:0284             loc_284:                                ; CODE XREF: ROM:0281j
ROM:0284 4F                          ld      c, a
ROM:0285 CD A9 02                    call    flash_1up_2up
ROM:0288 EB                          ex      de, hl
ROM:0289 3A 22 80                    ld      a, (two_player_game)
ROM:028C A7                          and     a
ROM:028D 3E 06                       ld      a, #6
ROM:028F 28 07                       jr      Z, loc_298
ROM:0291 79                          ld      a, c
ROM:0292 EE 01                       xor     #1
ROM:0294 4F                          ld      c, a
ROM:0295
ROM:0295             ; =============== S U B R O U T I N E =======================================
ROM:0295
ROM:0295
ROM:0295             display_1up_2up:                        ; CODE XREF: flash_1up_2up:loc_2B3p
ROM:0295 79                          ld      a, c
ROM:0296 87                          add     a, a
ROM:0297 81                          add     a, c
ROM:0298
ROM:0298             loc_298:                                ; CODE XREF: ROM:028Fj
ROM:0298 11 B9 02                    ld      de, #up_string_tbl
ROM:029B EB                          ex      de, hl
ROM:029C D7                          rst     HL_plus_equals_A
ROM:029D EB                          ex      de, hl
ROM:029E 01 C0 03                    ld      bc, #0x3C0
ROM:02A1
ROM:02A1             loc_2A1:                                ; CODE XREF: display_1up_2up+11j
ROM:02A1 1A                          ld      a, (de)
ROM:02A2 CD C2 02                    call    display_fg_char
ROM:02A5 13                          inc     de
ROM:02A6 10 F9                       djnz    loc_2A1
ROM:02A8 C9                          ret
ROM:02A8             ; End of function display_1up_2up
ROM:02A8
ROM:02A9
ROM:02A9             ; =============== S U B R O U T I N E =======================================
ROM:02A9
ROM:02A9
ROM:02A9             flash_1up_2up:                          ; CODE XREF: ROM:0285p
ROM:02A9 D5                          push    de
ROM:02AA C5                          push    bc
ROM:02AB 3A 23 80                    ld      a, (is_real_game)
ROM:02AE A0                          and     b
ROM:02AF 28 02                       jr      Z, loc_2B3
ROM:02B1 0E 02                       ld      c, #2
ROM:02B3
ROM:02B3             loc_2B3:                                ; CODE XREF: flash_1up_2up+6j
ROM:02B3 CD 95 02                    call    display_1up_2up
ROM:02B6 C1                          pop     bc
ROM:02B7 D1                          pop     de
ROM:02B8 C9                          ret
ROM:02B8             ; End of function flash_1up_2up
ROM:02B8
ROM:02B8             ; ---------------------------------------------------------------------------
ROM:02B9 01 1E 19    up_string_tbl:  .db 1, 0x1E, 0x19       ; DATA XREF: display_1up_2up:loc_298o
ROM:02BC 02 1E 19                    .db 2, 0x1E, 0x19
ROM:02BF 24 24 24                    .db 0x24, 0x24, 0x24
ROM:02C2
ROM:02C2             ; =============== S U B R O U T I N E =======================================
ROM:02C2
ROM:02C2
ROM:02C2             display_fg_char:                        ; CODE XREF: display_1up_2up+Dp
ROM:02C2 E5                          push    hl
ROM:02C3 F5                          push    af
ROM:02C4 CD CC 02                    call    calc_fg_screen_addr
ROM:02C7 F1                          pop     af
ROM:02C8 77                          ld      (hl), a
ROM:02C9 E1                          pop     hl
ROM:02CA 25                          dec     h
ROM:02CB C9                          ret
ROM:02CB             ; End of function display_fg_char
ROM:02CB
ROM:02CC
ROM:02CC             ; =============== S U B R O U T I N E =======================================
ROM:02CC
ROM:02CC
ROM:02CC             calc_fg_screen_addr:                    ; CODE XREF: display_fg_char+2p
ROM:02CC 3A 03 80                    ld      a, (flip_screen_flag)
ROM:02CF 25                          dec     h
ROM:02D0 A7                          and     a
ROM:02D1 3E 04                       ld      a, #4
ROM:02D3 28 03                       jr      Z, loc_2D8
ROM:02D5 25                          dec     h
ROM:02D6 3E 18                       ld      a, #0x18
ROM:02D8
ROM:02D8             loc_2D8:                                ; CODE XREF: calc_fg_screen_addr+7j
ROM:02D8 85                          add     a, l
ROM:02D9 E6 3F                       and     #0x3F ; '?'
ROM:02DB 6F                          ld      l, a
ROM:02DC 3E 03                       ld      a, #3
ROM:02DE 84                          add     a, h
ROM:02DF 0F                          rrca
ROM:02E0 0F                          rrca
ROM:02E1 67                          ld      h, a
ROM:02E2 E6 C0                       and     #0xC0 ; 'À'
ROM:02E4 B5                          or      l
ROM:02E5 6F                          ld      l, a
ROM:02E6 7C                          ld      a, h
ROM:02E7 E6 07                       and     #7
ROM:02E9 81                          add     a, c
ROM:02EA 67                          ld      h, a
ROM:02EB C9                          ret
ROM:02EB             ; End of function calc_fg_screen_addr
ROM:02EB
ROM:02EC             ; ---------------------------------------------------------------------------
ROM:02EC
ROM:02EC             _sub_fn_3__handle_next_area:            ; CODE XREF: ROM:031Cj
ROM:02EC                                                     ; DATA XREF: ROM:038Bo
ROM:02EC F7                          rst     save_PC_to_fn_tbl_and_ret
ROM:02ED 3A 11 80                    ld      a, (scroll_cntr+1)
ROM:02F0 FE 0E                       cp      #0xE
ROM:02F2 C8                          ret     Z
ROM:02F3 F7                          rst     save_PC_to_fn_tbl_and_ret
ROM:02F4 3A 11 80                    ld      a, (scroll_cntr+1)
ROM:02F7 FE 0E                       cp      #0xE
ROM:02F9 C0                          ret     NZ
ROM:02FA 3A 87 81                    ld      a, (area)
ROM:02FD 3C                          inc     a
ROM:02FE FE 10                       cp      #16
ROM:0300 20 02                       jr      NZ, loc_304
ROM:0302 3E 06                       ld      a, #6
ROM:0304
ROM:0304             loc_304:                                ; CODE XREF: ROM:0300j
ROM:0304 32 87 81                    ld      (area), a
ROM:0307 4F                          ld      c, a
ROM:0308 21 1E 03                    ld      hl, #area_offset_in_map_tbl
ROM:030B D7                          rst     HL_plus_equals_A
ROM:030C 7E                          ld      a, (hl)
ROM:030D 32 13 80                    ld      (area_offset_in_map), a
ROM:0310 79                          ld      a, c
ROM:0311 21 00 10                    ld      hl, #0x1000
ROM:0314 CF                          rst     HL_plus_equals_2A
ROM:0315 5E                          ld      e, (hl)
ROM:0316 23                          inc     hl
ROM:0317 56                          ld      d, (hl)
ROM:0318 ED 53 85 81                 ld      (area_obj_ptr), de
ROM:031C 18 CE                       jr      _sub_fn_3__handle_next_area
ROM:031C             ; ---------------------------------------------------------------------------
ROM:031E 24 00 54 0E+area_offset_in_map_tbl:.db 0x24, 0, 0x54, 0xE, 0x40, 0x1A, 0x64, 4, 0x2A, 0x5C
ROM:031E 40 1A 64 04+                                        ; DATA XREF: ROM:0308o
ROM:031E 2A 5C 0E 04+                .db 0xE, 4, 0x38, 0x54, 0x1A, 0
ROM:032E             ; ---------------------------------------------------------------------------
ROM:032E
ROM:032E             START:                                  ; CODE XREF: ROM:RESETj
ROM:032E 3A FE 0F                    ld      a, (fake_rom1_cksum)
ROM:0331 32 72 85                    ld      (rom1_cksum), a
ROM:0334 3A FE 1F                    ld      a, (byte_1FFE)
ROM:0337 32 73 85                    ld      (rom2_cksum), a
ROM:033A 31 80 97                    ld      sp, #spriteram_3_lower
ROM:033D 21 00 10                    ld      hl, #area_object_tbl_tbl
ROM:0340 11 00 A4                    ld      de, #area_object_tbl_tbl_RAM
ROM:0343 01 20 00                    ld      bc, #0x20 ; ' '
ROM:0346 ED B0                       ldir
ROM:0348 21 85 03                    ld      hl, #_sub_fn_jump_tbl_ROM
ROM:034B 11 C0 82                    ld      de, #_sub_fn_jump_tbl_RAM
ROM:034E 01 40 00                    ld      bc, #0x40 ; '@'
ROM:0351 ED B0                       ldir
ROM:0353
ROM:0353             restart_main_fn_loop:                   ; CODE XREF: ROM:0369j
ROM:0353                                                     ; ROM:037Cj
ROM:0353 21 02 80                    ld      hl, #vb_semaphore_sub
ROM:0356
ROM:0356             loc_356:                                ; CODE XREF: ROM:0358j
ROM:0356 7E                          ld      a, (hl)
ROM:0357 3D                          dec     a
ROM:0358 20 FC                       jr      NZ, loc_356
ROM:035A 77                          ld      (hl), a
ROM:035B 32 0A 80                    ld      (unk_800A), a
ROM:035E 3A 16 80                    ld      a, (dswb_0115)
ROM:0361 07                          rlca
ROM:0362 E6 01                       and     #1              ; bit 7
ROM:0364 6F                          ld      l, a
ROM:0365 3A A8 80                    ld      a, (unk_80A8)   ; freeze
ROM:0368 AD                          xor     l
ROM:0369 20 E8                       jr      NZ, restart_main_fn_loop
ROM:036B DD 21 C0 82                 ld      ix, #_sub_fn_jump_tbl_RAM
ROM:036F 06 20                       ld      b, #0x20 ; ' '
ROM:0371
ROM:0371             main_fn_loop:                           ; CODE XREF: ROM:037Aj
ROM:0371 C5                          push    bc
ROM:0372 CD 7E 03                    call    jp_next_fn
ROM:0375 C1                          pop     bc
ROM:0376 DD 23                       inc     ix
ROM:0378 DD 23                       inc     ix
ROM:037A 10 F5                       djnz    main_fn_loop
ROM:037C 18 D5                       jr      restart_main_fn_loop
ROM:037E
ROM:037E             ; =============== S U B R O U T I N E =======================================
ROM:037E
ROM:037E
ROM:037E             jp_next_fn:                             ; CODE XREF: ROM:0372p
ROM:037E DD 6E 00                    ld      l, 0(ix)
ROM:0381 DD 66 01                    ld      h, 1(ix)
ROM:0384 E9                          jp      (hl)
ROM:0384             ; End of function jp_next_fn
ROM:0384
ROM:0384             ; ---------------------------------------------------------------------------
ROM:0385 C5 03       _sub_fn_jump_tbl_ROM:.dw _sub_fn_0__update_32_sprite_hw
ROM:0385                                                     ; DATA XREF: ROM:0348o
ROM:0387 E7 03                       .dw _sub_fn_1__update_scroll_hw
ROM:0389 65 01                       .dw _sub_fn_2__handle_objects
ROM:038B EC 02                       .dw _sub_fn_3__handle_next_area
ROM:038D F6 03                       .dw _sub_fn_4__handle_credits_and_start
ROM:038F 33 04                       .dw _sub_fn_5__handle_pulsing_colours
ROM:0391 67 02                       .dw _sub_fn_6__display_1UP_2UP
ROM:0393 1F 00                       .dw null_fn
ROM:0395 1F 00                       .dw null_fn
ROM:0397 1F 00                       .dw null_fn
ROM:0399 1F 00                       .dw null_fn
ROM:039B 1F 00                       .dw null_fn
ROM:039D 1F 00                       .dw null_fn
ROM:039F 1F 00                       .dw null_fn
ROM:03A1 1F 00                       .dw null_fn
ROM:03A3 1F 00                       .dw null_fn
ROM:03A5 1F 00                       .dw null_fn
ROM:03A7 1F 00                       .dw null_fn
ROM:03A9 1F 00                       .dw null_fn
ROM:03AB 1F 00                       .dw null_fn
ROM:03AD 1F 00                       .dw null_fn
ROM:03AF 1F 00                       .dw null_fn
ROM:03B1 1F 00                       .dw null_fn
ROM:03B3 1F 00                       .dw null_fn
ROM:03B5 1F 00                       .dw null_fn
ROM:03B7 1F 00                       .dw null_fn
ROM:03B9 1F 00                       .dw null_fn
ROM:03BB 1F 00                       .dw null_fn
ROM:03BD 1F 00                       .dw null_fn
ROM:03BF 1F 00                       .dw null_fn
ROM:03C1 75 04                       .dw _sub_fn_30__handle_scroll
ROM:03C3 ED 04                       .dw _sub_fn_31__update_sprite_shadow
ROM:03C5             ; ---------------------------------------------------------------------------
ROM:03C5
ROM:03C5             _sub_fn_0__update_32_sprite_hw:         ; DATA XREF: ROM:_sub_fn_jump_tbl_ROMo
ROM:03C5 21 40 82                    ld      hl, #spriteram_2_upper_shadow
ROM:03C8 11 C0 87                    ld      de, #spriteram_2_upper
ROM:03CB 01 40 00                    ld      bc, #0x40 ; '@'
ROM:03CE ED B0                       ldir
ROM:03D0 21 40 83                    ld      hl, #spriteram_3_upper_shadow
ROM:03D3 11 C0 97                    ld      de, #spriteram_3_upper
ROM:03D6 01 40 00                    ld      bc, #0x40 ; '@'
ROM:03D9 ED B0                       ldir
ROM:03DB 21 40 81                    ld      hl, #spriteram_upper_shadow
ROM:03DE 11 C0 A7                    ld      de, #spriteram_upper
ROM:03E1 01 40 00                    ld      bc, #0x40 ; '@'
ROM:03E4 ED B0                       ldir
ROM:03E6 C9                          ret
ROM:03E7             ; ---------------------------------------------------------------------------
ROM:03E7
ROM:03E7             _sub_fn_1__update_scroll_hw:            ; DATA XREF: ROM:0387o
ROM:03E7 2A 0C 80                    ld      hl, (bg_scroll_x_shadow)
ROM:03EA 7D                          ld      a, l
ROM:03EB 6C                          ld      l, h
ROM:03EC 26 D0                       ld      h, #0xD0 ; 'Ð'
ROM:03EE 77                          ld      (hl), a
ROM:03EF 3A 0E 80                    ld      a, (bg_srcoll_y_shadow)
ROM:03F2 32 20 D0                    ld      (bg_scroll_y), a
ROM:03F5 C9                          ret
ROM:03F6             ; ---------------------------------------------------------------------------
ROM:03F6
ROM:03F6             _sub_fn_4__handle_credits_and_start:    ; DATA XREF: ROM:038Do
ROM:03F6 3A 18 80                    ld      a, (new_num_credits)
ROM:03F9 4F                          ld      c, a
ROM:03FA 3A 29 80                    ld      a, (num_credits)
ROM:03FD 47                          ld      b, a
ROM:03FE 91                          sub     c
ROM:03FF C8                          ret     Z
ROM:0400 30 1B                       jr      NC, process_1P_2P_button
ROM:0402 79                          ld      a, c
ROM:0403 32 29 80                    ld      (num_credits), a
ROM:0406 FE A0                       cp      #0xA0 ; ' '
ROM:0408 C8                          ret     Z
ROM:0409 90                          sub     b
ROM:040A 27                          daa
ROM:040B 21 00 A0                    ld      hl, #unk_A000
ROM:040E 86                          add     a, (hl)
ROM:040F 27                          daa
ROM:0410 77                          ld      (hl), a
ROM:0411 21 2C 04                    ld      hl, #byte_42C
ROM:0414 11 80 80                    ld      de, #unk_8080
ROM:0417 01 07 00                    ld      bc, #7
ROM:041A ED B0                       ldir
ROM:041C C9                          ret
ROM:041D             ; ---------------------------------------------------------------------------
ROM:041D
ROM:041D             process_1P_2P_button:                   ; CODE XREF: ROM:0400j
ROM:041D 27                          daa
ROM:041E 3D                          dec     a
ROM:041F 32 22 80                    ld      (two_player_game), a
ROM:0422 79                          ld      a, c
ROM:0423 32 29 80                    ld      (num_credits), a
ROM:0426 3E 01                       ld      a, #1
ROM:0428 32 1B 80                    ld      (start_pressed), a
ROM:042B C9                          ret
ROM:042B             ; ---------------------------------------------------------------------------
ROM:042C 30 10 00 80+byte_42C:       .db 0x30, 0x10, 0, 0x80, 0xFF, 0x10, 0x10
ROM:042C FF 10 10                                            ; DATA XREF: ROM:0411o
ROM:0433             ; ---------------------------------------------------------------------------
ROM:0433
ROM:0433             _sub_fn_5__handle_pulsing_colours:      ; DATA XREF: ROM:038Fo
ROM:0433 3A 2A 80                    ld      a, (scroll_disabled)
ROM:0436 A7                          and     a
ROM:0437 C0                          ret     NZ
ROM:0438 3A 01 80                    ld      a, (countup_timer_1)
ROM:043B 1F                          rra
ROM:043C E6 03                       and     #3
ROM:043E C6 25                       add     a, #0x25 ; '%'
ROM:0440 21 4F 7C                    ld      hl, # obj_code_tbl+0x4F
ROM:0443 06 13                       ld      b, #0x13
ROM:0445
ROM:0445             loc_445:                                ; CODE XREF: ROM:0448j
ROM:0445 77                          ld      (hl), a
ROM:0446 2C                          inc     l
ROM:0447 2C                          inc     l
ROM:0448 10 FB                       djnz    loc_445
ROM:044A 3A 01 80                    ld      a, (countup_timer_1)
ROM:044D 0F                          rrca
ROM:044E 0F                          rrca
ROM:044F 0F                          rrca
ROM:0450 E6 07                       and     #7
ROM:0452 4F                          ld      c, a
ROM:0453 21 65 04                    ld      hl, #colour_lut_pulsing_1
ROM:0456 D7                          rst     HL_plus_equals_A
ROM:0457 7E                          ld      a, (hl)
ROM:0458 32 1C 80                    ld      (pulsing_colour_1), a
ROM:045B 79                          ld      a, c
ROM:045C 21 6D 04                    ld      hl, #colour_lut_pulsing_2
ROM:045F D7                          rst     HL_plus_equals_A
ROM:0460 7E                          ld      a, (hl)
ROM:0461 32 43 80                    ld      (pulsing_colour_2), a
ROM:0464 C9                          ret
ROM:0464             ; ---------------------------------------------------------------------------
ROM:0465 07 08 09 0A+colour_lut_pulsing_1:.db 7, 8, 9, 0xA, 0xB, 0xA, 9, 8
ROM:0465 0B 0A 09 08                                         ; DATA XREF: ROM:0453o
ROM:046D 10 11 12 13+colour_lut_pulsing_2:.db 0x10, 0x11, 0x12, 0x13, 0x14, 0x13, 0x12, 0x11
ROM:046D 14 13 12 11                                         ; DATA XREF: ROM:045Co
ROM:0475             ; ---------------------------------------------------------------------------
ROM:0475
ROM:0475             _sub_fn_30__handle_scroll:              ; DATA XREF: ROM:03C1o
ROM:0475 3A 2A 80                    ld      a, (scroll_disabled)
ROM:0478 A7                          and     a
ROM:0479 C0                          ret     NZ
ROM:047A CD A3 04                    call    get_map_row
ROM:047D 3A 03 80                    ld      a, (flip_screen_flag)
ROM:0480 A7                          and     a
ROM:0481 3E 40                       ld      a, #0x40 ; '@'
ROM:0483 28 02                       jr      Z, loc_487
ROM:0485 3E 30                       ld      a, #0x30 ; '0'
ROM:0487
ROM:0487             loc_487:                                ; CODE XREF: ROM:0483j
ROM:0487 2A 10 80                    ld      hl, (scroll_cntr)
ROM:048A CF                          rst     HL_plus_equals_2A
ROM:048B 29                          add     hl, hl
ROM:048C 29                          add     hl, hl
ROM:048D AF                          xor     a
ROM:048E 29                          add     hl, hl
ROM:048F 17                          rla
ROM:0490 6C                          ld      l, h
ROM:0491 67                          ld      h, a
ROM:0492 22 0C 80                    ld      (bg_scroll_x_shadow), hl
ROM:0495 3A 03 80                    ld      a, (flip_screen_flag)
ROM:0498 A7                          and     a
ROM:0499 3E 00                       ld      a, #0
ROM:049B 28 02                       jr      Z, loc_49F
ROM:049D 3E 00                       ld      a, #0
ROM:049F
ROM:049F             loc_49F:                                ; CODE XREF: ROM:049Bj
ROM:049F 32 0E 80                    ld      (bg_srcoll_y_shadow), a
ROM:04A2 C9                          ret
ROM:04A3
ROM:04A3             ; =============== S U B R O U T I N E =======================================
ROM:04A3
ROM:04A3
ROM:04A3             get_map_row:                            ; CODE XREF: ROM:047Ap
ROM:04A3 2A 10 80                    ld      hl, (scroll_cntr)
ROM:04A6 4C                          ld      c, h
ROM:04A7 3A 14 80                    ld      a, (scroll_delta)
ROM:04AA CF                          rst     HL_plus_equals_2A
ROM:04AB 22 10 80                    ld      (scroll_cntr), hl
ROM:04AE 3A 0F 80                    ld      a, (byte_800F)
ROM:04B1 A7                          and     a
ROM:04B2 C0                          ret     NZ
ROM:04B3 7C                          ld      a, h
ROM:04B4 B9                          cp      c
ROM:04B5 C8                          ret     Z
ROM:04B6 FA BB 04                    jp      M, loc_4BB
ROM:04B9 C6 40                       add     a, #0x40 ; '@'
ROM:04BB
ROM:04BB             loc_4BB:                                ; CODE XREF: get_map_row+13j
ROM:04BB C6 F2                       add     a, #0xF2 ; 'ò'
ROM:04BD 6F                          ld      l, a
ROM:04BE 3A 03 80                    ld      a, (flip_screen_flag)
ROM:04C1 A7                          and     a
ROM:04C2 3A 13 80                    ld      a, (area_offset_in_map)
ROM:04C5 28 02                       jr      Z, loc_4C9
ROM:04C7 C6 FE                       add     a, #0xFE ; 'þ'
ROM:04C9
ROM:04C9             loc_4C9:                                ; CODE XREF: get_map_row+22j
ROM:04C9 C6 FF                       add     a, #0xFF
ROM:04CB 67                          ld      h, a
ROM:04CC 01 B8 20                    ld      bc, #0x20B8
ROM:04CF 16 FE                       ld      d, #0xFE ; 'þ'
ROM:04D1
ROM:04D1             loc_4D1:                                ; CODE XREF: get_map_row+47j
ROM:04D1 5D                          ld      e, l
ROM:04D2 22 00 F0                    ld      (bs_0), hl
ROM:04D5 EB                          ex      de, hl
ROM:04D6 E5                          push    hl
ROM:04D7 CD 38 00                    call    calc_color_video_ram_addr
ROM:04DA 3A 00 F0                    ld      a, (bs_0)
ROM:04DD 77                          ld      (hl), a
ROM:04DE 3E 10                       ld      a, #0x10
ROM:04E0 84                          add     a, h
ROM:04E1 67                          ld      h, a
ROM:04E2 3A 01 F0                    ld      a, (bs_1)
ROM:04E5 77                          ld      (hl), a
ROM:04E6 E1                          pop     hl
ROM:04E7 EB                          ex      de, hl
ROM:04E8 14                          inc     d
ROM:04E9 24                          inc     h
ROM:04EA 10 E5                       djnz    loc_4D1
ROM:04EC C9                          ret
ROM:04EC             ; End of function get_map_row
ROM:04EC
ROM:04ED             ; ---------------------------------------------------------------------------
ROM:04ED
ROM:04ED             _sub_fn_31__update_sprite_shadow:       ; DATA XREF: ROM:03C3o
ROM:04ED 21 00 79                    ld      hl, #obj_state_tbl
ROM:04F0 11 00 83                    ld      de, #spriteram_3_lower_shadow
ROM:04F3 06 40                       ld      b, #0x40 ; '@'
ROM:04F5
ROM:04F5             loc_4F5:                                ; CODE XREF: ROM:04FEj
ROM:04F5 E5                          push    hl
ROM:04F6 CD 01 05                    call    update_sprite_shadow
ROM:04F9 E1                          pop     hl
ROM:04FA 2C                          inc     l
ROM:04FB 2C                          inc     l
ROM:04FC 1C                          inc     e
ROM:04FD 1C                          inc     e
ROM:04FE 10 F5                       djnz    loc_4F5
ROM:0500 C9                          ret
ROM:0501
ROM:0501             ; =============== S U B R O U T I N E =======================================
ROM:0501
ROM:0501
ROM:0501             update_sprite_shadow:                   ; CODE XREF: ROM:04F6p
ROM:0501 7E                          ld      a, (hl)
ROM:0502 3D                          dec     a
ROM:0503 C8                          ret     Z
ROM:0504 E5                          push    hl
ROM:0505 3C                          inc     a
ROM:0506 20 0C                       jr      NZ, loc_514
ROM:0508 4C                          ld      c, h
ROM:0509 24                          inc     h
ROM:050A 77                          ld      (hl), a
ROM:050B 2C                          inc     l
ROM:050C 77                          ld      (hl), a
ROM:050D 24                          inc     h
ROM:050E 77                          ld      (hl), a
ROM:050F 2D                          dec     l
ROM:0510 77                          ld      (hl), a
ROM:0511 3C                          inc     a
ROM:0512 61                          ld      h, c
ROM:0513 77                          ld      (hl), a
ROM:0514
ROM:0514             loc_514:                                ; CODE XREF: update_sprite_shadow+5j
ROM:0514 2C                          inc     l
ROM:0515 4E                          ld      c, (hl)
ROM:0516 79                          ld      a, c
ROM:0517 12                          ld      (de), a
ROM:0518 D5                          push    de
ROM:0519 24                          inc     h
ROM:051A 56                          ld      d, (hl)
ROM:051B 2D                          dec     l
ROM:051C 5E                          ld      e, (hl)
ROM:051D EB                          ex      de, hl
ROM:051E CD 82 05                    call    HL_div_32
ROM:0521 FE 02                       cp      #2
ROM:0523 38 03                       jr      C, loc_528
ROM:0525 21 00 00                    ld      hl, #0
ROM:0528
ROM:0528             loc_528:                                ; CODE XREF: update_sprite_shadow+22j
ROM:0528 CD 58 05                    call    adj_spriteX_for_flip
ROM:052B E5                          push    hl
ROM:052C EB                          ex      de, hl
ROM:052D 24                          inc     h
ROM:052E 5E                          ld      e, (hl)
ROM:052F 2C                          inc     l
ROM:0530 56                          ld      d, (hl)
ROM:0531 EB                          ex      de, hl
ROM:0532 CD 82 05                    call    HL_div_32
ROM:0535 A7                          and     a
ROM:0536 28 02                       jr      Z, loc_53A
ROM:0538 2E 00                       ld      l, #0
ROM:053A
ROM:053A             loc_53A:                                ; CODE XREF: update_sprite_shadow+35j
ROM:053A CD 71 05                    call    adj_spriteY_for_flip
ROM:053D D1                          pop     de
ROM:053E E1                          pop     hl
ROM:053F 2C                          inc     l
ROM:0540 72                          ld      (hl), d
ROM:0541 25                          dec     h
ROM:0542 73                          ld      (hl), e
ROM:0543 2D                          dec     l
ROM:0544 77                          ld      (hl), a
ROM:0545 25                          dec     h
ROM:0546 EB                          ex      de, hl
ROM:0547 E1                          pop     hl
ROM:0548 4C                          ld      c, h
ROM:0549 24                          inc     h
ROM:054A 24                          inc     h
ROM:054B 24                          inc     h
ROM:054C 7E                          ld      a, (hl)
ROM:054D 12                          ld      (de), a
ROM:054E 2C                          inc     l
ROM:054F 1C                          inc     e
ROM:0550 7E                          ld      a, (hl)
ROM:0551 12                          ld      (de), a
ROM:0552 61                          ld      h, c
ROM:0553 2D                          dec     l
ROM:0554 14                          inc     d
ROM:0555 14                          inc     d
ROM:0556 1D                          dec     e
ROM:0557 C9                          ret
ROM:0557             ; End of function update_sprite_shadow
ROM:0557
ROM:0558
ROM:0558             ; =============== S U B R O U T I N E =======================================
ROM:0558
ROM:0558
ROM:0558             adj_spriteX_for_flip:                   ; CODE XREF: update_sprite_shadow:loc_528p
ROM:0558 3A 03 80                    ld      a, (flip_screen_flag)
ROM:055B A7                          and     a
ROM:055C 28 0F                       jr      Z, loc_56D
ROM:055E 3E 48                       ld      a, #0x48 ; 'H'
ROM:0560 CB 41                       bit     0, c
ROM:0562 20 02                       jr      NZ, loc_566
ROM:0564 3E 58                       ld      a, #0x58 ; 'X'
ROM:0566
ROM:0566             loc_566:                                ; CODE XREF: adj_spriteX_for_flip+Aj
ROM:0566 95                          sub     l
ROM:0567 6F                          ld      l, a
ROM:0568 3E 01                       ld      a, #1
ROM:056A 9C                          sbc     a, h
ROM:056B 67                          ld      h, a
ROM:056C C9                          ret
ROM:056D             ; ---------------------------------------------------------------------------
ROM:056D
ROM:056D             loc_56D:                                ; CODE XREF: adj_spriteX_for_flip+4j
ROM:056D 3E 08                       ld      a, #8
ROM:056F D7                          rst     HL_plus_equals_A
ROM:0570 C9                          ret
ROM:0570             ; End of function adj_spriteX_for_flip
ROM:0570
ROM:0571
ROM:0571             ; =============== S U B R O U T I N E =======================================
ROM:0571
ROM:0571
ROM:0571             adj_spriteY_for_flip:                   ; CODE XREF: update_sprite_shadow:loc_53Ap
ROM:0571 3A 03 80                    ld      a, (flip_screen_flag)
ROM:0574 A7                          and     a
ROM:0575 3E EF                       ld      a, #0xEF ; 'ï'
ROM:0577 28 07                       jr      Z, loc_580
ROM:0579 85                          add     a, l
ROM:057A CB 49                       bit     1, c
ROM:057C C0                          ret     NZ
ROM:057D C6 10                       add     a, #0x10
ROM:057F C9                          ret
ROM:0580             ; ---------------------------------------------------------------------------
ROM:0580
ROM:0580             loc_580:                                ; CODE XREF: adj_spriteY_for_flip+6j
ROM:0580 95                          sub     l
ROM:0581 C9                          ret
ROM:0581             ; End of function adj_spriteY_for_flip
ROM:0581
ROM:0582
ROM:0582             ; =============== S U B R O U T I N E =======================================
ROM:0582
ROM:0582
ROM:0582             HL_div_32:                              ; CODE XREF: update_sprite_shadow+1Dp
ROM:0582                                                     ; update_sprite_shadow+31p
ROM:0582 AF                          xor     a
ROM:0583 29                          add     hl, hl
ROM:0584 17                          rla
ROM:0585 29                          add     hl, hl
ROM:0586 17                          rla
ROM:0587 29                          add     hl, hl
ROM:0588 17                          rla
ROM:0589 6C                          ld      l, h
ROM:058A 67                          ld      h, a
ROM:058B C9                          ret
ROM:058B             ; End of function HL_div_32
ROM:058B
ROM:058C             ; ---------------------------------------------------------------------------
ROM:058C
ROM:058C             _sub_2_fn_2__set_flying_enemies:        ; DATA XREF: ROM:01E1o
ROM:058C 0A                          ld      a, (bc)
ROM:058D 03                          inc     bc
ROM:058E
ROM:058E             update_flying_enemies:                  ; CODE XREF: ROM:05BCj
ROM:058E                                                     ; ROM:loc_5CAj
ROM:058E 21 A7 06                    ld      hl, #flying_enemy_type_offset_tbl
ROM:0591 CF                          rst     HL_plus_equals_2A
ROM:0592 7E                          ld      a, (hl)
ROM:0593 32 2B 80                    ld      (num_flying_enemies), a
ROM:0596 23                          inc     hl
ROM:0597 7E                          ld      a, (hl)
ROM:0598 32 2C 80                    ld      (flying_enemy_type_tbl_offset), a
ROM:059B ED 43 85 81                 ld      (area_obj_ptr), bc
ROM:059F C9                          ret
ROM:05A0             ; ---------------------------------------------------------------------------
ROM:05A0
ROM:05A0             _sub_2_fn_3__inc_enemy_AI_and_flying_enemies: ; DATA XREF: ROM:01E3o
ROM:05A0 3A 16 80                    ld      a, (dswb_0115)
ROM:05A3 2F                          cpl
ROM:05A4 07                          rlca
ROM:05A5 07                          rlca
ROM:05A6 07                          rlca
ROM:05A7 E6 03                       and     #3
ROM:05A9 21 D7 05                    ld      hl, #difficulty_tbl
ROM:05AC D7                          rst     HL_plus_equals_A
ROM:05AD 7E                          ld      a, (hl)
ROM:05AE 6F                          ld      l, a
ROM:05AF 3A 88 81                    ld      a, (enemy_AI_level)
ROM:05B2 85                          add     a, l
ROM:05B3 FE 80                       cp      #0x80 ; '€'
ROM:05B5 38 02                       jr      C, loc_5B9
ROM:05B7 D6 40                       sub     #0x40 ; '@'
ROM:05B9
ROM:05B9             loc_5B9:                                ; CODE XREF: ROM:05B5j
ROM:05B9 32 88 81                    ld      (enemy_AI_level), a
ROM:05BC 18 D0                       jr      update_flying_enemies
ROM:05BE             ; ---------------------------------------------------------------------------
ROM:05BE
ROM:05BE             _sub_2_fn_4__set_AI_level_UNUSED:       ; DATA XREF: ROM:01E5o
ROM:05BE 21 88 81                    ld      hl, #enemy_AI_level
ROM:05C1 0A                          ld      a, (bc)
ROM:05C2 86                          add     a, (hl)
ROM:05C3 03                          inc     bc
ROM:05C4 FE 80                       cp      #0x80 ; '€'
ROM:05C6 38 02                       jr      C, loc_5CA
ROM:05C8 D6 40                       sub     #0x40 ; '@'
ROM:05CA
ROM:05CA             loc_5CA:                                ; CODE XREF: ROM:05C6j
ROM:05CA 18 C2                       jr      update_flying_enemies
ROM:05CC             ; ---------------------------------------------------------------------------
ROM:05CC
ROM:05CC             _sub_2_fn_5__reset_flying_enemies:      ; DATA XREF: ROM:01E7o
ROM:05CC 21 00 00                    ld      hl, #0
ROM:05CF 22 2B 80                    ld      (num_flying_enemies), hl
ROM:05D2 ED 43 85 81                 ld      (area_obj_ptr), bc
ROM:05D6 C9                          ret
ROM:05D6             ; ---------------------------------------------------------------------------
ROM:05D7 01 00 02 04 difficulty_tbl: .db 1, 0, 2, 4          ; DATA XREF: ROM:05A9o
ROM:05DB             ; ---------------------------------------------------------------------------
ROM:05DB
ROM:05DB             _sub_2_fn_23__adjust_AI_level_based_on_score: ; DATA XREF: ROM:020Bo
ROM:05DB ED 43 85 81                 ld      (area_obj_ptr), bc
ROM:05DF 2A 81 81                    ld      hl, (curr_player_score_Ks)
ROM:05E2 3A 8B 81                    ld      a, (solvalou_number)
ROM:05E5 CD FB 05                    call    avg_score_per_solvalou
ROM:05E8 11 10 00                    ld      de, #16
ROM:05EB A7                          and     a
ROM:05EC ED 52                       sbc     hl, de
ROM:05EE 19                          add     hl, de
ROM:05EF 38 02                       jr      C, loc_5F3
ROM:05F1 2E 10                       ld      l, #16
ROM:05F3
ROM:05F3             loc_5F3:                                ; CODE XREF: ROM:05EFj
ROM:05F3 3A 88 81                    ld      a, (enemy_AI_level)
ROM:05F6 85                          add     a, l
ROM:05F7 32 88 81                    ld      (enemy_AI_level), a
ROM:05FA C9                          ret
ROM:05FB
ROM:05FB             ; =============== S U B R O U T I N E =======================================
ROM:05FB
ROM:05FB
ROM:05FB             avg_score_per_solvalou:                 ; CODE XREF: ROM:05E5p
ROM:05FB C5                          push    bc
ROM:05FC 4F                          ld      c, a
ROM:05FD AF                          xor     a
ROM:05FE 06 10                       ld      b, #16
ROM:0600
ROM:0600             loc_600:                                ; CODE XREF: avg_score_per_solvalou:loc_609j
ROM:0600 29                          add     hl, hl
ROM:0601 17                          rla
ROM:0602 38 03                       jr      C, loc_607
ROM:0604 B9                          cp      c
ROM:0605 38 02                       jr      C, loc_609
ROM:0607
ROM:0607             loc_607:                                ; CODE XREF: avg_score_per_solvalou+7j
ROM:0607 91                          sub     c
ROM:0608 23                          inc     hl
ROM:0609
ROM:0609             loc_609:                                ; CODE XREF: avg_score_per_solvalou+Aj
ROM:0609 10 F5                       djnz    loc_600
ROM:060B C1                          pop     bc
ROM:060C C9                          ret
ROM:060C             ; End of function avg_score_per_solvalou
ROM:060C
ROM:060D             ; ---------------------------------------------------------------------------
ROM:060D
ROM:060D             _sub_2_fn_8__fire_freq_mask_derota:     ; DATA XREF: ROM:01EDo
ROM:060D 0A                          ld      a, (bc)
ROM:060E 32 A0 81                    ld      (ffreq_mask_derota), a
ROM:0611 03                          inc     bc
ROM:0612 ED 43 85 81                 ld      (area_obj_ptr), bc
ROM:0616 C9                          ret
ROM:0617             ; ---------------------------------------------------------------------------
ROM:0617
ROM:0617             _sub_2_fn_9__fire_freq_mask_logram:     ; DATA XREF: ROM:01EFo
ROM:0617 0A                          ld      a, (bc)
ROM:0618 32 A3 81                    ld      (ffreq_mask_logram), a
ROM:061B 03                          inc     bc
ROM:061C ED 43 85 81                 ld      (area_obj_ptr), bc
ROM:0620 C9                          ret
ROM:0621             ; ---------------------------------------------------------------------------
ROM:0621
ROM:0621             _sub_2_fn_11__fire_freq_mask_zoshi:     ; DATA XREF: ROM:01F3o
ROM:0621 0A                          ld      a, (bc)
ROM:0622 32 A4 81                    ld      (ffreq_mask_zoshi), a
ROM:0625 03                          inc     bc
ROM:0626 ED 43 85 81                 ld      (area_obj_ptr), bc
ROM:062A C9                          ret
ROM:062B             ; ---------------------------------------------------------------------------
ROM:062B
ROM:062B             _sub_2_fn_12__fire_freq_mask_terrazi:   ; DATA XREF: ROM:01F5o
ROM:062B 0A                          ld      a, (bc)
ROM:062C 32 A2 81                    ld      (ffreq_mask_terrazi), a
ROM:062F 03                          inc     bc
ROM:0630 ED 43 85 81                 ld      (area_obj_ptr), bc
ROM:0634 C9                          ret
ROM:0635             ; ---------------------------------------------------------------------------
ROM:0635
ROM:0635             _sub_2_fn_13__fire_freq_mask_kapi:      ; DATA XREF: ROM:01F7o
ROM:0635 0A                          ld      a, (bc)
ROM:0636 32 A1 81                    ld      (ffreq_mask_kapi), a
ROM:0639 03                          inc     bc
ROM:063A ED 43 85 81                 ld      (area_obj_ptr), bc
ROM:063E C9                          ret
ROM:063F             ; ---------------------------------------------------------------------------
ROM:063F
ROM:063F             _sub_2_fn_16__fire_freq_mask_boza_logram: ; DATA XREF: ROM:01FDo
ROM:063F 0A                          ld      a, (bc)
ROM:0640 32 A5 81                    ld      (ffreq_mask_boza_logram), a
ROM:0643 03                          inc     bc
ROM:0644 ED 43 85 81                 ld      (area_obj_ptr), bc
ROM:0648 C9                          ret
ROM:0649             ; ---------------------------------------------------------------------------
ROM:0649
ROM:0649             _sub_2_fn_17__fire_freq_mask_domogram:  ; DATA XREF: ROM:01FFo
ROM:0649 0A                          ld      a, (bc)
ROM:064A 32 A6 81                    ld      (ffreq_mask_domogram), a
ROM:064D 03                          inc     bc
ROM:064E ED 43 85 81                 ld      (area_obj_ptr), bc
ROM:0652 C9                          ret
ROM:0653             ; ---------------------------------------------------------------------------
ROM:0653
ROM:0653             _sub_2_fn_22__fire_freq_mask_andor_genesis: ; DATA XREF: ROM:0209o
ROM:0653 0A                          ld      a, (bc)
ROM:0654 32 A7 81                    ld      (ffreq_mask_andor_genesis), a
ROM:0657 03                          inc     bc
ROM:0658 ED 43 85 81                 ld      (area_obj_ptr), bc
ROM:065C C9                          ret
ROM:065D             ; ---------------------------------------------------------------------------
ROM:065D
ROM:065D             _sub_2_fn_10__gnd_stop_firing_row:      ; DATA XREF: ROM:01F1o
ROM:065D 0A                          ld      a, (bc)
ROM:065E 32 B1 81                    ld      (gnd_stop_firing_row), a
ROM:0661 03                          inc     bc
ROM:0662 ED 43 85 81                 ld      (area_obj_ptr), bc
ROM:0666 C9                          ret
ROM:0666             ; ---------------------------------------------------------------------------
ROM:0667 04 01 03 01+                .db 4, 1, 3, 1, 3, 0x49, 1, 0x39, 6, 0x2D, 6, 0x23, 6, 0x11, 4, 0x2D
ROM:0667 03 49 01 39+                .db 5, 0x23, 3, 0x6C, 3, 0x49, 4, 0x4A, 6, 0xE, 6, 0x4F, 6, 0x26, 6, 0x6C
ROM:0667 06 2D 06 23+                .db 6, 0x11, 3, 0x39, 5, 0x23, 6, 0x49, 6, 0x2F, 3, 0x3C, 6, 1, 6, 0xE
ROM:0667 06 11 04 2D+                .db 1, 0x7A, 2, 0x7A, 4, 0x7A, 6, 0x7A, 4, 0x58, 4, 0x58, 4, 0x58, 4, 0x58
ROM:06A7 03 01 03 01+flying_enemy_type_offset_tbl:.db 3, 1, 3, 1, 4, 1, 3, 3, 3, 5, 4, 3, 4, 4, 4, 5
ROM:06A7 04 01 03 03+                                        ; DATA XREF: ROM:update_flying_enemieso
ROM:06A7 03 05 04 03+                .db 3, 0x17, 5, 4, 4, 0x17, 5, 5, 4, 0x17, 6, 3, 4, 0x17, 6, 4
ROM:06A7 04 04 04 05+                .db 3, 0x1D, 6, 5, 4, 0x1D, 6, 5, 5, 0x17, 4, 0x1D, 5, 0x17, 5, 0x1D
ROM:06A7 03 17 05 04+                .db 4, 0x2D, 5, 0x17, 5, 0x2D, 6, 0x1D, 6, 0x17, 4, 0x20, 6, 0x2D, 3, 0x23
ROM:06A7 04 17 05 05+                .db 3, 0xB, 6, 0x2D, 4, 0xB, 4, 0x23, 3, 0x11, 6, 0x2D, 5, 0xB, 5, 0x23
ROM:06A7 04 17 06 03+                .db 3, 0x40, 6, 0xD, 4, 0x40, 6, 0xB, 6, 0x2D, 5, 0x40, 6, 0x23, 6, 0xE
ROM:06A7 04 17 06 04+                .db 3, 0x62, 4, 0x42, 4, 0x62, 6, 0x14, 6, 0x11, 4, 0x44, 4, 0x62, 6, 0x14
ROM:06A7 03 1D 06 05+                .db 3, 0x33, 4, 0x45, 4, 0x33, 5, 0x62, 3, 0x47, 6, 0x11, 6, 0x14, 6, 0x49
ROM:06A7 04 1D 06 05+                .db 4, 0x4C, 5, 0x33, 6, 0x62, 3, 0x27, 6, 0x56, 6, 0x5C, 6, 0x2D, 5, 0x33
ROM:06A7 05 17 04 1D+                .db 6, 0x62, 6, 5, 6, 0x4C, 5, 0x26, 6, 0x52, 6, 0x33, 6, 0x11, 1, 0x39
ROM:06A7 05 17 05 1D+                .db 6, 0x17, 6, 0x50, 2, 0x39, 6, 0x6E, 6, 0x33, 6, 0x2F, 6, 0x2D, 3, 0x39
ROM:06A7 04 2D 05 17+                .db 6, 5, 6, 0x52, 6, 0x27, 6, 0x60, 3, 0x39, 4, 0x6E, 6, 0x62, 4, 0x70
ROM:06A7 05 2D 06 1D+                .db 3, 0x3C, 2, 0x73, 6, 0x56, 6, 0x50, 6, 0x52, 4, 0x39, 6, 0x26, 6, 0x2D
ROM:06A7 06 17 04 20+                .db 6, 0x33, 6, 5, 4, 0x3C, 5, 0x71, 6, 0x56, 6, 0x74, 6, 0x11, 5, 0x3A
ROM:06A7 06 2D 03 23+                .db 6, 0x17, 6, 0x52, 5, 0x39, 6, 0x50, 6, 0x56, 6, 0x27, 6, 0x2D, 6, 0x6C
ROM:06A7 03 0B 06 2D+                .db 6, 5, 5, 0x3A, 6, 0x65, 5, 0x75, 6, 0x69, 6, 0x2B, 6, 0x35, 6, 0x3A
ROM:07A7             ; ---------------------------------------------------------------------------
ROM:07A7
ROM:07A7             _sub_2_fn_7__reset_num_bacura:          ; DATA XREF: ROM:01EBo
ROM:07A7 AF                          xor     a
ROM:07A8 32 2D 80                    ld      (num_bacura), a
ROM:07AB ED 43 85 81                 ld      (area_obj_ptr), bc
ROM:07AF C9                          ret
ROM:07B0             ; ---------------------------------------------------------------------------
ROM:07B0
ROM:07B0             _sub_2_fn_15__domogram:                 ; DATA XREF: ROM:01FBo
ROM:07B0 26 7F                       ld      h, #0x7F ; ''
ROM:07B2 0A                          ld      a, (bc)
ROM:07B3 6F                          ld      l, a
ROM:07B4 0B                          dec     bc
ROM:07B5 0A                          ld      a, (bc)
ROM:07B6 77                          ld      (hl), a
ROM:07B7 03                          inc     bc
ROM:07B8 03                          inc     bc
ROM:07B9 26 7B                       ld      h, #0x7B ; '{'
ROM:07BB 0A                          ld      a, (bc)
ROM:07BC 0F                          rrca
ROM:07BD 0F                          rrca
ROM:07BE 0F                          rrca
ROM:07BF 5F                          ld      e, a
ROM:07C0 E6 E0                       and     #0xE0 ; 'à'
ROM:07C2 77                          ld      (hl), a
ROM:07C3 2C                          inc     l
ROM:07C4 7B                          ld      a, e
ROM:07C5 E6 1F                       and     #0x1F
ROM:07C7 77                          ld      (hl), a
ROM:07C8 03                          inc     bc
ROM:07C9 26 7D                       ld      h, #0x7D ; '}'
ROM:07CB 0A                          ld      a, (bc)
ROM:07CC 77                          ld      (hl), a
ROM:07CD 03                          inc     bc
ROM:07CE 26 79                       ld      h, #0x79 ; 'y'
ROM:07D0 CB FD                       set     7, l
ROM:07D2 EB                          ex      de, hl
ROM:07D3 60                          ld      h, b
ROM:07D4 69                          ld      l, c
ROM:07D5 CF                          rst     HL_plus_equals_2A
ROM:07D6 22 85 81                    ld      (area_obj_ptr), hl
ROM:07D9 21 80 93                    ld      hl, #domogram_tbl
ROM:07DC 3A 42 80                    ld      a, (next_domogram)
ROM:07DF 87                          add     a, a
ROM:07E0 87                          add     a, a
ROM:07E1 87                          add     a, a
ROM:07E2 D5                          push    de
ROM:07E3 EF                          rst     HL_plus_equals_8A
ROM:07E4 D1                          pop     de
ROM:07E5 EB                          ex      de, hl
ROM:07E6 72                          ld      (hl), d
ROM:07E7 2D                          dec     l
ROM:07E8 73                          ld      (hl), e
ROM:07E9 60                          ld      h, b
ROM:07EA 69                          ld      l, c
ROM:07EB 01 40 00                    ld      bc, #64
ROM:07EE ED B0                       ldir
ROM:07F0 3A 42 80                    ld      a, (next_domogram)
ROM:07F3 3C                          inc     a
ROM:07F4 FE 0C                       cp      #12
ROM:07F6 38 01                       jr      C, loc_7F9
ROM:07F8 AF                          xor     a
ROM:07F9
ROM:07F9             loc_7F9:                                ; CODE XREF: ROM:07F6j
ROM:07F9 32 42 80                    ld      (next_domogram), a
ROM:07FC C9                          ret
ROM:07FD             ; ---------------------------------------------------------------------------
ROM:07FD
ROM:07FD             _sub_2_fn_18__sheonite_start:           ; DATA XREF: ROM:0201o
ROM:07FD 3E 31                       ld      a, #0x31 ; '1'
ROM:07FF 32 7E 7F                    ld      (obj_type_tbl+0x7E), a
ROM:0802 3C                          inc     a
ROM:0803 32 7C 7F                    ld      (obj_type_tbl+0x7C), a
ROM:0806 AF                          xor     a
ROM:0807 32 2E 80                    ld      (byte_802E), a
ROM:080A ED 43 85 81                 ld      (area_obj_ptr), bc
ROM:080E C9                          ret
ROM:080F             ; ---------------------------------------------------------------------------
ROM:080F
ROM:080F             _sub_2_fn_19__sheonite_end:             ; DATA XREF: ROM:0203o
ROM:080F 3E 01                       ld      a, #1
ROM:0811 32 2E 80                    ld      (byte_802E), a
ROM:0814 ED 43 85 81                 ld      (area_obj_ptr), bc
ROM:0818 C9                          ret
ROM:0819             ; ---------------------------------------------------------------------------
ROM:0819
ROM:0819             _sub_2_fn_20__andor_genesis_start:      ; DATA XREF: ROM:0205o
ROM:0819 21 1E 79                    ld      hl, # obj_state_tbl+0x1E
ROM:081C 36 02                       ld      (hl), #2
ROM:081E 2C                          inc     l
ROM:081F 36 00                       ld      (hl), #0
ROM:0821 24                          inc     h
ROM:0822 36 F8                       ld      (hl), #0xF8 ; 'ø'
ROM:0824 24                          inc     h
ROM:0825 36 0E                       ld      (hl), #0xE
ROM:0827 2D                          dec     l
ROM:0828 36 80                       ld      (hl), #0x80 ; '€'
ROM:082A 24                          inc     h
ROM:082B 36 00                       ld      (hl), #0
ROM:082D ED 43 85 81                 ld      (area_obj_ptr), bc
ROM:0831 AF                          xor     a
ROM:0832 32 2F 80                    ld      (andor_genesis_end_flag), a
ROM:0835 21 45 08                    ld      hl, #andor_genesis_data
ROM:0838 11 02 7F                    ld      de, # obj_type_tbl+2
ROM:083B 06 0F                       ld      b, #15
ROM:083D
ROM:083D             loc_83D:                                ; CODE XREF: ROM:0842j
ROM:083D 7E                          ld      a, (hl)
ROM:083E 12                          ld      (de), a
ROM:083F 1C                          inc     e
ROM:0840 1C                          inc     e
ROM:0841 23                          inc     hl
ROM:0842 10 F9                       djnz    loc_83D
ROM:0844 C9                          ret
ROM:0844             ; ---------------------------------------------------------------------------
ROM:0845 41 42 43 44+andor_genesis_data:.db 0x41, 0x42, 0x43, 0x44, 0x45, 0x46, 0x47, 0x48, 0x49
ROM:0845 45 46 47 48+                                        ; DATA XREF: ROM:0835o
ROM:0845 49 52 51 50+                .db 0x52, 0x51, 0x50, 0x4F, 0x4A, 0x4B
ROM:0854             ; ---------------------------------------------------------------------------
ROM:0854
ROM:0854             _sub_2_fn_21__andor_genesis_end:        ; DATA XREF: ROM:0207o
ROM:0854 ED 43 85 81                 ld      (area_obj_ptr), bc
ROM:0858 3E 01                       ld      a, #1
ROM:085A 32 2F 80                    ld      (andor_genesis_end_flag), a
ROM:085D C9                          ret
ROM:085D             ; ---------------------------------------------------------------------------
ROM:085E FF FF FF FF+                .db 0xFF, 0xFF, 0xFF, 0xFF, 0xFF, 0xFF, 0xFF, 0xFF, 0xFF
ROM:085E FF FF FF FF+                .db 0xFF, 0xFF, 0xFF, 0xFF, 0xFF, 0xFF, 0xFF, 0xFF, 0xFF
ROM:085E FF FF FF FF+                .db 0xFF, 0xFF, 0xFF, 0xFF, 0xFF, 0xFF, 0xFF, 0xFF, 0xFF
ROM:085E FF FF FF FF+                .db 0xFF, 0xFF, 0xFF, 0xFF, 0xFF, 0xFF, 0xFF, 0xFF, 0xFF
ROM:085E FF FF FF FF+                .db 0xFF, 0xFF, 0xFF, 0xFF, 0xFF, 0xFF, 0xFF, 0xFF, 0xFF
ROM:085E FF FF FF FF+                .db 0xFF, 0xFF, 0xFF, 0xFF, 0xFF, 0xFF, 0xFF, 0xFF, 0xFF
ROM:085E FF FF FF FF+                .db 0xFF, 0xFF, 0xFF, 0xFF, 0xFF, 0xFF, 0xFF, 0xFF, 0xFF
ROM:085E FF FF FF FF+                .db 0xFF, 0xFF, 0xFF, 0xFF, 0xFF, 0xFF, 0xFF, 0xFF, 0xFF
ROM:085E FF FF FF FF+                .db 0xFF, 0xFF, 0xFF, 0xFF, 0xFF, 0xFF, 0xFF, 0xFF, 0xFF
ROM:085E FF FF FF FF+                .db 0xFF, 0xFF, 0xFF, 0xFF, 0xFF, 0xFF, 0xFF, 0xFF, 0xFF
ROM:085E FF FF FF FF+                .db 0xFF, 0xFF, 0xFF, 0xFF, 0xFF, 0xFF, 0xFF, 0xFF, 0xFF
ROM:085E FF FF FF FF+                .db 0xFF, 0xFF, 0xFF, 0xFF, 0xFF, 0xFF, 0xFF, 0xFF, 0xFF
ROM:085E FF FF FF FF+                .db 0xFF, 0xFF, 0xFF, 0xFF, 0xFF, 0xFF, 0xFF, 0xFF, 0xFF
ROM:085E FF FF FF FF+                .db 0xFF, 0xFF, 0xFF, 0xFF, 0xFF, 0xFF, 0xFF, 0xFF, 0xFF
ROM:085E FF FF FF FF+                .db 0xFF, 0xFF, 0xFF, 0xFF, 0xFF, 0xFF, 0xFF, 0xFF, 0xFF
ROM:085E FF FF FF FF+                .db 0xFF, 0xFF, 0xFF, 0xFF, 0xFF, 0xFF, 0xFF, 0xFF, 0xFF
ROM:085E FF FF FF FF+                .db 0xFF, 0xFF, 0xFF, 0xFF, 0xFF, 0xFF, 0xFF, 0xFF, 0xFF
ROM:085E FF FF FF FF+                .db 0xFF, 0xFF, 0xFF, 0xFF, 0xFF, 0xFF, 0xFF, 0xFF, 0xFF
ROM:085E FF FF FF FF+                .db 0xFF, 0xFF, 0xFF, 0xFF, 0xFF, 0xFF, 0xFF, 0xFF, 0xFF
ROM:085E FF FF FF FF+                .db 0xFF, 0xFF, 0xFF, 0xFF, 0xFF, 0xFF, 0xFF, 0xFF, 0xFF
ROM:085E FF FF FF FF+                .db 0xFF, 0xFF, 0xFF, 0xFF, 0xFF, 0xFF, 0xFF, 0xFF, 0xFF
ROM:085E FF FF FF FF+                .db 0xFF, 0xFF, 0xFF, 0xFF, 0xFF, 0xFF, 0xFF, 0xFF, 0xFF
ROM:085E FF FF FF FF+                .db 0xFF, 0xFF, 0xFF, 0xFF, 0xFF, 0xFF, 0xFF, 0xFF, 0xFF
ROM:085E FF FF FF FF+                .db 0xFF, 0xFF, 0xFF, 0xFF, 0xFF, 0xFF, 0xFF, 0xFF, 0xFF
ROM:085E FF FF FF FF+                .db 0xFF, 0xFF, 0xFF, 0xFF, 0xFF, 0xFF, 0xFF, 0xFF, 0xFF
ROM:085E FF FF FF FF+                .db 0xFF, 0xFF, 0xFF, 0xFF, 0xFF, 0xFF, 0xFF, 0xFF, 0xFF
ROM:085E FF FF FF FF+                .db 0xFF, 0xFF, 0xFF, 0xFF, 0xFF, 0xFF, 0xFF, 0xFF, 0xFF
ROM:085E FF FF FF FF+                .db 0xFF, 0xFF, 0xFF, 0xFF, 0xFF, 0xFF, 0xFF, 0xFF, 0xFF
ROM:085E FF FF FF FF+                .db 0xFF, 0xFF, 0xFF, 0xFF, 0xFF, 0xFF, 0xFF, 0xFF, 0xFF
ROM:085E FF FF FF FF+                .db 0xFF, 0xFF, 0xFF, 0xFF, 0xFF, 0xFF, 0xFF, 0xFF, 0xFF
ROM:085E FF FF FF FF+                .db 0xFF, 0xFF, 0xFF, 0xFF, 0xFF, 0xFF, 0xFF, 0xFF, 0xFF
ROM:085E FF FF FF FF+                .db 0xFF, 0xFF, 0xFF, 0xFF, 0xFF, 0xFF, 0xFF, 0xFF, 0xFF
ROM:085E FF FF FF FF+                .db 0xFF, 0xFF, 0xFF, 0xFF, 0xFF, 0xFF, 0xFF, 0xFF, 0xFF
ROM:085E FF FF FF FF+                .db 0xFF, 0xFF, 0xFF, 0xFF, 0xFF, 0xFF, 0xFF, 0xFF, 0xFF
ROM:085E FF FF FF FF+                .db 0xFF, 0xFF, 0xFF, 0xFF, 0xFF, 0xFF, 0xFF, 0xFF, 0xFF
ROM:085E FF FF FF FF+                .db 0xFF, 0xFF, 0xFF, 0xFF, 0xFF, 0xFF, 0xFF, 0xFF, 0xFF
ROM:085E FF FF FF FF+                .db 0xFF, 0xFF, 0xFF, 0xFF, 0xFF, 0xFF, 0xFF, 0xFF, 0xFF
ROM:085E FF FF FF FF+                .db 0xFF, 0xFF, 0xFF, 0xFF, 0xFF, 0xFF, 0xFF, 0xFF, 0xFF
ROM:085E FF FF FF FF+                .db 0xFF, 0xFF, 0xFF, 0xFF, 0xFF, 0xFF, 0xFF, 0xFF, 0xFF
ROM:085E FF FF FF FF+                .db 0xFF, 0xFF, 0xFF, 0xFF, 0xFF, 0xFF, 0xFF, 0xFF, 0xFF
ROM:085E FF FF FF FF+                .db 0xFF, 0xFF, 0xFF, 0xFF, 0xFF, 0xFF, 0xFF, 0xFF, 0xFF
ROM:085E FF FF FF FF+                .db 0xFF, 0xFF, 0xFF, 0xFF, 0xFF, 0xFF, 0xFF, 0xFF, 0xFF
ROM:085E FF FF FF FF+                .db 0xFF, 0xFF, 0xFF, 0xFF, 0xFF, 0xFF, 0xFF, 0xFF, 0xFF
ROM:085E FF FF FF FF+                .db 0xFF, 0xFF, 0xFF, 0xFF, 0xFF, 0xFF, 0xFF, 0xFF, 0xFF
ROM:085E FF FF FF FF+                .db 0xFF, 0xFF, 0xFF, 0xFF, 0xFF, 0xFF, 0xFF, 0xFF, 0xFF
ROM:085E FF FF FF FF+                .db 0xFF, 0xFF, 0xFF, 0xFF, 0xFF, 0xFF, 0xFF, 0xFF, 0xFF
ROM:085E FF FF FF FF+                .db 0xFF, 0xFF, 0xFF, 0xFF, 0xFF, 0xFF, 0xFF, 0xFF, 0xFF
ROM:085E FF FF FF FF+                .db 0xFF, 0xFF, 0xFF, 0xFF, 0xFF, 0xFF, 0xFF, 0xFF, 0xFF
ROM:085E FF FF FF FF+                .db 0xFF, 0xFF, 0xFF, 0xFF, 0xFF, 0xFF, 0xFF, 0xFF, 0xFF
ROM:085E FF FF FF FF+                .db 0xFF, 0xFF, 0xFF, 0xFF, 0xFF, 0xFF, 0xFF, 0xFF, 0xFF
ROM:085E FF FF FF FF+                .db 0xFF, 0xFF, 0xFF, 0xFF, 0xFF, 0xFF, 0xFF, 0xFF, 0xFF
ROM:085E FF FF FF FF+                .db 0xFF, 0xFF, 0xFF, 0xFF, 0xFF, 0xFF, 0xFF, 0xFF, 0xFF
ROM:085E FF FF FF FF+                .db 0xFF, 0xFF, 0xFF, 0xFF, 0xFF, 0xFF, 0xFF, 0xFF, 0xFF
ROM:085E FF FF FF FF+                .db 0xFF, 0xFF, 0xFF, 0xFF, 0xFF, 0xFF, 0xFF, 0xFF, 0xFF
ROM:085E FF FF FF FF+                .db 0xFF, 0xFF, 0xFF, 0xFF, 0xFF, 0xFF, 0xFF, 0xFF, 0xFF
ROM:085E FF FF FF FF+                .db 0xFF, 0xFF, 0xFF, 0xFF, 0xFF, 0xFF, 0xFF, 0xFF, 0xFF
ROM:085E FF FF FF FF+                .db 0xFF, 0xFF, 0xFF, 0xFF, 0xFF, 0xFF, 0xFF, 0xFF, 0xFF
ROM:085E FF FF FF FF+                .db 0xFF, 0xFF, 0xFF, 0xFF, 0xFF, 0xFF, 0xFF, 0xFF, 0xFF
ROM:085E FF FF FF FF+                .db 0xFF, 0xFF, 0xFF, 0xFF, 0xFF, 0xFF, 0xFF, 0xFF, 0xFF
ROM:085E FF FF FF FF+                .db 0xFF, 0xFF, 0xFF, 0xFF, 0xFF, 0xFF, 0xFF, 0xFF, 0xFF
ROM:085E FF FF FF FF+                .db 0xFF, 0xFF, 0xFF, 0xFF, 0xFF, 0xFF, 0xFF, 0xFF, 0xFF
ROM:085E FF FF FF FF+                .db 0xFF, 0xFF, 0xFF, 0xFF, 0xFF, 0xFF, 0xFF, 0xFF, 0xFF
ROM:085E FF FF FF FF+                .db 0xFF, 0xFF, 0xFF, 0xFF, 0xFF, 0xFF, 0xFF, 0xFF, 0xFF
ROM:085E FF FF FF FF+                .db 0xFF, 0xFF, 0xFF, 0xFF, 0xFF, 0xFF, 0xFF, 0xFF, 0xFF
ROM:085E FF FF FF FF+                .db 0xFF, 0xFF, 0xFF, 0xFF, 0xFF, 0xFF, 0xFF, 0xFF, 0xFF
ROM:085E FF FF FF FF+                .db 0xFF, 0xFF, 0xFF, 0xFF, 0xFF, 0xFF, 0xFF, 0xFF, 0xFF
ROM:085E FF FF FF FF+                .db 0xFF, 0xFF, 0xFF, 0xFF, 0xFF, 0xFF, 0xFF, 0xFF, 0xFF
ROM:085E FF FF FF FF+                .db 0xFF, 0xFF, 0xFF, 0xFF, 0xFF, 0xFF, 0xFF, 0xFF, 0xFF
ROM:085E FF FF FF FF+                .db 0xFF, 0xFF, 0xFF, 0xFF, 0xFF, 0xFF, 0xFF, 0xFF, 0xFF
ROM:085E FF FF FF FF+                .db 0xFF, 0xFF, 0xFF, 0xFF, 0xFF, 0xFF, 0xFF, 0xFF, 0xFF
ROM:085E FF FF FF FF+                .db 0xFF, 0xFF, 0xFF, 0xFF, 0xFF, 0xFF, 0xFF, 0xFF, 0xFF
ROM:085E FF FF FF FF+                .db 0xFF, 0xFF, 0xFF, 0xFF, 0xFF, 0xFF, 0xFF, 0xFF, 0xFF
ROM:085E FF FF FF FF+                .db 0xFF, 0xFF, 0xFF, 0xFF, 0xFF, 0xFF, 0xFF, 0xFF, 0xFF
ROM:085E FF FF FF FF+                .db 0xFF, 0xFF, 0xFF, 0xFF, 0xFF, 0xFF, 0xFF, 0xFF, 0xFF
ROM:085E FF FF FF FF+                .db 0xFF, 0xFF, 0xFF, 0xFF, 0xFF, 0xFF, 0xFF, 0xFF, 0xFF
ROM:085E FF FF FF FF+                .db 0xFF, 0xFF, 0xFF, 0xFF, 0xFF, 0xFF, 0xFF, 0xFF, 0xFF
ROM:085E FF FF FF FF+                .db 0xFF, 0xFF, 0xFF, 0xFF, 0xFF, 0xFF, 0xFF, 0xFF, 0xFF
ROM:085E FF FF FF FF+                .db 0xFF, 0xFF, 0xFF, 0xFF, 0xFF, 0xFF, 0xFF, 0xFF, 0xFF
ROM:085E FF FF FF FF+                .db 0xFF, 0xFF, 0xFF, 0xFF, 0xFF, 0xFF, 0xFF, 0xFF, 0xFF
ROM:085E FF FF FF FF+                .db 0xFF, 0xFF, 0xFF, 0xFF, 0xFF, 0xFF, 0xFF, 0xFF, 0xFF
ROM:085E FF FF FF FF+                .db 0xFF, 0xFF, 0xFF, 0xFF, 0xFF, 0xFF, 0xFF, 0xFF, 0xFF
ROM:085E FF FF FF FF+                .db 0xFF, 0xFF, 0xFF, 0xFF, 0xFF, 0xFF, 0xFF, 0xFF, 0xFF
ROM:085E FF FF FF FF+                .db 0xFF, 0xFF, 0xFF, 0xFF, 0xFF, 0xFF, 0xFF, 0xFF, 0xFF
ROM:085E FF FF FF FF+                .db 0xFF, 0xFF, 0xFF, 0xFF, 0xFF, 0xFF, 0xFF, 0xFF, 0xFF
ROM:085E FF FF FF FF+                .db 0xFF, 0xFF, 0xFF, 0xFF, 0xFF, 0xFF, 0xFF, 0xFF, 0xFF
ROM:085E FF FF FF FF+                .db 0xFF, 0xFF, 0xFF, 0xFF, 0xFF, 0xFF, 0xFF, 0xFF, 0xFF
ROM:085E FF FF FF FF+                .db 0xFF, 0xFF, 0xFF, 0xFF, 0xFF, 0xFF, 0xFF, 0xFF, 0xFF
ROM:085E FF FF FF FF+                .db 0xFF, 0xFF, 0xFF, 0xFF, 0xFF, 0xFF, 0xFF, 0xFF, 0xFF
ROM:085E FF FF FF FF+                .db 0xFF, 0xFF, 0xFF, 0xFF, 0xFF, 0xFF, 0xFF, 0xFF, 0xFF
ROM:085E FF FF FF FF+                .db 0xFF, 0xFF, 0xFF, 0xFF, 0xFF, 0xFF, 0xFF, 0xFF, 0xFF
ROM:085E FF FF FF FF+                .db 0xFF, 0xFF, 0xFF, 0xFF, 0xFF, 0xFF, 0xFF, 0xFF, 0xFF
ROM:085E FF FF FF FF+                .db 0xFF, 0xFF, 0xFF, 0xFF, 0xFF, 0xFF, 0xFF, 0xFF, 0xFF
ROM:085E FF FF FF FF+                .db 0xFF, 0xFF, 0xFF, 0xFF, 0xFF, 0xFF, 0xFF, 0xFF, 0xFF
ROM:085E FF FF FF FF+                .db 0xFF, 0xFF, 0xFF, 0xFF, 0xFF, 0xFF, 0xFF, 0xFF, 0xFF
ROM:085E FF FF FF FF+                .db 0xFF, 0xFF, 0xFF, 0xFF, 0xFF, 0xFF, 0xFF, 0xFF, 0xFF
ROM:085E FF FF FF FF+                .db 0xFF, 0xFF, 0xFF, 0xFF, 0xFF, 0xFF, 0xFF, 0xFF, 0xFF
ROM:085E FF FF FF FF+                .db 0xFF, 0xFF, 0xFF, 0xFF, 0xFF, 0xFF, 0xFF, 0xFF, 0xFF
ROM:085E FF FF FF FF+                .db 0xFF, 0xFF, 0xFF, 0xFF, 0xFF, 0xFF, 0xFF, 0xFF, 0xFF
ROM:085E FF FF FF FF+                .db 0xFF, 0xFF, 0xFF, 0xFF, 0xFF, 0xFF, 0xFF, 0xFF, 0xFF
ROM:085E FF FF FF FF+                .db 0xFF, 0xFF, 0xFF, 0xFF, 0xFF, 0xFF, 0xFF, 0xFF, 0xFF
ROM:085E FF FF FF FF+                .db 0xFF, 0xFF, 0xFF, 0xFF, 0xFF, 0xFF, 0xFF, 0xFF, 0xFF
ROM:085E FF FF FF FF+                .db 0xFF, 0xFF, 0xFF, 0xFF, 0xFF, 0xFF, 0xFF, 0xFF, 0xFF
ROM:085E FF FF FF FF+                .db 0xFF, 0xFF, 0xFF, 0xFF, 0xFF, 0xFF, 0xFF, 0xFF, 0xFF
ROM:085E FF FF FF FF+                .db 0xFF, 0xFF, 0xFF, 0xFF, 0xFF, 0xFF, 0xFF, 0xFF, 0xFF
ROM:085E FF FF FF FF+                .db 0xFF, 0xFF, 0xFF, 0xFF, 0xFF, 0xFF, 0xFF, 0xFF, 0xFF
ROM:085E FF FF FF FF+                .db 0xFF, 0xFF, 0xFF, 0xFF, 0xFF, 0xFF, 0xFF, 0xFF, 0xFF
ROM:085E FF FF FF FF+                .db 0xFF, 0xFF, 0xFF, 0xFF, 0xFF, 0xFF, 0xFF, 0xFF, 0xFF
ROM:085E FF FF FF FF+                .db 0xFF, 0xFF, 0xFF, 0xFF, 0xFF, 0xFF, 0xFF, 0xFF, 0xFF
ROM:085E FF FF FF FF+                .db 0xFF, 0xFF, 0xFF, 0xFF, 0xFF, 0xFF, 0xFF, 0xFF, 0xFF
ROM:085E FF FF FF FF+                .db 0xFF, 0xFF, 0xFF, 0xFF, 0xFF, 0xFF, 0xFF, 0xFF, 0xFF
ROM:085E FF FF FF FF+                .db 0xFF, 0xFF, 0xFF, 0xFF, 0xFF, 0xFF, 0xFF, 0xFF, 0xFF
ROM:085E FF FF FF FF+                .db 0xFF, 0xFF, 0xFF, 0xFF, 0xFF, 0xFF, 0xFF, 0xFF, 0xFF
ROM:085E FF FF FF FF+                .db 0xFF, 0xFF, 0xFF, 0xFF, 0xFF, 0xFF, 0xFF, 0xFF, 0xFF
ROM:085E FF FF FF FF+                .db 0xFF, 0xFF, 0xFF, 0xFF, 0xFF, 0xFF, 0xFF, 0xFF, 0xFF
ROM:085E FF FF FF FF+                .db 0xFF, 0xFF, 0xFF, 0xFF, 0xFF, 0xFF, 0xFF, 0xFF, 0xFF
ROM:085E FF FF FF FF+                .db 0xFF, 0xFF, 0xFF, 0xFF, 0xFF, 0xFF, 0xFF, 0xFF, 0xFF
ROM:085E FF FF FF FF+                .db 0xFF, 0xFF, 0xFF, 0xFF, 0xFF, 0xFF, 0xFF, 0xFF, 0xFF
ROM:085E FF FF FF FF+                .db 0xFF, 0xFF, 0xFF, 0xFF, 0xFF, 0xFF, 0xFF, 0xFF, 0xFF
ROM:085E FF FF FF FF+                .db 0xFF, 0xFF, 0xFF, 0xFF, 0xFF, 0xFF, 0xFF, 0xFF, 0xFF
ROM:085E FF FF FF FF+                .db 0xFF, 0xFF, 0xFF, 0xFF, 0xFF, 0xFF, 0xFF, 0xFF, 0xFF
ROM:085E FF FF FF FF+                .db 0xFF, 0xFF, 0xFF, 0xFF, 0xFF, 0xFF, 0xFF, 0xFF, 0xFF
ROM:085E FF FF FF FF+                .db 0xFF, 0xFF, 0xFF, 0xFF, 0xFF, 0xFF, 0xFF, 0xFF, 0xFF
ROM:085E FF FF FF FF+                .db 0xFF, 0xFF, 0xFF, 0xFF, 0xFF, 0xFF, 0xFF, 0xFF, 0xFF
ROM:085E FF FF FF FF+                .db 0xFF, 0xFF, 0xFF, 0xFF, 0xFF, 0xFF, 0xFF, 0xFF, 0xFF
ROM:085E FF FF FF FF+                .db 0xFF, 0xFF, 0xFF, 0xFF, 0xFF, 0xFF, 0xFF, 0xFF, 0xFF
ROM:085E FF FF FF FF+                .db 0xFF, 0xFF, 0xFF, 0xFF, 0xFF, 0xFF, 0xFF, 0xFF, 0xFF
ROM:085E FF FF FF FF+                .db 0xFF, 0xFF, 0xFF, 0xFF, 0xFF, 0xFF, 0xFF, 0xFF, 0xFF
ROM:085E FF FF FF FF+                .db 0xFF, 0xFF, 0xFF, 0xFF, 0xFF, 0xFF, 0xFF, 0xFF, 0xFF
ROM:085E FF FF FF FF+                .db 0xFF, 0xFF, 0xFF, 0xFF, 0xFF, 0xFF, 0xFF, 0xFF, 0xFF
ROM:085E FF FF FF FF+                .db 0xFF, 0xFF, 0xFF, 0xFF, 0xFF, 0xFF, 0xFF, 0xFF, 0xFF
ROM:085E FF FF FF FF+                .db 0xFF, 0xFF, 0xFF, 0xFF, 0xFF, 0xFF, 0xFF, 0xFF, 0xFF
ROM:085E FF FF FF FF+                .db 0xFF, 0xFF, 0xFF, 0xFF, 0xFF, 0xFF, 0xFF, 0xFF, 0xFF
ROM:085E FF FF FF FF+                .db 0xFF, 0xFF, 0xFF, 0xFF, 0xFF, 0xFF, 0xFF, 0xFF, 0xFF
ROM:085E FF FF FF FF+                .db 0xFF, 0xFF, 0xFF, 0xFF, 0xFF, 0xFF, 0xFF, 0xFF, 0xFF
ROM:085E FF FF FF FF+                .db 0xFF, 0xFF, 0xFF, 0xFF, 0xFF, 0xFF, 0xFF, 0xFF, 0xFF
ROM:085E FF FF FF FF+                .db 0xFF, 0xFF, 0xFF, 0xFF, 0xFF, 0xFF, 0xFF, 0xFF, 0xFF
ROM:085E FF FF FF FF+                .db 0xFF, 0xFF, 0xFF, 0xFF, 0xFF, 0xFF, 0xFF, 0xFF, 0xFF
ROM:085E FF FF FF FF+                .db 0xFF, 0xFF, 0xFF, 0xFF, 0xFF, 0xFF, 0xFF, 0xFF, 0xFF
ROM:085E FF FF FF FF+                .db 0xFF, 0xFF, 0xFF, 0xFF, 0xFF, 0xFF, 0xFF, 0xFF, 0xFF
ROM:085E FF FF FF FF+                .db 0xFF, 0xFF, 0xFF, 0xFF, 0xFF, 0xFF, 0xFF, 0xFF, 0xFF
ROM:085E FF FF FF FF+                .db 0xFF, 0xFF, 0xFF, 0xFF, 0xFF, 0xFF, 0xFF, 0xFF, 0xFF
ROM:085E FF FF FF FF+                .db 0xFF, 0xFF, 0xFF, 0xFF, 0xFF, 0xFF, 0xFF, 0xFF, 0xFF
ROM:085E FF FF FF FF+                .db 0xFF, 0xFF, 0xFF, 0xFF, 0xFF, 0xFF, 0xFF, 0xFF, 0xFF
ROM:085E FF FF FF FF+                .db 0xFF, 0xFF, 0xFF, 0xFF, 0xFF, 0xFF, 0xFF, 0xFF, 0xFF
ROM:085E FF FF FF FF+                .db 0xFF, 0xFF, 0xFF, 0xFF, 0xFF, 0xFF, 0xFF, 0xFF, 0xFF
ROM:085E FF FF FF FF+                .db 0xFF, 0xFF, 0xFF, 0xFF, 0xFF, 0xFF, 0xFF, 0xFF, 0xFF
ROM:085E FF FF FF FF+                .db 0xFF, 0xFF, 0xFF, 0xFF, 0xFF, 0xFF, 0xFF, 0xFF, 0xFF
ROM:085E FF FF FF FF+                .db 0xFF, 0xFF, 0xFF, 0xFF, 0xFF, 0xFF, 0xFF, 0xFF, 0xFF
ROM:085E FF FF FF FF+                .db 0xFF, 0xFF, 0xFF, 0xFF, 0xFF, 0xFF, 0xFF, 0xFF, 0xFF
ROM:085E FF FF FF FF+                .db 0xFF, 0xFF, 0xFF, 0xFF, 0xFF, 0xFF, 0xFF, 0xFF, 0xFF
ROM:085E FF FF FF FF+                .db 0xFF, 0xFF, 0xFF, 0xFF, 0xFF, 0xFF, 0xFF, 0xFF, 0xFF
ROM:085E FF FF FF FF+                .db 0xFF, 0xFF, 0xFF, 0xFF, 0xFF, 0xFF, 0xFF, 0xFF, 0xFF
ROM:085E FF FF FF FF+                .db 0xFF, 0xFF, 0xFF, 0xFF, 0xFF, 0xFF, 0xFF, 0xFF, 0xFF
ROM:085E FF FF FF FF+                .db 0xFF, 0xFF, 0xFF, 0xFF, 0xFF, 0xFF, 0xFF, 0xFF, 0xFF
ROM:085E FF FF FF FF+                .db 0xFF, 0xFF, 0xFF, 0xFF, 0xFF, 0xFF, 0xFF, 0xFF, 0xFF
ROM:085E FF FF FF FF+                .db 0xFF, 0xFF, 0xFF, 0xFF, 0xFF, 0xFF, 0xFF, 0xFF, 0xFF
ROM:085E FF FF FF FF+                .db 0xFF, 0xFF, 0xFF, 0xFF, 0xFF, 0xFF, 0xFF, 0xFF, 0xFF
ROM:085E FF FF FF FF+                .db 0xFF, 0xFF, 0xFF, 0xFF, 0xFF, 0xFF, 0xFF, 0xFF, 0xFF
ROM:085E FF FF FF FF+                .db 0xFF, 0xFF, 0xFF, 0xFF, 0xFF, 0xFF, 0xFF, 0xFF, 0xFF
ROM:085E FF FF FF FF+                .db 0xFF, 0xFF, 0xFF, 0xFF, 0xFF, 0xFF, 0xFF, 0xFF, 0xFF
ROM:085E FF FF FF FF+                .db 0xFF, 0xFF, 0xFF, 0xFF, 0xFF, 0xFF, 0xFF, 0xFF, 0xFF
ROM:085E FF FF FF FF+                .db 0xFF, 0xFF, 0xFF, 0xFF, 0xFF, 0xFF, 0xFF, 0xFF, 0xFF
ROM:085E FF FF FF FF+                .db 0xFF, 0xFF, 0xFF, 0xFF, 0xFF, 0xFF, 0xFF, 0xFF, 0xFF
ROM:085E FF FF FF FF+                .db 0xFF, 0xFF, 0xFF, 0xFF, 0xFF, 0xFF, 0xFF, 0xFF, 0xFF
ROM:085E FF FF FF FF+                .db 0xFF, 0xFF, 0xFF, 0xFF, 0xFF, 0xFF, 0xFF, 0xFF, 0xFF
ROM:085E FF FF FF FF+                .db 0xFF, 0xFF, 0xFF, 0xFF, 0xFF, 0xFF, 0xFF, 0xFF, 0xFF
ROM:085E FF FF FF FF+                .db 0xFF, 0xFF, 0xFF, 0xFF, 0xFF, 0xFF, 0xFF, 0xFF, 0xFF
ROM:085E FF FF FF FF+                .db 0xFF, 0xFF, 0xFF, 0xFF, 0xFF, 0xFF, 0xFF, 0xFF, 0xFF
ROM:085E FF FF FF FF+                .db 0xFF, 0xFF, 0xFF, 0xFF, 0xFF, 0xFF, 0xFF, 0xFF, 0xFF
ROM:085E FF FF FF FF+                .db 0xFF, 0xFF, 0xFF, 0xFF, 0xFF, 0xFF, 0xFF, 0xFF, 0xFF
ROM:085E FF FF FF FF+                .db 0xFF, 0xFF, 0xFF, 0xFF, 0xFF, 0xFF, 0xFF, 0xFF, 0xFF
ROM:085E FF FF FF FF+                .db 0xFF, 0xFF, 0xFF, 0xFF, 0xFF, 0xFF, 0xFF, 0xFF, 0xFF
ROM:085E FF FF FF FF+                .db 0xFF, 0xFF, 0xFF, 0xFF, 0xFF, 0xFF, 0xFF, 0xFF, 0xFF
ROM:085E FF FF FF FF+                .db 0xFF, 0xFF, 0xFF, 0xFF, 0xFF, 0xFF, 0xFF, 0xFF, 0xFF
ROM:085E FF FF FF FF+                .db 0xFF, 0xFF, 0xFF, 0xFF, 0xFF, 0xFF, 0xFF, 0xFF, 0xFF
ROM:085E FF FF FF FF+                .db 0xFF, 0xFF, 0xFF, 0xFF, 0xFF, 0xFF, 0xFF, 0xFF, 0xFF
ROM:085E FF FF FF FF+                .db 0xFF, 0xFF, 0xFF, 0xFF, 0xFF, 0xFF, 0xFF, 0xFF, 0xFF
ROM:085E FF FF FF FF+                .db 0xFF, 0xFF, 0xFF, 0xFF, 0xFF, 0xFF, 0xFF, 0xFF, 0xFF
ROM:085E FF FF FF FF+                .db 0xFF, 0xFF, 0xFF, 0xFF, 0xFF, 0xFF, 0xFF, 0xFF, 0xFF
ROM:085E FF FF FF FF+                .db 0xFF, 0xFF, 0xFF, 0xFF, 0xFF, 0xFF, 0xFF, 0xFF, 0xFF
ROM:085E FF FF FF FF+                .db 0xFF, 0xFF, 0xFF, 0xFF, 0xFF, 0xFF, 0xFF, 0xFF, 0xFF
ROM:085E FF FF FF FF+                .db 0xFF, 0xFF, 0xFF, 0xFF, 0xFF, 0xFF, 0xFF, 0xFF, 0xFF
ROM:085E FF FF FF FF+                .db 0xFF, 0xFF, 0xFF, 0xFF, 0xFF, 0xFF, 0xFF, 0xFF, 0xFF
ROM:085E FF FF FF FF+                .db 0xFF, 0xFF, 0xFF, 0xFF, 0xFF, 0xFF, 0xFF, 0xFF, 0xFF
ROM:085E FF FF FF FF+                .db 0xFF, 0xFF, 0xFF, 0xFF, 0xFF, 0xFF, 0xFF, 0xFF, 0xFF
ROM:085E FF FF FF FF+                .db 0xFF, 0xFF, 0xFF, 0xFF, 0xFF, 0xFF, 0xFF, 0xFF, 0xFF
ROM:085E FF FF FF FF+                .db 0xFF, 0xFF, 0xFF, 0xFF, 0xFF, 0xFF, 0xFF, 0xFF, 0xFF
ROM:085E FF FF FF FF+                .db 0xFF, 0xFF, 0xFF, 0xFF, 0xFF, 0xFF, 0xFF, 0xFF, 0xFF
ROM:085E FF FF FF FF+                .db 0xFF, 0xFF, 0xFF, 0xFF, 0xFF, 0xFF, 0xFF, 0xFF, 0xFF
ROM:085E FF FF FF FF+                .db 0xFF, 0xFF, 0xFF, 0xFF, 0xFF, 0xFF, 0xFF, 0xFF, 0xFF
ROM:085E FF FF FF FF+                .db 0xFF, 0xFF, 0xFF, 0xFF, 0xFF, 0xFF, 0xFF, 0xFF, 0xFF
ROM:085E FF FF FF FF+                .db 0xFF, 0xFF, 0xFF, 0xFF, 0xFF, 0xFF, 0xFF, 0xFF, 0xFF
ROM:085E FF FF FF FF+                .db 0xFF, 0xFF, 0xFF, 0xFF, 0xFF, 0xFF, 0xFF, 0xFF, 0xFF
ROM:085E FF FF FF FF+                .db 0xFF, 0xFF, 0xFF, 0xFF, 0xFF, 0xFF, 0xFF, 0xFF, 0xFF
ROM:085E FF FF FF FF+                .db 0xFF, 0xFF, 0xFF, 0xFF, 0xFF, 0xFF, 0xFF, 0xFF, 0xFF
ROM:085E FF FF FF FF+                .db 0xFF, 0xFF, 0xFF, 0xFF, 0xFF, 0xFF, 0xFF, 0xFF, 0xFF
ROM:085E FF FF FF FF+                .db 0xFF, 0xFF, 0xFF, 0xFF, 0xFF, 0xFF, 0xFF, 0xFF, 0xFF
ROM:085E FF FF FF FF+                .db 0xFF, 0xFF, 0xFF, 0xFF, 0xFF, 0xFF, 0xFF, 0xFF, 0xFF
ROM:085E FF FF FF FF+                .db 0xFF, 0xFF, 0xFF, 0xFF, 0xFF, 0xFF, 0xFF, 0xFF, 0xFF
ROM:085E FF FF FF FF+                .db 0xFF, 0xFF, 0xFF, 0xFF, 0xFF, 0xFF, 0xFF, 0xFF, 0xFF
ROM:085E FF FF FF FF+                .db 0xFF, 0xFF, 0xFF, 0xFF, 0xFF, 0xFF, 0xFF, 0xFF, 0xFF
ROM:085E FF FF FF FF+                .db 0xFF, 0xFF, 0xFF, 0xFF, 0xFF, 0xFF, 0xFF, 0xFF, 0xFF
ROM:085E FF FF FF FF+                .db 0xFF, 0xFF, 0xFF, 0xFF, 0xFF, 0xFF, 0xFF, 0xFF, 0xFF
ROM:085E FF FF FF FF+                .db 0xFF, 0xFF, 0xFF, 0xFF, 0xFF, 0xFF, 0xFF, 0xFF, 0xFF
ROM:085E FF FF FF FF+                .db 0xFF, 0xFF, 0xFF, 0xFF, 0xFF, 0xFF, 0xFF, 0xFF, 0xFF
ROM:085E FF FF FF FF+                .db 0xFF, 0xFF, 0xFF, 0xFF, 0xFF, 0xFF, 0xFF, 0xFF, 0xFF
ROM:085E FF FF FF FF+                .db 0xFF, 0xFF, 0xFF, 0xFF, 0xFF, 0xFF, 0xFF, 0xFF, 0xFF
ROM:085E FF FF FF FF+                .db 0xFF, 0xFF, 0xFF, 0xFF, 0xFF, 0xFF, 0xFF, 0xFF, 0xFF
ROM:085E FF FF FF FF+                .db 0xFF, 0xFF, 0xFF, 0xFF, 0xFF, 0xFF, 0xFF, 0xFF, 0xFF
ROM:085E FF FF FF FF+                .db 0xFF, 0xFF, 0xFF, 0xFF, 0xFF, 0xFF, 0xFF, 0xFF, 0xFF
ROM:085E FF FF FF FF+                .db 0xFF, 0xFF, 0xFF, 0xFF, 0xFF, 0xFF, 0xFF, 0xFF, 0xFF
ROM:085E FF FF FF FF+                .db 0xFF, 0xFF, 0xFF, 0xFF, 0xFF, 0xFF, 0xFF, 0xFF, 0xFF
ROM:085E FF FF FF FF+                .db 0xFF, 0xFF, 0xFF, 0xFF, 0xFF, 0xFF, 0xFF, 0xFF, 0xFF
ROM:085E FF FF FF FF+                .db 0xFF, 0xFF, 0xFF, 0xFF, 0xFF, 0xFF, 0xFF, 0xFF, 0xFF
ROM:085E FF FF FF FF+                .db 0xFF, 0xFF, 0xFF, 0xFF, 0xFF, 0xFF, 0xFF, 0xFF, 0xFF
ROM:085E FF FF FF FF+                .db 0xFF, 0xFF, 0xFF, 0xFF, 0xFF, 0xFF, 0xFF, 0xFF, 0xFF
ROM:085E FF FF FF FF+                .db 0xFF, 0xFF, 0xFF, 0xFF, 0xFF, 0xFF, 0xFF, 0xFF
ROM:0FFE 00          fake_rom1_cksum:.db 0                   ; DATA XREF: ROM:STARTr
ROM:0FFF FF                          .db 0xFF
ROM:1000 20 10       area_object_tbl_tbl:.dw area_1_obj_tbl  ; DATA XREF: ROM:033Do
ROM:1002 C6 10                       .dw area_2_obj_tbl
ROM:1004 AF 11                       .dw area_3_obj_tbl
ROM:1006 3D 12                       .dw area_4_obj_tbl
ROM:1008 CD 12                       .dw area_5_obj_tbl
ROM:100A A8 13                       .dw area_6_obj_tbl
ROM:100C 90 14                       .dw area_7_obj_tbl
ROM:100E 59 15                       .dw area_8_obj_tbl
ROM:1010 C1 16                       .dw area_9_obj_tbl
ROM:1012 0A 17                       .dw area_10_obj_tbl
ROM:1014 6A 18                       .dw area_11_obj_tbl
ROM:1016 51 19                       .dw area_12_obj_tbl
ROM:1018 AF 1A                       .dw area_13_obj_tbl
ROM:101A 5E 1B                       .dw area_14_obj_tbl
ROM:101C AD 1B                       .dw area_15_obj_tbl
ROM:101E 36 1D                       .dw area_16_obj_tbl
ROM:1020 0C 53 00 0C+area_1_obj_tbl: .db 0xC, 0x53, 0, 0xC, 0xFF, 0x24, 0xF, 0xFF, 0x25, 0xFF
ROM:1020 FF 24 0F FF+                                        ; DATA XREF: ROM:area_object_tbl_tblo
ROM:1020 25 FF FF 28+                .db 0xFF, 0x28, 0x12, 0xFF, 0x29, 0x1F, 0xFE, 0x2A, 7
ROM:1020 12 FF 29 1F+                .db 0xFE, 0x2F, 0x1F, 0xFE, 0x30, 0x1F, 0xFE, 0x2B, 7
ROM:1020 FE 2A 07 FE+                .db 0xFD, 3, 0xEB, 3, 0xD7, 3, 0xD6, 0x1E, 4, 0x80, 0xD6
ROM:1020 2F 1F FE 30+                .db 0x1F, 6, 0x70, 0xC3, 5, 0xB7, 3, 0xB6, 0x1E, 8, 0x80
ROM:1020 1F FE 2B 07+                .db 0xB6, 0x26, 0xA, 0x70, 0xAB, 0x1E, 0xC, 0x58, 0xA9
ROM:1020 FD 03 EB 03+                .db 0x26, 0xE, 0x58, 0xA1, 0x1F, 0x10, 0x40, 0x9F, 0x26
ROM:1020 D7 03 D6 1E+                .db 0x12, 0x50, 0x9F, 5, 0x9B, 0x57, 0x93, 3, 0x83, 3
ROM:1020 04 80 D6 1F+                .db 0x7A, 0x26, 0x14, 0x70, 0x78, 0x1F, 0x16, 0x70, 0x73
ROM:1020 06 70 C3 05+                .db 3, 0x61, 0x2C, 0x18, 0x5A, 0x60, 0x25, 0x1F, 0x5F
ROM:1020 B7 03 B6 1E+                .db 0x57, 0x5E, 0x2C, 0x1A, 0x5A, 0x5D, 0x1D, 0x1C, 0x20
ROM:1020 08 80 B6 26+                .db 0x5B, 0x2C, 0x1E, 0x5A, 0x5B, 3, 0x53, 3, 0x47, 3
ROM:1020 0A 70 AB 1E+                .db 0x44, 0x54, 0, 0x3C, 0x1E, 4, 0x60, 0x3C, 0x26, 6
ROM:1020 0C 58 A9 26+                .db 0x70, 0x3B, 2, 0xE0, 0x27, 0x1F, 8, 0x28, 0x25, 0x26
ROM:1020 0E 58 A1 1F+                .db 0xA, 0x38, 0x23, 0x1F, 0xC, 0x48, 0x23, 0x26, 0xE
ROM:1020 10 40 9F 26+                .db 0xC0, 0x21, 0x26, 0x10, 0x58, 0x1F, 0x1F, 0x12, 0x68
ROM:1020 12 50 9F 05+                .db 0x17, 5, 0x17, 0x1D, 0x14, 0x20, 0x16, 0x57, 0x15
ROM:1020 9B 57 93 03+                .db 0x2D, 0x16, 0x68, 0xD
ROM:10C6 FF 02 E1 EF+area_2_obj_tbl: .db 0xFF, 2, 0xE1, 0xEF, 5, 0xE7, 0x2E, 4, 0x9C, 3, 0x40
ROM:10C6 05 E7 2E 04+                                        ; DATA XREF: ROM:1002o
ROM:10C6 9C 03 40 00+                .db 0, 0x38, 0x1C, 0xFF, 0x18, 0xDD, 0x26, 6, 0x70, 0xDD
ROM:10C6 38 1C FF 18+                .db 0x1E, 8, 0x60, 0xD3, 0x1F, 0xA, 0xD0, 0xD3, 0x26, 0xC
ROM:10C6 DD 26 06 70+                .db 0xC0, 0xC9, 0x26, 0xE, 0x70, 0xC9, 0x26, 0x10, 0x60
ROM:10C6 DD 1E 08 60+                .db 0xC3, 3, 0xBB, 0x2E, 0x12, 0x94, 3, 0x68, 0, 0x20
ROM:10C6 D3 1F 0A D0+                .db 2, 0xFF, 0, 0xB3, 0x26, 0x14, 0x68, 0xB3, 5, 0xA7
ROM:10C6 D3 26 0C C0+                .db 0x2E, 0x16, 0x94, 3, 0x58, 0, 0xC0, 0x18, 0xFF, 0
ROM:10C6 C9 26 0E 70+                .db 0xA3, 0x26, 0x18, 0x70, 0xA3, 0x1F, 0x1A, 0x60, 0xA3
ROM:10C6 C9 26 10 60+                .db 3, 0x95, 0x26, 0x1C, 0x68, 0x93, 3, 0x83, 5, 0x79
ROM:10C6 C3 03 BB 2E+                .db 0x1F, 0x1E, 0xD0, 0x6F, 0x26, 4, 0x70, 0x6F, 0x1F
ROM:10C6 12 94 03 68+                .db 6, 0x60, 0x6D, 0x1F, 8, 0x70, 0x6D, 0x26, 0xA, 0x60
ROM:10C6 00 20 02 FF+                .db 0x67, 0x1D, 0xC, 0x80, 0x67, 0x2E, 0xE, 0xD8, 4, 0x48
ROM:10C6 00 B3 26 14+                .db 0x1C, 0x50, 0, 0x20, 0x1C, 0xFF, 0, 0x5B, 3, 0x4B
ROM:10C6 68 B3 05 A7+                .db 5, 0x47, 0x2E, 0x10, 0xA4, 4, 8, 0, 0x50, 8, 0x60
ROM:10C6 2E 16 94 03+                .db 0, 0xC0, 2, 0x44, 0x2E, 0x12, 0x34, 3, 0x78, 0, 0xA8
ROM:10C6 58 00 C0 18+                .db 4, 0xC0, 6, 0x3E, 0x1D, 0x14, 0x20, 0x39, 0x1F, 0x16
ROM:10C6 FF 00 A3 26+                .db 0xD0, 0x39, 0x26, 0x18, 0xC0, 0x34, 0x57, 0x33, 3
ROM:10C6 18 70 A3 1F+                .db 0x27, 0x1E, 0x1A, 0x90, 0x25, 0x1F, 0x1C, 0x80, 0x25
ROM:10C6 1A 60 A3 03+                .db 0x2E, 0x1E, 0x60, 2, 0x90, 4, 0xC0, 8, 0x23, 0x1E
ROM:10C6 95 26 1C 68+                .db 4, 0x70, 0x23, 5, 0x21, 0x1F, 6, 0x60, 0x1F, 0x1E
ROM:10C6 93 03 83 05+                .db 8, 0x50, 0x1C, 0x28, 0x1A, 0x1B, 2, 0xE1, 0x17, 0x26
ROM:10C6 79 1F 1E D0+                .db 0xA, 0xA0, 0x17, 0x26, 0xC, 0x90, 0x15, 5, 0x13, 0x1F
ROM:10C6 6F 26 04 70+                .db 0xE, 0xB0, 0x13, 0x1B, 0x10, 0xA0, 0x13, 0x1B, 0x12
ROM:10C6 6F 1F 06 60+                .db 0x90, 0x13, 0x1F, 0x14, 0x80, 0xD
ROM:11AF FF 22 04 FF+area_3_obj_tbl: .db 0xFF, 0x22, 4, 0xFF, 0x28, 0x16, 0xEF, 0x1F, 0x16
ROM:11AF 28 16 EF 1F+                                        ; DATA XREF: ROM:1004o
ROM:11AF 16 40 E4 22+                .db 0x40, 0xE4, 0x22, 2, 0xBD, 0x26, 0x18, 0xA0, 0xBB
ROM:11AF 02 BD 26 18+                .db 0x1F, 0x1A, 0xA0, 0xB8, 0x22, 2, 0xA3, 0x20, 0x1C
ROM:11AF A0 BB 1F 1A+                .db 0xC0, 0x9B, 0x1D, 4, 0xE0, 0x93, 0xF, 0x74, 0x91, 0x26
ROM:11AF A0 B8 22 02+                .db 6, 0x80, 0x8F, 0x1E, 8, 0x80, 0x87, 0x1E, 0xA, 0x90
ROM:11AF A3 20 1C C0+                .db 0x87, 0x1F, 0xC, 0x80, 0x83, 0x23, 0x83, 0x57, 0x7B
ROM:11AF 9B 1D 04 E0+                .db 3, 0x6B, 0x1F, 0xE, 0xD0, 0x6B, 0x26, 0x10, 0xA0, 0x63
ROM:11AF 93 0F 74 91+                .db 5, 0x63, 0x26, 0x12, 0x60, 0x5B, 0x1F, 0x14, 0x60
ROM:11AF 26 06 80 8F+                .db 0x57, 0x36, 0x16, 0x78, 0x57, 3, 0x4B, 0x57, 0x49
ROM:11AF 1E 08 80 87+                .db 0x1F, 0x18, 0xD0, 0x49, 0x26, 0x1A, 0xA0, 0x43, 3
ROM:11AF 1E 0A 90 87+                .db 0x43, 0x54, 0, 0x36, 0x1E, 0x1C, 0xC0, 0x36, 0x26
ROM:11AF 1F 0C 80 83+                .db 0x1E, 0xA8, 0x36, 0x1F, 4, 0x90, 0x36, 0x1E, 6, 0x78
ROM:11AF 23 83 57 7B+                .db 0x2C, 0x1F, 8, 0x90, 0x2B, 5, 0x1F, 0x1F, 0xA, 0x80
ROM:11AF 03 6B 1F 0E+                .db 0x1F, 0x26, 0xC, 0x60, 0x1F, 0x1F, 0xE, 0x40, 0x18
ROM:11AF D0 6B 26 10+                .db 0x24, 3, 0x17, 0x21, 0x10, 0x60, 0x17, 0x1D, 0x14
ROM:11AF A0 63 05 63+                .db 0xE0, 0xD
ROM:123D FF 02 E1 F0+area_4_obj_tbl: .db 0xFF, 2, 0xE1, 0xF0, 5, 0xED, 0x2E, 0x16, 0x9C, 3
ROM:123D 05 ED 2E 16+                                        ; DATA XREF: ROM:1006o
ROM:123D 9C 03 A0 00+                .db 0xA0, 0, 0x80, 0x10, 0x80, 0, 0xE3, 0x2E, 0x18, 0x2C
ROM:123D 80 10 80 00+                .db 2, 0x90, 0, 0x80, 0x1C, 0xDB, 0x1E, 0x1A, 0x60, 0xDB
ROM:123D E3 2E 18 2C+                .db 0x1F, 0x1C, 0x50, 0xD1, 0x2E, 0x1E, 0x7C, 3, 0x38
ROM:123D 02 90 00 80+                .db 0, 0x80, 2, 0xC0, 0, 0xCB, 3, 0xC5, 0x26, 4, 0xB0
ROM:123D 1C DB 1E 1A+                .db 0xC5, 0x1F, 6, 0xA0, 0xC2, 0x1D, 8, 0xB0, 0xBD, 0x2E
ROM:123D 60 DB 1F 1C+                .db 0xA, 0x24, 3, 0x48, 0, 0x28, 2, 0xFF, 0, 0xBB, 5, 0xAF
ROM:123D 50 D1 2E 1E+                .db 0x1F, 0xC, 0x50, 0xAD, 0x1F, 0xE, 0x40, 0xAA, 0x26
ROM:123D 7C 03 38 00+                .db 0x10, 0x50, 0xA7, 0x26, 0x12, 0x40, 0xA7, 0x2E, 0x14
ROM:123D 80 02 C0 00+                .db 0x24, 4, 0x60, 0, 0xD8, 0x10, 0x28, 8, 0xFF, 2, 0x9F
ROM:123D CB 03 C5 26+                .db 3, 0x8B, 5, 0x87, 0x22, 1, 0x83, 0x23, 0x73, 2, 0xE2
ROM:123D 04 B0 C5 1F+                .db 0x73, 0x4E, 0x2F, 0x73, 0x4C, 0x63, 5, 0x5F, 2, 0xE2
ROM:123D 06 A0 C2 1D+                .db 0x4F, 5, 0x3F, 0x22, 4, 0x33, 0x23, 0x31, 0x23, 0x2B
ROM:123D 08 B0 BD 2E+                .db 0x23, 0x2B, 0x57, 0x28, 3, 0x20, 0x4D, 0x20, 3, 0x10
ROM:123D 0A 24 03 48+                .db 3, 0xD
ROM:12CD FF 24 07 FF+area_5_obj_tbl: .db 0xFF, 0x24, 7, 0xFF, 0x2F, 0xF, 0xFE, 0x30, 0xF, 0xFE
ROM:12CD 2F 0F FE 30+                                        ; DATA XREF: ROM:1008o
ROM:12CD 0F FE 28 1C+                .db 0x28, 0x1C, 0xFD, 3, 0xEF, 3, 0xE3, 0x57, 0xE3, 5
ROM:12CD FD 03 EF 03+                .db 0xDD, 0x1F, 4, 0xA0, 0xDD, 0x1E, 6, 0x90, 0xDB, 0x21
ROM:12CD E3 57 E3 05+                .db 8, 0x70, 0xDB, 0x1E, 0xC, 0xA0, 0xDB, 0x1F, 0xE, 0x90
ROM:12CD DD 1F 04 A0+                .db 0xD1, 0x3D, 0x10, 0xC0, 0xCB, 3, 0xBF, 0x3E, 0x12
ROM:12CD DD 1E 06 90+                .db 0xA0, 0xBB, 3, 0xBB, 0x3E, 0x14, 0x60, 0xB7, 0x3E
ROM:12CD DB 21 08 70+                .db 0x16, 0xA0, 0xB3, 3, 0xB3, 0x3F, 0x18, 0x60, 0xAF
ROM:12CD DB 1E 0C A0+                .db 0x3F, 0x1A, 0x20, 0xA7, 5, 0xA5, 0x21, 0x1C, 0x68
ROM:12CD DB 1F 0E 90+                .db 0x9B, 0x3E, 4, 0x40, 0x97, 0x3E, 6, 0x80, 0x95, 0x3E
ROM:12CD D1 3D 10 C0+                .db 8, 0xA0, 0x93, 0x3E, 0xA, 0xC0, 0x93, 3, 0x7B, 5, 0x71
ROM:12CD CB 03 BF 3E+                .db 0x2E, 0xC, 0x60, 0xC, 0x30, 0, 0x30, 0x10, 0x30, 0x18
ROM:12CD 12 A0 BB 03+                .db 0x30, 8, 0x30, 0, 0x30, 0x10, 0x30, 0x18, 0x30, 8
ROM:12CD BB 3E 14 60+                .db 0x30, 0, 0x30, 0x10, 0x30, 0x18, 0x30, 8, 0x71, 0x1D
ROM:12CD B7 3E 16 A0+                .db 0xE, 0x20, 0x70, 0x25, 0xF, 0x70, 0x24, 0xF, 0x6B
ROM:12CD B3 03 B3 3F+                .db 0x1E, 0x10, 0x80, 0x69, 0x26, 0x12, 0x80, 0x67, 0x1E
ROM:12CD 18 60 AF 3F+                .db 0x14, 0x80, 0x65, 0x26, 0x16, 0x80, 0x63, 3, 0x4B
ROM:12CD 1A 20 A7 05+                .db 5, 0x4B, 0x1F, 0x18, 0xC0, 0x3F, 3, 0x35, 0x1F, 0x1A
ROM:12CD A5 21 1C 68+                .db 0x80, 0x32, 0x2E, 0x1C, 0xD8, 3, 0xC0, 0x18, 0x18
ROM:12CD 9B 3E 04 40+                .db 0x10, 0xC0, 8, 0x2F, 5, 0x2D, 0x1D, 0x1E, 0xC0, 0x25
ROM:12CD 97 3E 06 80+                .db 0x54, 0, 0x23, 0x2E, 4, 0xC0, 1, 0xC0, 0x18, 0x20
ROM:12CD 95 3E 08 A0+                .db 0x2E, 6, 0x20, 1, 0xC0, 8, 0x1D, 0x2E, 8, 0xC0, 1
ROM:12CD 93 3E 0A C0+                .db 0xC0, 0x18, 0x17, 0x1F, 0xA, 0xC0, 0x17, 0x21, 0xC
ROM:12CD 93 03 7B 05+                .db 0x80, 0x17, 0x1F, 0x10, 0x40, 0xD
ROM:13A8 FF 24 07 F3+area_6_obj_tbl: .db 0xFF, 0x24, 7, 0xF3, 0x26, 4, 0xC0, 0xF3, 0x1E, 6
ROM:13A8 26 04 C0 F3+                                        ; DATA XREF: ROM:100Ao
ROM:13A8 1E 06 B0 EB+                .db 0xB0, 0xEB, 0x2E, 8, 0x3C, 3, 0xC0, 0, 0xC0, 0x10
ROM:13A8 2E 08 3C 03+                .db 0xC0, 0, 0xE0, 3, 0xDB, 0x2E, 0xA, 0x34, 2, 0x20, 2
ROM:13A8 C0 00 C0 10+                .db 0xFF, 0, 0xD7, 0x1F, 0xC, 0xC0, 0xD5, 0x26, 0xE, 0xD0
ROM:13A8 C0 00 E0 03+                .db 0xD0, 3, 0xCB, 0x2E, 0x10, 0x1C, 3, 0x98, 0, 0x80
ROM:13A8 DB 2E 0A 34+                .db 2, 0x40, 0, 0xC0, 5, 0xBB, 0x2E, 0x12, 0x1C, 1, 0xFF
ROM:13A8 02 20 02 FF+                .db 0, 0xB6, 0x1E, 0x14, 0xC0, 0xB6, 0x26, 0x16, 0xD0
ROM:13A8 00 D7 1F 0C+                .db 0xB0, 0x22, 1, 0xAC, 0x23, 0xAA, 0x1F, 0x18, 0xB0
ROM:13A8 C0 D5 26 0E+                .db 0xAA, 0x1F, 0x1A, 0xA0, 0x9F, 0x21, 0x1C, 0xA0, 0x9B
ROM:13A8 D0 D0 03 CB+                .db 2, 0xE3, 0x84, 0x1D, 4, 0x20, 0x83, 5, 0x77, 0x2D
ROM:13A8 2E 10 1C 03+                .db 6, 0xC0, 0x6F, 0x3C, 0x10, 0x40, 0x6B, 0x3B, 0x12
ROM:13A8 98 00 80 02+                .db 0x60, 0x6B, 0x3B, 0x14, 0x30, 0x67, 0x3A, 0x16, 0x50
ROM:13A8 40 00 C0 05+                .db 0x5F, 0x1F, 0x18, 0x80, 0x5D, 0x26, 0x1A, 0x70, 0x56
ROM:13A8 BB 2E 12 1C+                .db 0x2E, 0x1C, 0x14, 0xB, 0x40, 0, 0x38, 4, 0x50, 6, 0x38
ROM:13A8 01 FF 00 B6+                .db 4, 0x3C, 8, 0x30, 4, 0x20, 0, 0x20, 0x10, 0x20, 0
ROM:13A8 1E 14 C0 B6+                .db 0x20, 0x10, 0x20, 0, 0x55, 0x26, 0x1E, 0x70, 0x4F
ROM:13A8 26 16 D0 B0+                .db 0x26, 4, 0x80, 0x4F, 0x1D, 6, 0xD0, 0x48, 0x2E, 8
ROM:13A8 22 01 AC 23+                .db 0xD8, 3, 8, 0, 0x58, 0x18, 0xFF, 0, 0x41, 0x2E, 0xA
ROM:13A8 AA 1F 18 B0+                .db 0x48, 2, 0x78, 0, 0xFF, 8, 0x38, 3, 0x33, 0x1F, 0xC
ROM:13A8 AA 1F 1A A0+                .db 0x70, 0x30, 3, 0x28, 5, 0x27, 0x26, 0xE, 0x70, 0x25
ROM:13A8 9F 21 1C A0+                .db 0x26, 0x10, 0x90, 0x23, 0x26, 0x12, 0xB0, 0x20, 2
ROM:13A8 9B 02 E3 84+                .db 0xE4, 0x18, 0x30, 0x3F, 0x18, 0x2F, 7, 0x18, 0x4E
ROM:13A8 1D 04 20 83+                .db 0xF, 0x18, 0x28, 0x20, 0x17, 0x21, 0x14, 0xC0, 0x17
ROM:13A8 05 77 2D 06+                .db 0x21, 0x18, 0xA0, 0x10, 5, 0xD
ROM:1490 FF 22 08 F1+area_7_obj_tbl: .db 0xFF, 0x22, 8, 0xF1, 0x1F, 4, 0x80, 0xEF, 0x1E, 6
ROM:1490 1F 04 80 EF+                                        ; DATA XREF: ROM:100Co
ROM:1490 1E 06 80 ED+                .db 0x80, 0xED, 0x22, 3, 0xC9, 0x2E, 8, 0x70, 6, 0x60
ROM:1490 22 03 C9 2E+                .db 0xC, 0x60, 0x10, 0x60, 0x14, 0x60, 0x1C, 0x60, 0, 0x60
ROM:1490 08 70 06 60+                .db 4, 0xC6, 0x2E, 0xA, 0x58, 6, 0x30, 4, 0x60, 0xC, 0x60
ROM:1490 0C 60 10 60+                .db 0x10, 0x60, 0x14, 0x60, 0x1C, 0x60, 0, 0xC3, 0x2E
ROM:1490 14 60 1C 60+                .db 0xC, 0x40, 6, 0x60, 4, 0x60, 0xC, 0x60, 0x10, 0x60
ROM:1490 00 60 04 C6+                .db 0x14, 0x60, 0x1C, 0x60, 0, 0xC0, 0x2E, 0xE, 0x40, 6
ROM:1490 2E 0A 58 06+                .db 0x30, 0, 0x60, 4, 0x60, 0xC, 0x60, 0x10, 0x60, 0x14
ROM:1490 30 04 60 0C+                .db 0x60, 0x1C, 0xBD, 0x2E, 0x10, 0x40, 6, 0x60, 0, 0x60
ROM:1490 60 10 60 14+                .db 4, 0x60, 0xC, 0x60, 0x10, 0x60, 0x14, 0x60, 0x1C, 0xBA
ROM:1490 60 1C 60 00+                .db 0x2E, 0x12, 0x58, 7, 0x30, 0x1C, 0x60, 0, 0x60, 4
ROM:1490 C3 2E 0C 40+                .db 0x60, 0xC, 0x60, 0x10, 0x60, 0x14, 0x60, 0x1C, 0xA1
ROM:1490 06 60 04 60+                .db 0x1E, 0x14, 0x70, 0x9F, 0x26, 0x16, 0x60, 0x9E, 0x22
ROM:1490 0C 60 10 60+                .db 2, 0x9D, 0x1F, 0x18, 0x50, 0x9B, 0x1E, 0x1A, 0x40
ROM:1490 14 60 1C 60+                .db 0x83, 0x10, 0x74, 0x81, 0x26, 0x1C, 0x40, 0x7B, 0x1D
ROM:1490 00 C0 2E 0E+                .db 0x1E, 0x20, 0x6C, 0x23, 0x6B, 0x1E, 4, 0xB0, 0x6B
ROM:1490 40 06 30 00+                .db 0x1F, 6, 0x80, 0x6B, 0x1E, 8, 0x50, 0x6B, 0x1F, 0xA
ROM:1490 60 04 60 0C+                .db 0x20, 0x4F, 0x22, 0x10, 0x43, 0x54, 0, 0x36, 0x1F
ROM:1490 60 10 60 14+                .db 0xC, 0x48, 0x36, 0x1F, 0xE, 0x20, 0x2B, 0x3C, 0x10
ROM:1490 60 1C BD 2E+                .db 0xC0, 0x27, 0x3C, 0x12, 0xA0, 0x19, 0x11, 0x78, 0x17
ROM:1490 10 40 06 60+                .db 0x11, 0x76, 0xF, 0x1D, 0x14, 0xC0, 0xF, 0x23, 0xD
ROM:1559 F3 03 F3 57+area_8_obj_tbl: .db 0xF3, 3, 0xF3, 0x57, 0xEE, 0x2E, 4, 0x14, 5, 8, 0
ROM:1559 EE 2E 04 14+                                        ; DATA XREF: ROM:100Eo
ROM:1559 05 08 00 A0+                .db 0xA0, 8, 0x30, 0xC, 0xFF, 0x10, 0xFF, 0, 0xEA, 5, 0xE5
ROM:1559 08 30 0C FF+                .db 0x26, 6, 0x30, 0xE5, 0x26, 8, 0xC8, 0xE2, 0x1F, 0xA
ROM:1559 10 FF 00 EA+                .db 0x48, 0xE2, 0x1F, 0xC, 0xB0, 0xDF, 0x26, 0xE, 0x60
ROM:1559 05 E5 26 06+                .db 0xDF, 0x26, 0x10, 0x98, 0xCC, 0x1E, 0x12, 0x40, 0xC8
ROM:1559 30 E5 26 08+                .db 0x26, 0x14, 0x60, 0xC8, 0x26, 0x16, 0x20, 0xC7, 0x21
ROM:1559 C8 E2 1F 0A+                .db 0x18, 0x48, 0xC3, 0x1E, 0x1C, 0x40, 0xBB, 0x57, 0xB3
ROM:1559 48 E2 1F 0C+                .db 0x1F, 0x1E, 0x48, 0xA8, 3, 0xA5, 0x2E, 4, 0xA0, 2
ROM:1559 B0 DF 26 0E+                .db 0xB0, 2, 0x80, 0, 0xA5, 0x2E, 6, 0x74, 4, 0x78, 0
ROM:1559 60 DF 26 10+                .db 0x50, 0x18, 0x50, 8, 0x80, 0, 0xA5, 0x2E, 8, 0x14
ROM:1559 98 CC 1E 12+                .db 4, 0x78, 0, 0x50, 8, 0x50, 0x18, 0x80, 0, 0x9B, 5
ROM:1559 40 C8 26 14+                .db 0x93, 0x2E, 0xA, 0x7C, 5, 0xA0, 0, 0xF0, 0x10, 0x30
ROM:1559 60 C8 26 16+                .db 0xF, 0x30, 0x1F, 0x80, 0, 0x93, 0x1F, 0xC, 0x50, 0x93
ROM:1559 20 C7 21 18+                .db 0x26, 0xE, 0x40, 0x93, 0x2E, 0x10, 0x14, 3, 0xAC, 0
ROM:1559 48 C3 1E 1C+                .db 0xFF, 0x10, 0x80, 0, 0x83, 3, 0x7F, 0x2E, 0x12, 0x84
ROM:1559 40 BB 57 B3+                .db 7, 0x50, 0, 0xC0, 0x10, 0x50, 0x10, 0x28, 0xB, 0x50
ROM:1559 1F 1E 48 A8+                .db 0x10, 0x70, 0xC, 0x60, 0xD, 0x77, 0x1D, 0x14, 0x40
ROM:1559 03 A5 2E 04+                .db 0x73, 5, 0x73, 0x26, 4, 0x58, 0x73, 0x1F, 6, 0x48
ROM:1559 A0 02 B0 02+                .db 0x6D, 0x2E, 0x16, 0x14, 1, 0x80, 0, 0x6A, 0x2E, 0x18
ROM:1559 80 00 A5 2E+                .db 0x14, 1, 0x80, 0, 0x67, 0x2E, 0x1A, 0x14, 1, 0x80
ROM:1559 06 74 04 78+                .db 0, 0x64, 0x35, 0x1C, 0x14, 0x61, 0x35, 0x1E, 0x14
ROM:1559 00 50 18 50+                .db 0x4D, 0x5C, 2, 0x50, 0x47, 0x2E, 8, 0x80, 6, 8, 0
ROM:1559 08 80 00 A5+                .db 0x58, 8, 0x60, 0, 0x60, 2, 0x80, 0, 0x60, 4, 0x47
ROM:1559 2E 08 14 04+                .db 0x2E, 0xA, 0x68, 8, 8, 0, 0x88, 8, 0x60, 0, 0x60, 0x1C
ROM:1559 78 00 50 08+                .db 0x38, 0, 0x18, 0x12, 0xA8, 0x14, 0x80, 0, 0x47, 0x2E
ROM:1559 50 18 80 00+                .db 0xC, 0x50, 3, 8, 0, 0x78, 0x18, 0x80, 0, 0x3F, 2, 0xE5
ROM:1559 9B 05 93 2E+                .db 0x37, 0x1B, 0xE, 0xB8, 0x37, 0x1B, 0x10, 0x48, 0x33
ROM:1559 0A 7C 05 A0+                .db 5, 0x27, 0x2E, 0x12, 0x50, 2, 0x68, 4, 0xE0, 8, 0x24
ROM:1559 00 F0 10 30+                .db 0x2E, 0x14, 0x38, 2, 0x98, 4, 0xE0, 8, 0x23, 2, 0xE6
ROM:1559 0F 30 1F 80+                .db 0x21, 0x2E, 0x16, 0x20, 2, 0xC8, 4, 0xE0, 8, 0x1F
ROM:1559 00 93 1F 0C+                .db 0x2E, 0x18, 0x90, 3, 8, 0x1C, 0xE0, 0, 0xD0, 8, 0x1C
ROM:1559 50 93 26 0E+                .db 0x2E, 0x1A, 0xA8, 3, 0x38, 0x1C, 0xE0, 0, 0xD0, 8
ROM:1559 40 93 2E 10+                .db 0x19, 0x2E, 0x1C, 0xC0, 3, 0x68, 0x1C, 0xE0, 0, 0xD0
ROM:1559 14 03 AC 00+                .db 8, 0x19, 0x1F, 0x1E, 0x88, 0x19, 0x1F, 4, 0x68, 0x19
ROM:1559 FF 10 80 00+                .db 0x1F, 6, 0x48, 0x17, 5, 0x13, 0x1B, 8, 0x88, 0x13
ROM:1559 83 03 7F 2E+                .db 0x1B, 0xC, 0x48, 0xD
ROM:16C1 FB 02 E7 F5+area_9_obj_tbl: .db 0xFB, 2, 0xE7, 0xF5, 0x1D, 0x10, 0x70, 0xF3, 0x1D
ROM:16C1 1D 10 70 F3+                                        ; DATA XREF: ROM:1010o
ROM:16C1 1D 12 50 F1+                .db 0x12, 0x50, 0xF1, 0x1D, 0x14, 0x30, 0xEF, 0x1D, 0x16
ROM:16C1 1D 14 30 EF+                .db 0x10, 0xEB, 5, 0xE3, 2, 0xE8, 0xD5, 0x21, 0x18, 0x50
ROM:16C1 1D 16 10 EB+                .db 0xD3, 5, 0xD1, 0x57, 0xCF, 3, 0xC7, 3, 0xC3, 2, 0xE9
ROM:16C1 05 E3 02 E8+                .db 0xBF, 5, 0xB3, 0x33, 0x9F, 0x34, 0x87, 0x18, 0x76
ROM:16C1 D5 21 18 50+                .db 0x83, 0x4C, 0x73, 2, 0xEA, 0x63, 5, 0x63, 0x57, 0x5B
ROM:16C1 D3 05 D1 57+                .db 2, 0xEB, 0x4B, 5, 0x3F, 3, 0x2F, 3, 0x20, 0x4D, 0x1F
ROM:16C1 CF 03 C7 03+                .db 3, 0x10, 5, 0xD
ROM:170A FF 03 F7 05+area_10_obj_tbl:.db 0xFF, 3, 0xF7, 5, 0xF3, 0x57, 0xEF, 3, 0xE3, 5, 0xDB
ROM:170A F3 57 EF 03+                                        ; DATA XREF: ROM:1012o
ROM:170A E3 05 DB 03+                .db 3, 0xCF, 5, 0xC6, 0x2E, 0x1C, 0xD8, 8, 0x60, 0x14
ROM:170A CF 05 C6 2E+                .db 0x60, 4, 0x60, 0x14, 0x60, 4, 0x60, 0x14, 0x60, 4
ROM:170A 1C D8 08 60+                .db 0x60, 0x14, 0x60, 4, 0xC6, 0x2E, 0x1E, 0x98, 8, 0x60
ROM:170A 14 60 04 60+                .db 0x10, 0x60, 0, 0x60, 0x10, 0x60, 0, 0x60, 0x10, 0x60
ROM:170A 14 60 04 60+                .db 0, 0x60, 0x10, 0x60, 0, 0xC6, 0x2E, 4, 0x58, 8, 0x60
ROM:170A 14 60 04 60+                .db 0xC, 0x60, 0x1C, 0x60, 0xC, 0x60, 0x1C, 0x60, 0xC
ROM:170A 14 60 04 C6+                .db 0x60, 0x1C, 0x60, 0xC, 0x60, 0x1C, 0xBE, 0x2E, 6, 0xB8
ROM:170A 2E 1E 98 08+                .db 8, 0x40, 8, 0x60, 0x18, 0x60, 8, 0x60, 0x18, 0x60
ROM:170A 60 10 60 00+                .db 8, 0x60, 0x18, 0x60, 8, 0x60, 0x18, 0xBE, 0x2E, 8
ROM:170A 60 10 60 00+                .db 0x78, 8, 0x40, 0x18, 0x60, 8, 0x60, 0x18, 0x60, 8
ROM:170A 60 10 60 00+                .db 0x60, 0x18, 0x60, 8, 0x60, 0x18, 0x60, 8, 0xB8, 0x2E
ROM:170A 60 10 60 00+                .db 0xA, 0xC8, 7, 0x40, 0x1C, 0x60, 0xC, 0x60, 0x1C, 0x60
ROM:170A C6 2E 04 58+                .db 0xC, 0x60, 0x1C, 0x60, 0xC, 0x60, 0x1C, 0xB8, 0x2E
ROM:170A 08 60 0C 60+                .db 0xC, 0x98, 7, 0x40, 0, 0x60, 0x10, 0x60, 0, 0x60, 0x10
ROM:170A 1C 60 0C 60+                .db 0x60, 0, 0x60, 0x10, 0x60, 0, 0xB8, 0x2E, 0xE, 0x68
ROM:170A 1C 60 0C 60+                .db 7, 0x40, 4, 0x60, 0x14, 0x60, 4, 0x60, 0x14, 0x60
ROM:170A 1C 60 0C 60+                .db 4, 0x60, 0x14, 0x60, 4, 0xA9, 0x1E, 0x10, 0xB0, 0xA9
ROM:170A 1C BE 2E 06+                .db 0x1E, 0x12, 0x90, 0xA7, 0x1E, 0x14, 0xA0, 0xA5, 0x1E
ROM:170A B8 08 40 08+                .db 0x16, 0xB0, 0xA5, 0x1E, 0x18, 0x90, 0x9B, 0x18, 0x76
ROM:170A 60 18 60 08+                .db 0x91, 0x1F, 0x1A, 0x40, 0x8F, 0x1F, 0x1C, 0x40, 0x8B
ROM:170A 60 18 60 08+                .db 0x18, 0x76, 0x87, 0x1E, 0x1E, 0x50, 0x87, 0x1E, 4
ROM:170A 60 18 60 08+                .db 0x40, 0x7B, 0x18, 0x76, 0x6F, 0x1F, 6, 0xC0, 0x6F
ROM:170A 60 18 BE 2E+                .db 0x1E, 8, 0xA0, 0x6F, 0x1F, 0xA, 0x80, 0x64, 0x2E, 0xC
ROM:170A 08 78 08 40+                .db 0x98, 0x10, 0x80, 0x18, 0x80, 0x10, 0x80, 9, 0x20
ROM:170A 18 60 08 60+                .db 0xC, 0x40, 0x18, 0x20, 0x1A, 0x10, 0x18, 0x28, 0x10
ROM:170A 18 60 08 60+                .db 0x10, 8, 0x20, 6, 0x48, 8, 0x18, 0xC, 0x70, 0x18, 0xA0
ROM:170A 18 60 08 60+                .db 0x13, 0x98, 8, 0x80, 4, 0x47, 0x1D, 0xE, 0xC0, 0x47
ROM:170A 18 60 08 B8+                .db 0x1D, 0x10, 0xA0, 0x47, 0x1D, 0x12, 0x80, 0x47, 0x1D
ROM:170A 2E 0A C8 07+                .db 0x14, 0x60, 0x43, 0x1D, 0x16, 0xC0, 0x43, 0x1D, 0x18
ROM:170A 40 1C 60 0C+                .db 0xA0, 0x43, 0x1D, 0x1A, 0x80, 0x43, 0x1D, 0x1C, 0x60
ROM:170A 60 1C 60 0C+                .db 0x36, 0x1E, 0x1E, 0x80, 0x36, 0x26, 4, 0x60, 0x36
ROM:170A 60 1C 60 0C+                .db 0x1E, 6, 0x40, 0x30, 0x59, 0x7E, 0x2B, 0x1F, 8, 0x50
ROM:170A 60 1C B8 2E+                .db 0x21, 0x20, 0xA, 0x80, 0x1B, 0x20, 0xE, 0x80, 0x19
ROM:170A 0C 98 07 40+                .db 0x1B, 0x12, 0xD0, 0x19, 0x1B, 0x14, 0x20, 0x17, 0x16
ROM:170A 00 60 10 60+                .db 0x74, 0x16, 0x16, 0x76, 0x13, 0x1B, 0x16, 0xD0, 0x13
ROM:170A 00 60 10 60+                .db 0x1B, 0x18, 0x20, 0xD
ROM:186A FB 11 74 F3+area_11_obj_tbl:.db 0xFB, 0x11, 0x74, 0xF3, 0x22, 8, 0xE9, 0x2D, 4, 0x60
ROM:186A 22 08 E9 2D+                                        ; DATA XREF: ROM:1014o
ROM:186A 04 60 E6 22+                .db 0xE6, 0x22, 8, 0xE4, 0x2E, 0xE, 0x9C, 1, 0x80, 0, 0xDC
ROM:186A 08 E4 2E 0E+                .db 0x2E, 0x10, 0x2C, 2, 0xF8, 0, 0x40, 0x1C, 0xCB, 0x26
ROM:186A 9C 01 80 00+                .db 0x12, 0xB0, 0xCB, 0x1F, 0x14, 0xA0, 0xCB, 0x2E, 0x16
ROM:186A DC 2E 10 2C+                .db 0x2C, 7, 0x70, 0, 0xE8, 0x10, 0x20, 0x12, 0xB8, 0x10
ROM:186A 02 F8 00 40+                .db 0xB8, 0, 0x20, 2, 0x20, 0, 0xC3, 0x23, 0xC3, 0x35
ROM:186A 1C CB 26 12+                .db 0x18, 0x7C, 0xBF, 0x35, 0x1A, 0x7C, 0xBB, 0x35, 0x1C
ROM:186A B0 CB 1F 14+                .db 0x7C, 0xB7, 0x39, 0x1E, 0x7C, 0xAF, 0x3B, 4, 0x24
ROM:186A A0 CB 2E 16+                .db 0xA7, 0x3B, 6, 0x24, 0xA3, 0x22, 0xC, 0x9B, 3, 0x8D
ROM:186A 2C 07 70 00+                .db 0x1D, 8, 0x80, 0x8B, 5, 0x8B, 0x1D, 0xA, 0x70, 0x84
ROM:186A E8 10 20 12+                .db 0x22, 4, 0x77, 0x2E, 0xC, 0x34, 9, 0x60, 0, 0xA0, 0x10
ROM:186A B8 10 B8 00+                .db 0x28, 0xD, 0x50, 0x10, 0x70, 0xC, 0x60, 0xD, 0x40
ROM:186A 20 02 20 00+                .db 6, 0x30, 4, 0x20, 8, 0x75, 0x1F, 0xE, 0x60, 0x73, 0x1E
ROM:186A C3 23 C3 35+                .db 0x10, 0x70, 0x73, 0x23, 0x71, 0x1F, 0x12, 0x80, 0x6F
ROM:186A 18 7C BF 35+                .db 0x1E, 0x14, 0x90, 0x6D, 0x1F, 0x16, 0xA0, 0x6B, 0x1E
ROM:186A 1A 7C BB 35+                .db 0x18, 0xB0, 0x69, 0x1F, 0x1A, 0xC0, 0x67, 0x1E, 0x1C
ROM:186A 1C 7C B7 39+                .db 0xD0, 0x67, 0x57, 0x63, 3, 0x63, 3, 0x53, 0x22, 0x10
ROM:186A 1E 7C AF 3B+                .db 0x43, 3, 0x3B, 5, 0x2B, 0x2E, 0x1E, 0xE0, 5, 8, 0
ROM:186A 04 24 A7 3B+                .db 0x60, 0x18, 0x20, 0x1C, 0xD8, 0x18, 0x20, 0x14, 0x27
ROM:186A 06 24 A3 22+                .db 0x21, 4, 0x68, 0x23, 0x23, 0x23, 2, 0xEC, 0x1D, 0x1D
ROM:186A 0C 9B 03 8D+                .db 8, 0x20, 0x1D, 0x1F, 0xA, 0xD0, 0x1D, 0x1F, 0xC, 0xA0
ROM:186A 1D 08 80 8B+                .db 0x1B, 0x1D, 0xE, 0x20, 0x19, 0x1D, 0x10, 0x40, 0x17
ROM:186A 05 8B 1D 0A+                .db 0x1E, 0x12, 0xD0, 0x17, 0x1E, 0x14, 0xA0, 0x17, 0x1D
ROM:186A 70 84 22 04+                .db 0x16, 0x40, 0x13, 0x23, 0x13, 5, 0xD
ROM:1951 FF 30 0F FF+area_12_obj_tbl:.db 0xFF, 0x30, 0xF, 0xFF, 0x29, 0xF, 0xFF, 0x2B, 3, 0xFF
ROM:1951 29 0F FF 2B+                                        ; DATA XREF: ROM:1016o
ROM:1951 03 FF 2A 03+                .db 0x2A, 3, 0xF3, 0x57, 0xEE, 0x2E, 4, 0x14, 9, 8, 0
ROM:1951 F3 57 EE 2E+                .db 0xA0, 8, 0x30, 0xC, 0x48, 0x10, 0x30, 0, 0x50, 0x10
ROM:1951 04 14 09 08+                .db 0x68, 0, 0x30, 0x1C, 0x20, 0x18, 0xE5, 0x1B, 6, 0xC0
ROM:1951 00 A0 08 30+                .db 0xE5, 0x1F, 8, 0xB0, 0xE5, 0x1F, 0xA, 0x48, 0xE5, 0x1B
ROM:1951 0C 48 10 30+                .db 0xC, 0x38, 0xE3, 0x1F, 0xE, 0xC0, 0xE3, 0x1B, 0x10
ROM:1951 00 50 10 68+                .db 0xB0, 0xE3, 0x1B, 0x12, 0x48, 0xE3, 0x1F, 0x14, 0x38
ROM:1951 00 30 1C 20+                .db 0xDC, 0x2E, 0x16, 0x7C, 4, 8, 0x10, 0x78, 0, 0x50
ROM:1951 18 E5 1B 06+                .db 0x10, 0x40, 0, 0xC9, 0x35, 0x18, 0x48, 0xC9, 0x35
ROM:1951 C0 E5 1F 08+                .db 0x1A, 0x38, 0xC7, 0x35, 0x1C, 0x48, 0xC7, 0x35, 0x1E
ROM:1951 B0 E5 1F 0A+                .db 0x38, 0xBD, 0x1E, 4, 0xB0, 0xBB, 0x1E, 6, 0xB0, 0xBB
ROM:1951 48 E5 1B 0C+                .db 0x1E, 8, 0x90, 0xB9, 0x1E, 0xA, 0x90, 0xB3, 0x2E, 0xC
ROM:1951 38 E3 1F 0E+                .db 0xCC, 1, 0x20, 0, 0xA7, 0x2E, 0xE, 0x74, 4, 0x58, 0
ROM:1951 C0 E3 1B 10+                .db 0xA0, 0x18, 0xA0, 8, 0x20, 0, 0xA3, 0x2E, 0x10, 0x14
ROM:1951 B0 E3 1B 12+                .db 1, 0x20, 0, 0xA3, 0x57, 0xA1, 0x2E, 0x12, 0x14, 1
ROM:1951 48 E3 1F 14+                .db 0x20, 0, 0x97, 3, 0x93, 0x2E, 0x14, 0x7C, 2, 0x98
ROM:1951 38 DC 2E 16+                .db 0, 0x20, 2, 0x8D, 0x1D, 0x16, 0x60, 0x8D, 0x1D, 0x18
ROM:1951 7C 04 08 10+                .db 0x50, 0x8B, 0x1D, 0x1A, 0x60, 0x8B, 0x1D, 0x1C, 0x50
ROM:1951 78 00 50 10+                .db 0x87, 5, 0x83, 3, 0x77, 0x1E, 0x1E, 0x60, 0x77, 0x1F
ROM:1951 40 00 C9 35+                .db 4, 0x50, 0x73, 5, 0x73, 0x2E, 6, 0x14, 4, 0x70, 0
ROM:1951 18 48 C9 35+                .db 0xE0, 0x10, 0xA0, 0x10, 0x20, 0, 0x6F, 0x1F, 8, 0x60
ROM:1951 1A 38 C7 35+                .db 0x6F, 0x1E, 0xA, 0x50, 0x6B, 3, 0x68, 0x30, 7, 0x5B
ROM:1951 1C 48 C7 35+                .db 5, 0x55, 0x1B, 0xC, 0xA8, 0x47, 0x2E, 0xE, 0x78, 3
ROM:1951 1E 38 BD 1E+                .db 8, 0, 0xC8, 0x18, 0x20, 0, 0x47, 0x2E, 0x10, 0x90
ROM:1951 04 B0 BB 1E+                .db 3, 8, 0, 0xF8, 0x18, 0x20, 0, 0x47, 0x2E, 0x12, 0xA8
ROM:1951 06 B0 BB 1E+                .db 4, 8, 0, 0xE0, 0x18, 0x48, 0x18, 0x20, 0, 0x37, 0x1F
ROM:1951 08 90 B9 1E+                .db 0x14, 0xC0, 0x37, 0x1F, 0x16, 0xB0, 0x33, 2, 0xED
ROM:1951 0A 90 B3 2E+                .db 0x30, 0x1B, 0x18, 0x68, 0x2E, 0x1B, 0x1A, 0x58, 0x2C
ROM:1951 0C CC 01 20+                .db 0x1B, 0x1C, 0x48, 0x2A, 0x1B, 0x1E, 0x38, 0x27, 0x3C
ROM:1951 00 A7 2E 0E+                .db 4, 0x14, 0x23, 0x3B, 6, 0x14, 0x1F, 0x3B, 8, 0x14
ROM:1951 74 04 58 00+                .db 0x1B, 0x3C, 0xA, 0x14, 0x18, 0x2E, 0xC, 0x88, 8, 0x40
ROM:1951 A0 18 A0 08+                .db 0, 0x80, 0x18, 0x80, 0x10, 0x80, 8, 0x80, 0, 0x80
ROM:1951 20 00 A3 2E+                .db 0x18, 0x80, 0x10, 0x80, 8, 0x18, 0x2E, 0xE, 0x48, 8
ROM:1951 10 14 01 20+                .db 0x40, 0x10, 0x80, 8, 0x80, 0, 0x80, 0x18, 0x80, 0x10
ROM:1951 00 A3 57 A1+                .db 0x80, 8, 0x80, 0, 0x80, 0x18, 0x17, 0x21, 0x10, 0x70
ROM:1951 2E 12 14 01+                .db 0x17, 5, 0xD
ROM:1AAF F7 1B 14 20+area_13_obj_tbl:.db 0xF7, 0x1B, 0x14, 0x20, 0xF3, 0x1B, 0x16, 0xA0, 0xF3
ROM:1AAF F3 1B 16 A0+                                        ; DATA XREF: ROM:1018o
ROM:1AAF F3 1B 18 70+                .db 0x1B, 0x18, 0x70, 0xED, 0x1F, 0x1A, 0xA0, 0xEB, 0x1F
ROM:1AAF ED 1F 1A A0+                .db 0x1C, 0x90, 0xE9, 0x1F, 0x1E, 0x80, 0xE7, 0x1F, 4
ROM:1AAF EB 1F 1C 90+                .db 0x70, 0xE3, 0x57, 0xDF, 0x1B, 6, 0xC0, 0xD9, 0x1B
ROM:1AAF E9 1F 1E 80+                .db 8, 0xC0, 0xD3, 3, 0xBB, 5, 0xB1, 0x21, 0xA, 0xB0, 0xB1
ROM:1AAF E7 1F 04 70+                .db 0x21, 0xE, 0x50, 0xAB, 3, 0xA1, 0x3E, 0x12, 0x90, 0x9D
ROM:1AAF E3 57 DF 1B+                .db 0x3E, 0x14, 0x70, 0x99, 0x40, 0x16, 0x50, 0x95, 0x3E
ROM:1AAF 06 C0 D9 1B+                .db 0x18, 0x30, 0x93, 5, 0x8D, 0x40, 0x1A, 0x50, 0x89
ROM:1AAF 08 C0 D3 03+                .db 0x3E, 0x1C, 0x70, 0x85, 0x3E, 0x1E, 0x90, 0x81, 0x3E
ROM:1AAF BB 05 B1 21+                .db 4, 0xB0, 0x7B, 3, 0x71, 0x1F, 6, 0xD0, 0x6F, 0x26
ROM:1AAF 0A B0 B1 21+                .db 8, 0xC0, 0x6D, 0x1F, 0xA, 0xB0, 0x6B, 0x26, 0xC, 0xA0
ROM:1AAF 0E 50 AB 03+                .db 0x69, 0x1F, 0xE, 0x90, 0x63, 5, 0x5F, 0x57, 0x5B, 2
ROM:1AAF A1 3E 12 90+                .db 0xEE, 0x43, 5, 0x40, 0x1D, 0x10, 0x30, 0x40, 0x1D
ROM:1AAF 9D 3E 14 70+                .db 0x12, 0x20, 0x3B, 3, 0x36, 0x1B, 0x14, 0xC0, 0x25
ROM:1AAF 99 40 16 50+                .db 0x2E, 0x16, 0xE0, 2, 0xC0, 0x18, 0xC0, 8, 0x25, 0x2E
ROM:1AAF 95 3E 18 30+                .db 0x18, 0x10, 2, 0xC0, 8, 0xC0, 0x18, 0x23, 0x2E, 0x1A
ROM:1AAF 93 05 8D 40+                .db 0xD0, 2, 0xA0, 0x18, 0xA0, 8, 0x23, 0x2E, 0x1C, 0x20
ROM:1AAF 1A 50 89 3E+                .db 2, 0xA0, 8, 0xA0, 0x18, 0x23, 5, 0x1B, 2, 0xEF, 0xE
ROM:1AAF 1C 70 85 3E+                .db 5, 0xD
ROM:1B5E FF 02 F0 F7+area_14_obj_tbl:.db 0xFF, 2, 0xF0, 0xF7, 5, 0xF3, 0x22, 2, 0xE7, 0x23
ROM:1B5E 05 F3 22 02+                                        ; DATA XREF: ROM:101Ao
ROM:1B5E E7 23 E7 02+                .db 0xE7, 2, 0xF1, 0xE3, 0x4C, 0xDF, 5, 0xDB, 2, 0xF2
ROM:1B5E F1 E3 4C DF+                .db 0xD5, 5, 0xCB, 2, 0xF3, 0xC5, 5, 0xBB, 2, 0xEC, 0xBB
ROM:1B5E 05 DB 02 F2+                .db 0x4D, 0xAB, 5, 0xA1, 0x33, 0x8F, 0x34, 0x7F, 2, 0xF4
ROM:1B5E D5 05 CB 02+                .db 0x77, 5, 0x73, 0x18, 0x76, 0x67, 0x4C, 0x67, 2, 0xF3
ROM:1B5E F3 C5 05 BB+                .db 0x65, 5, 0x5B, 2, 0xF5, 0x55, 5, 0x4B, 3, 0x3B, 5
ROM:1B5E 02 EC BB 4D+                .db 0x37, 0x57, 0x33, 0x4D, 0x33, 3, 0x30, 0x5B, 0, 0x40
ROM:1B5E AB 05 A1 33+                .db 0x23, 5, 0x1B, 3, 0x1F, 5, 0xD
ROM:1BAD FF 02 F6 F3+area_15_obj_tbl:.db 0xFF, 2, 0xF6, 0xF3, 5, 0xEF, 0x2E, 4, 0x3C, 5, 0x80
ROM:1BAD 05 EF 2E 04+                                        ; DATA XREF: ROM:101Co
ROM:1BAD 3C 05 80 00+                .db 0, 0x80, 0x10, 0x70, 0, 0x70, 0x10, 0x70, 0, 0xEE
ROM:1BAD 80 10 70 00+                .db 0x1D, 6, 0x20, 0xEE, 0x26, 8, 0x80, 0xE6, 0x2E, 0xA
ROM:1BAD 70 10 70 00+                .db 0x3C, 3, 0x70, 0, 0x70, 0x10, 0x70, 0, 0xE5, 0x1F
ROM:1BAD EE 1D 06 20+                .db 0xC, 0x80, 0xDE, 0x2E, 0xE, 0x3C, 3, 0x60, 0, 0x60
ROM:1BAD EE 26 08 80+                .db 0x10, 0x60, 0, 0xD7, 0x1F, 0x10, 0xC0, 0xD7, 0x2E
ROM:1BAD E6 2E 0A 3C+                .db 0x12, 0x26, 6, 0x50, 2, 0x78, 0x12, 0x18, 0x10, 0x18
ROM:1BAD 03 70 00 70+                .db 0, 0x80, 2, 0x20, 0, 0xD5, 0x1F, 0x14, 0xD0, 0xD2
ROM:1BAD 10 70 00 E5+                .db 0x26, 0x16, 0x50, 0xCD, 0x2E, 0x18, 0x1C, 4, 0x40
ROM:1BAD 1F 0C 80 DE+                .db 0, 0xA0, 0x10, 0xD8, 0, 0x20, 2, 0xC6, 0x1F, 4, 0x50
ROM:1BAD 2E 0E 3C 03+                .db 0xC3, 3, 0xC2, 0x2E, 0x1A, 0x1C, 3, 0x80, 0, 0xA0
ROM:1BAD 60 00 60 10+                .db 0, 0x20, 2, 0xBE, 0x35, 0x1C, 0x1C, 0xBA, 0x3B, 0x1E
ROM:1BAD 60 00 D7 1F+                .db 0x1C, 0xB6, 0x1F, 6, 0xD0, 0xB6, 0x26, 8, 0xC0, 0xB5
ROM:1BAD 10 C0 D7 2E+                .db 0x1D, 0xA, 0x40, 0xB3, 3, 0xA9, 0x1D, 0xC, 0xB0, 0xA3
ROM:1BAD 12 26 06 50+                .db 3, 0xA0, 0x57, 0xA0, 0x26, 0xE, 0xA0, 0xA0, 0x1F, 0x10
ROM:1BAD 02 78 12 18+                .db 0x90, 0x93, 5, 0x8B, 3, 0x7B, 5, 0x78, 0x21, 0x12
ROM:1BAD 10 18 00 80+                .db 0xC8, 0x76, 0x2E, 0x16, 0x78, 8, 0x50, 0x14, 0x50
ROM:1BAD 02 20 00 D5+                .db 4, 0x50, 0x14, 0x50, 4, 0x50, 0x14, 0x50, 4, 0x50
ROM:1BAD 1F 14 D0 D2+                .db 0x14, 0x50, 4, 0x76, 0x2E, 0x18, 0x18, 8, 0x50, 0xC
ROM:1BAD 26 16 50 CD+                .db 0x50, 0x1C, 0x50, 0xC, 0x50, 0x1C, 0x50, 0xC, 0x50
ROM:1BAD 2E 18 1C 04+                .db 0x1C, 0x50, 0xC, 0x50, 0x1C, 0x6B, 0x2E, 0x1A, 0x70
ROM:1BAD 40 00 A0 10+                .db 9, 0x40, 0x1C, 0x50, 0xC, 0x50, 0x1C, 0x50, 0xC, 0x50
ROM:1BAD D8 00 20 02+                .db 0x1C, 0x50, 0xC, 0x50, 0x1C, 0x50, 0xC, 0x50, 0x1C
ROM:1BAD C6 1F 04 50+                .db 0x6B, 0x2E, 0x1C, 0x20, 9, 0x40, 4, 0x50, 0x14, 0x50
ROM:1BAD C3 03 C2 2E+                .db 4, 0x50, 0x14, 0x50, 4, 0x50, 0x14, 0x50, 4, 0x50
ROM:1BAD 1A 1C 03 80+                .db 0x14, 0x50, 4, 0x61, 0x2E, 0x1E, 0xA4, 7, 0x18, 0
ROM:1BAD 00 A0 00 20+                .db 0x10, 0x1C, 0x60, 0x18, 0x38, 0x14, 0x40, 0x16, 0x60
ROM:1BAD 02 BE 35 1C+                .db 0x1E, 0x20, 0x1C, 0x5F, 0x1F, 4, 0x80, 0x5B, 0x26
ROM:1BAD 1C BA 3B 1E+                .db 6, 0x60, 0x5B, 0x1D, 8, 0x20, 0x57, 0x1F, 0xA, 0x40
ROM:1BAD 1C B6 1F 06+                .db 0x53, 2, 0xF4, 0x4E, 0x2E, 0x14, 0xAC, 6, 0x50, 0
ROM:1BAD D0 B6 26 08+                .db 0xA8, 0x10, 0x10, 8, 0xE0, 0x18, 0xA0, 0x10, 0xC0
ROM:1BAD C0 B5 1D 0A+                .db 0, 0x48, 0x2E, 0x12, 0xD4, 6, 8, 0, 0x90, 0x18, 0x10
ROM:1BAD 40 B3 03 A9+                .db 8, 0xA0, 0x18, 0xE0, 0x10, 0xC0, 0, 0x47, 0x2E, 0x10
ROM:1BAD 1D 0C B0 A3+                .db 0x44, 6, 0x18, 0, 0x70, 8, 0x70, 0x18, 0xC0, 0x10
ROM:1BAD 03 A0 57 A0+                .db 0xF0, 0x10, 0x20, 0x18, 0x42, 0x5D, 0, 0x4C, 0x3B
ROM:1BAD 26 0E A0 A0+                .db 0x26, 0x16, 0xB0, 0x37, 0x1F, 0x18, 0x90, 0x33, 5
ROM:1BAD 1F 10 90 93+                .db 0x20, 0x5A, 0x7E, 0x1F, 0x1B, 0x1A, 0x90, 0x1F, 0x1B
ROM:1BAD 05 8B 03 7B+                .db 0x1C, 0x70, 0x1F, 0x1B, 0x1E, 0x50, 0x1B, 0x1B, 4
ROM:1BAD 05 78 21 12+                .db 0x70, 0x1B, 0x35, 6, 0x24, 0x1B, 2, 0xF7, 0x17, 0x3B
ROM:1BAD C8 76 2E 16+                .db 8, 0x24, 0x15, 0x21, 0xA, 0xC0, 0x13, 0x3B, 0xE, 0x24
ROM:1BAD 78 08 50 14+                .db 0xF, 5, 0xD
ROM:1D36 01 57 FF 03+area_16_obj_tbl:.db 1, 0x57, 0xFF, 3, 0xF3, 0x1D, 0x14, 0xC0, 0xEF, 5
ROM:1D36 F3 1D 14 C0+                                        ; DATA XREF: ROM:101Eo
ROM:1D36 EF 05 E7 2E+                .db 0xE7, 0x2E, 0x16, 0x9C, 3, 0x40, 0, 0x38, 0x1C, 0x40
ROM:1D36 16 9C 03 40+                .db 0x18, 0xE5, 0x1B, 0x18, 0x60, 0xE1, 0x2E, 0x1A, 0x24
ROM:1D36 00 38 1C 40+                .db 3, 0x80, 0, 0x80, 0x10, 0x80, 0, 0xDD, 0x2E, 0x1C
ROM:1D36 18 E5 1B 18+                .db 0x9C, 3, 0x80, 0, 0x80, 0x10, 0x80, 0, 0xD7, 0x1B
ROM:1D36 60 E1 2E 1A+                .db 0x1E, 0x78, 0xD7, 0x1B, 4, 0x48, 0xD7, 0x2E, 6, 0x24
ROM:1D36 24 03 80 00+                .db 3, 0x80, 0, 0x80, 0x10, 0x80, 0, 0xD3, 0x2E, 8, 0x9C
ROM:1D36 80 10 80 00+                .db 3, 0x80, 0, 0x80, 0x10, 0x80, 0, 0xD3, 0x1B, 0xA, 0x60
ROM:1D36 DD 2E 1C 9C+                .db 0xCD, 0x2E, 0xC, 0x24, 3, 0x80, 0, 0x80, 0x10, 0x80
ROM:1D36 03 80 00 80+                .db 0, 0xCB, 0x26, 0xE, 0xC8, 0xCB, 0x26, 0x10, 0x60, 0xC5
ROM:1D36 10 80 00 D7+                .db 0x2E, 0x12, 0x9C, 8, 0x60, 0, 0x78, 0x10, 0x20, 0x12
ROM:1D36 1B 1E 78 D7+                .db 0xF8, 0x10, 0x58, 0x10, 0x50, 0x18, 0x50, 8, 0x20
ROM:1D36 1B 04 48 D7+                .db 0, 0xC5, 0x2E, 0x14, 0x24, 8, 0x60, 0, 0x90, 0x10
ROM:1D36 2E 06 24 03+                .db 0x20, 0xC, 0xE0, 0x10, 0x58, 0x10, 0x50, 8, 0x50, 0x18
ROM:1D36 80 00 80 10+                .db 0x20, 0, 0xC5, 0x57, 0xC3, 3, 0xBB, 0x3B, 0x16, 0x70
ROM:1D36 80 00 D3 2E+                .db 0xBB, 0x3B, 0x18, 0x50, 0xB7, 0x3C, 0x1A, 0x70, 0xB7
ROM:1D36 08 9C 03 80+                .db 0x3B, 0x1C, 0x50, 0xB3, 3, 0xA3, 3, 0x95, 0x1F, 0x1E
ROM:1D36 00 80 10 80+                .db 0x80, 0x93, 5, 0x93, 0x1F, 4, 0x70, 0x91, 0x1F, 6
ROM:1D36 00 D3 1B 0A+                .db 0x60, 0x8F, 0x1F, 8, 0x50, 0x85, 3, 0x7D, 0x26, 0xA
ROM:1D36 60 CD 2E 0C+                .db 0xE0, 0x7D, 0x26, 0xC, 0x88, 0x7D, 0x26, 0xE, 0x50
ROM:1D36 24 03 80 00+                .db 0x79, 0x26, 0x10, 0xC0, 0x79, 0x26, 0x12, 0x6C, 0x79
ROM:1D36 80 10 80 00+                .db 0x26, 0x14, 0x18, 0x6F, 0x21, 0x16, 0x80, 0x6F, 0x3B
ROM:1D36 CB 26 0E C8+                .db 0x1A, 0x34, 0x6B, 0x3B, 0x1C, 0x34, 0x6B, 5, 0x67
ROM:1D36 CB 26 10 60+                .db 0x1D, 0x1E, 0xB0, 0x65, 0x1D, 4, 0xA0, 0x63, 3, 0x53
ROM:1D36 C5 2E 12 9C+                .db 5, 0x4F, 0x26, 6, 0x80, 0x4C, 0x1F, 8, 0x68, 0x4B
ROM:1D36 08 60 00 78+                .db 0x2E, 0xA, 0x34, 2, 0xA0, 4, 0x20, 6, 0x44, 0x1B, 0xC
ROM:1D36 10 20 12 F8+                .db 0x70, 0x3E, 0x1B, 0xE, 0xC0, 0x3E, 0x1D, 0x10, 0x70
ROM:1D36 10 58 10 50+                .db 0x3E, 0x1B, 0x12, 0x18, 0x38, 0x1B, 0x14, 0x70, 0x37
ROM:1D36 18 50 08 20+                .db 0x2E, 0x16, 0xA4, 3, 0x70, 0, 0x70, 0x10, 0x70, 0
ROM:1D36 00 C5 2E 14+                .db 0x37, 0x2E, 4, 0x34, 3, 0x70, 0, 0x70, 0x10, 0x70
ROM:1D36 24 08 60 00+                .db 0, 0x33, 2, 0xF9, 0x23, 5, 0x22, 0x2E, 6, 0x48, 2
ROM:1D36 90 10 20 0C+                .db 0xB8, 4, 0x20, 8, 0x22, 0x2E, 8, 0x34, 1, 0x20, 0
ROM:1D36 E0 10 58 10+                .db 0x1B, 0x2E, 0xA, 0x48, 8, 0x30, 0, 0xA0, 4, 0xA0, 0x10
ROM:1D36 50 08 50 18+                .db 0x80, 0xC, 0x40, 0x10, 0x80, 0x18, 0xA0, 0x18, 0x20
ROM:1D36 20 00 C5 57+                .db 0, 0x17, 0x21, 0x18, 0x90, 0x17, 0x21, 0x1C, 0x70
ROM:1D36 C3 03 BB 3B+                .db 0x17, 2, 0xFB, 0xF, 5, 0xF, 0x25, 3, 0xF, 0x24, 3
ROM:1D36 16 70 BB 3B+                .db 0xF, 0x29, 7, 0xF, 0x2F, 7, 0xF, 0x28, 0xD, 0xFF, 0xFF
ROM:1D36 18 50 B7 3C+                .db 0xFF, 0xFF, 0xFF, 0xFF, 0xFF, 0xFF, 0xFF, 0xFF, 0xFF
ROM:1D36 1A 70 B7 3B+                .db 0xFF, 0xFF, 0xFF, 0xFF, 0xFF, 0xFF, 0xFF, 0xFF, 0xFF
ROM:1D36 1C 50 B3 03+                .db 0xFF, 0xFF, 0xFF, 0xFF, 0xFF, 0xFF, 0xFF, 0xFF, 0xFF
ROM:1D36 A3 03 95 1F+                .db 0xFF, 0xFF, 0xFF, 0xFF, 0xFF, 0xFF, 0xFF, 0xFF, 0xFF
ROM:1D36 1E 80 93 05+                .db 0xFF, 0xFF, 0xFF, 0xFF, 0xFF, 0xFF, 0xFF, 0xFF, 0xFF
ROM:1D36 93 1F 04 70+                .db 0xFF, 0xFF, 0xFF, 0xFF, 0xFF, 0xFF, 0xFF, 0xFF, 0xFF
ROM:1D36 91 1F 06 60+                .db 0xFF, 0xFF, 0xFF, 0xFF, 0xFF, 0xFF, 0xFF, 0xFF, 0xFF
ROM:1D36 8F 1F 08 50+                .db 0xFF, 0xFF, 0xFF, 0xFF, 0xFF, 0xFF, 0xFF, 0xFF, 0xFF
ROM:1D36 85 03 7D 26+                .db 0xFF, 0xFF, 0xFF, 0xFF, 0xFF, 0xFF, 0xFF, 0xFF, 0xFF
ROM:1D36 0A E0 7D 26+                .db 0xFF, 0xFF, 0xFF, 0xFF, 0xFF, 0xFF, 0xFF, 0xFF, 0xFF
ROM:1D36 0C 88 7D 26+                .db 0xFF, 0xFF, 0xFF, 0xFF, 0xFF, 0xFF, 0xFF, 0xFF, 0xFF
ROM:1D36 0E 50 79 26+                .db 0xFF, 0xFF, 0xFF, 0xFF, 0xFF, 0xFF, 0xFF, 0xFF, 0xFF
ROM:1D36 10 C0 79 26+                .db 0xFF, 0xFF, 0xFF, 0xFF, 0xFF, 0xFF, 0xFF, 0xFF, 0xFF
ROM:1D36 12 6C 79 26+                .db 0xFF, 0xFF, 0xFF, 0xFF, 0xFF, 0xFF, 0xFF, 0xFF, 0xFF
ROM:1D36 14 18 6F 21+                .db 0xFF, 0xFF, 0xFF, 0xFF, 0xFF, 0xFF, 0xFF, 0xFF, 0xFF
ROM:1D36 16 80 6F 3B+                .db 0xFF, 0xFF, 0xFF, 0xFF, 0xFF, 0xFF, 0xFF, 0xFF, 0xFF
ROM:1D36 1A 34 6B 3B+                .db 0xFF, 0xFF, 0xFF, 0xFF, 0xFF, 0xFF, 0xFF, 0xFF, 0xFF
ROM:1D36 1C 34 6B 05+                .db 0xFF, 0xFF, 0xFF, 0xFF, 0xFF, 0xFF, 0xFF, 0xFF, 0xFF
ROM:1D36 67 1D 1E B0+                .db 0xFF, 0xFF, 0xFF, 0xFF, 0xFF, 0xFF, 0xFF, 0xFF, 0xFF
ROM:1D36 65 1D 04 A0+                .db 0xFF, 0xFF, 0xFF, 0xFF, 0xFF, 0xFF, 0xFF, 0xFF, 0xFF
ROM:1D36 63 03 53 05+                .db 0xFF, 0xFF, 0xFF, 0xFF, 0xFF, 0xFF, 0xFF, 0xFF, 0xFF
ROM:1D36 4F 26 06 80+                .db 0xFF, 0xFF, 0xFF, 0xFF, 0xFF, 0xFF, 0xFF, 0xFF, 0xFF
ROM:1D36 4C 1F 08 68+                .db 0xFF, 0xFF, 0xFF, 0xFF, 0xFF, 0xFF, 0xFF, 0xFF, 0xFF
ROM:1D36 4B 2E 0A 34+                .db 0xFF, 0xFF, 0xFF, 0xFF, 0xFF, 0xFF, 0xFF, 0xFF, 0xFF
ROM:1D36 02 A0 04 20+                .db 0xFF, 0xFF, 0xFF, 0xFF, 0xFF, 0xFF, 0xFF, 0xFF, 0xFF
ROM:1D36 06 44 1B 0C+                .db 0xFF, 0xFF, 0xFF, 0xFF, 0xFF, 0xFF, 0xFF, 0xFF, 0xFF
ROM:1D36 70 3E 1B 0E+                .db 0xFF, 0xFF, 0xFF, 0xFF, 0xFF, 0xFF, 0xFF, 0xFF, 0xFF
ROM:1D36 C0 3E 1D 10+                .db 0xFF, 0xFF, 0xFF, 0xFF, 0xFF, 0xFF, 0xFF, 0xFF, 0xFF
ROM:1D36 70 3E 1B 12+                .db 0xFF, 0xFF, 0xFF, 0xFF, 0xFF, 0xFF, 0xFF, 0xFF, 0xFF
ROM:1D36 18 38 1B 14+                .db 0xFF, 0xFF, 0xFF, 0xFF, 0xFF, 0xFF, 0xFF, 0xFF, 0xFF
ROM:1D36 70 37 2E 16+                .db 0xFF, 0xFF, 0xFF, 0xFF, 0xFF, 0xFF, 0xFF, 0xFF, 0xFF
ROM:1D36 A4 03 70 00+                .db 0xFF, 0xFF, 0xFF, 0xFF, 0xFF, 0xFF, 0xFF, 0xFF, 0xFF
ROM:1D36 70 10 70 00+                .db 0xFF, 0xFF, 0xFF, 0xFF, 0xFF, 0xFF, 0xFF, 0xFF, 0xFF
ROM:1D36 37 2E 04 34+                .db 0xFF, 0xFF, 0xFF, 0xFF, 0xFF, 0xFF, 0xFF, 0xFF, 0xFF
ROM:1D36 03 70 00 70+                .db 0xFF, 0xFF, 0xFF, 0xFF, 0xFF, 0xFF, 0xFF, 0xFF, 0xFF
ROM:1D36 10 70 00 33+                .db 0xFF, 0xFF, 0xFF, 0xFF, 0xFF, 0xFF, 0xFF, 0xFF, 0xFF
ROM:1D36 02 F9 23 05+                .db 0xFF, 0xFF, 0xFF, 0xFF, 0xFF, 0xFF, 0xFF, 0xFF, 0xFF
ROM:1D36 22 2E 06 48+                .db 0xFF, 0xFF, 0xFF, 0xFF, 0xFF, 0xFF, 0xFF, 0xFF, 0xFF
ROM:1D36 02 B8 04 20+                .db 0xFF, 0xFF, 0xFF
ROM:1FFE 00          byte_1FFE:      .db 0                   ; DATA XREF: ROM:0334r
ROM:1FFF FF                          .db 0xFF
ROM:1FFF             ; end of 'ROM'
ROM:1FFF
share1:7800             ; ===========================================================================
share1:7800
share1:7800             ; Segment type: Regular
share1:7800                             .org 0x7800
share1:7800 ?? ?? ?? ??+                .ds 0x80
share1:7880 ?? ?? ?? ??+                .ds 0x80
share1:7900 ?? ?? ?? ??+obj_state_tbl:  .ds 0x80
share1:7980 ?? ?? ?? ??+                .ds 0x80
share1:7A00 ?? ?? ?? ??+obj_x_tbl:      .ds 0x80
share1:7A80 ?? ?? ?? ??+                .ds 0x80
share1:7B00 ?? ?? ?? ??+obj_y_tbl:      .ds 0x80
share1:7B80 ?? ?? ?? ??+                .ds 0x80
share1:7C00 ?? ?? ?? ??+obj_code_tbl:   .ds 0x80
share1:7C80 ?? ?? ?? ??+                .ds 0x80
share1:7D00 ?? ?? ?? ??+                .ds 0x80
share1:7D80 ?? ?? ?? ??+                .ds 0x80
share1:7E00 ?? ?? ?? ??+                .ds 0x80
share1:7E80 ?? ?? ?? ??+                .ds 0x80
share1:7F00 ?? ?? ?? ??+obj_type_tbl:   .ds 0x80                ; DATA XREF: ROM:0838o
share1:7F80 ?? ?? ?? ??+                .ds 0x80
share1:7F80 ?? ?? ?? ??+; end of 'share1'
share1:7F80 ?? ?? ?? ??+
xevious_sr1:8000             ; ===========================================================================
xevious_sr1:8000
xevious_sr1:8000             ; Segment type: Regular
xevious_sr1:8000                             .org 0x8000
xevious_sr1:8000 ??                          .ds 1
xevious_sr1:8001 ??          countup_timer_1:.ds 1                   ; DATA XREF: ROM:026Dr
xevious_sr1:8001                                                     ; ROM:0438r ...
xevious_sr1:8002 ??          vb_semaphore_sub:.ds 1                  ; DATA XREF: ROM:restart_main_fn_loopo
xevious_sr1:8003 ??          flip_screen_flag:.ds 1                  ; DATA XREF: HL_equals_2A:calc_color_video_ram_addrr
xevious_sr1:8003                                                     ; calc_fg_screen_addrr ...
xevious_sr1:8004 ??                          .ds 1
xevious_sr1:8005 ??                          .ds 1
xevious_sr1:8006 ??                          .ds 1
xevious_sr1:8007 ??                          .ds 1
xevious_sr1:8008 ??                          .ds 1
xevious_sr1:8009 ??                          .ds 1
xevious_sr1:800A ??          unk_800A:       .ds 1
xevious_sr1:800B ??                          .ds 1
xevious_sr1:800C ?? ??       bg_scroll_x_shadow:.ds 2                ; DATA XREF: ROM:_sub_fn_1__update_scroll_hwr
xevious_sr1:800C                                                     ; ROM:0492w
xevious_sr1:800E ??          bg_srcoll_y_shadow:.ds 1                ; DATA XREF: ROM:03EFr
xevious_sr1:800E                                                     ; ROM:loc_49Fw
xevious_sr1:800F ??          byte_800F:      .ds 1                   ; DATA XREF: get_map_row+Br
xevious_sr1:8010 ?? ??       scroll_cntr:    .ds 2                   ; DATA XREF: ROM:loc_487r
xevious_sr1:8010                                                     ; get_map_rowr ...
xevious_sr1:8012 ??                          .ds 1
xevious_sr1:8013 ??          area_offset_in_map:.ds 1                ; DATA XREF: ROM:030Dw
xevious_sr1:8013                                                     ; get_map_row+1Fr
xevious_sr1:8014 ??          scroll_delta:   .ds 1                   ; DATA XREF: get_map_row+4r
xevious_sr1:8015 ??                          .ds 1
xevious_sr1:8016 ??          dswb_0115:      .ds 1                   ; DATA XREF: ROM:035Er
xevious_sr1:8016                                                     ; ROM:_sub_2_fn_3__inc_enemy_AI_and_flying_enemiesr
xevious_sr1:8017 ??                          .ds 1
xevious_sr1:8018 ??          new_num_credits:.ds 1                   ; DATA XREF: ROM:_sub_fn_4__handle_credits_and_startr
xevious_sr1:8019 ??                          .ds 1
xevious_sr1:801A ??                          .ds 1
xevious_sr1:801B ??          start_pressed:  .ds 1                   ; DATA XREF: ROM:0428w
xevious_sr1:801C ??          pulsing_colour_1:.ds 1                  ; DATA XREF: ROM:0458w
xevious_sr1:801D ??                          .ds 1
xevious_sr1:801E ??                          .ds 1
xevious_sr1:801F ??                          .ds 1
xevious_sr1:8020 ??                          .ds 1
xevious_sr1:8021 ??          curr_player:    .ds 1                   ; DATA XREF: ROM:027Dr
xevious_sr1:8022 ??          two_player_game:.ds 1                   ; DATA XREF: ROM:0289r
xevious_sr1:8022                                                     ; ROM:041Fw
xevious_sr1:8023 ??          is_real_game:   .ds 1                   ; DATA XREF: flash_1up_2up+2r
xevious_sr1:8024 ??                          .ds 1
xevious_sr1:8025 ??                          .ds 1
xevious_sr1:8026 ??                          .ds 1
xevious_sr1:8027 ??                          .ds 1
xevious_sr1:8028 ??                          .ds 1
xevious_sr1:8029 ??          num_credits:    .ds 1                   ; DATA XREF: ROM:03FAr
xevious_sr1:8029                                                     ; ROM:0403w ...
xevious_sr1:802A ??          scroll_disabled:.ds 1                   ; DATA XREF: ROM:_sub_fn_5__handle_pulsing_coloursr
xevious_sr1:802A                                                     ; ROM:_sub_fn_30__handle_scrollr
xevious_sr1:802B ??          num_flying_enemies:.ds 1                ; DATA XREF: ROM:0593w
xevious_sr1:802B                                                     ; ROM:05CFw
xevious_sr1:802C ??          flying_enemy_type_tbl_offset:.ds 1      ; DATA XREF: ROM:0598w
xevious_sr1:802D ??          num_bacura:     .ds 1                   ; DATA XREF: ROM:07A8w
xevious_sr1:802E ??          byte_802E:      .ds 1                   ; DATA XREF: ROM:0807w
xevious_sr1:802E                                                     ; ROM:0811w
xevious_sr1:802F ??          andor_genesis_end_flag:.ds 1            ; DATA XREF: ROM:0832w
xevious_sr1:802F                                                     ; ROM:085Aw
xevious_sr1:8030 ??                          .ds 1
xevious_sr1:8031 ??                          .ds 1
xevious_sr1:8032 ??                          .ds 1
xevious_sr1:8033 ??                          .ds 1
xevious_sr1:8034 ??                          .ds 1
xevious_sr1:8035 ??                          .ds 1
xevious_sr1:8036 ??                          .ds 1
xevious_sr1:8037 ??                          .ds 1
xevious_sr1:8038 ??                          .ds 1
xevious_sr1:8039 ??                          .ds 1
xevious_sr1:803A ??                          .ds 1
xevious_sr1:803B ??                          .ds 1
xevious_sr1:803C ??                          .ds 1
xevious_sr1:803D ??                          .ds 1
xevious_sr1:803E ??                          .ds 1
xevious_sr1:803F ??                          .ds 1
xevious_sr1:8040 ??                          .ds 1
xevious_sr1:8041 ??                          .ds 1
xevious_sr1:8042 ??          next_domogram:  .ds 1                   ; DATA XREF: ROM:07DCr
xevious_sr1:8042                                                     ; ROM:07F0r ...
xevious_sr1:8043 ??          pulsing_colour_2:.ds 1                  ; DATA XREF: ROM:0461w
xevious_sr1:8044 ??                          .ds 1
xevious_sr1:8045 ??                          .ds 1
xevious_sr1:8046 ??                          .ds 1
xevious_sr1:8047 ??                          .ds 1
xevious_sr1:8048 ??                          .ds 1
xevious_sr1:8049 ??                          .ds 1
xevious_sr1:804A ??                          .ds 1
xevious_sr1:804B ??                          .ds 1
xevious_sr1:804C ??                          .ds 1
xevious_sr1:804D ??                          .ds 1
xevious_sr1:804E ??                          .ds 1
xevious_sr1:804F ??                          .ds 1
xevious_sr1:8050 ??                          .ds 1
xevious_sr1:8051 ??                          .ds 1
xevious_sr1:8052 ??                          .ds 1
xevious_sr1:8053 ??                          .ds 1
xevious_sr1:8054 ??                          .ds 1
xevious_sr1:8055 ??                          .ds 1
xevious_sr1:8056 ??                          .ds 1
xevious_sr1:8057 ??                          .ds 1
xevious_sr1:8058 ??                          .ds 1
xevious_sr1:8059 ??                          .ds 1
xevious_sr1:805A ??                          .ds 1
xevious_sr1:805B ??                          .ds 1
xevious_sr1:805C ??                          .ds 1
xevious_sr1:805D ??                          .ds 1
xevious_sr1:805E ??                          .ds 1
xevious_sr1:805F ??                          .ds 1
xevious_sr1:8060 ??                          .ds 1
xevious_sr1:8061 ??                          .ds 1
xevious_sr1:8062 ??                          .ds 1
xevious_sr1:8063 ??                          .ds 1
xevious_sr1:8064 ??                          .ds 1
xevious_sr1:8065 ??                          .ds 1
xevious_sr1:8066 ??                          .ds 1
xevious_sr1:8067 ??                          .ds 1
xevious_sr1:8068 ??                          .ds 1
xevious_sr1:8069 ??                          .ds 1
xevious_sr1:806A ??                          .ds 1
xevious_sr1:806B ??                          .ds 1
xevious_sr1:806C ??                          .ds 1
xevious_sr1:806D ??                          .ds 1
xevious_sr1:806E ??                          .ds 1
xevious_sr1:806F ??                          .ds 1
xevious_sr1:8070 ??                          .ds 1
xevious_sr1:8071 ??                          .ds 1
xevious_sr1:8072 ??                          .ds 1
xevious_sr1:8073 ??                          .ds 1
xevious_sr1:8074 ??                          .ds 1
xevious_sr1:8075 ??                          .ds 1
xevious_sr1:8076 ??                          .ds 1
xevious_sr1:8077 ??                          .ds 1
xevious_sr1:8078 ??                          .ds 1
xevious_sr1:8079 ??                          .ds 1
xevious_sr1:807A ??                          .ds 1
xevious_sr1:807B ??                          .ds 1
xevious_sr1:807C ??                          .ds 1
xevious_sr1:807D ??                          .ds 1
xevious_sr1:807E ??                          .ds 1
xevious_sr1:807F ??                          .ds 1
xevious_sr1:8080 ??          unk_8080:       .ds 1                   ; DATA XREF: ROM:0414o
xevious_sr1:8081 ??                          .ds 1
xevious_sr1:8082 ??                          .ds 1
xevious_sr1:8083 ??                          .ds 1
xevious_sr1:8084 ??                          .ds 1
xevious_sr1:8085 ??                          .ds 1
xevious_sr1:8086 ??                          .ds 1
xevious_sr1:8087 ??                          .ds 1
xevious_sr1:8088 ??                          .ds 1
xevious_sr1:8089 ??                          .ds 1
xevious_sr1:808A ??                          .ds 1
xevious_sr1:808B ??                          .ds 1
xevious_sr1:808C ??                          .ds 1
xevious_sr1:808D ??                          .ds 1
xevious_sr1:808E ??                          .ds 1
xevious_sr1:808F ??                          .ds 1
xevious_sr1:8090 ??                          .ds 1
xevious_sr1:8091 ??                          .ds 1
xevious_sr1:8092 ??                          .ds 1
xevious_sr1:8093 ??                          .ds 1
xevious_sr1:8094 ??                          .ds 1
xevious_sr1:8095 ??                          .ds 1
xevious_sr1:8096 ??                          .ds 1
xevious_sr1:8097 ??                          .ds 1
xevious_sr1:8098 ??                          .ds 1
xevious_sr1:8099 ??                          .ds 1
xevious_sr1:809A ??                          .ds 1
xevious_sr1:809B ??                          .ds 1
xevious_sr1:809C ??                          .ds 1
xevious_sr1:809D ??                          .ds 1
xevious_sr1:809E ??                          .ds 1
xevious_sr1:809F ??                          .ds 1
xevious_sr1:80A0 ??                          .ds 1
xevious_sr1:80A1 ??                          .ds 1
xevious_sr1:80A2 ??                          .ds 1
xevious_sr1:80A3 ??                          .ds 1
xevious_sr1:80A4 ??                          .ds 1
xevious_sr1:80A5 ??                          .ds 1
xevious_sr1:80A6 ??                          .ds 1
xevious_sr1:80A7 ??                          .ds 1
xevious_sr1:80A8 ??          unk_80A8:       .ds 1
xevious_sr1:80A9 ??                          .ds 1
xevious_sr1:80AA ??                          .ds 1
xevious_sr1:80AB ??                          .ds 1
xevious_sr1:80AC ??                          .ds 1
xevious_sr1:80AD ??                          .ds 1
xevious_sr1:80AE ??                          .ds 1
xevious_sr1:80AF ??                          .ds 1
xevious_sr1:80B0 ??                          .ds 1
xevious_sr1:80B1 ??                          .ds 1
xevious_sr1:80B2 ??                          .ds 1
xevious_sr1:80B3 ??                          .ds 1
xevious_sr1:80B4 ??                          .ds 1
xevious_sr1:80B5 ??                          .ds 1
xevious_sr1:80B6 ??                          .ds 1
xevious_sr1:80B7 ??                          .ds 1
xevious_sr1:80B8 ??                          .ds 1
xevious_sr1:80B9 ??                          .ds 1
xevious_sr1:80BA ??                          .ds 1
xevious_sr1:80BB ??                          .ds 1
xevious_sr1:80BC ??                          .ds 1
xevious_sr1:80BD ??                          .ds 1
xevious_sr1:80BE ??                          .ds 1
xevious_sr1:80BF ??                          .ds 1
xevious_sr1:80C0 ??                          .ds 1
xevious_sr1:80C1 ??                          .ds 1
xevious_sr1:80C2 ??                          .ds 1
xevious_sr1:80C3 ??                          .ds 1
xevious_sr1:80C4 ??                          .ds 1
xevious_sr1:80C5 ??                          .ds 1
xevious_sr1:80C6 ??                          .ds 1
xevious_sr1:80C7 ??                          .ds 1
xevious_sr1:80C8 ??                          .ds 1
xevious_sr1:80C9 ??                          .ds 1
xevious_sr1:80CA ??                          .ds 1
xevious_sr1:80CB ??                          .ds 1
xevious_sr1:80CC ??                          .ds 1
xevious_sr1:80CD ??                          .ds 1
xevious_sr1:80CE ??                          .ds 1
xevious_sr1:80CF ??                          .ds 1
xevious_sr1:80D0 ??                          .ds 1
xevious_sr1:80D1 ??                          .ds 1
xevious_sr1:80D2 ??                          .ds 1
xevious_sr1:80D3 ??                          .ds 1
xevious_sr1:80D4 ??                          .ds 1
xevious_sr1:80D5 ??                          .ds 1
xevious_sr1:80D6 ??                          .ds 1
xevious_sr1:80D7 ??                          .ds 1
xevious_sr1:80D8 ??                          .ds 1
xevious_sr1:80D9 ??                          .ds 1
xevious_sr1:80DA ??                          .ds 1
xevious_sr1:80DB ??                          .ds 1
xevious_sr1:80DC ??                          .ds 1
xevious_sr1:80DD ??                          .ds 1
xevious_sr1:80DE ??                          .ds 1
xevious_sr1:80DF ??                          .ds 1
xevious_sr1:80E0 ??                          .ds 1
xevious_sr1:80E1 ??                          .ds 1
xevious_sr1:80E2 ??                          .ds 1
xevious_sr1:80E3 ??                          .ds 1
xevious_sr1:80E4 ??                          .ds 1
xevious_sr1:80E5 ??                          .ds 1
xevious_sr1:80E6 ??                          .ds 1
xevious_sr1:80E7 ??                          .ds 1
xevious_sr1:80E8 ??                          .ds 1
xevious_sr1:80E9 ??                          .ds 1
xevious_sr1:80EA ??                          .ds 1
xevious_sr1:80EB ??                          .ds 1
xevious_sr1:80EC ??                          .ds 1
xevious_sr1:80ED ??                          .ds 1
xevious_sr1:80EE ??                          .ds 1
xevious_sr1:80EF ??                          .ds 1
xevious_sr1:80F0 ??                          .ds 1
xevious_sr1:80F1 ??                          .ds 1
xevious_sr1:80F2 ??                          .ds 1
xevious_sr1:80F3 ??                          .ds 1
xevious_sr1:80F4 ??                          .ds 1
xevious_sr1:80F5 ??                          .ds 1
xevious_sr1:80F6 ??                          .ds 1
xevious_sr1:80F7 ??                          .ds 1
xevious_sr1:80F8 ??                          .ds 1
xevious_sr1:80F9 ??                          .ds 1
xevious_sr1:80FA ??                          .ds 1
xevious_sr1:80FB ??                          .ds 1
xevious_sr1:80FC ??                          .ds 1
xevious_sr1:80FD ??                          .ds 1
xevious_sr1:80FE ??                          .ds 1
xevious_sr1:80FF ??                          .ds 1
xevious_sr1:8100 ??                          .ds 1
xevious_sr1:8101 ??                          .ds 1
xevious_sr1:8102 ??                          .ds 1
xevious_sr1:8103 ??                          .ds 1
xevious_sr1:8104 ??                          .ds 1
xevious_sr1:8105 ??                          .ds 1
xevious_sr1:8106 ??                          .ds 1
xevious_sr1:8107 ??                          .ds 1
xevious_sr1:8108 ??                          .ds 1
xevious_sr1:8109 ??                          .ds 1
xevious_sr1:810A ??                          .ds 1
xevious_sr1:810B ??                          .ds 1
xevious_sr1:810C ??                          .ds 1
xevious_sr1:810D ??                          .ds 1
xevious_sr1:810E ??                          .ds 1
xevious_sr1:810F ??                          .ds 1
xevious_sr1:8110 ??                          .ds 1
xevious_sr1:8111 ??                          .ds 1
xevious_sr1:8112 ??                          .ds 1
xevious_sr1:8113 ??                          .ds 1
xevious_sr1:8114 ??                          .ds 1
xevious_sr1:8115 ??                          .ds 1
xevious_sr1:8116 ??                          .ds 1
xevious_sr1:8117 ??                          .ds 1
xevious_sr1:8118 ??                          .ds 1
xevious_sr1:8119 ??                          .ds 1
xevious_sr1:811A ??                          .ds 1
xevious_sr1:811B ??                          .ds 1
xevious_sr1:811C ??                          .ds 1
xevious_sr1:811D ??                          .ds 1
xevious_sr1:811E ??                          .ds 1
xevious_sr1:811F ??                          .ds 1
xevious_sr1:8120 ??                          .ds 1
xevious_sr1:8121 ??                          .ds 1
xevious_sr1:8122 ??                          .ds 1
xevious_sr1:8123 ??                          .ds 1
xevious_sr1:8124 ??                          .ds 1
xevious_sr1:8125 ??                          .ds 1
xevious_sr1:8126 ??                          .ds 1
xevious_sr1:8127 ??                          .ds 1
xevious_sr1:8128 ??                          .ds 1
xevious_sr1:8129 ??                          .ds 1
xevious_sr1:812A ??                          .ds 1
xevious_sr1:812B ??                          .ds 1
xevious_sr1:812C ??                          .ds 1
xevious_sr1:812D ??                          .ds 1
xevious_sr1:812E ??                          .ds 1
xevious_sr1:812F ??                          .ds 1
xevious_sr1:8130 ??                          .ds 1
xevious_sr1:8131 ??                          .ds 1
xevious_sr1:8132 ??                          .ds 1
xevious_sr1:8133 ??                          .ds 1
xevious_sr1:8134 ??                          .ds 1
xevious_sr1:8135 ??                          .ds 1
xevious_sr1:8136 ??                          .ds 1
xevious_sr1:8137 ??                          .ds 1
xevious_sr1:8138 ??                          .ds 1
xevious_sr1:8139 ??                          .ds 1
xevious_sr1:813A ??                          .ds 1
xevious_sr1:813B ??                          .ds 1
xevious_sr1:813C ??                          .ds 1
xevious_sr1:813D ??                          .ds 1
xevious_sr1:813E ??                          .ds 1
xevious_sr1:813F ??                          .ds 1
xevious_sr1:8140 ?? ?? ?? ??+spriteram_upper_shadow:.ds 0x40         ; DATA XREF: ROM:03DBo
xevious_sr1:8180 ??                          .ds 1
xevious_sr1:8181 ?? ??       curr_player_score_Ks:.ds 2              ; DATA XREF: ROM:05DFr
xevious_sr1:8183 ??                          .ds 1
xevious_sr1:8184 ??                          .ds 1
xevious_sr1:8185 ?? ??       area_obj_ptr:   .ds 2                   ; DATA XREF: ROM:_sub_fn_2__handle_objectsr
xevious_sr1:8185                                                     ; ROM:0216w ...
xevious_sr1:8187 ??          area:           .ds 1                   ; DATA XREF: ROM:02FAr
xevious_sr1:8187                                                     ; ROM:loc_304w
xevious_sr1:8188 ??          enemy_AI_level: .ds 1                   ; DATA XREF: ROM:05AFr
xevious_sr1:8188                                                     ; ROM:loc_5B9w ...
xevious_sr1:8189 ??                          .ds 1
xevious_sr1:818A ??                          .ds 1
xevious_sr1:818B ??          solvalou_number:.ds 1                   ; DATA XREF: ROM:05E2r
xevious_sr1:818C ??                          .ds 1
xevious_sr1:818D ??                          .ds 1
xevious_sr1:818E ??                          .ds 1
xevious_sr1:818F ??                          .ds 1
xevious_sr1:8190 ??                          .ds 1
xevious_sr1:8191 ??                          .ds 1
xevious_sr1:8192 ??                          .ds 1
xevious_sr1:8193 ??                          .ds 1
xevious_sr1:8194 ??                          .ds 1
xevious_sr1:8195 ??                          .ds 1
xevious_sr1:8196 ??                          .ds 1
xevious_sr1:8197 ??                          .ds 1
xevious_sr1:8198 ??                          .ds 1
xevious_sr1:8199 ??                          .ds 1
xevious_sr1:819A ??                          .ds 1
xevious_sr1:819B ??                          .ds 1
xevious_sr1:819C ??                          .ds 1
xevious_sr1:819D ??                          .ds 1
xevious_sr1:819E ??                          .ds 1
xevious_sr1:819F ??                          .ds 1
xevious_sr1:81A0 ??          ffreq_mask_derota:.ds 1                 ; DATA XREF: ROM:060Ew
xevious_sr1:81A1 ??          ffreq_mask_kapi:.ds 1                   ; DATA XREF: ROM:0636w
xevious_sr1:81A2 ??          ffreq_mask_terrazi:.ds 1                ; DATA XREF: ROM:062Cw
xevious_sr1:81A3 ??          ffreq_mask_logram:.ds 1                 ; DATA XREF: ROM:0618w
xevious_sr1:81A4 ??          ffreq_mask_zoshi:.ds 1                  ; DATA XREF: ROM:0622w
xevious_sr1:81A5 ??          ffreq_mask_boza_logram:.ds 1            ; DATA XREF: ROM:0640w
xevious_sr1:81A6 ??          ffreq_mask_domogram:.ds 1               ; DATA XREF: ROM:064Aw
xevious_sr1:81A7 ??          ffreq_mask_andor_genesis:.ds 1          ; DATA XREF: ROM:0654w
xevious_sr1:81A8 ??                          .ds 1
xevious_sr1:81A9 ??                          .ds 1
xevious_sr1:81AA ??                          .ds 1
xevious_sr1:81AB ??                          .ds 1
xevious_sr1:81AC ??                          .ds 1
xevious_sr1:81AD ??                          .ds 1
xevious_sr1:81AE ??                          .ds 1
xevious_sr1:81AF ??                          .ds 1
xevious_sr1:81B0 ??                          .ds 1
xevious_sr1:81B1 ??          gnd_stop_firing_row:.ds 1               ; DATA XREF: ROM:065Ew
xevious_sr1:81B2 ??                          .ds 1
xevious_sr1:81B3 ??                          .ds 1
xevious_sr1:81B4 ??                          .ds 1
xevious_sr1:81B5 ??                          .ds 1
xevious_sr1:81B6 ??                          .ds 1
xevious_sr1:81B7 ??                          .ds 1
xevious_sr1:81B8 ??                          .ds 1
xevious_sr1:81B9 ??                          .ds 1
xevious_sr1:81BA ??                          .ds 1
xevious_sr1:81BB ??                          .ds 1
xevious_sr1:81BC ??                          .ds 1
xevious_sr1:81BD ??                          .ds 1
xevious_sr1:81BE ??                          .ds 1
xevious_sr1:81BF ??                          .ds 1
xevious_sr1:81C0 ??                          .ds 1
xevious_sr1:81C1 ??                          .ds 1
xevious_sr1:81C2 ??                          .ds 1
xevious_sr1:81C3 ??                          .ds 1
xevious_sr1:81C4 ??                          .ds 1
xevious_sr1:81C5 ??                          .ds 1
xevious_sr1:81C6 ??                          .ds 1
xevious_sr1:81C7 ??                          .ds 1
xevious_sr1:81C8 ??                          .ds 1
xevious_sr1:81C9 ??                          .ds 1
xevious_sr1:81CA ??                          .ds 1
xevious_sr1:81CB ??                          .ds 1
xevious_sr1:81CC ??                          .ds 1
xevious_sr1:81CD ??                          .ds 1
xevious_sr1:81CE ??                          .ds 1
xevious_sr1:81CF ??                          .ds 1
xevious_sr1:81D0 ??                          .ds 1
xevious_sr1:81D1 ??                          .ds 1
xevious_sr1:81D2 ??                          .ds 1
xevious_sr1:81D3 ??                          .ds 1
xevious_sr1:81D4 ??                          .ds 1
xevious_sr1:81D5 ??                          .ds 1
xevious_sr1:81D6 ??                          .ds 1
xevious_sr1:81D7 ??                          .ds 1
xevious_sr1:81D8 ??                          .ds 1
xevious_sr1:81D9 ??                          .ds 1
xevious_sr1:81DA ??                          .ds 1
xevious_sr1:81DB ??                          .ds 1
xevious_sr1:81DC ??                          .ds 1
xevious_sr1:81DD ??                          .ds 1
xevious_sr1:81DE ??                          .ds 1
xevious_sr1:81DF ??                          .ds 1
xevious_sr1:81E0 ??                          .ds 1
xevious_sr1:81E1 ??                          .ds 1
xevious_sr1:81E2 ??                          .ds 1
xevious_sr1:81E3 ??                          .ds 1
xevious_sr1:81E4 ??                          .ds 1
xevious_sr1:81E5 ??                          .ds 1
xevious_sr1:81E6 ??                          .ds 1
xevious_sr1:81E7 ??                          .ds 1
xevious_sr1:81E8 ??                          .ds 1
xevious_sr1:81E9 ??                          .ds 1
xevious_sr1:81EA ??                          .ds 1
xevious_sr1:81EB ??                          .ds 1
xevious_sr1:81EC ??                          .ds 1
xevious_sr1:81ED ??                          .ds 1
xevious_sr1:81EE ??                          .ds 1
xevious_sr1:81EF ??                          .ds 1
xevious_sr1:81F0 ??                          .ds 1
xevious_sr1:81F1 ??                          .ds 1
xevious_sr1:81F2 ??                          .ds 1
xevious_sr1:81F3 ??                          .ds 1
xevious_sr1:81F4 ??                          .ds 1
xevious_sr1:81F5 ??                          .ds 1
xevious_sr1:81F6 ??                          .ds 1
xevious_sr1:81F7 ??                          .ds 1
xevious_sr1:81F8 ??                          .ds 1
xevious_sr1:81F9 ??                          .ds 1
xevious_sr1:81FA ??                          .ds 1
xevious_sr1:81FB ??                          .ds 1
xevious_sr1:81FC ??                          .ds 1
xevious_sr1:81FD ??                          .ds 1
xevious_sr1:81FE ??                          .ds 1
xevious_sr1:81FF ??                          .ds 1
xevious_sr1:8200 ??                          .ds 1
xevious_sr1:8201 ??                          .ds 1
xevious_sr1:8202 ??                          .ds 1
xevious_sr1:8203 ??                          .ds 1
xevious_sr1:8204 ??                          .ds 1
xevious_sr1:8205 ??                          .ds 1
xevious_sr1:8206 ??                          .ds 1
xevious_sr1:8207 ??                          .ds 1
xevious_sr1:8208 ??                          .ds 1
xevious_sr1:8209 ??                          .ds 1
xevious_sr1:820A ??                          .ds 1
xevious_sr1:820B ??                          .ds 1
xevious_sr1:820C ??                          .ds 1
xevious_sr1:820D ??                          .ds 1
xevious_sr1:820E ??                          .ds 1
xevious_sr1:820F ??                          .ds 1
xevious_sr1:8210 ??                          .ds 1
xevious_sr1:8211 ??                          .ds 1
xevious_sr1:8212 ??                          .ds 1
xevious_sr1:8213 ??                          .ds 1
xevious_sr1:8214 ??                          .ds 1
xevious_sr1:8215 ??                          .ds 1
xevious_sr1:8216 ??                          .ds 1
xevious_sr1:8217 ??                          .ds 1
xevious_sr1:8218 ??                          .ds 1
xevious_sr1:8219 ??                          .ds 1
xevious_sr1:821A ??                          .ds 1
xevious_sr1:821B ??                          .ds 1
xevious_sr1:821C ??                          .ds 1
xevious_sr1:821D ??                          .ds 1
xevious_sr1:821E ??                          .ds 1
xevious_sr1:821F ??                          .ds 1
xevious_sr1:8220 ??                          .ds 1
xevious_sr1:8221 ??                          .ds 1
xevious_sr1:8222 ??                          .ds 1
xevious_sr1:8223 ??                          .ds 1
xevious_sr1:8224 ??                          .ds 1
xevious_sr1:8225 ??                          .ds 1
xevious_sr1:8226 ??                          .ds 1
xevious_sr1:8227 ??                          .ds 1
xevious_sr1:8228 ??                          .ds 1
xevious_sr1:8229 ??                          .ds 1
xevious_sr1:822A ??                          .ds 1
xevious_sr1:822B ??                          .ds 1
xevious_sr1:822C ??                          .ds 1
xevious_sr1:822D ??                          .ds 1
xevious_sr1:822E ??                          .ds 1
xevious_sr1:822F ??                          .ds 1
xevious_sr1:8230 ??                          .ds 1
xevious_sr1:8231 ??                          .ds 1
xevious_sr1:8232 ??                          .ds 1
xevious_sr1:8233 ??                          .ds 1
xevious_sr1:8234 ??                          .ds 1
xevious_sr1:8235 ??                          .ds 1
xevious_sr1:8236 ??                          .ds 1
xevious_sr1:8237 ??                          .ds 1
xevious_sr1:8238 ??                          .ds 1
xevious_sr1:8239 ??                          .ds 1
xevious_sr1:823A ??                          .ds 1
xevious_sr1:823B ??                          .ds 1
xevious_sr1:823C ??                          .ds 1
xevious_sr1:823D ??                          .ds 1
xevious_sr1:823E ??                          .ds 1
xevious_sr1:823F ??                          .ds 1
xevious_sr1:8240 ?? ?? ?? ??+spriteram_2_upper_shadow:.ds 0x40       ; DATA XREF: ROM:_sub_fn_0__update_32_sprite_hwo
xevious_sr1:8280 ??                          .ds 1
xevious_sr1:8281 ??                          .ds 1
xevious_sr1:8282 ??                          .ds 1
xevious_sr1:8283 ??                          .ds 1
xevious_sr1:8284 ??                          .ds 1
xevious_sr1:8285 ??                          .ds 1
xevious_sr1:8286 ??                          .ds 1
xevious_sr1:8287 ??                          .ds 1
xevious_sr1:8288 ??                          .ds 1
xevious_sr1:8289 ??                          .ds 1
xevious_sr1:828A ??                          .ds 1
xevious_sr1:828B ??                          .ds 1
xevious_sr1:828C ??                          .ds 1
xevious_sr1:828D ??                          .ds 1
xevious_sr1:828E ??                          .ds 1
xevious_sr1:828F ??                          .ds 1
xevious_sr1:8290 ??                          .ds 1
xevious_sr1:8291 ??                          .ds 1
xevious_sr1:8292 ??                          .ds 1
xevious_sr1:8293 ??                          .ds 1
xevious_sr1:8294 ??                          .ds 1
xevious_sr1:8295 ??                          .ds 1
xevious_sr1:8296 ??                          .ds 1
xevious_sr1:8297 ??                          .ds 1
xevious_sr1:8298 ??                          .ds 1
xevious_sr1:8299 ??                          .ds 1
xevious_sr1:829A ??                          .ds 1
xevious_sr1:829B ??                          .ds 1
xevious_sr1:829C ??                          .ds 1
xevious_sr1:829D ??                          .ds 1
xevious_sr1:829E ??                          .ds 1
xevious_sr1:829F ??                          .ds 1
xevious_sr1:82A0 ??                          .ds 1
xevious_sr1:82A1 ??                          .ds 1
xevious_sr1:82A2 ??                          .ds 1
xevious_sr1:82A3 ??                          .ds 1
xevious_sr1:82A4 ??                          .ds 1
xevious_sr1:82A5 ??                          .ds 1
xevious_sr1:82A6 ??                          .ds 1
xevious_sr1:82A7 ??                          .ds 1
xevious_sr1:82A8 ??                          .ds 1
xevious_sr1:82A9 ??                          .ds 1
xevious_sr1:82AA ??                          .ds 1
xevious_sr1:82AB ??                          .ds 1
xevious_sr1:82AC ??                          .ds 1
xevious_sr1:82AD ??                          .ds 1
xevious_sr1:82AE ??                          .ds 1
xevious_sr1:82AF ??                          .ds 1
xevious_sr1:82B0 ??                          .ds 1
xevious_sr1:82B1 ??                          .ds 1
xevious_sr1:82B2 ??                          .ds 1
xevious_sr1:82B3 ??                          .ds 1
xevious_sr1:82B4 ??                          .ds 1
xevious_sr1:82B5 ??                          .ds 1
xevious_sr1:82B6 ??                          .ds 1
xevious_sr1:82B7 ??                          .ds 1
xevious_sr1:82B8 ??                          .ds 1
xevious_sr1:82B9 ??                          .ds 1
xevious_sr1:82BA ??                          .ds 1
xevious_sr1:82BB ??                          .ds 1
xevious_sr1:82BC ??                          .ds 1
xevious_sr1:82BD ??                          .ds 1
xevious_sr1:82BE ??                          .ds 1
xevious_sr1:82BF ??                          .ds 1
xevious_sr1:82C0 ?? ?? ?? ??+_sub_fn_jump_tbl_RAM:.ds 0x40           ; DATA XREF: ROM:034Bo
xevious_sr1:82C0 ?? ?? ?? ??+                                        ; ROM:036Bo
xevious_sr1:8300 ??          spriteram_3_lower_shadow:.ds 1          ; DATA XREF: ROM:04F0o
xevious_sr1:8301 ??                          .ds 1
xevious_sr1:8302 ??                          .ds 1
xevious_sr1:8303 ??                          .ds 1
xevious_sr1:8304 ??                          .ds 1
xevious_sr1:8305 ??                          .ds 1
xevious_sr1:8306 ??                          .ds 1
xevious_sr1:8307 ??                          .ds 1
xevious_sr1:8308 ??                          .ds 1
xevious_sr1:8309 ??                          .ds 1
xevious_sr1:830A ??                          .ds 1
xevious_sr1:830B ??                          .ds 1
xevious_sr1:830C ??                          .ds 1
xevious_sr1:830D ??                          .ds 1
xevious_sr1:830E ??                          .ds 1
xevious_sr1:830F ??                          .ds 1
xevious_sr1:8310 ??                          .ds 1
xevious_sr1:8311 ??                          .ds 1
xevious_sr1:8312 ??                          .ds 1
xevious_sr1:8313 ??                          .ds 1
xevious_sr1:8314 ??                          .ds 1
xevious_sr1:8315 ??                          .ds 1
xevious_sr1:8316 ??                          .ds 1
xevious_sr1:8317 ??                          .ds 1
xevious_sr1:8318 ??                          .ds 1
xevious_sr1:8319 ??                          .ds 1
xevious_sr1:831A ??                          .ds 1
xevious_sr1:831B ??                          .ds 1
xevious_sr1:831C ??                          .ds 1
xevious_sr1:831D ??                          .ds 1
xevious_sr1:831E ??                          .ds 1
xevious_sr1:831F ??                          .ds 1
xevious_sr1:8320 ??                          .ds 1
xevious_sr1:8321 ??                          .ds 1
xevious_sr1:8322 ??                          .ds 1
xevious_sr1:8323 ??                          .ds 1
xevious_sr1:8324 ??                          .ds 1
xevious_sr1:8325 ??                          .ds 1
xevious_sr1:8326 ??                          .ds 1
xevious_sr1:8327 ??                          .ds 1
xevious_sr1:8328 ??                          .ds 1
xevious_sr1:8329 ??                          .ds 1
xevious_sr1:832A ??                          .ds 1
xevious_sr1:832B ??                          .ds 1
xevious_sr1:832C ??                          .ds 1
xevious_sr1:832D ??                          .ds 1
xevious_sr1:832E ??                          .ds 1
xevious_sr1:832F ??                          .ds 1
xevious_sr1:8330 ??                          .ds 1
xevious_sr1:8331 ??                          .ds 1
xevious_sr1:8332 ??                          .ds 1
xevious_sr1:8333 ??                          .ds 1
xevious_sr1:8334 ??                          .ds 1
xevious_sr1:8335 ??                          .ds 1
xevious_sr1:8336 ??                          .ds 1
xevious_sr1:8337 ??                          .ds 1
xevious_sr1:8338 ??                          .ds 1
xevious_sr1:8339 ??                          .ds 1
xevious_sr1:833A ??                          .ds 1
xevious_sr1:833B ??                          .ds 1
xevious_sr1:833C ??                          .ds 1
xevious_sr1:833D ??                          .ds 1
xevious_sr1:833E ??                          .ds 1
xevious_sr1:833F ??                          .ds 1
xevious_sr1:8340 ?? ?? ?? ??+spriteram_3_upper_shadow:.ds 0x40       ; DATA XREF: ROM:03D0o
xevious_sr1:8380 ??                          .ds 1
xevious_sr1:8381 ??                          .ds 1
xevious_sr1:8382 ??                          .ds 1
xevious_sr1:8383 ??                          .ds 1
xevious_sr1:8384 ??                          .ds 1
xevious_sr1:8385 ??                          .ds 1
xevious_sr1:8386 ??                          .ds 1
xevious_sr1:8387 ??                          .ds 1
xevious_sr1:8388 ??                          .ds 1
xevious_sr1:8389 ??                          .ds 1
xevious_sr1:838A ??                          .ds 1
xevious_sr1:838B ??                          .ds 1
xevious_sr1:838C ??                          .ds 1
xevious_sr1:838D ??                          .ds 1
xevious_sr1:838E ??                          .ds 1
xevious_sr1:838F ??                          .ds 1
xevious_sr1:8390 ??                          .ds 1
xevious_sr1:8391 ??                          .ds 1
xevious_sr1:8392 ??                          .ds 1
xevious_sr1:8393 ??                          .ds 1
xevious_sr1:8394 ??                          .ds 1
xevious_sr1:8395 ??                          .ds 1
xevious_sr1:8396 ??                          .ds 1
xevious_sr1:8397 ??                          .ds 1
xevious_sr1:8398 ??                          .ds 1
xevious_sr1:8399 ??                          .ds 1
xevious_sr1:839A ??                          .ds 1
xevious_sr1:839B ??                          .ds 1
xevious_sr1:839C ??                          .ds 1
xevious_sr1:839D ??                          .ds 1
xevious_sr1:839E ??                          .ds 1
xevious_sr1:839F ??                          .ds 1
xevious_sr1:83A0 ??                          .ds 1
xevious_sr1:83A1 ??                          .ds 1
xevious_sr1:83A2 ??                          .ds 1
xevious_sr1:83A3 ??                          .ds 1
xevious_sr1:83A4 ??                          .ds 1
xevious_sr1:83A5 ??                          .ds 1
xevious_sr1:83A6 ??                          .ds 1
xevious_sr1:83A7 ??                          .ds 1
xevious_sr1:83A8 ??                          .ds 1
xevious_sr1:83A9 ??                          .ds 1
xevious_sr1:83AA ??                          .ds 1
xevious_sr1:83AB ??                          .ds 1
xevious_sr1:83AC ??                          .ds 1
xevious_sr1:83AD ??                          .ds 1
xevious_sr1:83AE ??                          .ds 1
xevious_sr1:83AF ??                          .ds 1
xevious_sr1:83B0 ??                          .ds 1
xevious_sr1:83B1 ??                          .ds 1
xevious_sr1:83B2 ??                          .ds 1
xevious_sr1:83B3 ??                          .ds 1
xevious_sr1:83B4 ??                          .ds 1
xevious_sr1:83B5 ??                          .ds 1
xevious_sr1:83B6 ??                          .ds 1
xevious_sr1:83B7 ??                          .ds 1
xevious_sr1:83B8 ??                          .ds 1
xevious_sr1:83B9 ??                          .ds 1
xevious_sr1:83BA ??                          .ds 1
xevious_sr1:83BB ??                          .ds 1
xevious_sr1:83BC ??                          .ds 1
xevious_sr1:83BD ??                          .ds 1
xevious_sr1:83BE ??                          .ds 1
xevious_sr1:83BF ??                          .ds 1
xevious_sr1:83C0 ??                          .ds 1
xevious_sr1:83C1 ??                          .ds 1
xevious_sr1:83C2 ??                          .ds 1
xevious_sr1:83C3 ??                          .ds 1
xevious_sr1:83C4 ??                          .ds 1
xevious_sr1:83C5 ??                          .ds 1
xevious_sr1:83C6 ??                          .ds 1
xevious_sr1:83C7 ??                          .ds 1
xevious_sr1:83C8 ??                          .ds 1
xevious_sr1:83C9 ??                          .ds 1
xevious_sr1:83CA ??                          .ds 1
xevious_sr1:83CB ??                          .ds 1
xevious_sr1:83CC ??                          .ds 1
xevious_sr1:83CD ??                          .ds 1
xevious_sr1:83CE ??                          .ds 1
xevious_sr1:83CF ??                          .ds 1
xevious_sr1:83D0 ??                          .ds 1
xevious_sr1:83D1 ??                          .ds 1
xevious_sr1:83D2 ??                          .ds 1
xevious_sr1:83D3 ??                          .ds 1
xevious_sr1:83D4 ??                          .ds 1
xevious_sr1:83D5 ??                          .ds 1
xevious_sr1:83D6 ??                          .ds 1
xevious_sr1:83D7 ??                          .ds 1
xevious_sr1:83D8 ??                          .ds 1
xevious_sr1:83D9 ??                          .ds 1
xevious_sr1:83DA ??                          .ds 1
xevious_sr1:83DB ??                          .ds 1
xevious_sr1:83DC ??                          .ds 1
xevious_sr1:83DD ??                          .ds 1
xevious_sr1:83DE ??                          .ds 1
xevious_sr1:83DF ??                          .ds 1
xevious_sr1:83E0 ??                          .ds 1
xevious_sr1:83E1 ??                          .ds 1
xevious_sr1:83E2 ??                          .ds 1
xevious_sr1:83E3 ??                          .ds 1
xevious_sr1:83E4 ??                          .ds 1
xevious_sr1:83E5 ??                          .ds 1
xevious_sr1:83E6 ??                          .ds 1
xevious_sr1:83E7 ??                          .ds 1
xevious_sr1:83E8 ??                          .ds 1
xevious_sr1:83E9 ??                          .ds 1
xevious_sr1:83EA ??                          .ds 1
xevious_sr1:83EB ??                          .ds 1
xevious_sr1:83EC ??                          .ds 1
xevious_sr1:83ED ??                          .ds 1
xevious_sr1:83EE ??                          .ds 1
xevious_sr1:83EF ??                          .ds 1
xevious_sr1:83F0 ??                          .ds 1
xevious_sr1:83F1 ??                          .ds 1
xevious_sr1:83F2 ??                          .ds 1
xevious_sr1:83F3 ??                          .ds 1
xevious_sr1:83F4 ??                          .ds 1
xevious_sr1:83F5 ??                          .ds 1
xevious_sr1:83F6 ??                          .ds 1
xevious_sr1:83F7 ??                          .ds 1
xevious_sr1:83F8 ??                          .ds 1
xevious_sr1:83F9 ??                          .ds 1
xevious_sr1:83FA ??                          .ds 1
xevious_sr1:83FB ??                          .ds 1
xevious_sr1:83FC ??                          .ds 1
xevious_sr1:83FD ??                          .ds 1
xevious_sr1:83FE ??                          .ds 1
xevious_sr1:83FF ??                          .ds 1
xevious_sr1:8400 ??                          .ds 1
xevious_sr1:8401 ??                          .ds 1
xevious_sr1:8402 ??                          .ds 1
xevious_sr1:8403 ??                          .ds 1
xevious_sr1:8404 ??                          .ds 1
xevious_sr1:8405 ??                          .ds 1
xevious_sr1:8406 ??                          .ds 1
xevious_sr1:8407 ??                          .ds 1
xevious_sr1:8408 ??                          .ds 1
xevious_sr1:8409 ??                          .ds 1
xevious_sr1:840A ??                          .ds 1
xevious_sr1:840B ??                          .ds 1
xevious_sr1:840C ??                          .ds 1
xevious_sr1:840D ??                          .ds 1
xevious_sr1:840E ??                          .ds 1
xevious_sr1:840F ??                          .ds 1
xevious_sr1:8410 ??                          .ds 1
xevious_sr1:8411 ??                          .ds 1
xevious_sr1:8412 ??                          .ds 1
xevious_sr1:8413 ??                          .ds 1
xevious_sr1:8414 ??                          .ds 1
xevious_sr1:8415 ??                          .ds 1
xevious_sr1:8416 ??                          .ds 1
xevious_sr1:8417 ??                          .ds 1
xevious_sr1:8418 ??                          .ds 1
xevious_sr1:8419 ??                          .ds 1
xevious_sr1:841A ??                          .ds 1
xevious_sr1:841B ??                          .ds 1
xevious_sr1:841C ??                          .ds 1
xevious_sr1:841D ??                          .ds 1
xevious_sr1:841E ??                          .ds 1
xevious_sr1:841F ??                          .ds 1
xevious_sr1:8420 ??                          .ds 1
xevious_sr1:8421 ??                          .ds 1
xevious_sr1:8422 ??          bacura_inc_cnt: .ds 1                   ; DATA XREF: ROM:023Aw
xevious_sr1:8423 ??                          .ds 1
xevious_sr1:8424 ??                          .ds 1
xevious_sr1:8425 ??                          .ds 1
xevious_sr1:8426 ??                          .ds 1
xevious_sr1:8427 ??                          .ds 1
xevious_sr1:8428 ??                          .ds 1
xevious_sr1:8429 ??                          .ds 1
xevious_sr1:842A ??                          .ds 1
xevious_sr1:842B ??                          .ds 1
xevious_sr1:842C ??                          .ds 1
xevious_sr1:842D ??                          .ds 1
xevious_sr1:842E ??                          .ds 1
xevious_sr1:842F ??                          .ds 1
xevious_sr1:8430 ??                          .ds 1
xevious_sr1:8431 ??                          .ds 1
xevious_sr1:8432 ??                          .ds 1
xevious_sr1:8433 ??                          .ds 1
xevious_sr1:8434 ??                          .ds 1
xevious_sr1:8435 ??                          .ds 1
xevious_sr1:8436 ??                          .ds 1
xevious_sr1:8437 ??                          .ds 1
xevious_sr1:8438 ??                          .ds 1
xevious_sr1:8439 ??                          .ds 1
xevious_sr1:843A ??                          .ds 1
xevious_sr1:843B ??                          .ds 1
xevious_sr1:843C ??                          .ds 1
xevious_sr1:843D ??                          .ds 1
xevious_sr1:843E ??                          .ds 1
xevious_sr1:843F ??                          .ds 1
xevious_sr1:8440 ??                          .ds 1
xevious_sr1:8441 ??                          .ds 1
xevious_sr1:8442 ??                          .ds 1
xevious_sr1:8443 ??                          .ds 1
xevious_sr1:8444 ??                          .ds 1
xevious_sr1:8445 ??                          .ds 1
xevious_sr1:8446 ??                          .ds 1
xevious_sr1:8447 ??                          .ds 1
xevious_sr1:8448 ??                          .ds 1
xevious_sr1:8449 ??                          .ds 1
xevious_sr1:844A ??                          .ds 1
xevious_sr1:844B ??                          .ds 1
xevious_sr1:844C ??                          .ds 1
xevious_sr1:844D ??                          .ds 1
xevious_sr1:844E ??                          .ds 1
xevious_sr1:844F ??                          .ds 1
xevious_sr1:8450 ??                          .ds 1
xevious_sr1:8451 ??                          .ds 1
xevious_sr1:8452 ??                          .ds 1
xevious_sr1:8453 ??                          .ds 1
xevious_sr1:8454 ??                          .ds 1
xevious_sr1:8455 ??                          .ds 1
xevious_sr1:8456 ??                          .ds 1
xevious_sr1:8457 ??                          .ds 1
xevious_sr1:8458 ??                          .ds 1
xevious_sr1:8459 ??                          .ds 1
xevious_sr1:845A ??                          .ds 1
xevious_sr1:845B ??                          .ds 1
xevious_sr1:845C ??                          .ds 1
xevious_sr1:845D ??                          .ds 1
xevious_sr1:845E ??                          .ds 1
xevious_sr1:845F ??                          .ds 1
xevious_sr1:8460 ??                          .ds 1
xevious_sr1:8461 ??                          .ds 1
xevious_sr1:8462 ??                          .ds 1
xevious_sr1:8463 ??                          .ds 1
xevious_sr1:8464 ??                          .ds 1
xevious_sr1:8465 ??                          .ds 1
xevious_sr1:8466 ??                          .ds 1
xevious_sr1:8467 ??                          .ds 1
xevious_sr1:8468 ??                          .ds 1
xevious_sr1:8469 ??                          .ds 1
xevious_sr1:846A ??                          .ds 1
xevious_sr1:846B ??                          .ds 1
xevious_sr1:846C ??                          .ds 1
xevious_sr1:846D ??                          .ds 1
xevious_sr1:846E ??                          .ds 1
xevious_sr1:846F ??                          .ds 1
xevious_sr1:8470 ??                          .ds 1
xevious_sr1:8471 ??                          .ds 1
xevious_sr1:8472 ??                          .ds 1
xevious_sr1:8473 ??                          .ds 1
xevious_sr1:8474 ??                          .ds 1
xevious_sr1:8475 ??                          .ds 1
xevious_sr1:8476 ??                          .ds 1
xevious_sr1:8477 ??                          .ds 1
xevious_sr1:8478 ??                          .ds 1
xevious_sr1:8479 ??                          .ds 1
xevious_sr1:847A ??                          .ds 1
xevious_sr1:847B ??                          .ds 1
xevious_sr1:847C ??                          .ds 1
xevious_sr1:847D ??                          .ds 1
xevious_sr1:847E ??                          .ds 1
xevious_sr1:847F ??                          .ds 1
xevious_sr1:8480 ??                          .ds 1
xevious_sr1:8481 ??                          .ds 1
xevious_sr1:8482 ??                          .ds 1
xevious_sr1:8483 ??                          .ds 1
xevious_sr1:8484 ??                          .ds 1
xevious_sr1:8485 ??                          .ds 1
xevious_sr1:8486 ??                          .ds 1
xevious_sr1:8487 ??                          .ds 1
xevious_sr1:8488 ??                          .ds 1
xevious_sr1:8489 ??                          .ds 1
xevious_sr1:848A ??                          .ds 1
xevious_sr1:848B ??                          .ds 1
xevious_sr1:848C ??                          .ds 1
xevious_sr1:848D ??                          .ds 1
xevious_sr1:848E ??                          .ds 1
xevious_sr1:848F ??                          .ds 1
xevious_sr1:8490 ??                          .ds 1
xevious_sr1:8491 ??                          .ds 1
xevious_sr1:8492 ??                          .ds 1
xevious_sr1:8493 ??                          .ds 1
xevious_sr1:8494 ??                          .ds 1
xevious_sr1:8495 ??                          .ds 1
xevious_sr1:8496 ??                          .ds 1
xevious_sr1:8497 ??                          .ds 1
xevious_sr1:8498 ??                          .ds 1
xevious_sr1:8499 ??                          .ds 1
xevious_sr1:849A ??                          .ds 1
xevious_sr1:849B ??                          .ds 1
xevious_sr1:849C ??                          .ds 1
xevious_sr1:849D ??                          .ds 1
xevious_sr1:849E ??                          .ds 1
xevious_sr1:849F ??                          .ds 1
xevious_sr1:84A0 ??                          .ds 1
xevious_sr1:84A1 ??                          .ds 1
xevious_sr1:84A2 ??                          .ds 1
xevious_sr1:84A3 ??                          .ds 1
xevious_sr1:84A4 ??                          .ds 1
xevious_sr1:84A5 ??                          .ds 1
xevious_sr1:84A6 ??                          .ds 1
xevious_sr1:84A7 ??                          .ds 1
xevious_sr1:84A8 ??                          .ds 1
xevious_sr1:84A9 ??                          .ds 1
xevious_sr1:84AA ??                          .ds 1
xevious_sr1:84AB ??                          .ds 1
xevious_sr1:84AC ??                          .ds 1
xevious_sr1:84AD ??                          .ds 1
xevious_sr1:84AE ??                          .ds 1
xevious_sr1:84AF ??                          .ds 1
xevious_sr1:84B0 ??                          .ds 1
xevious_sr1:84B1 ??                          .ds 1
xevious_sr1:84B2 ??                          .ds 1
xevious_sr1:84B3 ??                          .ds 1
xevious_sr1:84B4 ??                          .ds 1
xevious_sr1:84B5 ??                          .ds 1
xevious_sr1:84B6 ??                          .ds 1
xevious_sr1:84B7 ??                          .ds 1
xevious_sr1:84B8 ??                          .ds 1
xevious_sr1:84B9 ??                          .ds 1
xevious_sr1:84BA ??                          .ds 1
xevious_sr1:84BB ??                          .ds 1
xevious_sr1:84BC ??                          .ds 1
xevious_sr1:84BD ??                          .ds 1
xevious_sr1:84BE ??                          .ds 1
xevious_sr1:84BF ??                          .ds 1
xevious_sr1:84C0 ??                          .ds 1
xevious_sr1:84C1 ??                          .ds 1
xevious_sr1:84C2 ??                          .ds 1
xevious_sr1:84C3 ??                          .ds 1
xevious_sr1:84C4 ??                          .ds 1
xevious_sr1:84C5 ??                          .ds 1
xevious_sr1:84C6 ??                          .ds 1
xevious_sr1:84C7 ??                          .ds 1
xevious_sr1:84C8 ??                          .ds 1
xevious_sr1:84C9 ??                          .ds 1
xevious_sr1:84CA ??                          .ds 1
xevious_sr1:84CB ??                          .ds 1
xevious_sr1:84CC ??                          .ds 1
xevious_sr1:84CD ??                          .ds 1
xevious_sr1:84CE ??                          .ds 1
xevious_sr1:84CF ??                          .ds 1
xevious_sr1:84D0 ??                          .ds 1
xevious_sr1:84D1 ??                          .ds 1
xevious_sr1:84D2 ??                          .ds 1
xevious_sr1:84D3 ??                          .ds 1
xevious_sr1:84D4 ??                          .ds 1
xevious_sr1:84D5 ??                          .ds 1
xevious_sr1:84D6 ??                          .ds 1
xevious_sr1:84D7 ??                          .ds 1
xevious_sr1:84D8 ??                          .ds 1
xevious_sr1:84D9 ??                          .ds 1
xevious_sr1:84DA ??                          .ds 1
xevious_sr1:84DB ??                          .ds 1
xevious_sr1:84DC ??                          .ds 1
xevious_sr1:84DD ??                          .ds 1
xevious_sr1:84DE ??                          .ds 1
xevious_sr1:84DF ??                          .ds 1
xevious_sr1:84E0 ??                          .ds 1
xevious_sr1:84E1 ??                          .ds 1
xevious_sr1:84E2 ??                          .ds 1
xevious_sr1:84E3 ??                          .ds 1
xevious_sr1:84E4 ??                          .ds 1
xevious_sr1:84E5 ??                          .ds 1
xevious_sr1:84E6 ??                          .ds 1
xevious_sr1:84E7 ??                          .ds 1
xevious_sr1:84E8 ??                          .ds 1
xevious_sr1:84E9 ??                          .ds 1
xevious_sr1:84EA ??                          .ds 1
xevious_sr1:84EB ??                          .ds 1
xevious_sr1:84EC ??                          .ds 1
xevious_sr1:84ED ??                          .ds 1
xevious_sr1:84EE ??                          .ds 1
xevious_sr1:84EF ??                          .ds 1
xevious_sr1:84F0 ??                          .ds 1
xevious_sr1:84F1 ??                          .ds 1
xevious_sr1:84F2 ??                          .ds 1
xevious_sr1:84F3 ??                          .ds 1
xevious_sr1:84F4 ??                          .ds 1
xevious_sr1:84F5 ??                          .ds 1
xevious_sr1:84F6 ??                          .ds 1
xevious_sr1:84F7 ??                          .ds 1
xevious_sr1:84F8 ??                          .ds 1
xevious_sr1:84F9 ??                          .ds 1
xevious_sr1:84FA ??                          .ds 1
xevious_sr1:84FB ??                          .ds 1
xevious_sr1:84FC ??                          .ds 1
xevious_sr1:84FD ??                          .ds 1
xevious_sr1:84FE ??                          .ds 1
xevious_sr1:84FF ??                          .ds 1
xevious_sr1:8500 ??                          .ds 1
xevious_sr1:8501 ??                          .ds 1
xevious_sr1:8502 ??                          .ds 1
xevious_sr1:8503 ??                          .ds 1
xevious_sr1:8504 ??                          .ds 1
xevious_sr1:8505 ??                          .ds 1
xevious_sr1:8506 ??                          .ds 1
xevious_sr1:8507 ??                          .ds 1
xevious_sr1:8508 ??                          .ds 1
xevious_sr1:8509 ??                          .ds 1
xevious_sr1:850A ??                          .ds 1
xevious_sr1:850B ??                          .ds 1
xevious_sr1:850C ??                          .ds 1
xevious_sr1:850D ??                          .ds 1
xevious_sr1:850E ??                          .ds 1
xevious_sr1:850F ??                          .ds 1
xevious_sr1:8510 ??                          .ds 1
xevious_sr1:8511 ??                          .ds 1
xevious_sr1:8512 ??                          .ds 1
xevious_sr1:8513 ??                          .ds 1
xevious_sr1:8514 ??                          .ds 1
xevious_sr1:8515 ??                          .ds 1
xevious_sr1:8516 ??                          .ds 1
xevious_sr1:8517 ??                          .ds 1
xevious_sr1:8518 ??                          .ds 1
xevious_sr1:8519 ??                          .ds 1
xevious_sr1:851A ??                          .ds 1
xevious_sr1:851B ??                          .ds 1
xevious_sr1:851C ??                          .ds 1
xevious_sr1:851D ??                          .ds 1
xevious_sr1:851E ??                          .ds 1
xevious_sr1:851F ??                          .ds 1
xevious_sr1:8520 ??                          .ds 1
xevious_sr1:8521 ??                          .ds 1
xevious_sr1:8522 ??                          .ds 1
xevious_sr1:8523 ??                          .ds 1
xevious_sr1:8524 ??                          .ds 1
xevious_sr1:8525 ??                          .ds 1
xevious_sr1:8526 ??                          .ds 1
xevious_sr1:8527 ??                          .ds 1
xevious_sr1:8528 ??                          .ds 1
xevious_sr1:8529 ??                          .ds 1
xevious_sr1:852A ??                          .ds 1
xevious_sr1:852B ??                          .ds 1
xevious_sr1:852C ??                          .ds 1
xevious_sr1:852D ??                          .ds 1
xevious_sr1:852E ??                          .ds 1
xevious_sr1:852F ??                          .ds 1
xevious_sr1:8530 ??                          .ds 1
xevious_sr1:8531 ??                          .ds 1
xevious_sr1:8532 ??                          .ds 1
xevious_sr1:8533 ??                          .ds 1
xevious_sr1:8534 ??                          .ds 1
xevious_sr1:8535 ??                          .ds 1
xevious_sr1:8536 ??                          .ds 1
xevious_sr1:8537 ??                          .ds 1
xevious_sr1:8538 ??                          .ds 1
xevious_sr1:8539 ??                          .ds 1
xevious_sr1:853A ??                          .ds 1
xevious_sr1:853B ??                          .ds 1
xevious_sr1:853C ??                          .ds 1
xevious_sr1:853D ??                          .ds 1
xevious_sr1:853E ??                          .ds 1
xevious_sr1:853F ??                          .ds 1
xevious_sr1:8540 ??                          .ds 1
xevious_sr1:8541 ??                          .ds 1
xevious_sr1:8542 ??                          .ds 1
xevious_sr1:8543 ??                          .ds 1
xevious_sr1:8544 ??                          .ds 1
xevious_sr1:8545 ??                          .ds 1
xevious_sr1:8546 ??                          .ds 1
xevious_sr1:8547 ??                          .ds 1
xevious_sr1:8548 ??                          .ds 1
xevious_sr1:8549 ??                          .ds 1
xevious_sr1:854A ??                          .ds 1
xevious_sr1:854B ??                          .ds 1
xevious_sr1:854C ??                          .ds 1
xevious_sr1:854D ??                          .ds 1
xevious_sr1:854E ??                          .ds 1
xevious_sr1:854F ??                          .ds 1
xevious_sr1:8550 ??                          .ds 1
xevious_sr1:8551 ??                          .ds 1
xevious_sr1:8552 ??                          .ds 1
xevious_sr1:8553 ??                          .ds 1
xevious_sr1:8554 ??                          .ds 1
xevious_sr1:8555 ??                          .ds 1
xevious_sr1:8556 ??                          .ds 1
xevious_sr1:8557 ??                          .ds 1
xevious_sr1:8558 ??                          .ds 1
xevious_sr1:8559 ??                          .ds 1
xevious_sr1:855A ??                          .ds 1
xevious_sr1:855B ??                          .ds 1
xevious_sr1:855C ??                          .ds 1
xevious_sr1:855D ??                          .ds 1
xevious_sr1:855E ??                          .ds 1
xevious_sr1:855F ??                          .ds 1
xevious_sr1:8560 ??                          .ds 1
xevious_sr1:8561 ??                          .ds 1
xevious_sr1:8562 ??                          .ds 1
xevious_sr1:8563 ??                          .ds 1
xevious_sr1:8564 ??                          .ds 1
xevious_sr1:8565 ??                          .ds 1
xevious_sr1:8566 ??                          .ds 1
xevious_sr1:8567 ??                          .ds 1
xevious_sr1:8568 ??                          .ds 1
xevious_sr1:8569 ??                          .ds 1
xevious_sr1:856A ??                          .ds 1
xevious_sr1:856B ??                          .ds 1
xevious_sr1:856C ??                          .ds 1
xevious_sr1:856D ??                          .ds 1
xevious_sr1:856E ??                          .ds 1
xevious_sr1:856F ??                          .ds 1
xevious_sr1:8570 ??                          .ds 1
xevious_sr1:8571 ??                          .ds 1
xevious_sr1:8572 ??          rom1_cksum:     .ds 1
xevious_sr1:8573 ??          rom2_cksum:     .ds 1
xevious_sr1:8574 ??                          .ds 1
xevious_sr1:8575 ??                          .ds 1
xevious_sr1:8576 ??                          .ds 1
xevious_sr1:8577 ??                          .ds 1
xevious_sr1:8578 ??                          .ds 1
xevious_sr1:8579 ??                          .ds 1
xevious_sr1:857A ??                          .ds 1
xevious_sr1:857B ??                          .ds 1
xevious_sr1:857C ??                          .ds 1
xevious_sr1:857D ??                          .ds 1
xevious_sr1:857E ??                          .ds 1
xevious_sr1:857F ??                          .ds 1
xevious_sr1:8580 ??                          .ds 1
xevious_sr1:8581 ??                          .ds 1
xevious_sr1:8582 ??                          .ds 1
xevious_sr1:8583 ??                          .ds 1
xevious_sr1:8584 ??                          .ds 1
xevious_sr1:8585 ??                          .ds 1
xevious_sr1:8586 ??                          .ds 1
xevious_sr1:8587 ??                          .ds 1
xevious_sr1:8588 ??                          .ds 1
xevious_sr1:8589 ??                          .ds 1
xevious_sr1:858A ??                          .ds 1
xevious_sr1:858B ??                          .ds 1
xevious_sr1:858C ??                          .ds 1
xevious_sr1:858D ??                          .ds 1
xevious_sr1:858E ??                          .ds 1
xevious_sr1:858F ??                          .ds 1
xevious_sr1:8590 ??                          .ds 1
xevious_sr1:8591 ??                          .ds 1
xevious_sr1:8592 ??                          .ds 1
xevious_sr1:8593 ??                          .ds 1
xevious_sr1:8594 ??                          .ds 1
xevious_sr1:8595 ??                          .ds 1
xevious_sr1:8596 ??                          .ds 1
xevious_sr1:8597 ??                          .ds 1
xevious_sr1:8598 ??                          .ds 1
xevious_sr1:8599 ??                          .ds 1
xevious_sr1:859A ??                          .ds 1
xevious_sr1:859B ??                          .ds 1
xevious_sr1:859C ??                          .ds 1
xevious_sr1:859D ??                          .ds 1
xevious_sr1:859E ??                          .ds 1
xevious_sr1:859F ??                          .ds 1
xevious_sr1:85A0 ??                          .ds 1
xevious_sr1:85A1 ??                          .ds 1
xevious_sr1:85A2 ??                          .ds 1
xevious_sr1:85A3 ??                          .ds 1
xevious_sr1:85A4 ??                          .ds 1
xevious_sr1:85A5 ??                          .ds 1
xevious_sr1:85A6 ??                          .ds 1
xevious_sr1:85A7 ??                          .ds 1
xevious_sr1:85A8 ??                          .ds 1
xevious_sr1:85A9 ??                          .ds 1
xevious_sr1:85AA ??                          .ds 1
xevious_sr1:85AB ??                          .ds 1
xevious_sr1:85AC ??                          .ds 1
xevious_sr1:85AD ??          maincpu_inited: .ds 1                   ; DATA XREF: ROM:_sub_fn_6__display_1UP_2UPr
xevious_sr1:85AE ??                          .ds 1
xevious_sr1:85AF ??                          .ds 1
xevious_sr1:85B0 ??                          .ds 1
xevious_sr1:85B1 ??                          .ds 1
xevious_sr1:85B2 ??                          .ds 1
xevious_sr1:85B3 ??                          .ds 1
xevious_sr1:85B4 ??                          .ds 1
xevious_sr1:85B5 ??                          .ds 1
xevious_sr1:85B6 ??                          .ds 1
xevious_sr1:85B7 ??                          .ds 1
xevious_sr1:85B8 ??                          .ds 1
xevious_sr1:85B9 ??                          .ds 1
xevious_sr1:85BA ??                          .ds 1
xevious_sr1:85BB ??                          .ds 1
xevious_sr1:85BC ??                          .ds 1
xevious_sr1:85BD ??                          .ds 1
xevious_sr1:85BE ??                          .ds 1
xevious_sr1:85BF ??                          .ds 1
xevious_sr1:85C0 ??                          .ds 1
xevious_sr1:85C1 ??                          .ds 1
xevious_sr1:85C2 ??                          .ds 1
xevious_sr1:85C3 ??                          .ds 1
xevious_sr1:85C4 ??                          .ds 1
xevious_sr1:85C5 ??                          .ds 1
xevious_sr1:85C6 ??                          .ds 1
xevious_sr1:85C7 ??                          .ds 1
xevious_sr1:85C8 ??                          .ds 1
xevious_sr1:85C9 ??                          .ds 1
xevious_sr1:85CA ??                          .ds 1
xevious_sr1:85CB ??                          .ds 1
xevious_sr1:85CC ??                          .ds 1
xevious_sr1:85CD ??                          .ds 1
xevious_sr1:85CE ??                          .ds 1
xevious_sr1:85CF ??                          .ds 1
xevious_sr1:85D0 ??                          .ds 1
xevious_sr1:85D1 ??                          .ds 1
xevious_sr1:85D2 ??                          .ds 1
xevious_sr1:85D3 ??                          .ds 1
xevious_sr1:85D4 ??                          .ds 1
xevious_sr1:85D5 ??                          .ds 1
xevious_sr1:85D6 ??                          .ds 1
xevious_sr1:85D7 ??                          .ds 1
xevious_sr1:85D8 ??                          .ds 1
xevious_sr1:85D9 ??                          .ds 1
xevious_sr1:85DA ??                          .ds 1
xevious_sr1:85DB ??                          .ds 1
xevious_sr1:85DC ??                          .ds 1
xevious_sr1:85DD ??                          .ds 1
xevious_sr1:85DE ??                          .ds 1
xevious_sr1:85DF ??                          .ds 1
xevious_sr1:85E0 ??                          .ds 1
xevious_sr1:85E1 ??                          .ds 1
xevious_sr1:85E2 ??                          .ds 1
xevious_sr1:85E3 ??                          .ds 1
xevious_sr1:85E4 ??                          .ds 1
xevious_sr1:85E5 ??                          .ds 1
xevious_sr1:85E6 ??                          .ds 1
xevious_sr1:85E7 ??                          .ds 1
xevious_sr1:85E8 ??                          .ds 1
xevious_sr1:85E9 ??                          .ds 1
xevious_sr1:85EA ??                          .ds 1
xevious_sr1:85EB ??                          .ds 1
xevious_sr1:85EC ??                          .ds 1
xevious_sr1:85ED ??                          .ds 1
xevious_sr1:85EE ??                          .ds 1
xevious_sr1:85EF ??                          .ds 1
xevious_sr1:85F0 ??                          .ds 1
xevious_sr1:85F1 ??                          .ds 1
xevious_sr1:85F2 ??                          .ds 1
xevious_sr1:85F3 ??                          .ds 1
xevious_sr1:85F4 ??                          .ds 1
xevious_sr1:85F5 ??                          .ds 1
xevious_sr1:85F6 ??                          .ds 1
xevious_sr1:85F7 ??                          .ds 1
xevious_sr1:85F8 ??                          .ds 1
xevious_sr1:85F9 ??                          .ds 1
xevious_sr1:85FA ??                          .ds 1
xevious_sr1:85FB ??                          .ds 1
xevious_sr1:85FC ??                          .ds 1
xevious_sr1:85FD ??                          .ds 1
xevious_sr1:85FE ??                          .ds 1
xevious_sr1:85FF ??                          .ds 1
xevious_sr1:8600 ??                          .ds 1
xevious_sr1:8601 ??                          .ds 1
xevious_sr1:8602 ??                          .ds 1
xevious_sr1:8603 ??                          .ds 1
xevious_sr1:8604 ??                          .ds 1
xevious_sr1:8605 ??                          .ds 1
xevious_sr1:8606 ??                          .ds 1
xevious_sr1:8607 ??                          .ds 1
xevious_sr1:8608 ??                          .ds 1
xevious_sr1:8609 ??                          .ds 1
xevious_sr1:860A ??                          .ds 1
xevious_sr1:860B ??                          .ds 1
xevious_sr1:860C ??                          .ds 1
xevious_sr1:860D ??                          .ds 1
xevious_sr1:860E ??                          .ds 1
xevious_sr1:860F ??                          .ds 1
xevious_sr1:8610 ??                          .ds 1
xevious_sr1:8611 ??                          .ds 1
xevious_sr1:8612 ??                          .ds 1
xevious_sr1:8613 ??                          .ds 1
xevious_sr1:8614 ??                          .ds 1
xevious_sr1:8615 ??                          .ds 1
xevious_sr1:8616 ??                          .ds 1
xevious_sr1:8617 ??                          .ds 1
xevious_sr1:8618 ??                          .ds 1
xevious_sr1:8619 ??                          .ds 1
xevious_sr1:861A ??                          .ds 1
xevious_sr1:861B ??                          .ds 1
xevious_sr1:861C ??                          .ds 1
xevious_sr1:861D ??                          .ds 1
xevious_sr1:861E ??                          .ds 1
xevious_sr1:861F ??                          .ds 1
xevious_sr1:8620 ??                          .ds 1
xevious_sr1:8621 ??                          .ds 1
xevious_sr1:8622 ??                          .ds 1
xevious_sr1:8623 ??                          .ds 1
xevious_sr1:8624 ??                          .ds 1
xevious_sr1:8625 ??                          .ds 1
xevious_sr1:8626 ??                          .ds 1
xevious_sr1:8627 ??                          .ds 1
xevious_sr1:8628 ??                          .ds 1
xevious_sr1:8629 ??                          .ds 1
xevious_sr1:862A ??                          .ds 1
xevious_sr1:862B ??                          .ds 1
xevious_sr1:862C ??                          .ds 1
xevious_sr1:862D ??                          .ds 1
xevious_sr1:862E ??                          .ds 1
xevious_sr1:862F ??                          .ds 1
xevious_sr1:8630 ??                          .ds 1
xevious_sr1:8631 ??                          .ds 1
xevious_sr1:8632 ??                          .ds 1
xevious_sr1:8633 ??                          .ds 1
xevious_sr1:8634 ??                          .ds 1
xevious_sr1:8635 ??                          .ds 1
xevious_sr1:8636 ??                          .ds 1
xevious_sr1:8637 ??                          .ds 1
xevious_sr1:8638 ??                          .ds 1
xevious_sr1:8639 ??                          .ds 1
xevious_sr1:863A ??                          .ds 1
xevious_sr1:863B ??                          .ds 1
xevious_sr1:863C ??                          .ds 1
xevious_sr1:863D ??                          .ds 1
xevious_sr1:863E ??                          .ds 1
xevious_sr1:863F ??                          .ds 1
xevious_sr1:8640 ??                          .ds 1
xevious_sr1:8641 ??                          .ds 1
xevious_sr1:8642 ??                          .ds 1
xevious_sr1:8643 ??                          .ds 1
xevious_sr1:8644 ??                          .ds 1
xevious_sr1:8645 ??                          .ds 1
xevious_sr1:8646 ??                          .ds 1
xevious_sr1:8647 ??                          .ds 1
xevious_sr1:8648 ??                          .ds 1
xevious_sr1:8649 ??                          .ds 1
xevious_sr1:864A ??                          .ds 1
xevious_sr1:864B ??                          .ds 1
xevious_sr1:864C ??                          .ds 1
xevious_sr1:864D ??                          .ds 1
xevious_sr1:864E ??                          .ds 1
xevious_sr1:864F ??                          .ds 1
xevious_sr1:8650 ??                          .ds 1
xevious_sr1:8651 ??                          .ds 1
xevious_sr1:8652 ??                          .ds 1
xevious_sr1:8653 ??                          .ds 1
xevious_sr1:8654 ??                          .ds 1
xevious_sr1:8655 ??                          .ds 1
xevious_sr1:8656 ??                          .ds 1
xevious_sr1:8657 ??                          .ds 1
xevious_sr1:8658 ??                          .ds 1
xevious_sr1:8659 ??                          .ds 1
xevious_sr1:865A ??                          .ds 1
xevious_sr1:865B ??                          .ds 1
xevious_sr1:865C ??                          .ds 1
xevious_sr1:865D ??                          .ds 1
xevious_sr1:865E ??                          .ds 1
xevious_sr1:865F ??                          .ds 1
xevious_sr1:8660 ??                          .ds 1
xevious_sr1:8661 ??                          .ds 1
xevious_sr1:8662 ??                          .ds 1
xevious_sr1:8663 ??                          .ds 1
xevious_sr1:8664 ??                          .ds 1
xevious_sr1:8665 ??                          .ds 1
xevious_sr1:8666 ??                          .ds 1
xevious_sr1:8667 ??                          .ds 1
xevious_sr1:8668 ??                          .ds 1
xevious_sr1:8669 ??                          .ds 1
xevious_sr1:866A ??                          .ds 1
xevious_sr1:866B ??                          .ds 1
xevious_sr1:866C ??                          .ds 1
xevious_sr1:866D ??                          .ds 1
xevious_sr1:866E ??                          .ds 1
xevious_sr1:866F ??                          .ds 1
xevious_sr1:8670 ??                          .ds 1
xevious_sr1:8671 ??                          .ds 1
xevious_sr1:8672 ??                          .ds 1
xevious_sr1:8673 ??                          .ds 1
xevious_sr1:8674 ??                          .ds 1
xevious_sr1:8675 ??                          .ds 1
xevious_sr1:8676 ??                          .ds 1
xevious_sr1:8677 ??                          .ds 1
xevious_sr1:8678 ??                          .ds 1
xevious_sr1:8679 ??                          .ds 1
xevious_sr1:867A ??                          .ds 1
xevious_sr1:867B ??                          .ds 1
xevious_sr1:867C ??                          .ds 1
xevious_sr1:867D ??                          .ds 1
xevious_sr1:867E ??                          .ds 1
xevious_sr1:867F ??                          .ds 1
xevious_sr1:8680 ??                          .ds 1
xevious_sr1:8681 ??                          .ds 1
xevious_sr1:8682 ??                          .ds 1
xevious_sr1:8683 ??                          .ds 1
xevious_sr1:8684 ??                          .ds 1
xevious_sr1:8685 ??                          .ds 1
xevious_sr1:8686 ??                          .ds 1
xevious_sr1:8687 ??                          .ds 1
xevious_sr1:8688 ??                          .ds 1
xevious_sr1:8689 ??                          .ds 1
xevious_sr1:868A ??                          .ds 1
xevious_sr1:868B ??                          .ds 1
xevious_sr1:868C ??                          .ds 1
xevious_sr1:868D ??                          .ds 1
xevious_sr1:868E ??                          .ds 1
xevious_sr1:868F ??                          .ds 1
xevious_sr1:8690 ??                          .ds 1
xevious_sr1:8691 ??                          .ds 1
xevious_sr1:8692 ??                          .ds 1
xevious_sr1:8693 ??                          .ds 1
xevious_sr1:8694 ??                          .ds 1
xevious_sr1:8695 ??                          .ds 1
xevious_sr1:8696 ??                          .ds 1
xevious_sr1:8697 ??                          .ds 1
xevious_sr1:8698 ??                          .ds 1
xevious_sr1:8699 ??                          .ds 1
xevious_sr1:869A ??                          .ds 1
xevious_sr1:869B ??                          .ds 1
xevious_sr1:869C ??                          .ds 1
xevious_sr1:869D ??                          .ds 1
xevious_sr1:869E ??                          .ds 1
xevious_sr1:869F ??                          .ds 1
xevious_sr1:86A0 ??                          .ds 1
xevious_sr1:86A1 ??                          .ds 1
xevious_sr1:86A2 ??                          .ds 1
xevious_sr1:86A3 ??                          .ds 1
xevious_sr1:86A4 ??                          .ds 1
xevious_sr1:86A5 ??                          .ds 1
xevious_sr1:86A6 ??                          .ds 1
xevious_sr1:86A7 ??                          .ds 1
xevious_sr1:86A8 ??                          .ds 1
xevious_sr1:86A9 ??                          .ds 1
xevious_sr1:86AA ??                          .ds 1
xevious_sr1:86AB ??                          .ds 1
xevious_sr1:86AC ??                          .ds 1
xevious_sr1:86AD ??                          .ds 1
xevious_sr1:86AE ??                          .ds 1
xevious_sr1:86AF ??                          .ds 1
xevious_sr1:86B0 ??                          .ds 1
xevious_sr1:86B1 ??                          .ds 1
xevious_sr1:86B2 ??                          .ds 1
xevious_sr1:86B3 ??                          .ds 1
xevious_sr1:86B4 ??                          .ds 1
xevious_sr1:86B5 ??                          .ds 1
xevious_sr1:86B6 ??                          .ds 1
xevious_sr1:86B7 ??                          .ds 1
xevious_sr1:86B8 ??                          .ds 1
xevious_sr1:86B9 ??                          .ds 1
xevious_sr1:86BA ??                          .ds 1
xevious_sr1:86BB ??                          .ds 1
xevious_sr1:86BC ??                          .ds 1
xevious_sr1:86BD ??                          .ds 1
xevious_sr1:86BE ??                          .ds 1
xevious_sr1:86BF ??                          .ds 1
xevious_sr1:86C0 ??                          .ds 1
xevious_sr1:86C1 ??                          .ds 1
xevious_sr1:86C2 ??                          .ds 1
xevious_sr1:86C3 ??                          .ds 1
xevious_sr1:86C4 ??                          .ds 1
xevious_sr1:86C5 ??                          .ds 1
xevious_sr1:86C6 ??                          .ds 1
xevious_sr1:86C7 ??                          .ds 1
xevious_sr1:86C8 ??                          .ds 1
xevious_sr1:86C9 ??                          .ds 1
xevious_sr1:86CA ??                          .ds 1
xevious_sr1:86CB ??                          .ds 1
xevious_sr1:86CC ??                          .ds 1
xevious_sr1:86CD ??                          .ds 1
xevious_sr1:86CE ??                          .ds 1
xevious_sr1:86CF ??                          .ds 1
xevious_sr1:86D0 ??                          .ds 1
xevious_sr1:86D1 ??                          .ds 1
xevious_sr1:86D2 ??                          .ds 1
xevious_sr1:86D3 ??                          .ds 1
xevious_sr1:86D4 ??                          .ds 1
xevious_sr1:86D5 ??                          .ds 1
xevious_sr1:86D6 ??                          .ds 1
xevious_sr1:86D7 ??                          .ds 1
xevious_sr1:86D8 ??                          .ds 1
xevious_sr1:86D9 ??                          .ds 1
xevious_sr1:86DA ??                          .ds 1
xevious_sr1:86DB ??                          .ds 1
xevious_sr1:86DC ??                          .ds 1
xevious_sr1:86DD ??                          .ds 1
xevious_sr1:86DE ??                          .ds 1
xevious_sr1:86DF ??                          .ds 1
xevious_sr1:86E0 ??                          .ds 1
xevious_sr1:86E1 ??                          .ds 1
xevious_sr1:86E2 ??                          .ds 1
xevious_sr1:86E3 ??                          .ds 1
xevious_sr1:86E4 ??                          .ds 1
xevious_sr1:86E5 ??                          .ds 1
xevious_sr1:86E6 ??                          .ds 1
xevious_sr1:86E7 ??                          .ds 1
xevious_sr1:86E8 ??                          .ds 1
xevious_sr1:86E9 ??                          .ds 1
xevious_sr1:86EA ??                          .ds 1
xevious_sr1:86EB ??                          .ds 1
xevious_sr1:86EC ??                          .ds 1
xevious_sr1:86ED ??                          .ds 1
xevious_sr1:86EE ??                          .ds 1
xevious_sr1:86EF ??                          .ds 1
xevious_sr1:86F0 ??                          .ds 1
xevious_sr1:86F1 ??                          .ds 1
xevious_sr1:86F2 ??                          .ds 1
xevious_sr1:86F3 ??                          .ds 1
xevious_sr1:86F4 ??                          .ds 1
xevious_sr1:86F5 ??                          .ds 1
xevious_sr1:86F6 ??                          .ds 1
xevious_sr1:86F7 ??                          .ds 1
xevious_sr1:86F8 ??                          .ds 1
xevious_sr1:86F9 ??                          .ds 1
xevious_sr1:86FA ??                          .ds 1
xevious_sr1:86FB ??                          .ds 1
xevious_sr1:86FC ??                          .ds 1
xevious_sr1:86FD ??                          .ds 1
xevious_sr1:86FE ??                          .ds 1
xevious_sr1:86FF ??                          .ds 1
xevious_sr1:8700 ??                          .ds 1
xevious_sr1:8701 ??                          .ds 1
xevious_sr1:8702 ??                          .ds 1
xevious_sr1:8703 ??                          .ds 1
xevious_sr1:8704 ??                          .ds 1
xevious_sr1:8705 ??                          .ds 1
xevious_sr1:8706 ??                          .ds 1
xevious_sr1:8707 ??                          .ds 1
xevious_sr1:8708 ??                          .ds 1
xevious_sr1:8709 ??                          .ds 1
xevious_sr1:870A ??                          .ds 1
xevious_sr1:870B ??                          .ds 1
xevious_sr1:870C ??                          .ds 1
xevious_sr1:870D ??                          .ds 1
xevious_sr1:870E ??                          .ds 1
xevious_sr1:870F ??                          .ds 1
xevious_sr1:8710 ??                          .ds 1
xevious_sr1:8711 ??                          .ds 1
xevious_sr1:8712 ??                          .ds 1
xevious_sr1:8713 ??                          .ds 1
xevious_sr1:8714 ??                          .ds 1
xevious_sr1:8715 ??                          .ds 1
xevious_sr1:8716 ??                          .ds 1
xevious_sr1:8717 ??                          .ds 1
xevious_sr1:8718 ??                          .ds 1
xevious_sr1:8719 ??                          .ds 1
xevious_sr1:871A ??                          .ds 1
xevious_sr1:871B ??                          .ds 1
xevious_sr1:871C ??                          .ds 1
xevious_sr1:871D ??                          .ds 1
xevious_sr1:871E ??                          .ds 1
xevious_sr1:871F ??                          .ds 1
xevious_sr1:8720 ??                          .ds 1
xevious_sr1:8721 ??                          .ds 1
xevious_sr1:8722 ??                          .ds 1
xevious_sr1:8723 ??                          .ds 1
xevious_sr1:8724 ??                          .ds 1
xevious_sr1:8725 ??                          .ds 1
xevious_sr1:8726 ??                          .ds 1
xevious_sr1:8727 ??                          .ds 1
xevious_sr1:8728 ??                          .ds 1
xevious_sr1:8729 ??                          .ds 1
xevious_sr1:872A ??                          .ds 1
xevious_sr1:872B ??                          .ds 1
xevious_sr1:872C ??                          .ds 1
xevious_sr1:872D ??                          .ds 1
xevious_sr1:872E ??                          .ds 1
xevious_sr1:872F ??                          .ds 1
xevious_sr1:8730 ??                          .ds 1
xevious_sr1:8731 ??                          .ds 1
xevious_sr1:8732 ??                          .ds 1
xevious_sr1:8733 ??                          .ds 1
xevious_sr1:8734 ??                          .ds 1
xevious_sr1:8735 ??                          .ds 1
xevious_sr1:8736 ??                          .ds 1
xevious_sr1:8737 ??                          .ds 1
xevious_sr1:8738 ??                          .ds 1
xevious_sr1:8739 ??                          .ds 1
xevious_sr1:873A ??                          .ds 1
xevious_sr1:873B ??                          .ds 1
xevious_sr1:873C ??                          .ds 1
xevious_sr1:873D ??                          .ds 1
xevious_sr1:873E ??                          .ds 1
xevious_sr1:873F ??                          .ds 1
xevious_sr1:8740 ??                          .ds 1
xevious_sr1:8741 ??                          .ds 1
xevious_sr1:8742 ??                          .ds 1
xevious_sr1:8743 ??                          .ds 1
xevious_sr1:8744 ??                          .ds 1
xevious_sr1:8745 ??                          .ds 1
xevious_sr1:8746 ??                          .ds 1
xevious_sr1:8747 ??                          .ds 1
xevious_sr1:8748 ??                          .ds 1
xevious_sr1:8749 ??                          .ds 1
xevious_sr1:874A ??                          .ds 1
xevious_sr1:874B ??                          .ds 1
xevious_sr1:874C ??                          .ds 1
xevious_sr1:874D ??                          .ds 1
xevious_sr1:874E ??                          .ds 1
xevious_sr1:874F ??                          .ds 1
xevious_sr1:8750 ??                          .ds 1
xevious_sr1:8751 ??                          .ds 1
xevious_sr1:8752 ??                          .ds 1
xevious_sr1:8753 ??                          .ds 1
xevious_sr1:8754 ??                          .ds 1
xevious_sr1:8755 ??                          .ds 1
xevious_sr1:8756 ??                          .ds 1
xevious_sr1:8757 ??                          .ds 1
xevious_sr1:8758 ??                          .ds 1
xevious_sr1:8759 ??                          .ds 1
xevious_sr1:875A ??                          .ds 1
xevious_sr1:875B ??                          .ds 1
xevious_sr1:875C ??                          .ds 1
xevious_sr1:875D ??                          .ds 1
xevious_sr1:875E ??                          .ds 1
xevious_sr1:875F ??                          .ds 1
xevious_sr1:8760 ??                          .ds 1
xevious_sr1:8761 ??                          .ds 1
xevious_sr1:8762 ??                          .ds 1
xevious_sr1:8763 ??                          .ds 1
xevious_sr1:8764 ??                          .ds 1
xevious_sr1:8765 ??                          .ds 1
xevious_sr1:8766 ??                          .ds 1
xevious_sr1:8767 ??                          .ds 1
xevious_sr1:8768 ??                          .ds 1
xevious_sr1:8769 ??                          .ds 1
xevious_sr1:876A ??                          .ds 1
xevious_sr1:876B ??                          .ds 1
xevious_sr1:876C ??                          .ds 1
xevious_sr1:876D ??                          .ds 1
xevious_sr1:876E ??                          .ds 1
xevious_sr1:876F ??                          .ds 1
xevious_sr1:8770 ??                          .ds 1
xevious_sr1:8771 ??                          .ds 1
xevious_sr1:8772 ??                          .ds 1
xevious_sr1:8773 ??                          .ds 1
xevious_sr1:8774 ??                          .ds 1
xevious_sr1:8775 ??                          .ds 1
xevious_sr1:8776 ??                          .ds 1
xevious_sr1:8777 ??                          .ds 1
xevious_sr1:8778 ??                          .ds 1
xevious_sr1:8779 ??                          .ds 1
xevious_sr1:877A ??                          .ds 1
xevious_sr1:877B ??                          .ds 1
xevious_sr1:877C ??                          .ds 1
xevious_sr1:877D ??                          .ds 1
xevious_sr1:877E ??                          .ds 1
xevious_sr1:877F ??                          .ds 1
xevious_sr1:8780 ??                          .ds 1
xevious_sr1:8781 ??                          .ds 1
xevious_sr1:8782 ??                          .ds 1
xevious_sr1:8783 ??                          .ds 1
xevious_sr1:8784 ??                          .ds 1
xevious_sr1:8785 ??                          .ds 1
xevious_sr1:8786 ??                          .ds 1
xevious_sr1:8787 ??                          .ds 1
xevious_sr1:8788 ??                          .ds 1
xevious_sr1:8789 ??                          .ds 1
xevious_sr1:878A ??                          .ds 1
xevious_sr1:878B ??                          .ds 1
xevious_sr1:878C ??                          .ds 1
xevious_sr1:878D ??                          .ds 1
xevious_sr1:878E ??                          .ds 1
xevious_sr1:878F ??                          .ds 1
xevious_sr1:8790 ??                          .ds 1
xevious_sr1:8791 ??                          .ds 1
xevious_sr1:8792 ??                          .ds 1
xevious_sr1:8793 ??                          .ds 1
xevious_sr1:8794 ??                          .ds 1
xevious_sr1:8795 ??                          .ds 1
xevious_sr1:8796 ??                          .ds 1
xevious_sr1:8797 ??                          .ds 1
xevious_sr1:8798 ??                          .ds 1
xevious_sr1:8799 ??                          .ds 1
xevious_sr1:879A ??                          .ds 1
xevious_sr1:879B ??                          .ds 1
xevious_sr1:879C ??                          .ds 1
xevious_sr1:879D ??                          .ds 1
xevious_sr1:879E ??                          .ds 1
xevious_sr1:879F ??                          .ds 1
xevious_sr1:87A0 ??                          .ds 1
xevious_sr1:87A1 ??                          .ds 1
xevious_sr1:87A2 ??                          .ds 1
xevious_sr1:87A3 ??                          .ds 1
xevious_sr1:87A4 ??                          .ds 1
xevious_sr1:87A5 ??                          .ds 1
xevious_sr1:87A6 ??                          .ds 1
xevious_sr1:87A7 ??                          .ds 1
xevious_sr1:87A8 ??                          .ds 1
xevious_sr1:87A9 ??                          .ds 1
xevious_sr1:87AA ??                          .ds 1
xevious_sr1:87AB ??                          .ds 1
xevious_sr1:87AC ??                          .ds 1
xevious_sr1:87AD ??                          .ds 1
xevious_sr1:87AE ??                          .ds 1
xevious_sr1:87AF ??                          .ds 1
xevious_sr1:87B0 ??                          .ds 1
xevious_sr1:87B1 ??                          .ds 1
xevious_sr1:87B2 ??                          .ds 1
xevious_sr1:87B3 ??                          .ds 1
xevious_sr1:87B4 ??                          .ds 1
xevious_sr1:87B5 ??                          .ds 1
xevious_sr1:87B6 ??                          .ds 1
xevious_sr1:87B7 ??                          .ds 1
xevious_sr1:87B8 ??                          .ds 1
xevious_sr1:87B9 ??                          .ds 1
xevious_sr1:87BA ??                          .ds 1
xevious_sr1:87BB ??                          .ds 1
xevious_sr1:87BC ??                          .ds 1
xevious_sr1:87BD ??                          .ds 1
xevious_sr1:87BE ??                          .ds 1
xevious_sr1:87BF ??                          .ds 1
xevious_sr1:87C0 ?? ?? ?? ??+spriteram_2_upper:.ds 0x40              ; DATA XREF: ROM:03C8o
xevious_sr1:87C0 ?? ?? ?? ??+; end of 'xevious_sr1'
xevious_sr1:87C0 ?? ?? ?? ??+
xevious_sr2:9000             ; ===========================================================================
xevious_sr2:9000
xevious_sr2:9000             ; Segment type: Regular
xevious_sr2:9000                             .org 0x9000
xevious_sr2:9000 ??                          .ds 1
xevious_sr2:9001 ??                          .ds 1
xevious_sr2:9002 ??                          .ds 1
xevious_sr2:9003 ??                          .ds 1
xevious_sr2:9004 ??                          .ds 1
xevious_sr2:9005 ??                          .ds 1
xevious_sr2:9006 ??                          .ds 1
xevious_sr2:9007 ??                          .ds 1
xevious_sr2:9008 ??                          .ds 1
xevious_sr2:9009 ??                          .ds 1
xevious_sr2:900A ??                          .ds 1
xevious_sr2:900B ??                          .ds 1
xevious_sr2:900C ??                          .ds 1
xevious_sr2:900D ??                          .ds 1
xevious_sr2:900E ??                          .ds 1
xevious_sr2:900F ??                          .ds 1
xevious_sr2:9010 ??                          .ds 1
xevious_sr2:9011 ??                          .ds 1
xevious_sr2:9012 ??                          .ds 1
xevious_sr2:9013 ??                          .ds 1
xevious_sr2:9014 ??                          .ds 1
xevious_sr2:9015 ??                          .ds 1
xevious_sr2:9016 ??                          .ds 1
xevious_sr2:9017 ??                          .ds 1
xevious_sr2:9018 ??                          .ds 1
xevious_sr2:9019 ??                          .ds 1
xevious_sr2:901A ??                          .ds 1
xevious_sr2:901B ??                          .ds 1
xevious_sr2:901C ??                          .ds 1
xevious_sr2:901D ??                          .ds 1
xevious_sr2:901E ??                          .ds 1
xevious_sr2:901F ??                          .ds 1
xevious_sr2:9020 ??                          .ds 1
xevious_sr2:9021 ??                          .ds 1
xevious_sr2:9022 ??                          .ds 1
xevious_sr2:9023 ??                          .ds 1
xevious_sr2:9024 ??                          .ds 1
xevious_sr2:9025 ??                          .ds 1
xevious_sr2:9026 ??                          .ds 1
xevious_sr2:9027 ??                          .ds 1
xevious_sr2:9028 ??                          .ds 1
xevious_sr2:9029 ??                          .ds 1
xevious_sr2:902A ??                          .ds 1
xevious_sr2:902B ??                          .ds 1
xevious_sr2:902C ??                          .ds 1
xevious_sr2:902D ??                          .ds 1
xevious_sr2:902E ??                          .ds 1
xevious_sr2:902F ??                          .ds 1
xevious_sr2:9030 ??                          .ds 1
xevious_sr2:9031 ??                          .ds 1
xevious_sr2:9032 ??                          .ds 1
xevious_sr2:9033 ??                          .ds 1
xevious_sr2:9034 ??                          .ds 1
xevious_sr2:9035 ??                          .ds 1
xevious_sr2:9036 ??                          .ds 1
xevious_sr2:9037 ??                          .ds 1
xevious_sr2:9038 ??                          .ds 1
xevious_sr2:9039 ??                          .ds 1
xevious_sr2:903A ??                          .ds 1
xevious_sr2:903B ??                          .ds 1
xevious_sr2:903C ??                          .ds 1
xevious_sr2:903D ??                          .ds 1
xevious_sr2:903E ??                          .ds 1
xevious_sr2:903F ??                          .ds 1
xevious_sr2:9040 ??                          .ds 1
xevious_sr2:9041 ??                          .ds 1
xevious_sr2:9042 ??                          .ds 1
xevious_sr2:9043 ??                          .ds 1
xevious_sr2:9044 ??                          .ds 1
xevious_sr2:9045 ??                          .ds 1
xevious_sr2:9046 ??                          .ds 1
xevious_sr2:9047 ??                          .ds 1
xevious_sr2:9048 ??                          .ds 1
xevious_sr2:9049 ??                          .ds 1
xevious_sr2:904A ??                          .ds 1
xevious_sr2:904B ??                          .ds 1
xevious_sr2:904C ??                          .ds 1
xevious_sr2:904D ??                          .ds 1
xevious_sr2:904E ??                          .ds 1
xevious_sr2:904F ??                          .ds 1
xevious_sr2:9050 ??                          .ds 1
xevious_sr2:9051 ??                          .ds 1
xevious_sr2:9052 ??                          .ds 1
xevious_sr2:9053 ??                          .ds 1
xevious_sr2:9054 ??                          .ds 1
xevious_sr2:9055 ??                          .ds 1
xevious_sr2:9056 ??                          .ds 1
xevious_sr2:9057 ??                          .ds 1
xevious_sr2:9058 ??                          .ds 1
xevious_sr2:9059 ??                          .ds 1
xevious_sr2:905A ??                          .ds 1
xevious_sr2:905B ??                          .ds 1
xevious_sr2:905C ??                          .ds 1
xevious_sr2:905D ??                          .ds 1
xevious_sr2:905E ??                          .ds 1
xevious_sr2:905F ??                          .ds 1
xevious_sr2:9060 ??                          .ds 1
xevious_sr2:9061 ??                          .ds 1
xevious_sr2:9062 ??                          .ds 1
xevious_sr2:9063 ??                          .ds 1
xevious_sr2:9064 ??                          .ds 1
xevious_sr2:9065 ??                          .ds 1
xevious_sr2:9066 ??                          .ds 1
xevious_sr2:9067 ??                          .ds 1
xevious_sr2:9068 ??                          .ds 1
xevious_sr2:9069 ??                          .ds 1
xevious_sr2:906A ??                          .ds 1
xevious_sr2:906B ??                          .ds 1
xevious_sr2:906C ??                          .ds 1
xevious_sr2:906D ??                          .ds 1
xevious_sr2:906E ??                          .ds 1
xevious_sr2:906F ??                          .ds 1
xevious_sr2:9070 ??                          .ds 1
xevious_sr2:9071 ??                          .ds 1
xevious_sr2:9072 ??                          .ds 1
xevious_sr2:9073 ??                          .ds 1
xevious_sr2:9074 ??                          .ds 1
xevious_sr2:9075 ??                          .ds 1
xevious_sr2:9076 ??                          .ds 1
xevious_sr2:9077 ??                          .ds 1
xevious_sr2:9078 ??                          .ds 1
xevious_sr2:9079 ??                          .ds 1
xevious_sr2:907A ??                          .ds 1
xevious_sr2:907B ??                          .ds 1
xevious_sr2:907C ??                          .ds 1
xevious_sr2:907D ??                          .ds 1
xevious_sr2:907E ??                          .ds 1
xevious_sr2:907F ??                          .ds 1
xevious_sr2:9080 ??                          .ds 1
xevious_sr2:9081 ??                          .ds 1
xevious_sr2:9082 ??                          .ds 1
xevious_sr2:9083 ??                          .ds 1
xevious_sr2:9084 ??                          .ds 1
xevious_sr2:9085 ??                          .ds 1
xevious_sr2:9086 ??                          .ds 1
xevious_sr2:9087 ??                          .ds 1
xevious_sr2:9088 ??                          .ds 1
xevious_sr2:9089 ??                          .ds 1
xevious_sr2:908A ??                          .ds 1
xevious_sr2:908B ??                          .ds 1
xevious_sr2:908C ??                          .ds 1
xevious_sr2:908D ??                          .ds 1
xevious_sr2:908E ??                          .ds 1
xevious_sr2:908F ??                          .ds 1
xevious_sr2:9090 ??                          .ds 1
xevious_sr2:9091 ??                          .ds 1
xevious_sr2:9092 ??                          .ds 1
xevious_sr2:9093 ??                          .ds 1
xevious_sr2:9094 ??                          .ds 1
xevious_sr2:9095 ??                          .ds 1
xevious_sr2:9096 ??                          .ds 1
xevious_sr2:9097 ??                          .ds 1
xevious_sr2:9098 ??                          .ds 1
xevious_sr2:9099 ??                          .ds 1
xevious_sr2:909A ??                          .ds 1
xevious_sr2:909B ??                          .ds 1
xevious_sr2:909C ??                          .ds 1
xevious_sr2:909D ??                          .ds 1
xevious_sr2:909E ??                          .ds 1
xevious_sr2:909F ??                          .ds 1
xevious_sr2:90A0 ??                          .ds 1
xevious_sr2:90A1 ??                          .ds 1
xevious_sr2:90A2 ??                          .ds 1
xevious_sr2:90A3 ??                          .ds 1
xevious_sr2:90A4 ??                          .ds 1
xevious_sr2:90A5 ??                          .ds 1
xevious_sr2:90A6 ??                          .ds 1
xevious_sr2:90A7 ??                          .ds 1
xevious_sr2:90A8 ??                          .ds 1
xevious_sr2:90A9 ??                          .ds 1
xevious_sr2:90AA ??                          .ds 1
xevious_sr2:90AB ??                          .ds 1
xevious_sr2:90AC ??                          .ds 1
xevious_sr2:90AD ??                          .ds 1
xevious_sr2:90AE ??                          .ds 1
xevious_sr2:90AF ??                          .ds 1
xevious_sr2:90B0 ??                          .ds 1
xevious_sr2:90B1 ??                          .ds 1
xevious_sr2:90B2 ??                          .ds 1
xevious_sr2:90B3 ??                          .ds 1
xevious_sr2:90B4 ??                          .ds 1
xevious_sr2:90B5 ??                          .ds 1
xevious_sr2:90B6 ??                          .ds 1
xevious_sr2:90B7 ??                          .ds 1
xevious_sr2:90B8 ??                          .ds 1
xevious_sr2:90B9 ??                          .ds 1
xevious_sr2:90BA ??                          .ds 1
xevious_sr2:90BB ??                          .ds 1
xevious_sr2:90BC ??                          .ds 1
xevious_sr2:90BD ??                          .ds 1
xevious_sr2:90BE ??                          .ds 1
xevious_sr2:90BF ??                          .ds 1
xevious_sr2:90C0 ??                          .ds 1
xevious_sr2:90C1 ??                          .ds 1
xevious_sr2:90C2 ??                          .ds 1
xevious_sr2:90C3 ??                          .ds 1
xevious_sr2:90C4 ??                          .ds 1
xevious_sr2:90C5 ??                          .ds 1
xevious_sr2:90C6 ??                          .ds 1
xevious_sr2:90C7 ??                          .ds 1
xevious_sr2:90C8 ??                          .ds 1
xevious_sr2:90C9 ??                          .ds 1
xevious_sr2:90CA ??                          .ds 1
xevious_sr2:90CB ??                          .ds 1
xevious_sr2:90CC ??                          .ds 1
xevious_sr2:90CD ??                          .ds 1
xevious_sr2:90CE ??                          .ds 1
xevious_sr2:90CF ??                          .ds 1
xevious_sr2:90D0 ??                          .ds 1
xevious_sr2:90D1 ??                          .ds 1
xevious_sr2:90D2 ??                          .ds 1
xevious_sr2:90D3 ??                          .ds 1
xevious_sr2:90D4 ??                          .ds 1
xevious_sr2:90D5 ??                          .ds 1
xevious_sr2:90D6 ??                          .ds 1
xevious_sr2:90D7 ??                          .ds 1
xevious_sr2:90D8 ??                          .ds 1
xevious_sr2:90D9 ??                          .ds 1
xevious_sr2:90DA ??                          .ds 1
xevious_sr2:90DB ??                          .ds 1
xevious_sr2:90DC ??                          .ds 1
xevious_sr2:90DD ??                          .ds 1
xevious_sr2:90DE ??                          .ds 1
xevious_sr2:90DF ??                          .ds 1
xevious_sr2:90E0 ??                          .ds 1
xevious_sr2:90E1 ??                          .ds 1
xevious_sr2:90E2 ??                          .ds 1
xevious_sr2:90E3 ??                          .ds 1
xevious_sr2:90E4 ??                          .ds 1
xevious_sr2:90E5 ??                          .ds 1
xevious_sr2:90E6 ??                          .ds 1
xevious_sr2:90E7 ??                          .ds 1
xevious_sr2:90E8 ??                          .ds 1
xevious_sr2:90E9 ??                          .ds 1
xevious_sr2:90EA ??                          .ds 1
xevious_sr2:90EB ??                          .ds 1
xevious_sr2:90EC ??                          .ds 1
xevious_sr2:90ED ??                          .ds 1
xevious_sr2:90EE ??                          .ds 1
xevious_sr2:90EF ??                          .ds 1
xevious_sr2:90F0 ??                          .ds 1
xevious_sr2:90F1 ??                          .ds 1
xevious_sr2:90F2 ??                          .ds 1
xevious_sr2:90F3 ??                          .ds 1
xevious_sr2:90F4 ??                          .ds 1
xevious_sr2:90F5 ??                          .ds 1
xevious_sr2:90F6 ??                          .ds 1
xevious_sr2:90F7 ??                          .ds 1
xevious_sr2:90F8 ??                          .ds 1
xevious_sr2:90F9 ??                          .ds 1
xevious_sr2:90FA ??                          .ds 1
xevious_sr2:90FB ??                          .ds 1
xevious_sr2:90FC ??                          .ds 1
xevious_sr2:90FD ??                          .ds 1
xevious_sr2:90FE ??                          .ds 1
xevious_sr2:90FF ??                          .ds 1
xevious_sr2:9100 ??                          .ds 1
xevious_sr2:9101 ??                          .ds 1
xevious_sr2:9102 ??                          .ds 1
xevious_sr2:9103 ??                          .ds 1
xevious_sr2:9104 ??                          .ds 1
xevious_sr2:9105 ??                          .ds 1
xevious_sr2:9106 ??                          .ds 1
xevious_sr2:9107 ??                          .ds 1
xevious_sr2:9108 ??                          .ds 1
xevious_sr2:9109 ??                          .ds 1
xevious_sr2:910A ??                          .ds 1
xevious_sr2:910B ??                          .ds 1
xevious_sr2:910C ??                          .ds 1
xevious_sr2:910D ??                          .ds 1
xevious_sr2:910E ??                          .ds 1
xevious_sr2:910F ??                          .ds 1
xevious_sr2:9110 ??                          .ds 1
xevious_sr2:9111 ??                          .ds 1
xevious_sr2:9112 ??                          .ds 1
xevious_sr2:9113 ??                          .ds 1
xevious_sr2:9114 ??                          .ds 1
xevious_sr2:9115 ??                          .ds 1
xevious_sr2:9116 ??                          .ds 1
xevious_sr2:9117 ??                          .ds 1
xevious_sr2:9118 ??                          .ds 1
xevious_sr2:9119 ??                          .ds 1
xevious_sr2:911A ??                          .ds 1
xevious_sr2:911B ??                          .ds 1
xevious_sr2:911C ??                          .ds 1
xevious_sr2:911D ??                          .ds 1
xevious_sr2:911E ??                          .ds 1
xevious_sr2:911F ??                          .ds 1
xevious_sr2:9120 ??                          .ds 1
xevious_sr2:9121 ??                          .ds 1
xevious_sr2:9122 ??                          .ds 1
xevious_sr2:9123 ??                          .ds 1
xevious_sr2:9124 ??                          .ds 1
xevious_sr2:9125 ??                          .ds 1
xevious_sr2:9126 ??                          .ds 1
xevious_sr2:9127 ??                          .ds 1
xevious_sr2:9128 ??                          .ds 1
xevious_sr2:9129 ??                          .ds 1
xevious_sr2:912A ??                          .ds 1
xevious_sr2:912B ??                          .ds 1
xevious_sr2:912C ??                          .ds 1
xevious_sr2:912D ??                          .ds 1
xevious_sr2:912E ??                          .ds 1
xevious_sr2:912F ??                          .ds 1
xevious_sr2:9130 ??                          .ds 1
xevious_sr2:9131 ??                          .ds 1
xevious_sr2:9132 ??                          .ds 1
xevious_sr2:9133 ??                          .ds 1
xevious_sr2:9134 ??                          .ds 1
xevious_sr2:9135 ??                          .ds 1
xevious_sr2:9136 ??                          .ds 1
xevious_sr2:9137 ??                          .ds 1
xevious_sr2:9138 ??                          .ds 1
xevious_sr2:9139 ??                          .ds 1
xevious_sr2:913A ??                          .ds 1
xevious_sr2:913B ??                          .ds 1
xevious_sr2:913C ??                          .ds 1
xevious_sr2:913D ??                          .ds 1
xevious_sr2:913E ??                          .ds 1
xevious_sr2:913F ??                          .ds 1
xevious_sr2:9140 ??                          .ds 1
xevious_sr2:9141 ??                          .ds 1
xevious_sr2:9142 ??                          .ds 1
xevious_sr2:9143 ??                          .ds 1
xevious_sr2:9144 ??                          .ds 1
xevious_sr2:9145 ??                          .ds 1
xevious_sr2:9146 ??                          .ds 1
xevious_sr2:9147 ??                          .ds 1
xevious_sr2:9148 ??                          .ds 1
xevious_sr2:9149 ??                          .ds 1
xevious_sr2:914A ??                          .ds 1
xevious_sr2:914B ??                          .ds 1
xevious_sr2:914C ??                          .ds 1
xevious_sr2:914D ??                          .ds 1
xevious_sr2:914E ??                          .ds 1
xevious_sr2:914F ??                          .ds 1
xevious_sr2:9150 ??                          .ds 1
xevious_sr2:9151 ??                          .ds 1
xevious_sr2:9152 ??                          .ds 1
xevious_sr2:9153 ??                          .ds 1
xevious_sr2:9154 ??                          .ds 1
xevious_sr2:9155 ??                          .ds 1
xevious_sr2:9156 ??                          .ds 1
xevious_sr2:9157 ??                          .ds 1
xevious_sr2:9158 ??                          .ds 1
xevious_sr2:9159 ??                          .ds 1
xevious_sr2:915A ??                          .ds 1
xevious_sr2:915B ??                          .ds 1
xevious_sr2:915C ??                          .ds 1
xevious_sr2:915D ??                          .ds 1
xevious_sr2:915E ??                          .ds 1
xevious_sr2:915F ??                          .ds 1
xevious_sr2:9160 ??                          .ds 1
xevious_sr2:9161 ??                          .ds 1
xevious_sr2:9162 ??                          .ds 1
xevious_sr2:9163 ??                          .ds 1
xevious_sr2:9164 ??                          .ds 1
xevious_sr2:9165 ??                          .ds 1
xevious_sr2:9166 ??                          .ds 1
xevious_sr2:9167 ??                          .ds 1
xevious_sr2:9168 ??                          .ds 1
xevious_sr2:9169 ??                          .ds 1
xevious_sr2:916A ??                          .ds 1
xevious_sr2:916B ??                          .ds 1
xevious_sr2:916C ??                          .ds 1
xevious_sr2:916D ??                          .ds 1
xevious_sr2:916E ??                          .ds 1
xevious_sr2:916F ??                          .ds 1
xevious_sr2:9170 ??                          .ds 1
xevious_sr2:9171 ??                          .ds 1
xevious_sr2:9172 ??                          .ds 1
xevious_sr2:9173 ??                          .ds 1
xevious_sr2:9174 ??                          .ds 1
xevious_sr2:9175 ??                          .ds 1
xevious_sr2:9176 ??                          .ds 1
xevious_sr2:9177 ??                          .ds 1
xevious_sr2:9178 ??                          .ds 1
xevious_sr2:9179 ??                          .ds 1
xevious_sr2:917A ??                          .ds 1
xevious_sr2:917B ??                          .ds 1
xevious_sr2:917C ??                          .ds 1
xevious_sr2:917D ??                          .ds 1
xevious_sr2:917E ??                          .ds 1
xevious_sr2:917F ??                          .ds 1
xevious_sr2:9180 ??                          .ds 1
xevious_sr2:9181 ??                          .ds 1
xevious_sr2:9182 ??                          .ds 1
xevious_sr2:9183 ??                          .ds 1
xevious_sr2:9184 ??                          .ds 1
xevious_sr2:9185 ??                          .ds 1
xevious_sr2:9186 ??                          .ds 1
xevious_sr2:9187 ??                          .ds 1
xevious_sr2:9188 ??                          .ds 1
xevious_sr2:9189 ??                          .ds 1
xevious_sr2:918A ??                          .ds 1
xevious_sr2:918B ??                          .ds 1
xevious_sr2:918C ??                          .ds 1
xevious_sr2:918D ??                          .ds 1
xevious_sr2:918E ??                          .ds 1
xevious_sr2:918F ??                          .ds 1
xevious_sr2:9190 ??                          .ds 1
xevious_sr2:9191 ??                          .ds 1
xevious_sr2:9192 ??                          .ds 1
xevious_sr2:9193 ??                          .ds 1
xevious_sr2:9194 ??                          .ds 1
xevious_sr2:9195 ??                          .ds 1
xevious_sr2:9196 ??                          .ds 1
xevious_sr2:9197 ??                          .ds 1
xevious_sr2:9198 ??                          .ds 1
xevious_sr2:9199 ??                          .ds 1
xevious_sr2:919A ??                          .ds 1
xevious_sr2:919B ??                          .ds 1
xevious_sr2:919C ??                          .ds 1
xevious_sr2:919D ??                          .ds 1
xevious_sr2:919E ??                          .ds 1
xevious_sr2:919F ??                          .ds 1
xevious_sr2:91A0 ??                          .ds 1
xevious_sr2:91A1 ??                          .ds 1
xevious_sr2:91A2 ??                          .ds 1
xevious_sr2:91A3 ??                          .ds 1
xevious_sr2:91A4 ??                          .ds 1
xevious_sr2:91A5 ??                          .ds 1
xevious_sr2:91A6 ??                          .ds 1
xevious_sr2:91A7 ??                          .ds 1
xevious_sr2:91A8 ??                          .ds 1
xevious_sr2:91A9 ??                          .ds 1
xevious_sr2:91AA ??                          .ds 1
xevious_sr2:91AB ??                          .ds 1
xevious_sr2:91AC ??                          .ds 1
xevious_sr2:91AD ??                          .ds 1
xevious_sr2:91AE ??                          .ds 1
xevious_sr2:91AF ??                          .ds 1
xevious_sr2:91B0 ??                          .ds 1
xevious_sr2:91B1 ??                          .ds 1
xevious_sr2:91B2 ??                          .ds 1
xevious_sr2:91B3 ??                          .ds 1
xevious_sr2:91B4 ??                          .ds 1
xevious_sr2:91B5 ??                          .ds 1
xevious_sr2:91B6 ??                          .ds 1
xevious_sr2:91B7 ??                          .ds 1
xevious_sr2:91B8 ??                          .ds 1
xevious_sr2:91B9 ??                          .ds 1
xevious_sr2:91BA ??                          .ds 1
xevious_sr2:91BB ??                          .ds 1
xevious_sr2:91BC ??                          .ds 1
xevious_sr2:91BD ??                          .ds 1
xevious_sr2:91BE ??                          .ds 1
xevious_sr2:91BF ??                          .ds 1
xevious_sr2:91C0 ??                          .ds 1
xevious_sr2:91C1 ??                          .ds 1
xevious_sr2:91C2 ??                          .ds 1
xevious_sr2:91C3 ??                          .ds 1
xevious_sr2:91C4 ??                          .ds 1
xevious_sr2:91C5 ??                          .ds 1
xevious_sr2:91C6 ??                          .ds 1
xevious_sr2:91C7 ??                          .ds 1
xevious_sr2:91C8 ??                          .ds 1
xevious_sr2:91C9 ??                          .ds 1
xevious_sr2:91CA ??                          .ds 1
xevious_sr2:91CB ??                          .ds 1
xevious_sr2:91CC ??                          .ds 1
xevious_sr2:91CD ??                          .ds 1
xevious_sr2:91CE ??                          .ds 1
xevious_sr2:91CF ??                          .ds 1
xevious_sr2:91D0 ??                          .ds 1
xevious_sr2:91D1 ??                          .ds 1
xevious_sr2:91D2 ??                          .ds 1
xevious_sr2:91D3 ??                          .ds 1
xevious_sr2:91D4 ??                          .ds 1
xevious_sr2:91D5 ??                          .ds 1
xevious_sr2:91D6 ??                          .ds 1
xevious_sr2:91D7 ??                          .ds 1
xevious_sr2:91D8 ??                          .ds 1
xevious_sr2:91D9 ??                          .ds 1
xevious_sr2:91DA ??                          .ds 1
xevious_sr2:91DB ??                          .ds 1
xevious_sr2:91DC ??                          .ds 1
xevious_sr2:91DD ??                          .ds 1
xevious_sr2:91DE ??                          .ds 1
xevious_sr2:91DF ??                          .ds 1
xevious_sr2:91E0 ??                          .ds 1
xevious_sr2:91E1 ??                          .ds 1
xevious_sr2:91E2 ??                          .ds 1
xevious_sr2:91E3 ??                          .ds 1
xevious_sr2:91E4 ??                          .ds 1
xevious_sr2:91E5 ??                          .ds 1
xevious_sr2:91E6 ??                          .ds 1
xevious_sr2:91E7 ??                          .ds 1
xevious_sr2:91E8 ??                          .ds 1
xevious_sr2:91E9 ??                          .ds 1
xevious_sr2:91EA ??                          .ds 1
xevious_sr2:91EB ??                          .ds 1
xevious_sr2:91EC ??                          .ds 1
xevious_sr2:91ED ??                          .ds 1
xevious_sr2:91EE ??                          .ds 1
xevious_sr2:91EF ??                          .ds 1
xevious_sr2:91F0 ??                          .ds 1
xevious_sr2:91F1 ??                          .ds 1
xevious_sr2:91F2 ??                          .ds 1
xevious_sr2:91F3 ??                          .ds 1
xevious_sr2:91F4 ??                          .ds 1
xevious_sr2:91F5 ??                          .ds 1
xevious_sr2:91F6 ??                          .ds 1
xevious_sr2:91F7 ??                          .ds 1
xevious_sr2:91F8 ??                          .ds 1
xevious_sr2:91F9 ??                          .ds 1
xevious_sr2:91FA ??                          .ds 1
xevious_sr2:91FB ??                          .ds 1
xevious_sr2:91FC ??                          .ds 1
xevious_sr2:91FD ??                          .ds 1
xevious_sr2:91FE ??                          .ds 1
xevious_sr2:91FF ??                          .ds 1
xevious_sr2:9200 ??                          .ds 1
xevious_sr2:9201 ??                          .ds 1
xevious_sr2:9202 ??                          .ds 1
xevious_sr2:9203 ??                          .ds 1
xevious_sr2:9204 ??                          .ds 1
xevious_sr2:9205 ??                          .ds 1
xevious_sr2:9206 ??                          .ds 1
xevious_sr2:9207 ??                          .ds 1
xevious_sr2:9208 ??                          .ds 1
xevious_sr2:9209 ??                          .ds 1
xevious_sr2:920A ??                          .ds 1
xevious_sr2:920B ??                          .ds 1
xevious_sr2:920C ??                          .ds 1
xevious_sr2:920D ??                          .ds 1
xevious_sr2:920E ??                          .ds 1
xevious_sr2:920F ??                          .ds 1
xevious_sr2:9210 ??                          .ds 1
xevious_sr2:9211 ??                          .ds 1
xevious_sr2:9212 ??                          .ds 1
xevious_sr2:9213 ??                          .ds 1
xevious_sr2:9214 ??                          .ds 1
xevious_sr2:9215 ??                          .ds 1
xevious_sr2:9216 ??                          .ds 1
xevious_sr2:9217 ??                          .ds 1
xevious_sr2:9218 ??                          .ds 1
xevious_sr2:9219 ??                          .ds 1
xevious_sr2:921A ??                          .ds 1
xevious_sr2:921B ??                          .ds 1
xevious_sr2:921C ??                          .ds 1
xevious_sr2:921D ??                          .ds 1
xevious_sr2:921E ??                          .ds 1
xevious_sr2:921F ??                          .ds 1
xevious_sr2:9220 ??                          .ds 1
xevious_sr2:9221 ??                          .ds 1
xevious_sr2:9222 ??                          .ds 1
xevious_sr2:9223 ??                          .ds 1
xevious_sr2:9224 ??                          .ds 1
xevious_sr2:9225 ??                          .ds 1
xevious_sr2:9226 ??                          .ds 1
xevious_sr2:9227 ??                          .ds 1
xevious_sr2:9228 ??                          .ds 1
xevious_sr2:9229 ??                          .ds 1
xevious_sr2:922A ??                          .ds 1
xevious_sr2:922B ??                          .ds 1
xevious_sr2:922C ??                          .ds 1
xevious_sr2:922D ??                          .ds 1
xevious_sr2:922E ??                          .ds 1
xevious_sr2:922F ??                          .ds 1
xevious_sr2:9230 ??                          .ds 1
xevious_sr2:9231 ??                          .ds 1
xevious_sr2:9232 ??                          .ds 1
xevious_sr2:9233 ??                          .ds 1
xevious_sr2:9234 ??                          .ds 1
xevious_sr2:9235 ??                          .ds 1
xevious_sr2:9236 ??                          .ds 1
xevious_sr2:9237 ??                          .ds 1
xevious_sr2:9238 ??                          .ds 1
xevious_sr2:9239 ??                          .ds 1
xevious_sr2:923A ??                          .ds 1
xevious_sr2:923B ??                          .ds 1
xevious_sr2:923C ??                          .ds 1
xevious_sr2:923D ??                          .ds 1
xevious_sr2:923E ??                          .ds 1
xevious_sr2:923F ??                          .ds 1
xevious_sr2:9240 ??                          .ds 1
xevious_sr2:9241 ??                          .ds 1
xevious_sr2:9242 ??                          .ds 1
xevious_sr2:9243 ??                          .ds 1
xevious_sr2:9244 ??                          .ds 1
xevious_sr2:9245 ??                          .ds 1
xevious_sr2:9246 ??                          .ds 1
xevious_sr2:9247 ??                          .ds 1
xevious_sr2:9248 ??                          .ds 1
xevious_sr2:9249 ??                          .ds 1
xevious_sr2:924A ??                          .ds 1
xevious_sr2:924B ??                          .ds 1
xevious_sr2:924C ??                          .ds 1
xevious_sr2:924D ??                          .ds 1
xevious_sr2:924E ??                          .ds 1
xevious_sr2:924F ??                          .ds 1
xevious_sr2:9250 ??                          .ds 1
xevious_sr2:9251 ??                          .ds 1
xevious_sr2:9252 ??                          .ds 1
xevious_sr2:9253 ??                          .ds 1
xevious_sr2:9254 ??                          .ds 1
xevious_sr2:9255 ??                          .ds 1
xevious_sr2:9256 ??                          .ds 1
xevious_sr2:9257 ??                          .ds 1
xevious_sr2:9258 ??                          .ds 1
xevious_sr2:9259 ??                          .ds 1
xevious_sr2:925A ??                          .ds 1
xevious_sr2:925B ??                          .ds 1
xevious_sr2:925C ??                          .ds 1
xevious_sr2:925D ??                          .ds 1
xevious_sr2:925E ??                          .ds 1
xevious_sr2:925F ??                          .ds 1
xevious_sr2:9260 ??                          .ds 1
xevious_sr2:9261 ??                          .ds 1
xevious_sr2:9262 ??                          .ds 1
xevious_sr2:9263 ??                          .ds 1
xevious_sr2:9264 ??                          .ds 1
xevious_sr2:9265 ??                          .ds 1
xevious_sr2:9266 ??                          .ds 1
xevious_sr2:9267 ??                          .ds 1
xevious_sr2:9268 ??                          .ds 1
xevious_sr2:9269 ??                          .ds 1
xevious_sr2:926A ??                          .ds 1
xevious_sr2:926B ??                          .ds 1
xevious_sr2:926C ??                          .ds 1
xevious_sr2:926D ??                          .ds 1
xevious_sr2:926E ??                          .ds 1
xevious_sr2:926F ??                          .ds 1
xevious_sr2:9270 ??                          .ds 1
xevious_sr2:9271 ??                          .ds 1
xevious_sr2:9272 ??                          .ds 1
xevious_sr2:9273 ??                          .ds 1
xevious_sr2:9274 ??                          .ds 1
xevious_sr2:9275 ??                          .ds 1
xevious_sr2:9276 ??                          .ds 1
xevious_sr2:9277 ??                          .ds 1
xevious_sr2:9278 ??                          .ds 1
xevious_sr2:9279 ??                          .ds 1
xevious_sr2:927A ??                          .ds 1
xevious_sr2:927B ??                          .ds 1
xevious_sr2:927C ??                          .ds 1
xevious_sr2:927D ??                          .ds 1
xevious_sr2:927E ??                          .ds 1
xevious_sr2:927F ??                          .ds 1
xevious_sr2:9280 ??                          .ds 1
xevious_sr2:9281 ??                          .ds 1
xevious_sr2:9282 ??                          .ds 1
xevious_sr2:9283 ??                          .ds 1
xevious_sr2:9284 ??                          .ds 1
xevious_sr2:9285 ??                          .ds 1
xevious_sr2:9286 ??                          .ds 1
xevious_sr2:9287 ??                          .ds 1
xevious_sr2:9288 ??                          .ds 1
xevious_sr2:9289 ??                          .ds 1
xevious_sr2:928A ??                          .ds 1
xevious_sr2:928B ??                          .ds 1
xevious_sr2:928C ??                          .ds 1
xevious_sr2:928D ??                          .ds 1
xevious_sr2:928E ??                          .ds 1
xevious_sr2:928F ??                          .ds 1
xevious_sr2:9290 ??                          .ds 1
xevious_sr2:9291 ??                          .ds 1
xevious_sr2:9292 ??                          .ds 1
xevious_sr2:9293 ??                          .ds 1
xevious_sr2:9294 ??                          .ds 1
xevious_sr2:9295 ??                          .ds 1
xevious_sr2:9296 ??                          .ds 1
xevious_sr2:9297 ??                          .ds 1
xevious_sr2:9298 ??                          .ds 1
xevious_sr2:9299 ??                          .ds 1
xevious_sr2:929A ??                          .ds 1
xevious_sr2:929B ??                          .ds 1
xevious_sr2:929C ??                          .ds 1
xevious_sr2:929D ??                          .ds 1
xevious_sr2:929E ??                          .ds 1
xevious_sr2:929F ??                          .ds 1
xevious_sr2:92A0 ??                          .ds 1
xevious_sr2:92A1 ??                          .ds 1
xevious_sr2:92A2 ??                          .ds 1
xevious_sr2:92A3 ??                          .ds 1
xevious_sr2:92A4 ??                          .ds 1
xevious_sr2:92A5 ??                          .ds 1
xevious_sr2:92A6 ??                          .ds 1
xevious_sr2:92A7 ??                          .ds 1
xevious_sr2:92A8 ??                          .ds 1
xevious_sr2:92A9 ??                          .ds 1
xevious_sr2:92AA ??                          .ds 1
xevious_sr2:92AB ??                          .ds 1
xevious_sr2:92AC ??                          .ds 1
xevious_sr2:92AD ??                          .ds 1
xevious_sr2:92AE ??                          .ds 1
xevious_sr2:92AF ??                          .ds 1
xevious_sr2:92B0 ??                          .ds 1
xevious_sr2:92B1 ??                          .ds 1
xevious_sr2:92B2 ??                          .ds 1
xevious_sr2:92B3 ??                          .ds 1
xevious_sr2:92B4 ??                          .ds 1
xevious_sr2:92B5 ??                          .ds 1
xevious_sr2:92B6 ??                          .ds 1
xevious_sr2:92B7 ??                          .ds 1
xevious_sr2:92B8 ??                          .ds 1
xevious_sr2:92B9 ??                          .ds 1
xevious_sr2:92BA ??                          .ds 1
xevious_sr2:92BB ??                          .ds 1
xevious_sr2:92BC ??                          .ds 1
xevious_sr2:92BD ??                          .ds 1
xevious_sr2:92BE ??                          .ds 1
xevious_sr2:92BF ??                          .ds 1
xevious_sr2:92C0 ??                          .ds 1
xevious_sr2:92C1 ??                          .ds 1
xevious_sr2:92C2 ??                          .ds 1
xevious_sr2:92C3 ??                          .ds 1
xevious_sr2:92C4 ??                          .ds 1
xevious_sr2:92C5 ??                          .ds 1
xevious_sr2:92C6 ??                          .ds 1
xevious_sr2:92C7 ??                          .ds 1
xevious_sr2:92C8 ??                          .ds 1
xevious_sr2:92C9 ??                          .ds 1
xevious_sr2:92CA ??                          .ds 1
xevious_sr2:92CB ??                          .ds 1
xevious_sr2:92CC ??                          .ds 1
xevious_sr2:92CD ??                          .ds 1
xevious_sr2:92CE ??                          .ds 1
xevious_sr2:92CF ??                          .ds 1
xevious_sr2:92D0 ??                          .ds 1
xevious_sr2:92D1 ??                          .ds 1
xevious_sr2:92D2 ??                          .ds 1
xevious_sr2:92D3 ??                          .ds 1
xevious_sr2:92D4 ??                          .ds 1
xevious_sr2:92D5 ??                          .ds 1
xevious_sr2:92D6 ??                          .ds 1
xevious_sr2:92D7 ??                          .ds 1
xevious_sr2:92D8 ??                          .ds 1
xevious_sr2:92D9 ??                          .ds 1
xevious_sr2:92DA ??                          .ds 1
xevious_sr2:92DB ??                          .ds 1
xevious_sr2:92DC ??                          .ds 1
xevious_sr2:92DD ??                          .ds 1
xevious_sr2:92DE ??                          .ds 1
xevious_sr2:92DF ??                          .ds 1
xevious_sr2:92E0 ??                          .ds 1
xevious_sr2:92E1 ??                          .ds 1
xevious_sr2:92E2 ??                          .ds 1
xevious_sr2:92E3 ??                          .ds 1
xevious_sr2:92E4 ??                          .ds 1
xevious_sr2:92E5 ??                          .ds 1
xevious_sr2:92E6 ??                          .ds 1
xevious_sr2:92E7 ??                          .ds 1
xevious_sr2:92E8 ??                          .ds 1
xevious_sr2:92E9 ??                          .ds 1
xevious_sr2:92EA ??                          .ds 1
xevious_sr2:92EB ??                          .ds 1
xevious_sr2:92EC ??                          .ds 1
xevious_sr2:92ED ??                          .ds 1
xevious_sr2:92EE ??                          .ds 1
xevious_sr2:92EF ??                          .ds 1
xevious_sr2:92F0 ??                          .ds 1
xevious_sr2:92F1 ??                          .ds 1
xevious_sr2:92F2 ??                          .ds 1
xevious_sr2:92F3 ??                          .ds 1
xevious_sr2:92F4 ??                          .ds 1
xevious_sr2:92F5 ??                          .ds 1
xevious_sr2:92F6 ??                          .ds 1
xevious_sr2:92F7 ??                          .ds 1
xevious_sr2:92F8 ??                          .ds 1
xevious_sr2:92F9 ??                          .ds 1
xevious_sr2:92FA ??                          .ds 1
xevious_sr2:92FB ??                          .ds 1
xevious_sr2:92FC ??                          .ds 1
xevious_sr2:92FD ??                          .ds 1
xevious_sr2:92FE ??                          .ds 1
xevious_sr2:92FF ??                          .ds 1
xevious_sr2:9300 ??          unk_9300:       .ds 1
xevious_sr2:9301 ??          some_bcd_value: .ds 1                   ; DATA XREF: ROM:00E6w
xevious_sr2:9301                                                     ; ROM:00EEr ...
xevious_sr2:9302 ??          unk_9302:       .ds 1
xevious_sr2:9303 ??                          .ds 1
xevious_sr2:9304 ??                          .ds 1
xevious_sr2:9305 ??                          .ds 1
xevious_sr2:9306 ??                          .ds 1
xevious_sr2:9307 ??                          .ds 1
xevious_sr2:9308 ??                          .ds 1
xevious_sr2:9309 ??                          .ds 1
xevious_sr2:930A ??                          .ds 1
xevious_sr2:930B ??                          .ds 1
xevious_sr2:930C ??                          .ds 1
xevious_sr2:930D ??                          .ds 1
xevious_sr2:930E ??                          .ds 1
xevious_sr2:930F ??                          .ds 1
xevious_sr2:9310 ??                          .ds 1
xevious_sr2:9311 ??                          .ds 1
xevious_sr2:9312 ??                          .ds 1
xevious_sr2:9313 ??                          .ds 1
xevious_sr2:9314 ??                          .ds 1
xevious_sr2:9315 ??                          .ds 1
xevious_sr2:9316 ??                          .ds 1
xevious_sr2:9317 ??                          .ds 1
xevious_sr2:9318 ??                          .ds 1
xevious_sr2:9319 ??                          .ds 1
xevious_sr2:931A ??                          .ds 1
xevious_sr2:931B ??                          .ds 1
xevious_sr2:931C ??                          .ds 1
xevious_sr2:931D ??                          .ds 1
xevious_sr2:931E ??                          .ds 1
xevious_sr2:931F ??                          .ds 1
xevious_sr2:9320 ??                          .ds 1
xevious_sr2:9321 ??                          .ds 1
xevious_sr2:9322 ??                          .ds 1
xevious_sr2:9323 ??                          .ds 1
xevious_sr2:9324 ??                          .ds 1
xevious_sr2:9325 ??                          .ds 1
xevious_sr2:9326 ??                          .ds 1
xevious_sr2:9327 ??                          .ds 1
xevious_sr2:9328 ??                          .ds 1
xevious_sr2:9329 ??                          .ds 1
xevious_sr2:932A ??                          .ds 1
xevious_sr2:932B ??                          .ds 1
xevious_sr2:932C ??                          .ds 1
xevious_sr2:932D ??                          .ds 1
xevious_sr2:932E ??                          .ds 1
xevious_sr2:932F ??                          .ds 1
xevious_sr2:9330 ??                          .ds 1
xevious_sr2:9331 ??                          .ds 1
xevious_sr2:9332 ??                          .ds 1
xevious_sr2:9333 ??                          .ds 1
xevious_sr2:9334 ??                          .ds 1
xevious_sr2:9335 ??                          .ds 1
xevious_sr2:9336 ??                          .ds 1
xevious_sr2:9337 ??                          .ds 1
xevious_sr2:9338 ??                          .ds 1
xevious_sr2:9339 ??                          .ds 1
xevious_sr2:933A ??                          .ds 1
xevious_sr2:933B ??                          .ds 1
xevious_sr2:933C ??                          .ds 1
xevious_sr2:933D ??                          .ds 1
xevious_sr2:933E ??                          .ds 1
xevious_sr2:933F ??                          .ds 1
xevious_sr2:9340 ??                          .ds 1
xevious_sr2:9341 ??                          .ds 1
xevious_sr2:9342 ??                          .ds 1
xevious_sr2:9343 ??                          .ds 1
xevious_sr2:9344 ??                          .ds 1
xevious_sr2:9345 ??                          .ds 1
xevious_sr2:9346 ??                          .ds 1
xevious_sr2:9347 ??                          .ds 1
xevious_sr2:9348 ??                          .ds 1
xevious_sr2:9349 ??                          .ds 1
xevious_sr2:934A ??                          .ds 1
xevious_sr2:934B ??                          .ds 1
xevious_sr2:934C ??                          .ds 1
xevious_sr2:934D ??                          .ds 1
xevious_sr2:934E ??                          .ds 1
xevious_sr2:934F ??                          .ds 1
xevious_sr2:9350 ??                          .ds 1
xevious_sr2:9351 ??                          .ds 1
xevious_sr2:9352 ??                          .ds 1
xevious_sr2:9353 ??                          .ds 1
xevious_sr2:9354 ??                          .ds 1
xevious_sr2:9355 ??                          .ds 1
xevious_sr2:9356 ??                          .ds 1
xevious_sr2:9357 ??                          .ds 1
xevious_sr2:9358 ??                          .ds 1
xevious_sr2:9359 ??                          .ds 1
xevious_sr2:935A ??                          .ds 1
xevious_sr2:935B ??                          .ds 1
xevious_sr2:935C ??                          .ds 1
xevious_sr2:935D ??                          .ds 1
xevious_sr2:935E ??                          .ds 1
xevious_sr2:935F ??                          .ds 1
xevious_sr2:9360 ??                          .ds 1
xevious_sr2:9361 ??                          .ds 1
xevious_sr2:9362 ??                          .ds 1
xevious_sr2:9363 ??                          .ds 1
xevious_sr2:9364 ??                          .ds 1
xevious_sr2:9365 ??                          .ds 1
xevious_sr2:9366 ??                          .ds 1
xevious_sr2:9367 ??                          .ds 1
xevious_sr2:9368 ??                          .ds 1
xevious_sr2:9369 ??                          .ds 1
xevious_sr2:936A ??                          .ds 1
xevious_sr2:936B ??                          .ds 1
xevious_sr2:936C ??                          .ds 1
xevious_sr2:936D ??                          .ds 1
xevious_sr2:936E ??                          .ds 1
xevious_sr2:936F ??                          .ds 1
xevious_sr2:9370 ??                          .ds 1
xevious_sr2:9371 ??                          .ds 1
xevious_sr2:9372 ??                          .ds 1
xevious_sr2:9373 ??                          .ds 1
xevious_sr2:9374 ??                          .ds 1
xevious_sr2:9375 ??                          .ds 1
xevious_sr2:9376 ??                          .ds 1
xevious_sr2:9377 ??                          .ds 1
xevious_sr2:9378 ??                          .ds 1
xevious_sr2:9379 ??                          .ds 1
xevious_sr2:937A ??                          .ds 1
xevious_sr2:937B ??                          .ds 1
xevious_sr2:937C ??                          .ds 1
xevious_sr2:937D ??                          .ds 1
xevious_sr2:937E ??                          .ds 1
xevious_sr2:937F ??                          .ds 1
xevious_sr2:9380 ?? ?? ?? ??+domogram_tbl:   .ds 0x300               ; DATA XREF: ROM:07D9o
xevious_sr2:9680 ??                          .ds 1
xevious_sr2:9681 ??                          .ds 1
xevious_sr2:9682 ??                          .ds 1
xevious_sr2:9683 ??                          .ds 1
xevious_sr2:9684 ??                          .ds 1
xevious_sr2:9685 ??                          .ds 1
xevious_sr2:9686 ??                          .ds 1
xevious_sr2:9687 ??                          .ds 1
xevious_sr2:9688 ??                          .ds 1
xevious_sr2:9689 ??                          .ds 1
xevious_sr2:968A ??                          .ds 1
xevious_sr2:968B ??                          .ds 1
xevious_sr2:968C ??                          .ds 1
xevious_sr2:968D ??                          .ds 1
xevious_sr2:968E ??                          .ds 1
xevious_sr2:968F ??                          .ds 1
xevious_sr2:9690 ??                          .ds 1
xevious_sr2:9691 ??                          .ds 1
xevious_sr2:9692 ??                          .ds 1
xevious_sr2:9693 ??                          .ds 1
xevious_sr2:9694 ??                          .ds 1
xevious_sr2:9695 ??                          .ds 1
xevious_sr2:9696 ??                          .ds 1
xevious_sr2:9697 ??                          .ds 1
xevious_sr2:9698 ??                          .ds 1
xevious_sr2:9699 ??                          .ds 1
xevious_sr2:969A ??                          .ds 1
xevious_sr2:969B ??                          .ds 1
xevious_sr2:969C ??                          .ds 1
xevious_sr2:969D ??                          .ds 1
xevious_sr2:969E ??                          .ds 1
xevious_sr2:969F ??                          .ds 1
xevious_sr2:96A0 ??                          .ds 1
xevious_sr2:96A1 ??                          .ds 1
xevious_sr2:96A2 ??                          .ds 1
xevious_sr2:96A3 ??                          .ds 1
xevious_sr2:96A4 ??                          .ds 1
xevious_sr2:96A5 ??                          .ds 1
xevious_sr2:96A6 ??                          .ds 1
xevious_sr2:96A7 ??                          .ds 1
xevious_sr2:96A8 ??                          .ds 1
xevious_sr2:96A9 ??                          .ds 1
xevious_sr2:96AA ??                          .ds 1
xevious_sr2:96AB ??                          .ds 1
xevious_sr2:96AC ??                          .ds 1
xevious_sr2:96AD ??                          .ds 1
xevious_sr2:96AE ??                          .ds 1
xevious_sr2:96AF ??                          .ds 1
xevious_sr2:96B0 ??                          .ds 1
xevious_sr2:96B1 ??                          .ds 1
xevious_sr2:96B2 ??                          .ds 1
xevious_sr2:96B3 ??                          .ds 1
xevious_sr2:96B4 ??                          .ds 1
xevious_sr2:96B5 ??                          .ds 1
xevious_sr2:96B6 ??                          .ds 1
xevious_sr2:96B7 ??                          .ds 1
xevious_sr2:96B8 ??                          .ds 1
xevious_sr2:96B9 ??                          .ds 1
xevious_sr2:96BA ??                          .ds 1
xevious_sr2:96BB ??                          .ds 1
xevious_sr2:96BC ??                          .ds 1
xevious_sr2:96BD ??                          .ds 1
xevious_sr2:96BE ??                          .ds 1
xevious_sr2:96BF ??                          .ds 1
xevious_sr2:96C0 ??                          .ds 1
xevious_sr2:96C1 ??                          .ds 1
xevious_sr2:96C2 ??                          .ds 1
xevious_sr2:96C3 ??                          .ds 1
xevious_sr2:96C4 ??                          .ds 1
xevious_sr2:96C5 ??                          .ds 1
xevious_sr2:96C6 ??                          .ds 1
xevious_sr2:96C7 ??                          .ds 1
xevious_sr2:96C8 ??                          .ds 1
xevious_sr2:96C9 ??                          .ds 1
xevious_sr2:96CA ??                          .ds 1
xevious_sr2:96CB ??                          .ds 1
xevious_sr2:96CC ??                          .ds 1
xevious_sr2:96CD ??                          .ds 1
xevious_sr2:96CE ??                          .ds 1
xevious_sr2:96CF ??                          .ds 1
xevious_sr2:96D0 ??                          .ds 1
xevious_sr2:96D1 ??                          .ds 1
xevious_sr2:96D2 ??                          .ds 1
xevious_sr2:96D3 ??                          .ds 1
xevious_sr2:96D4 ??                          .ds 1
xevious_sr2:96D5 ??                          .ds 1
xevious_sr2:96D6 ??                          .ds 1
xevious_sr2:96D7 ??                          .ds 1
xevious_sr2:96D8 ??                          .ds 1
xevious_sr2:96D9 ??                          .ds 1
xevious_sr2:96DA ??                          .ds 1
xevious_sr2:96DB ??                          .ds 1
xevious_sr2:96DC ??                          .ds 1
xevious_sr2:96DD ??                          .ds 1
xevious_sr2:96DE ??                          .ds 1
xevious_sr2:96DF ??                          .ds 1
xevious_sr2:96E0 ??                          .ds 1
xevious_sr2:96E1 ??                          .ds 1
xevious_sr2:96E2 ??                          .ds 1
xevious_sr2:96E3 ??                          .ds 1
xevious_sr2:96E4 ??                          .ds 1
xevious_sr2:96E5 ??                          .ds 1
xevious_sr2:96E6 ??                          .ds 1
xevious_sr2:96E7 ??                          .ds 1
xevious_sr2:96E8 ??                          .ds 1
xevious_sr2:96E9 ??                          .ds 1
xevious_sr2:96EA ??                          .ds 1
xevious_sr2:96EB ??                          .ds 1
xevious_sr2:96EC ??                          .ds 1
xevious_sr2:96ED ??                          .ds 1
xevious_sr2:96EE ??                          .ds 1
xevious_sr2:96EF ??                          .ds 1
xevious_sr2:96F0 ??                          .ds 1
xevious_sr2:96F1 ??                          .ds 1
xevious_sr2:96F2 ??                          .ds 1
xevious_sr2:96F3 ??                          .ds 1
xevious_sr2:96F4 ??                          .ds 1
xevious_sr2:96F5 ??                          .ds 1
xevious_sr2:96F6 ??                          .ds 1
xevious_sr2:96F7 ??                          .ds 1
xevious_sr2:96F8 ??                          .ds 1
xevious_sr2:96F9 ??                          .ds 1
xevious_sr2:96FA ??                          .ds 1
xevious_sr2:96FB ??                          .ds 1
xevious_sr2:96FC ??                          .ds 1
xevious_sr2:96FD ??                          .ds 1
xevious_sr2:96FE ??                          .ds 1
xevious_sr2:96FF ??                          .ds 1
xevious_sr2:9700 ??                          .ds 1
xevious_sr2:9701 ??                          .ds 1
xevious_sr2:9702 ??                          .ds 1
xevious_sr2:9703 ??                          .ds 1
xevious_sr2:9704 ??                          .ds 1
xevious_sr2:9705 ??                          .ds 1
xevious_sr2:9706 ??                          .ds 1
xevious_sr2:9707 ??                          .ds 1
xevious_sr2:9708 ??                          .ds 1
xevious_sr2:9709 ??                          .ds 1
xevious_sr2:970A ??                          .ds 1
xevious_sr2:970B ??                          .ds 1
xevious_sr2:970C ??                          .ds 1
xevious_sr2:970D ??                          .ds 1
xevious_sr2:970E ??                          .ds 1
xevious_sr2:970F ??                          .ds 1
xevious_sr2:9710 ??                          .ds 1
xevious_sr2:9711 ??                          .ds 1
xevious_sr2:9712 ??                          .ds 1
xevious_sr2:9713 ??                          .ds 1
xevious_sr2:9714 ??                          .ds 1
xevious_sr2:9715 ??                          .ds 1
xevious_sr2:9716 ??                          .ds 1
xevious_sr2:9717 ??                          .ds 1
xevious_sr2:9718 ??                          .ds 1
xevious_sr2:9719 ??                          .ds 1
xevious_sr2:971A ??                          .ds 1
xevious_sr2:971B ??                          .ds 1
xevious_sr2:971C ??                          .ds 1
xevious_sr2:971D ??                          .ds 1
xevious_sr2:971E ??                          .ds 1
xevious_sr2:971F ??                          .ds 1
xevious_sr2:9720 ??                          .ds 1
xevious_sr2:9721 ??                          .ds 1
xevious_sr2:9722 ??                          .ds 1
xevious_sr2:9723 ??                          .ds 1
xevious_sr2:9724 ??                          .ds 1
xevious_sr2:9725 ??                          .ds 1
xevious_sr2:9726 ??                          .ds 1
xevious_sr2:9727 ??                          .ds 1
xevious_sr2:9728 ??                          .ds 1
xevious_sr2:9729 ??                          .ds 1
xevious_sr2:972A ??                          .ds 1
xevious_sr2:972B ??                          .ds 1
xevious_sr2:972C ??                          .ds 1
xevious_sr2:972D ??                          .ds 1
xevious_sr2:972E ??                          .ds 1
xevious_sr2:972F ??                          .ds 1
xevious_sr2:9730 ??                          .ds 1
xevious_sr2:9731 ??                          .ds 1
xevious_sr2:9732 ??                          .ds 1
xevious_sr2:9733 ??                          .ds 1
xevious_sr2:9734 ??                          .ds 1
xevious_sr2:9735 ??                          .ds 1
xevious_sr2:9736 ??                          .ds 1
xevious_sr2:9737 ??                          .ds 1
xevious_sr2:9738 ??                          .ds 1
xevious_sr2:9739 ??                          .ds 1
xevious_sr2:973A ??                          .ds 1
xevious_sr2:973B ??                          .ds 1
xevious_sr2:973C ??                          .ds 1
xevious_sr2:973D ??                          .ds 1
xevious_sr2:973E ??                          .ds 1
xevious_sr2:973F ??                          .ds 1
xevious_sr2:9740 ??                          .ds 1
xevious_sr2:9741 ??                          .ds 1
xevious_sr2:9742 ??                          .ds 1
xevious_sr2:9743 ??                          .ds 1
xevious_sr2:9744 ??                          .ds 1
xevious_sr2:9745 ??                          .ds 1
xevious_sr2:9746 ??                          .ds 1
xevious_sr2:9747 ??                          .ds 1
xevious_sr2:9748 ??                          .ds 1
xevious_sr2:9749 ??                          .ds 1
xevious_sr2:974A ??                          .ds 1
xevious_sr2:974B ??                          .ds 1
xevious_sr2:974C ??                          .ds 1
xevious_sr2:974D ??                          .ds 1
xevious_sr2:974E ??                          .ds 1
xevious_sr2:974F ??                          .ds 1
xevious_sr2:9750 ??                          .ds 1
xevious_sr2:9751 ??                          .ds 1
xevious_sr2:9752 ??                          .ds 1
xevious_sr2:9753 ??                          .ds 1
xevious_sr2:9754 ??                          .ds 1
xevious_sr2:9755 ??                          .ds 1
xevious_sr2:9756 ??                          .ds 1
xevious_sr2:9757 ??                          .ds 1
xevious_sr2:9758 ??                          .ds 1
xevious_sr2:9759 ??                          .ds 1
xevious_sr2:975A ??                          .ds 1
xevious_sr2:975B ??                          .ds 1
xevious_sr2:975C ??                          .ds 1
xevious_sr2:975D ??                          .ds 1
xevious_sr2:975E ??                          .ds 1
xevious_sr2:975F ??                          .ds 1
xevious_sr2:9760 ??                          .ds 1
xevious_sr2:9761 ??                          .ds 1
xevious_sr2:9762 ??                          .ds 1
xevious_sr2:9763 ??                          .ds 1
xevious_sr2:9764 ??                          .ds 1
xevious_sr2:9765 ??                          .ds 1
xevious_sr2:9766 ??                          .ds 1
xevious_sr2:9767 ??                          .ds 1
xevious_sr2:9768 ??                          .ds 1
xevious_sr2:9769 ??                          .ds 1
xevious_sr2:976A ??                          .ds 1
xevious_sr2:976B ??                          .ds 1
xevious_sr2:976C ??                          .ds 1
xevious_sr2:976D ??                          .ds 1
xevious_sr2:976E ??                          .ds 1
xevious_sr2:976F ??                          .ds 1
xevious_sr2:9770 ??                          .ds 1
xevious_sr2:9771 ??                          .ds 1
xevious_sr2:9772 ??                          .ds 1
xevious_sr2:9773 ??                          .ds 1
xevious_sr2:9774 ??                          .ds 1
xevious_sr2:9775 ??                          .ds 1
xevious_sr2:9776 ??                          .ds 1
xevious_sr2:9777 ??                          .ds 1
xevious_sr2:9778 ??                          .ds 1
xevious_sr2:9779 ??                          .ds 1
xevious_sr2:977A ??                          .ds 1
xevious_sr2:977B ??                          .ds 1
xevious_sr2:977C ??                          .ds 1
xevious_sr2:977D ??                          .ds 1
xevious_sr2:977E ??                          .ds 1
xevious_sr2:977F ??                          .ds 1
xevious_sr2:9780 ?? ?? ?? ??+spriteram_3_lower:.ds 0x40              ; DATA XREF: ROM:033Ao
xevious_sr2:97C0 ?? ?? ?? ??+spriteram_3_upper:.ds 0x40
xevious_sr2:97C0 ?? ?? ?? ??+; end of 'xevious_sr2'
xevious_sr2:97C0 ?? ?? ?? ??+
xevious_sr3:A000             ; ===========================================================================
xevious_sr3:A000
xevious_sr3:A000             ; Segment type: Regular
xevious_sr3:A000                             .org 0xA000
xevious_sr3:A000 ??          unk_A000:       .ds 1                   ; DATA XREF: ROM:040Bo
xevious_sr3:A001 ??                          .ds 1
xevious_sr3:A002 ??                          .ds 1
xevious_sr3:A003 ??                          .ds 1
xevious_sr3:A004 ??                          .ds 1
xevious_sr3:A005 ??                          .ds 1
xevious_sr3:A006 ??                          .ds 1
xevious_sr3:A007 ??                          .ds 1
xevious_sr3:A008 ??                          .ds 1
xevious_sr3:A009 ??                          .ds 1
xevious_sr3:A00A ??                          .ds 1
xevious_sr3:A00B ??                          .ds 1
xevious_sr3:A00C ??                          .ds 1
xevious_sr3:A00D ??                          .ds 1
xevious_sr3:A00E ??                          .ds 1
xevious_sr3:A00F ??                          .ds 1
xevious_sr3:A010 ??                          .ds 1
xevious_sr3:A011 ??                          .ds 1
xevious_sr3:A012 ??                          .ds 1
xevious_sr3:A013 ??                          .ds 1
xevious_sr3:A014 ??                          .ds 1
xevious_sr3:A015 ??                          .ds 1
xevious_sr3:A016 ??                          .ds 1
xevious_sr3:A017 ??                          .ds 1
xevious_sr3:A018 ??                          .ds 1
xevious_sr3:A019 ??                          .ds 1
xevious_sr3:A01A ??                          .ds 1
xevious_sr3:A01B ??                          .ds 1
xevious_sr3:A01C ??                          .ds 1
xevious_sr3:A01D ??                          .ds 1
xevious_sr3:A01E ??                          .ds 1
xevious_sr3:A01F ??                          .ds 1
xevious_sr3:A020 ??                          .ds 1
xevious_sr3:A021 ??                          .ds 1
xevious_sr3:A022 ??                          .ds 1
xevious_sr3:A023 ??                          .ds 1
xevious_sr3:A024 ??                          .ds 1
xevious_sr3:A025 ??                          .ds 1
xevious_sr3:A026 ??                          .ds 1
xevious_sr3:A027 ??                          .ds 1
xevious_sr3:A028 ??                          .ds 1
xevious_sr3:A029 ??                          .ds 1
xevious_sr3:A02A ??                          .ds 1
xevious_sr3:A02B ??                          .ds 1
xevious_sr3:A02C ??                          .ds 1
xevious_sr3:A02D ??                          .ds 1
xevious_sr3:A02E ??                          .ds 1
xevious_sr3:A02F ??                          .ds 1
xevious_sr3:A030 ??                          .ds 1
xevious_sr3:A031 ??                          .ds 1
xevious_sr3:A032 ??                          .ds 1
xevious_sr3:A033 ??                          .ds 1
xevious_sr3:A034 ??                          .ds 1
xevious_sr3:A035 ??                          .ds 1
xevious_sr3:A036 ??                          .ds 1
xevious_sr3:A037 ??                          .ds 1
xevious_sr3:A038 ??                          .ds 1
xevious_sr3:A039 ??                          .ds 1
xevious_sr3:A03A ??                          .ds 1
xevious_sr3:A03B ??                          .ds 1
xevious_sr3:A03C ??                          .ds 1
xevious_sr3:A03D ??                          .ds 1
xevious_sr3:A03E ??                          .ds 1
xevious_sr3:A03F ??                          .ds 1
xevious_sr3:A040 ??                          .ds 1
xevious_sr3:A041 ??                          .ds 1
xevious_sr3:A042 ??                          .ds 1
xevious_sr3:A043 ??                          .ds 1
xevious_sr3:A044 ??                          .ds 1
xevious_sr3:A045 ??                          .ds 1
xevious_sr3:A046 ??                          .ds 1
xevious_sr3:A047 ??                          .ds 1
xevious_sr3:A048 ??                          .ds 1
xevious_sr3:A049 ??                          .ds 1
xevious_sr3:A04A ??                          .ds 1
xevious_sr3:A04B ??                          .ds 1
xevious_sr3:A04C ??                          .ds 1
xevious_sr3:A04D ??                          .ds 1
xevious_sr3:A04E ??                          .ds 1
xevious_sr3:A04F ??                          .ds 1
xevious_sr3:A050 ??                          .ds 1
xevious_sr3:A051 ??                          .ds 1
xevious_sr3:A052 ??                          .ds 1
xevious_sr3:A053 ??                          .ds 1
xevious_sr3:A054 ??                          .ds 1
xevious_sr3:A055 ??                          .ds 1
xevious_sr3:A056 ??                          .ds 1
xevious_sr3:A057 ??                          .ds 1
xevious_sr3:A058 ??                          .ds 1
xevious_sr3:A059 ??                          .ds 1
xevious_sr3:A05A ??                          .ds 1
xevious_sr3:A05B ??                          .ds 1
xevious_sr3:A05C ??                          .ds 1
xevious_sr3:A05D ??                          .ds 1
xevious_sr3:A05E ??                          .ds 1
xevious_sr3:A05F ??                          .ds 1
xevious_sr3:A060 ??                          .ds 1
xevious_sr3:A061 ??                          .ds 1
xevious_sr3:A062 ??                          .ds 1
xevious_sr3:A063 ??                          .ds 1
xevious_sr3:A064 ??                          .ds 1
xevious_sr3:A065 ??                          .ds 1
xevious_sr3:A066 ??                          .ds 1
xevious_sr3:A067 ??                          .ds 1
xevious_sr3:A068 ??                          .ds 1
xevious_sr3:A069 ??                          .ds 1
xevious_sr3:A06A ??                          .ds 1
xevious_sr3:A06B ??                          .ds 1
xevious_sr3:A06C ??                          .ds 1
xevious_sr3:A06D ??                          .ds 1
xevious_sr3:A06E ??                          .ds 1
xevious_sr3:A06F ??                          .ds 1
xevious_sr3:A070 ??                          .ds 1
xevious_sr3:A071 ??                          .ds 1
xevious_sr3:A072 ??                          .ds 1
xevious_sr3:A073 ??                          .ds 1
xevious_sr3:A074 ??                          .ds 1
xevious_sr3:A075 ??                          .ds 1
xevious_sr3:A076 ??                          .ds 1
xevious_sr3:A077 ??                          .ds 1
xevious_sr3:A078 ??                          .ds 1
xevious_sr3:A079 ??                          .ds 1
xevious_sr3:A07A ??                          .ds 1
xevious_sr3:A07B ??                          .ds 1
xevious_sr3:A07C ??                          .ds 1
xevious_sr3:A07D ??                          .ds 1
xevious_sr3:A07E ??                          .ds 1
xevious_sr3:A07F ??                          .ds 1
xevious_sr3:A080 ??                          .ds 1
xevious_sr3:A081 ??                          .ds 1
xevious_sr3:A082 ??                          .ds 1
xevious_sr3:A083 ??                          .ds 1
xevious_sr3:A084 ??                          .ds 1
xevious_sr3:A085 ??                          .ds 1
xevious_sr3:A086 ??                          .ds 1
xevious_sr3:A087 ??                          .ds 1
xevious_sr3:A088 ??                          .ds 1
xevious_sr3:A089 ??                          .ds 1
xevious_sr3:A08A ??                          .ds 1
xevious_sr3:A08B ??                          .ds 1
xevious_sr3:A08C ??                          .ds 1
xevious_sr3:A08D ??                          .ds 1
xevious_sr3:A08E ??                          .ds 1
xevious_sr3:A08F ??                          .ds 1
xevious_sr3:A090 ??                          .ds 1
xevious_sr3:A091 ??                          .ds 1
xevious_sr3:A092 ??                          .ds 1
xevious_sr3:A093 ??                          .ds 1
xevious_sr3:A094 ??                          .ds 1
xevious_sr3:A095 ??                          .ds 1
xevious_sr3:A096 ??                          .ds 1
xevious_sr3:A097 ??                          .ds 1
xevious_sr3:A098 ??                          .ds 1
xevious_sr3:A099 ??                          .ds 1
xevious_sr3:A09A ??                          .ds 1
xevious_sr3:A09B ??                          .ds 1
xevious_sr3:A09C ??                          .ds 1
xevious_sr3:A09D ??                          .ds 1
xevious_sr3:A09E ??                          .ds 1
xevious_sr3:A09F ??                          .ds 1
xevious_sr3:A0A0 ??                          .ds 1
xevious_sr3:A0A1 ??                          .ds 1
xevious_sr3:A0A2 ??                          .ds 1
xevious_sr3:A0A3 ??                          .ds 1
xevious_sr3:A0A4 ??                          .ds 1
xevious_sr3:A0A5 ??                          .ds 1
xevious_sr3:A0A6 ??                          .ds 1
xevious_sr3:A0A7 ??                          .ds 1
xevious_sr3:A0A8 ??                          .ds 1
xevious_sr3:A0A9 ??                          .ds 1
xevious_sr3:A0AA ??                          .ds 1
xevious_sr3:A0AB ??                          .ds 1
xevious_sr3:A0AC ??                          .ds 1
xevious_sr3:A0AD ??                          .ds 1
xevious_sr3:A0AE ??                          .ds 1
xevious_sr3:A0AF ??                          .ds 1
xevious_sr3:A0B0 ??                          .ds 1
xevious_sr3:A0B1 ??                          .ds 1
xevious_sr3:A0B2 ??                          .ds 1
xevious_sr3:A0B3 ??                          .ds 1
xevious_sr3:A0B4 ??                          .ds 1
xevious_sr3:A0B5 ??                          .ds 1
xevious_sr3:A0B6 ??                          .ds 1
xevious_sr3:A0B7 ??                          .ds 1
xevious_sr3:A0B8 ??                          .ds 1
xevious_sr3:A0B9 ??                          .ds 1
xevious_sr3:A0BA ??                          .ds 1
xevious_sr3:A0BB ??                          .ds 1
xevious_sr3:A0BC ??                          .ds 1
xevious_sr3:A0BD ??                          .ds 1
xevious_sr3:A0BE ??                          .ds 1
xevious_sr3:A0BF ??                          .ds 1
xevious_sr3:A0C0 ??                          .ds 1
xevious_sr3:A0C1 ??                          .ds 1
xevious_sr3:A0C2 ??                          .ds 1
xevious_sr3:A0C3 ??                          .ds 1
xevious_sr3:A0C4 ??                          .ds 1
xevious_sr3:A0C5 ??                          .ds 1
xevious_sr3:A0C6 ??                          .ds 1
xevious_sr3:A0C7 ??                          .ds 1
xevious_sr3:A0C8 ??                          .ds 1
xevious_sr3:A0C9 ??                          .ds 1
xevious_sr3:A0CA ??                          .ds 1
xevious_sr3:A0CB ??                          .ds 1
xevious_sr3:A0CC ??                          .ds 1
xevious_sr3:A0CD ??                          .ds 1
xevious_sr3:A0CE ??                          .ds 1
xevious_sr3:A0CF ??                          .ds 1
xevious_sr3:A0D0 ??                          .ds 1
xevious_sr3:A0D1 ??                          .ds 1
xevious_sr3:A0D2 ??                          .ds 1
xevious_sr3:A0D3 ??                          .ds 1
xevious_sr3:A0D4 ??                          .ds 1
xevious_sr3:A0D5 ??                          .ds 1
xevious_sr3:A0D6 ??                          .ds 1
xevious_sr3:A0D7 ??                          .ds 1
xevious_sr3:A0D8 ??                          .ds 1
xevious_sr3:A0D9 ??                          .ds 1
xevious_sr3:A0DA ??                          .ds 1
xevious_sr3:A0DB ??                          .ds 1
xevious_sr3:A0DC ??                          .ds 1
xevious_sr3:A0DD ??                          .ds 1
xevious_sr3:A0DE ??                          .ds 1
xevious_sr3:A0DF ??                          .ds 1
xevious_sr3:A0E0 ??                          .ds 1
xevious_sr3:A0E1 ??                          .ds 1
xevious_sr3:A0E2 ??                          .ds 1
xevious_sr3:A0E3 ??                          .ds 1
xevious_sr3:A0E4 ??                          .ds 1
xevious_sr3:A0E5 ??                          .ds 1
xevious_sr3:A0E6 ??                          .ds 1
xevious_sr3:A0E7 ??                          .ds 1
xevious_sr3:A0E8 ??                          .ds 1
xevious_sr3:A0E9 ??                          .ds 1
xevious_sr3:A0EA ??                          .ds 1
xevious_sr3:A0EB ??                          .ds 1
xevious_sr3:A0EC ??                          .ds 1
xevious_sr3:A0ED ??                          .ds 1
xevious_sr3:A0EE ??                          .ds 1
xevious_sr3:A0EF ??                          .ds 1
xevious_sr3:A0F0 ??                          .ds 1
xevious_sr3:A0F1 ??                          .ds 1
xevious_sr3:A0F2 ??                          .ds 1
xevious_sr3:A0F3 ??                          .ds 1
xevious_sr3:A0F4 ??                          .ds 1
xevious_sr3:A0F5 ??                          .ds 1
xevious_sr3:A0F6 ??                          .ds 1
xevious_sr3:A0F7 ??                          .ds 1
xevious_sr3:A0F8 ??                          .ds 1
xevious_sr3:A0F9 ??                          .ds 1
xevious_sr3:A0FA ??                          .ds 1
xevious_sr3:A0FB ??                          .ds 1
xevious_sr3:A0FC ??                          .ds 1
xevious_sr3:A0FD ??                          .ds 1
xevious_sr3:A0FE ??                          .ds 1
xevious_sr3:A0FF ??                          .ds 1
xevious_sr3:A100 ??                          .ds 1
xevious_sr3:A101 ??                          .ds 1
xevious_sr3:A102 ??                          .ds 1
xevious_sr3:A103 ??                          .ds 1
xevious_sr3:A104 ??                          .ds 1
xevious_sr3:A105 ??                          .ds 1
xevious_sr3:A106 ??                          .ds 1
xevious_sr3:A107 ??                          .ds 1
xevious_sr3:A108 ??                          .ds 1
xevious_sr3:A109 ??                          .ds 1
xevious_sr3:A10A ??                          .ds 1
xevious_sr3:A10B ??                          .ds 1
xevious_sr3:A10C ??                          .ds 1
xevious_sr3:A10D ??                          .ds 1
xevious_sr3:A10E ??                          .ds 1
xevious_sr3:A10F ??                          .ds 1
xevious_sr3:A110 ??                          .ds 1
xevious_sr3:A111 ??                          .ds 1
xevious_sr3:A112 ??                          .ds 1
xevious_sr3:A113 ??                          .ds 1
xevious_sr3:A114 ??                          .ds 1
xevious_sr3:A115 ??                          .ds 1
xevious_sr3:A116 ??                          .ds 1
xevious_sr3:A117 ??                          .ds 1
xevious_sr3:A118 ??                          .ds 1
xevious_sr3:A119 ??                          .ds 1
xevious_sr3:A11A ??                          .ds 1
xevious_sr3:A11B ??                          .ds 1
xevious_sr3:A11C ??                          .ds 1
xevious_sr3:A11D ??                          .ds 1
xevious_sr3:A11E ??                          .ds 1
xevious_sr3:A11F ??                          .ds 1
xevious_sr3:A120 ??                          .ds 1
xevious_sr3:A121 ??                          .ds 1
xevious_sr3:A122 ??                          .ds 1
xevious_sr3:A123 ??                          .ds 1
xevious_sr3:A124 ??                          .ds 1
xevious_sr3:A125 ??                          .ds 1
xevious_sr3:A126 ??                          .ds 1
xevious_sr3:A127 ??                          .ds 1
xevious_sr3:A128 ??                          .ds 1
xevious_sr3:A129 ??                          .ds 1
xevious_sr3:A12A ??                          .ds 1
xevious_sr3:A12B ??                          .ds 1
xevious_sr3:A12C ??                          .ds 1
xevious_sr3:A12D ??                          .ds 1
xevious_sr3:A12E ??                          .ds 1
xevious_sr3:A12F ??                          .ds 1
xevious_sr3:A130 ??                          .ds 1
xevious_sr3:A131 ??                          .ds 1
xevious_sr3:A132 ??                          .ds 1
xevious_sr3:A133 ??                          .ds 1
xevious_sr3:A134 ??                          .ds 1
xevious_sr3:A135 ??                          .ds 1
xevious_sr3:A136 ??                          .ds 1
xevious_sr3:A137 ??                          .ds 1
xevious_sr3:A138 ??                          .ds 1
xevious_sr3:A139 ??                          .ds 1
xevious_sr3:A13A ??                          .ds 1
xevious_sr3:A13B ??                          .ds 1
xevious_sr3:A13C ??                          .ds 1
xevious_sr3:A13D ??                          .ds 1
xevious_sr3:A13E ??                          .ds 1
xevious_sr3:A13F ??                          .ds 1
xevious_sr3:A140 ??                          .ds 1
xevious_sr3:A141 ??                          .ds 1
xevious_sr3:A142 ??                          .ds 1
xevious_sr3:A143 ??                          .ds 1
xevious_sr3:A144 ??                          .ds 1
xevious_sr3:A145 ??                          .ds 1
xevious_sr3:A146 ??                          .ds 1
xevious_sr3:A147 ??                          .ds 1
xevious_sr3:A148 ??                          .ds 1
xevious_sr3:A149 ??                          .ds 1
xevious_sr3:A14A ??                          .ds 1
xevious_sr3:A14B ??                          .ds 1
xevious_sr3:A14C ??                          .ds 1
xevious_sr3:A14D ??                          .ds 1
xevious_sr3:A14E ??                          .ds 1
xevious_sr3:A14F ??                          .ds 1
xevious_sr3:A150 ??                          .ds 1
xevious_sr3:A151 ??                          .ds 1
xevious_sr3:A152 ??                          .ds 1
xevious_sr3:A153 ??                          .ds 1
xevious_sr3:A154 ??                          .ds 1
xevious_sr3:A155 ??                          .ds 1
xevious_sr3:A156 ??                          .ds 1
xevious_sr3:A157 ??                          .ds 1
xevious_sr3:A158 ??                          .ds 1
xevious_sr3:A159 ??                          .ds 1
xevious_sr3:A15A ??                          .ds 1
xevious_sr3:A15B ??                          .ds 1
xevious_sr3:A15C ??                          .ds 1
xevious_sr3:A15D ??                          .ds 1
xevious_sr3:A15E ??                          .ds 1
xevious_sr3:A15F ??                          .ds 1
xevious_sr3:A160 ??                          .ds 1
xevious_sr3:A161 ??                          .ds 1
xevious_sr3:A162 ??                          .ds 1
xevious_sr3:A163 ??                          .ds 1
xevious_sr3:A164 ??                          .ds 1
xevious_sr3:A165 ??                          .ds 1
xevious_sr3:A166 ??                          .ds 1
xevious_sr3:A167 ??                          .ds 1
xevious_sr3:A168 ??                          .ds 1
xevious_sr3:A169 ??                          .ds 1
xevious_sr3:A16A ??                          .ds 1
xevious_sr3:A16B ??                          .ds 1
xevious_sr3:A16C ??                          .ds 1
xevious_sr3:A16D ??                          .ds 1
xevious_sr3:A16E ??                          .ds 1
xevious_sr3:A16F ??                          .ds 1
xevious_sr3:A170 ??                          .ds 1
xevious_sr3:A171 ??                          .ds 1
xevious_sr3:A172 ??                          .ds 1
xevious_sr3:A173 ??                          .ds 1
xevious_sr3:A174 ??                          .ds 1
xevious_sr3:A175 ??                          .ds 1
xevious_sr3:A176 ??                          .ds 1
xevious_sr3:A177 ??                          .ds 1
xevious_sr3:A178 ??                          .ds 1
xevious_sr3:A179 ??                          .ds 1
xevious_sr3:A17A ??                          .ds 1
xevious_sr3:A17B ??                          .ds 1
xevious_sr3:A17C ??                          .ds 1
xevious_sr3:A17D ??                          .ds 1
xevious_sr3:A17E ??                          .ds 1
xevious_sr3:A17F ??                          .ds 1
xevious_sr3:A180 ??                          .ds 1
xevious_sr3:A181 ??                          .ds 1
xevious_sr3:A182 ??                          .ds 1
xevious_sr3:A183 ??                          .ds 1
xevious_sr3:A184 ??                          .ds 1
xevious_sr3:A185 ??                          .ds 1
xevious_sr3:A186 ??                          .ds 1
xevious_sr3:A187 ??                          .ds 1
xevious_sr3:A188 ??                          .ds 1
xevious_sr3:A189 ??                          .ds 1
xevious_sr3:A18A ??                          .ds 1
xevious_sr3:A18B ??                          .ds 1
xevious_sr3:A18C ??                          .ds 1
xevious_sr3:A18D ??                          .ds 1
xevious_sr3:A18E ??                          .ds 1
xevious_sr3:A18F ??                          .ds 1
xevious_sr3:A190 ??                          .ds 1
xevious_sr3:A191 ??                          .ds 1
xevious_sr3:A192 ??                          .ds 1
xevious_sr3:A193 ??                          .ds 1
xevious_sr3:A194 ??                          .ds 1
xevious_sr3:A195 ??                          .ds 1
xevious_sr3:A196 ??                          .ds 1
xevious_sr3:A197 ??                          .ds 1
xevious_sr3:A198 ??                          .ds 1
xevious_sr3:A199 ??                          .ds 1
xevious_sr3:A19A ??                          .ds 1
xevious_sr3:A19B ??                          .ds 1
xevious_sr3:A19C ??                          .ds 1
xevious_sr3:A19D ??                          .ds 1
xevious_sr3:A19E ??                          .ds 1
xevious_sr3:A19F ??                          .ds 1
xevious_sr3:A1A0 ??                          .ds 1
xevious_sr3:A1A1 ??                          .ds 1
xevious_sr3:A1A2 ??                          .ds 1
xevious_sr3:A1A3 ??                          .ds 1
xevious_sr3:A1A4 ??                          .ds 1
xevious_sr3:A1A5 ??                          .ds 1
xevious_sr3:A1A6 ??                          .ds 1
xevious_sr3:A1A7 ??                          .ds 1
xevious_sr3:A1A8 ??                          .ds 1
xevious_sr3:A1A9 ??                          .ds 1
xevious_sr3:A1AA ??                          .ds 1
xevious_sr3:A1AB ??                          .ds 1
xevious_sr3:A1AC ??                          .ds 1
xevious_sr3:A1AD ??                          .ds 1
xevious_sr3:A1AE ??                          .ds 1
xevious_sr3:A1AF ??                          .ds 1
xevious_sr3:A1B0 ??                          .ds 1
xevious_sr3:A1B1 ??                          .ds 1
xevious_sr3:A1B2 ??                          .ds 1
xevious_sr3:A1B3 ??                          .ds 1
xevious_sr3:A1B4 ??                          .ds 1
xevious_sr3:A1B5 ??                          .ds 1
xevious_sr3:A1B6 ??                          .ds 1
xevious_sr3:A1B7 ??                          .ds 1
xevious_sr3:A1B8 ??                          .ds 1
xevious_sr3:A1B9 ??                          .ds 1
xevious_sr3:A1BA ??                          .ds 1
xevious_sr3:A1BB ??                          .ds 1
xevious_sr3:A1BC ??                          .ds 1
xevious_sr3:A1BD ??                          .ds 1
xevious_sr3:A1BE ??                          .ds 1
xevious_sr3:A1BF ??                          .ds 1
xevious_sr3:A1C0 ??                          .ds 1
xevious_sr3:A1C1 ??                          .ds 1
xevious_sr3:A1C2 ??                          .ds 1
xevious_sr3:A1C3 ??                          .ds 1
xevious_sr3:A1C4 ??                          .ds 1
xevious_sr3:A1C5 ??                          .ds 1
xevious_sr3:A1C6 ??                          .ds 1
xevious_sr3:A1C7 ??                          .ds 1
xevious_sr3:A1C8 ??                          .ds 1
xevious_sr3:A1C9 ??                          .ds 1
xevious_sr3:A1CA ??                          .ds 1
xevious_sr3:A1CB ??                          .ds 1
xevious_sr3:A1CC ??                          .ds 1
xevious_sr3:A1CD ??                          .ds 1
xevious_sr3:A1CE ??                          .ds 1
xevious_sr3:A1CF ??                          .ds 1
xevious_sr3:A1D0 ??                          .ds 1
xevious_sr3:A1D1 ??                          .ds 1
xevious_sr3:A1D2 ??                          .ds 1
xevious_sr3:A1D3 ??                          .ds 1
xevious_sr3:A1D4 ??                          .ds 1
xevious_sr3:A1D5 ??                          .ds 1
xevious_sr3:A1D6 ??                          .ds 1
xevious_sr3:A1D7 ??                          .ds 1
xevious_sr3:A1D8 ??                          .ds 1
xevious_sr3:A1D9 ??                          .ds 1
xevious_sr3:A1DA ??                          .ds 1
xevious_sr3:A1DB ??                          .ds 1
xevious_sr3:A1DC ??                          .ds 1
xevious_sr3:A1DD ??                          .ds 1
xevious_sr3:A1DE ??                          .ds 1
xevious_sr3:A1DF ??                          .ds 1
xevious_sr3:A1E0 ??                          .ds 1
xevious_sr3:A1E1 ??                          .ds 1
xevious_sr3:A1E2 ??                          .ds 1
xevious_sr3:A1E3 ??                          .ds 1
xevious_sr3:A1E4 ??                          .ds 1
xevious_sr3:A1E5 ??                          .ds 1
xevious_sr3:A1E6 ??                          .ds 1
xevious_sr3:A1E7 ??                          .ds 1
xevious_sr3:A1E8 ??                          .ds 1
xevious_sr3:A1E9 ??                          .ds 1
xevious_sr3:A1EA ??                          .ds 1
xevious_sr3:A1EB ??                          .ds 1
xevious_sr3:A1EC ??                          .ds 1
xevious_sr3:A1ED ??                          .ds 1
xevious_sr3:A1EE ??                          .ds 1
xevious_sr3:A1EF ??                          .ds 1
xevious_sr3:A1F0 ??                          .ds 1
xevious_sr3:A1F1 ??                          .ds 1
xevious_sr3:A1F2 ??                          .ds 1
xevious_sr3:A1F3 ??                          .ds 1
xevious_sr3:A1F4 ??                          .ds 1
xevious_sr3:A1F5 ??                          .ds 1
xevious_sr3:A1F6 ??                          .ds 1
xevious_sr3:A1F7 ??                          .ds 1
xevious_sr3:A1F8 ??                          .ds 1
xevious_sr3:A1F9 ??                          .ds 1
xevious_sr3:A1FA ??                          .ds 1
xevious_sr3:A1FB ??                          .ds 1
xevious_sr3:A1FC ??                          .ds 1
xevious_sr3:A1FD ??                          .ds 1
xevious_sr3:A1FE ??                          .ds 1
xevious_sr3:A1FF ??                          .ds 1
xevious_sr3:A200 ??                          .ds 1
xevious_sr3:A201 ??                          .ds 1
xevious_sr3:A202 ??                          .ds 1
xevious_sr3:A203 ??                          .ds 1
xevious_sr3:A204 ??                          .ds 1
xevious_sr3:A205 ??                          .ds 1
xevious_sr3:A206 ??                          .ds 1
xevious_sr3:A207 ??                          .ds 1
xevious_sr3:A208 ??                          .ds 1
xevious_sr3:A209 ??                          .ds 1
xevious_sr3:A20A ??                          .ds 1
xevious_sr3:A20B ??                          .ds 1
xevious_sr3:A20C ??                          .ds 1
xevious_sr3:A20D ??                          .ds 1
xevious_sr3:A20E ??                          .ds 1
xevious_sr3:A20F ??                          .ds 1
xevious_sr3:A210 ??                          .ds 1
xevious_sr3:A211 ??                          .ds 1
xevious_sr3:A212 ??                          .ds 1
xevious_sr3:A213 ??                          .ds 1
xevious_sr3:A214 ??                          .ds 1
xevious_sr3:A215 ??                          .ds 1
xevious_sr3:A216 ??                          .ds 1
xevious_sr3:A217 ??                          .ds 1
xevious_sr3:A218 ??                          .ds 1
xevious_sr3:A219 ??                          .ds 1
xevious_sr3:A21A ??                          .ds 1
xevious_sr3:A21B ??                          .ds 1
xevious_sr3:A21C ??                          .ds 1
xevious_sr3:A21D ??                          .ds 1
xevious_sr3:A21E ??                          .ds 1
xevious_sr3:A21F ??                          .ds 1
xevious_sr3:A220 ??                          .ds 1
xevious_sr3:A221 ??                          .ds 1
xevious_sr3:A222 ??                          .ds 1
xevious_sr3:A223 ??                          .ds 1
xevious_sr3:A224 ??                          .ds 1
xevious_sr3:A225 ??                          .ds 1
xevious_sr3:A226 ??                          .ds 1
xevious_sr3:A227 ??                          .ds 1
xevious_sr3:A228 ??                          .ds 1
xevious_sr3:A229 ??                          .ds 1
xevious_sr3:A22A ??                          .ds 1
xevious_sr3:A22B ??                          .ds 1
xevious_sr3:A22C ??                          .ds 1
xevious_sr3:A22D ??                          .ds 1
xevious_sr3:A22E ??                          .ds 1
xevious_sr3:A22F ??                          .ds 1
xevious_sr3:A230 ??                          .ds 1
xevious_sr3:A231 ??                          .ds 1
xevious_sr3:A232 ??                          .ds 1
xevious_sr3:A233 ??                          .ds 1
xevious_sr3:A234 ??                          .ds 1
xevious_sr3:A235 ??                          .ds 1
xevious_sr3:A236 ??                          .ds 1
xevious_sr3:A237 ??                          .ds 1
xevious_sr3:A238 ??                          .ds 1
xevious_sr3:A239 ??                          .ds 1
xevious_sr3:A23A ??                          .ds 1
xevious_sr3:A23B ??                          .ds 1
xevious_sr3:A23C ??                          .ds 1
xevious_sr3:A23D ??                          .ds 1
xevious_sr3:A23E ??                          .ds 1
xevious_sr3:A23F ??                          .ds 1
xevious_sr3:A240 ??                          .ds 1
xevious_sr3:A241 ??                          .ds 1
xevious_sr3:A242 ??                          .ds 1
xevious_sr3:A243 ??                          .ds 1
xevious_sr3:A244 ??                          .ds 1
xevious_sr3:A245 ??                          .ds 1
xevious_sr3:A246 ??                          .ds 1
xevious_sr3:A247 ??                          .ds 1
xevious_sr3:A248 ??                          .ds 1
xevious_sr3:A249 ??                          .ds 1
xevious_sr3:A24A ??                          .ds 1
xevious_sr3:A24B ??                          .ds 1
xevious_sr3:A24C ??                          .ds 1
xevious_sr3:A24D ??                          .ds 1
xevious_sr3:A24E ??                          .ds 1
xevious_sr3:A24F ??                          .ds 1
xevious_sr3:A250 ??                          .ds 1
xevious_sr3:A251 ??                          .ds 1
xevious_sr3:A252 ??                          .ds 1
xevious_sr3:A253 ??                          .ds 1
xevious_sr3:A254 ??                          .ds 1
xevious_sr3:A255 ??                          .ds 1
xevious_sr3:A256 ??                          .ds 1
xevious_sr3:A257 ??                          .ds 1
xevious_sr3:A258 ??                          .ds 1
xevious_sr3:A259 ??                          .ds 1
xevious_sr3:A25A ??                          .ds 1
xevious_sr3:A25B ??                          .ds 1
xevious_sr3:A25C ??                          .ds 1
xevious_sr3:A25D ??                          .ds 1
xevious_sr3:A25E ??                          .ds 1
xevious_sr3:A25F ??                          .ds 1
xevious_sr3:A260 ??                          .ds 1
xevious_sr3:A261 ??                          .ds 1
xevious_sr3:A262 ??                          .ds 1
xevious_sr3:A263 ??                          .ds 1
xevious_sr3:A264 ??                          .ds 1
xevious_sr3:A265 ??                          .ds 1
xevious_sr3:A266 ??                          .ds 1
xevious_sr3:A267 ??                          .ds 1
xevious_sr3:A268 ??                          .ds 1
xevious_sr3:A269 ??                          .ds 1
xevious_sr3:A26A ??                          .ds 1
xevious_sr3:A26B ??                          .ds 1
xevious_sr3:A26C ??                          .ds 1
xevious_sr3:A26D ??                          .ds 1
xevious_sr3:A26E ??                          .ds 1
xevious_sr3:A26F ??                          .ds 1
xevious_sr3:A270 ??                          .ds 1
xevious_sr3:A271 ??                          .ds 1
xevious_sr3:A272 ??                          .ds 1
xevious_sr3:A273 ??                          .ds 1
xevious_sr3:A274 ??                          .ds 1
xevious_sr3:A275 ??                          .ds 1
xevious_sr3:A276 ??                          .ds 1
xevious_sr3:A277 ??                          .ds 1
xevious_sr3:A278 ??                          .ds 1
xevious_sr3:A279 ??                          .ds 1
xevious_sr3:A27A ??                          .ds 1
xevious_sr3:A27B ??                          .ds 1
xevious_sr3:A27C ??                          .ds 1
xevious_sr3:A27D ??                          .ds 1
xevious_sr3:A27E ??                          .ds 1
xevious_sr3:A27F ??                          .ds 1
xevious_sr3:A280 ??                          .ds 1
xevious_sr3:A281 ??                          .ds 1
xevious_sr3:A282 ??                          .ds 1
xevious_sr3:A283 ??                          .ds 1
xevious_sr3:A284 ??                          .ds 1
xevious_sr3:A285 ??                          .ds 1
xevious_sr3:A286 ??                          .ds 1
xevious_sr3:A287 ??                          .ds 1
xevious_sr3:A288 ??                          .ds 1
xevious_sr3:A289 ??                          .ds 1
xevious_sr3:A28A ??                          .ds 1
xevious_sr3:A28B ??                          .ds 1
xevious_sr3:A28C ??                          .ds 1
xevious_sr3:A28D ??                          .ds 1
xevious_sr3:A28E ??                          .ds 1
xevious_sr3:A28F ??                          .ds 1
xevious_sr3:A290 ??                          .ds 1
xevious_sr3:A291 ??                          .ds 1
xevious_sr3:A292 ??                          .ds 1
xevious_sr3:A293 ??                          .ds 1
xevious_sr3:A294 ??                          .ds 1
xevious_sr3:A295 ??                          .ds 1
xevious_sr3:A296 ??                          .ds 1
xevious_sr3:A297 ??                          .ds 1
xevious_sr3:A298 ??                          .ds 1
xevious_sr3:A299 ??                          .ds 1
xevious_sr3:A29A ??                          .ds 1
xevious_sr3:A29B ??                          .ds 1
xevious_sr3:A29C ??                          .ds 1
xevious_sr3:A29D ??                          .ds 1
xevious_sr3:A29E ??                          .ds 1
xevious_sr3:A29F ??                          .ds 1
xevious_sr3:A2A0 ??                          .ds 1
xevious_sr3:A2A1 ??                          .ds 1
xevious_sr3:A2A2 ??                          .ds 1
xevious_sr3:A2A3 ??                          .ds 1
xevious_sr3:A2A4 ??                          .ds 1
xevious_sr3:A2A5 ??                          .ds 1
xevious_sr3:A2A6 ??                          .ds 1
xevious_sr3:A2A7 ??                          .ds 1
xevious_sr3:A2A8 ??                          .ds 1
xevious_sr3:A2A9 ??                          .ds 1
xevious_sr3:A2AA ??                          .ds 1
xevious_sr3:A2AB ??                          .ds 1
xevious_sr3:A2AC ??                          .ds 1
xevious_sr3:A2AD ??                          .ds 1
xevious_sr3:A2AE ??                          .ds 1
xevious_sr3:A2AF ??                          .ds 1
xevious_sr3:A2B0 ??                          .ds 1
xevious_sr3:A2B1 ??                          .ds 1
xevious_sr3:A2B2 ??                          .ds 1
xevious_sr3:A2B3 ??                          .ds 1
xevious_sr3:A2B4 ??                          .ds 1
xevious_sr3:A2B5 ??                          .ds 1
xevious_sr3:A2B6 ??                          .ds 1
xevious_sr3:A2B7 ??                          .ds 1
xevious_sr3:A2B8 ??                          .ds 1
xevious_sr3:A2B9 ??                          .ds 1
xevious_sr3:A2BA ??                          .ds 1
xevious_sr3:A2BB ??                          .ds 1
xevious_sr3:A2BC ??                          .ds 1
xevious_sr3:A2BD ??                          .ds 1
xevious_sr3:A2BE ??                          .ds 1
xevious_sr3:A2BF ??                          .ds 1
xevious_sr3:A2C0 ??                          .ds 1
xevious_sr3:A2C1 ??                          .ds 1
xevious_sr3:A2C2 ??                          .ds 1
xevious_sr3:A2C3 ??                          .ds 1
xevious_sr3:A2C4 ??                          .ds 1
xevious_sr3:A2C5 ??                          .ds 1
xevious_sr3:A2C6 ??                          .ds 1
xevious_sr3:A2C7 ??                          .ds 1
xevious_sr3:A2C8 ??                          .ds 1
xevious_sr3:A2C9 ??                          .ds 1
xevious_sr3:A2CA ??                          .ds 1
xevious_sr3:A2CB ??                          .ds 1
xevious_sr3:A2CC ??                          .ds 1
xevious_sr3:A2CD ??                          .ds 1
xevious_sr3:A2CE ??                          .ds 1
xevious_sr3:A2CF ??                          .ds 1
xevious_sr3:A2D0 ??                          .ds 1
xevious_sr3:A2D1 ??                          .ds 1
xevious_sr3:A2D2 ??                          .ds 1
xevious_sr3:A2D3 ??                          .ds 1
xevious_sr3:A2D4 ??                          .ds 1
xevious_sr3:A2D5 ??                          .ds 1
xevious_sr3:A2D6 ??                          .ds 1
xevious_sr3:A2D7 ??                          .ds 1
xevious_sr3:A2D8 ??                          .ds 1
xevious_sr3:A2D9 ??                          .ds 1
xevious_sr3:A2DA ??                          .ds 1
xevious_sr3:A2DB ??                          .ds 1
xevious_sr3:A2DC ??                          .ds 1
xevious_sr3:A2DD ??                          .ds 1
xevious_sr3:A2DE ??                          .ds 1
xevious_sr3:A2DF ??                          .ds 1
xevious_sr3:A2E0 ??                          .ds 1
xevious_sr3:A2E1 ??                          .ds 1
xevious_sr3:A2E2 ??                          .ds 1
xevious_sr3:A2E3 ??                          .ds 1
xevious_sr3:A2E4 ??                          .ds 1
xevious_sr3:A2E5 ??                          .ds 1
xevious_sr3:A2E6 ??                          .ds 1
xevious_sr3:A2E7 ??                          .ds 1
xevious_sr3:A2E8 ??                          .ds 1
xevious_sr3:A2E9 ??                          .ds 1
xevious_sr3:A2EA ??                          .ds 1
xevious_sr3:A2EB ??                          .ds 1
xevious_sr3:A2EC ??                          .ds 1
xevious_sr3:A2ED ??                          .ds 1
xevious_sr3:A2EE ??                          .ds 1
xevious_sr3:A2EF ??                          .ds 1
xevious_sr3:A2F0 ??                          .ds 1
xevious_sr3:A2F1 ??                          .ds 1
xevious_sr3:A2F2 ??                          .ds 1
xevious_sr3:A2F3 ??                          .ds 1
xevious_sr3:A2F4 ??                          .ds 1
xevious_sr3:A2F5 ??                          .ds 1
xevious_sr3:A2F6 ??                          .ds 1
xevious_sr3:A2F7 ??                          .ds 1
xevious_sr3:A2F8 ??                          .ds 1
xevious_sr3:A2F9 ??                          .ds 1
xevious_sr3:A2FA ??                          .ds 1
xevious_sr3:A2FB ??                          .ds 1
xevious_sr3:A2FC ??                          .ds 1
xevious_sr3:A2FD ??                          .ds 1
xevious_sr3:A2FE ??                          .ds 1
xevious_sr3:A2FF ??                          .ds 1
xevious_sr3:A300 ??                          .ds 1
xevious_sr3:A301 ??                          .ds 1
xevious_sr3:A302 ??                          .ds 1
xevious_sr3:A303 ??                          .ds 1
xevious_sr3:A304 ??                          .ds 1
xevious_sr3:A305 ??                          .ds 1
xevious_sr3:A306 ??                          .ds 1
xevious_sr3:A307 ??                          .ds 1
xevious_sr3:A308 ??                          .ds 1
xevious_sr3:A309 ??                          .ds 1
xevious_sr3:A30A ??                          .ds 1
xevious_sr3:A30B ??                          .ds 1
xevious_sr3:A30C ??                          .ds 1
xevious_sr3:A30D ??                          .ds 1
xevious_sr3:A30E ??                          .ds 1
xevious_sr3:A30F ??                          .ds 1
xevious_sr3:A310 ??                          .ds 1
xevious_sr3:A311 ??                          .ds 1
xevious_sr3:A312 ??                          .ds 1
xevious_sr3:A313 ??                          .ds 1
xevious_sr3:A314 ??                          .ds 1
xevious_sr3:A315 ??                          .ds 1
xevious_sr3:A316 ??                          .ds 1
xevious_sr3:A317 ??                          .ds 1
xevious_sr3:A318 ??                          .ds 1
xevious_sr3:A319 ??                          .ds 1
xevious_sr3:A31A ??                          .ds 1
xevious_sr3:A31B ??                          .ds 1
xevious_sr3:A31C ??                          .ds 1
xevious_sr3:A31D ??                          .ds 1
xevious_sr3:A31E ??                          .ds 1
xevious_sr3:A31F ??                          .ds 1
xevious_sr3:A320 ??                          .ds 1
xevious_sr3:A321 ??                          .ds 1
xevious_sr3:A322 ??                          .ds 1
xevious_sr3:A323 ??                          .ds 1
xevious_sr3:A324 ??                          .ds 1
xevious_sr3:A325 ??                          .ds 1
xevious_sr3:A326 ??                          .ds 1
xevious_sr3:A327 ??                          .ds 1
xevious_sr3:A328 ??                          .ds 1
xevious_sr3:A329 ??                          .ds 1
xevious_sr3:A32A ??                          .ds 1
xevious_sr3:A32B ??                          .ds 1
xevious_sr3:A32C ??                          .ds 1
xevious_sr3:A32D ??                          .ds 1
xevious_sr3:A32E ??                          .ds 1
xevious_sr3:A32F ??                          .ds 1
xevious_sr3:A330 ??                          .ds 1
xevious_sr3:A331 ??                          .ds 1
xevious_sr3:A332 ??                          .ds 1
xevious_sr3:A333 ??                          .ds 1
xevious_sr3:A334 ??                          .ds 1
xevious_sr3:A335 ??                          .ds 1
xevious_sr3:A336 ??                          .ds 1
xevious_sr3:A337 ??                          .ds 1
xevious_sr3:A338 ??                          .ds 1
xevious_sr3:A339 ??                          .ds 1
xevious_sr3:A33A ??                          .ds 1
xevious_sr3:A33B ??                          .ds 1
xevious_sr3:A33C ??                          .ds 1
xevious_sr3:A33D ??                          .ds 1
xevious_sr3:A33E ??                          .ds 1
xevious_sr3:A33F ??                          .ds 1
xevious_sr3:A340 ??                          .ds 1
xevious_sr3:A341 ??                          .ds 1
xevious_sr3:A342 ??                          .ds 1
xevious_sr3:A343 ??                          .ds 1
xevious_sr3:A344 ??                          .ds 1
xevious_sr3:A345 ??                          .ds 1
xevious_sr3:A346 ??                          .ds 1
xevious_sr3:A347 ??                          .ds 1
xevious_sr3:A348 ??                          .ds 1
xevious_sr3:A349 ??                          .ds 1
xevious_sr3:A34A ??                          .ds 1
xevious_sr3:A34B ??                          .ds 1
xevious_sr3:A34C ??                          .ds 1
xevious_sr3:A34D ??                          .ds 1
xevious_sr3:A34E ??                          .ds 1
xevious_sr3:A34F ??                          .ds 1
xevious_sr3:A350 ??                          .ds 1
xevious_sr3:A351 ??                          .ds 1
xevious_sr3:A352 ??                          .ds 1
xevious_sr3:A353 ??                          .ds 1
xevious_sr3:A354 ??                          .ds 1
xevious_sr3:A355 ??                          .ds 1
xevious_sr3:A356 ??                          .ds 1
xevious_sr3:A357 ??                          .ds 1
xevious_sr3:A358 ??                          .ds 1
xevious_sr3:A359 ??                          .ds 1
xevious_sr3:A35A ??                          .ds 1
xevious_sr3:A35B ??                          .ds 1
xevious_sr3:A35C ??                          .ds 1
xevious_sr3:A35D ??                          .ds 1
xevious_sr3:A35E ??                          .ds 1
xevious_sr3:A35F ??                          .ds 1
xevious_sr3:A360 ??                          .ds 1
xevious_sr3:A361 ??                          .ds 1
xevious_sr3:A362 ??                          .ds 1
xevious_sr3:A363 ??                          .ds 1
xevious_sr3:A364 ??                          .ds 1
xevious_sr3:A365 ??                          .ds 1
xevious_sr3:A366 ??                          .ds 1
xevious_sr3:A367 ??                          .ds 1
xevious_sr3:A368 ??                          .ds 1
xevious_sr3:A369 ??                          .ds 1
xevious_sr3:A36A ??                          .ds 1
xevious_sr3:A36B ??                          .ds 1
xevious_sr3:A36C ??                          .ds 1
xevious_sr3:A36D ??                          .ds 1
xevious_sr3:A36E ??                          .ds 1
xevious_sr3:A36F ??                          .ds 1
xevious_sr3:A370 ??                          .ds 1
xevious_sr3:A371 ??                          .ds 1
xevious_sr3:A372 ??                          .ds 1
xevious_sr3:A373 ??                          .ds 1
xevious_sr3:A374 ??                          .ds 1
xevious_sr3:A375 ??                          .ds 1
xevious_sr3:A376 ??                          .ds 1
xevious_sr3:A377 ??                          .ds 1
xevious_sr3:A378 ??                          .ds 1
xevious_sr3:A379 ??                          .ds 1
xevious_sr3:A37A ??                          .ds 1
xevious_sr3:A37B ??                          .ds 1
xevious_sr3:A37C ??                          .ds 1
xevious_sr3:A37D ??                          .ds 1
xevious_sr3:A37E ??                          .ds 1
xevious_sr3:A37F ??                          .ds 1
xevious_sr3:A380 ??                          .ds 1
xevious_sr3:A381 ??                          .ds 1
xevious_sr3:A382 ??                          .ds 1
xevious_sr3:A383 ??                          .ds 1
xevious_sr3:A384 ??                          .ds 1
xevious_sr3:A385 ??                          .ds 1
xevious_sr3:A386 ??                          .ds 1
xevious_sr3:A387 ??                          .ds 1
xevious_sr3:A388 ??                          .ds 1
xevious_sr3:A389 ??                          .ds 1
xevious_sr3:A38A ??                          .ds 1
xevious_sr3:A38B ??                          .ds 1
xevious_sr3:A38C ??                          .ds 1
xevious_sr3:A38D ??                          .ds 1
xevious_sr3:A38E ??                          .ds 1
xevious_sr3:A38F ??                          .ds 1
xevious_sr3:A390 ??                          .ds 1
xevious_sr3:A391 ??                          .ds 1
xevious_sr3:A392 ??                          .ds 1
xevious_sr3:A393 ??                          .ds 1
xevious_sr3:A394 ??                          .ds 1
xevious_sr3:A395 ??                          .ds 1
xevious_sr3:A396 ??                          .ds 1
xevious_sr3:A397 ??                          .ds 1
xevious_sr3:A398 ??                          .ds 1
xevious_sr3:A399 ??                          .ds 1
xevious_sr3:A39A ??                          .ds 1
xevious_sr3:A39B ??                          .ds 1
xevious_sr3:A39C ??                          .ds 1
xevious_sr3:A39D ??                          .ds 1
xevious_sr3:A39E ??                          .ds 1
xevious_sr3:A39F ??                          .ds 1
xevious_sr3:A3A0 ??                          .ds 1
xevious_sr3:A3A1 ??                          .ds 1
xevious_sr3:A3A2 ??                          .ds 1
xevious_sr3:A3A3 ??                          .ds 1
xevious_sr3:A3A4 ??                          .ds 1
xevious_sr3:A3A5 ??                          .ds 1
xevious_sr3:A3A6 ??                          .ds 1
xevious_sr3:A3A7 ??                          .ds 1
xevious_sr3:A3A8 ??                          .ds 1
xevious_sr3:A3A9 ??                          .ds 1
xevious_sr3:A3AA ??                          .ds 1
xevious_sr3:A3AB ??                          .ds 1
xevious_sr3:A3AC ??                          .ds 1
xevious_sr3:A3AD ??                          .ds 1
xevious_sr3:A3AE ??                          .ds 1
xevious_sr3:A3AF ??                          .ds 1
xevious_sr3:A3B0 ??                          .ds 1
xevious_sr3:A3B1 ??                          .ds 1
xevious_sr3:A3B2 ??                          .ds 1
xevious_sr3:A3B3 ??                          .ds 1
xevious_sr3:A3B4 ??                          .ds 1
xevious_sr3:A3B5 ??                          .ds 1
xevious_sr3:A3B6 ??                          .ds 1
xevious_sr3:A3B7 ??                          .ds 1
xevious_sr3:A3B8 ??                          .ds 1
xevious_sr3:A3B9 ??                          .ds 1
xevious_sr3:A3BA ??                          .ds 1
xevious_sr3:A3BB ??                          .ds 1
xevious_sr3:A3BC ??                          .ds 1
xevious_sr3:A3BD ??                          .ds 1
xevious_sr3:A3BE ??                          .ds 1
xevious_sr3:A3BF ??                          .ds 1
xevious_sr3:A3C0 ??                          .ds 1
xevious_sr3:A3C1 ??                          .ds 1
xevious_sr3:A3C2 ??                          .ds 1
xevious_sr3:A3C3 ??                          .ds 1
xevious_sr3:A3C4 ??                          .ds 1
xevious_sr3:A3C5 ??                          .ds 1
xevious_sr3:A3C6 ??                          .ds 1
xevious_sr3:A3C7 ??                          .ds 1
xevious_sr3:A3C8 ??                          .ds 1
xevious_sr3:A3C9 ??                          .ds 1
xevious_sr3:A3CA ??                          .ds 1
xevious_sr3:A3CB ??                          .ds 1
xevious_sr3:A3CC ??                          .ds 1
xevious_sr3:A3CD ??                          .ds 1
xevious_sr3:A3CE ??                          .ds 1
xevious_sr3:A3CF ??                          .ds 1
xevious_sr3:A3D0 ??                          .ds 1
xevious_sr3:A3D1 ??                          .ds 1
xevious_sr3:A3D2 ??                          .ds 1
xevious_sr3:A3D3 ??                          .ds 1
xevious_sr3:A3D4 ??                          .ds 1
xevious_sr3:A3D5 ??                          .ds 1
xevious_sr3:A3D6 ??                          .ds 1
xevious_sr3:A3D7 ??                          .ds 1
xevious_sr3:A3D8 ??                          .ds 1
xevious_sr3:A3D9 ??                          .ds 1
xevious_sr3:A3DA ??                          .ds 1
xevious_sr3:A3DB ??                          .ds 1
xevious_sr3:A3DC ??                          .ds 1
xevious_sr3:A3DD ??                          .ds 1
xevious_sr3:A3DE ??                          .ds 1
xevious_sr3:A3DF ??                          .ds 1
xevious_sr3:A3E0 ??                          .ds 1
xevious_sr3:A3E1 ??                          .ds 1
xevious_sr3:A3E2 ??                          .ds 1
xevious_sr3:A3E3 ??                          .ds 1
xevious_sr3:A3E4 ??                          .ds 1
xevious_sr3:A3E5 ??                          .ds 1
xevious_sr3:A3E6 ??                          .ds 1
xevious_sr3:A3E7 ??                          .ds 1
xevious_sr3:A3E8 ??                          .ds 1
xevious_sr3:A3E9 ??                          .ds 1
xevious_sr3:A3EA ??                          .ds 1
xevious_sr3:A3EB ??                          .ds 1
xevious_sr3:A3EC ??                          .ds 1
xevious_sr3:A3ED ??                          .ds 1
xevious_sr3:A3EE ??                          .ds 1
xevious_sr3:A3EF ??                          .ds 1
xevious_sr3:A3F0 ??                          .ds 1
xevious_sr3:A3F1 ??                          .ds 1
xevious_sr3:A3F2 ??                          .ds 1
xevious_sr3:A3F3 ??                          .ds 1
xevious_sr3:A3F4 ??                          .ds 1
xevious_sr3:A3F5 ??                          .ds 1
xevious_sr3:A3F6 ??                          .ds 1
xevious_sr3:A3F7 ??                          .ds 1
xevious_sr3:A3F8 ??                          .ds 1
xevious_sr3:A3F9 ??                          .ds 1
xevious_sr3:A3FA ??                          .ds 1
xevious_sr3:A3FB ??                          .ds 1
xevious_sr3:A3FC ??                          .ds 1
xevious_sr3:A3FD ??                          .ds 1
xevious_sr3:A3FE ??                          .ds 1
xevious_sr3:A3FF ??                          .ds 1
xevious_sr3:A400 ?? ?? ?? ??+area_object_tbl_tbl_RAM:.ds 0x20        ; DATA XREF: ROM:0340o
xevious_sr3:A420 ??                          .ds 1
xevious_sr3:A421 ??                          .ds 1
xevious_sr3:A422 ??                          .ds 1
xevious_sr3:A423 ??                          .ds 1
xevious_sr3:A424 ??                          .ds 1
xevious_sr3:A425 ??                          .ds 1
xevious_sr3:A426 ??                          .ds 1
xevious_sr3:A427 ??                          .ds 1
xevious_sr3:A428 ??                          .ds 1
xevious_sr3:A429 ??                          .ds 1
xevious_sr3:A42A ??                          .ds 1
xevious_sr3:A42B ??                          .ds 1
xevious_sr3:A42C ??                          .ds 1
xevious_sr3:A42D ??                          .ds 1
xevious_sr3:A42E ??                          .ds 1
xevious_sr3:A42F ??                          .ds 1
xevious_sr3:A430 ??                          .ds 1
xevious_sr3:A431 ??                          .ds 1
xevious_sr3:A432 ??                          .ds 1
xevious_sr3:A433 ??                          .ds 1
xevious_sr3:A434 ??                          .ds 1
xevious_sr3:A435 ??                          .ds 1
xevious_sr3:A436 ??                          .ds 1
xevious_sr3:A437 ??                          .ds 1
xevious_sr3:A438 ??                          .ds 1
xevious_sr3:A439 ??                          .ds 1
xevious_sr3:A43A ??                          .ds 1
xevious_sr3:A43B ??                          .ds 1
xevious_sr3:A43C ??                          .ds 1
xevious_sr3:A43D ??                          .ds 1
xevious_sr3:A43E ??                          .ds 1
xevious_sr3:A43F ??                          .ds 1
xevious_sr3:A440 ??                          .ds 1
xevious_sr3:A441 ??                          .ds 1
xevious_sr3:A442 ??                          .ds 1
xevious_sr3:A443 ??                          .ds 1
xevious_sr3:A444 ??                          .ds 1
xevious_sr3:A445 ??                          .ds 1
xevious_sr3:A446 ??                          .ds 1
xevious_sr3:A447 ??                          .ds 1
xevious_sr3:A448 ??                          .ds 1
xevious_sr3:A449 ??                          .ds 1
xevious_sr3:A44A ??                          .ds 1
xevious_sr3:A44B ??                          .ds 1
xevious_sr3:A44C ??                          .ds 1
xevious_sr3:A44D ??                          .ds 1
xevious_sr3:A44E ??                          .ds 1
xevious_sr3:A44F ??                          .ds 1
xevious_sr3:A450 ??                          .ds 1
xevious_sr3:A451 ??                          .ds 1
xevious_sr3:A452 ??                          .ds 1
xevious_sr3:A453 ??                          .ds 1
xevious_sr3:A454 ??                          .ds 1
xevious_sr3:A455 ??                          .ds 1
xevious_sr3:A456 ??                          .ds 1
xevious_sr3:A457 ??                          .ds 1
xevious_sr3:A458 ??                          .ds 1
xevious_sr3:A459 ??                          .ds 1
xevious_sr3:A45A ??                          .ds 1
xevious_sr3:A45B ??                          .ds 1
xevious_sr3:A45C ??                          .ds 1
xevious_sr3:A45D ??                          .ds 1
xevious_sr3:A45E ??                          .ds 1
xevious_sr3:A45F ??                          .ds 1
xevious_sr3:A460 ??                          .ds 1
xevious_sr3:A461 ??                          .ds 1
xevious_sr3:A462 ??                          .ds 1
xevious_sr3:A463 ??                          .ds 1
xevious_sr3:A464 ??                          .ds 1
xevious_sr3:A465 ??                          .ds 1
xevious_sr3:A466 ??                          .ds 1
xevious_sr3:A467 ??                          .ds 1
xevious_sr3:A468 ??                          .ds 1
xevious_sr3:A469 ??                          .ds 1
xevious_sr3:A46A ??                          .ds 1
xevious_sr3:A46B ??                          .ds 1
xevious_sr3:A46C ??                          .ds 1
xevious_sr3:A46D ??                          .ds 1
xevious_sr3:A46E ??                          .ds 1
xevious_sr3:A46F ??                          .ds 1
xevious_sr3:A470 ??                          .ds 1
xevious_sr3:A471 ??                          .ds 1
xevious_sr3:A472 ??                          .ds 1
xevious_sr3:A473 ??                          .ds 1
xevious_sr3:A474 ??                          .ds 1
xevious_sr3:A475 ??                          .ds 1
xevious_sr3:A476 ??                          .ds 1
xevious_sr3:A477 ??                          .ds 1
xevious_sr3:A478 ??                          .ds 1
xevious_sr3:A479 ??                          .ds 1
xevious_sr3:A47A ??                          .ds 1
xevious_sr3:A47B ??                          .ds 1
xevious_sr3:A47C ??                          .ds 1
xevious_sr3:A47D ??                          .ds 1
xevious_sr3:A47E ??                          .ds 1
xevious_sr3:A47F ??                          .ds 1
xevious_sr3:A480 ??                          .ds 1
xevious_sr3:A481 ??                          .ds 1
xevious_sr3:A482 ??                          .ds 1
xevious_sr3:A483 ??                          .ds 1
xevious_sr3:A484 ??                          .ds 1
xevious_sr3:A485 ??                          .ds 1
xevious_sr3:A486 ??                          .ds 1
xevious_sr3:A487 ??                          .ds 1
xevious_sr3:A488 ??                          .ds 1
xevious_sr3:A489 ??                          .ds 1
xevious_sr3:A48A ??                          .ds 1
xevious_sr3:A48B ??                          .ds 1
xevious_sr3:A48C ??                          .ds 1
xevious_sr3:A48D ??                          .ds 1
xevious_sr3:A48E ??                          .ds 1
xevious_sr3:A48F ??                          .ds 1
xevious_sr3:A490 ??                          .ds 1
xevious_sr3:A491 ??                          .ds 1
xevious_sr3:A492 ??                          .ds 1
xevious_sr3:A493 ??                          .ds 1
xevious_sr3:A494 ??                          .ds 1
xevious_sr3:A495 ??                          .ds 1
xevious_sr3:A496 ??                          .ds 1
xevious_sr3:A497 ??                          .ds 1
xevious_sr3:A498 ??                          .ds 1
xevious_sr3:A499 ??                          .ds 1
xevious_sr3:A49A ??                          .ds 1
xevious_sr3:A49B ??                          .ds 1
xevious_sr3:A49C ??                          .ds 1
xevious_sr3:A49D ??                          .ds 1
xevious_sr3:A49E ??                          .ds 1
xevious_sr3:A49F ??                          .ds 1
xevious_sr3:A4A0 ??                          .ds 1
xevious_sr3:A4A1 ??                          .ds 1
xevious_sr3:A4A2 ??                          .ds 1
xevious_sr3:A4A3 ??                          .ds 1
xevious_sr3:A4A4 ??                          .ds 1
xevious_sr3:A4A5 ??                          .ds 1
xevious_sr3:A4A6 ??                          .ds 1
xevious_sr3:A4A7 ??                          .ds 1
xevious_sr3:A4A8 ??                          .ds 1
xevious_sr3:A4A9 ??                          .ds 1
xevious_sr3:A4AA ??                          .ds 1
xevious_sr3:A4AB ??                          .ds 1
xevious_sr3:A4AC ??                          .ds 1
xevious_sr3:A4AD ??                          .ds 1
xevious_sr3:A4AE ??                          .ds 1
xevious_sr3:A4AF ??                          .ds 1
xevious_sr3:A4B0 ??                          .ds 1
xevious_sr3:A4B1 ??                          .ds 1
xevious_sr3:A4B2 ??                          .ds 1
xevious_sr3:A4B3 ??                          .ds 1
xevious_sr3:A4B4 ??                          .ds 1
xevious_sr3:A4B5 ??                          .ds 1
xevious_sr3:A4B6 ??                          .ds 1
xevious_sr3:A4B7 ??                          .ds 1
xevious_sr3:A4B8 ??                          .ds 1
xevious_sr3:A4B9 ??                          .ds 1
xevious_sr3:A4BA ??                          .ds 1
xevious_sr3:A4BB ??                          .ds 1
xevious_sr3:A4BC ??                          .ds 1
xevious_sr3:A4BD ??                          .ds 1
xevious_sr3:A4BE ??                          .ds 1
xevious_sr3:A4BF ??                          .ds 1
xevious_sr3:A4C0 ??                          .ds 1
xevious_sr3:A4C1 ??                          .ds 1
xevious_sr3:A4C2 ??                          .ds 1
xevious_sr3:A4C3 ??                          .ds 1
xevious_sr3:A4C4 ??                          .ds 1
xevious_sr3:A4C5 ??                          .ds 1
xevious_sr3:A4C6 ??                          .ds 1
xevious_sr3:A4C7 ??                          .ds 1
xevious_sr3:A4C8 ??                          .ds 1
xevious_sr3:A4C9 ??                          .ds 1
xevious_sr3:A4CA ??                          .ds 1
xevious_sr3:A4CB ??                          .ds 1
xevious_sr3:A4CC ??                          .ds 1
xevious_sr3:A4CD ??                          .ds 1
xevious_sr3:A4CE ??                          .ds 1
xevious_sr3:A4CF ??                          .ds 1
xevious_sr3:A4D0 ??                          .ds 1
xevious_sr3:A4D1 ??                          .ds 1
xevious_sr3:A4D2 ??                          .ds 1
xevious_sr3:A4D3 ??                          .ds 1
xevious_sr3:A4D4 ??                          .ds 1
xevious_sr3:A4D5 ??                          .ds 1
xevious_sr3:A4D6 ??                          .ds 1
xevious_sr3:A4D7 ??                          .ds 1
xevious_sr3:A4D8 ??                          .ds 1
xevious_sr3:A4D9 ??                          .ds 1
xevious_sr3:A4DA ??                          .ds 1
xevious_sr3:A4DB ??                          .ds 1
xevious_sr3:A4DC ??                          .ds 1
xevious_sr3:A4DD ??                          .ds 1
xevious_sr3:A4DE ??                          .ds 1
xevious_sr3:A4DF ??                          .ds 1
xevious_sr3:A4E0 ??                          .ds 1
xevious_sr3:A4E1 ??                          .ds 1
xevious_sr3:A4E2 ??                          .ds 1
xevious_sr3:A4E3 ??                          .ds 1
xevious_sr3:A4E4 ??                          .ds 1
xevious_sr3:A4E5 ??                          .ds 1
xevious_sr3:A4E6 ??                          .ds 1
xevious_sr3:A4E7 ??                          .ds 1
xevious_sr3:A4E8 ??                          .ds 1
xevious_sr3:A4E9 ??                          .ds 1
xevious_sr3:A4EA ??                          .ds 1
xevious_sr3:A4EB ??                          .ds 1
xevious_sr3:A4EC ??                          .ds 1
xevious_sr3:A4ED ??                          .ds 1
xevious_sr3:A4EE ??                          .ds 1
xevious_sr3:A4EF ??                          .ds 1
xevious_sr3:A4F0 ??                          .ds 1
xevious_sr3:A4F1 ??                          .ds 1
xevious_sr3:A4F2 ??                          .ds 1
xevious_sr3:A4F3 ??                          .ds 1
xevious_sr3:A4F4 ??                          .ds 1
xevious_sr3:A4F5 ??                          .ds 1
xevious_sr3:A4F6 ??                          .ds 1
xevious_sr3:A4F7 ??                          .ds 1
xevious_sr3:A4F8 ??                          .ds 1
xevious_sr3:A4F9 ??                          .ds 1
xevious_sr3:A4FA ??                          .ds 1
xevious_sr3:A4FB ??                          .ds 1
xevious_sr3:A4FC ??                          .ds 1
xevious_sr3:A4FD ??                          .ds 1
xevious_sr3:A4FE ??                          .ds 1
xevious_sr3:A4FF ??                          .ds 1
xevious_sr3:A500 ??                          .ds 1
xevious_sr3:A501 ??                          .ds 1
xevious_sr3:A502 ??                          .ds 1
xevious_sr3:A503 ??                          .ds 1
xevious_sr3:A504 ??                          .ds 1
xevious_sr3:A505 ??                          .ds 1
xevious_sr3:A506 ??                          .ds 1
xevious_sr3:A507 ??                          .ds 1
xevious_sr3:A508 ??                          .ds 1
xevious_sr3:A509 ??                          .ds 1
xevious_sr3:A50A ??                          .ds 1
xevious_sr3:A50B ??                          .ds 1
xevious_sr3:A50C ??                          .ds 1
xevious_sr3:A50D ??                          .ds 1
xevious_sr3:A50E ??                          .ds 1
xevious_sr3:A50F ??                          .ds 1
xevious_sr3:A510 ??                          .ds 1
xevious_sr3:A511 ??                          .ds 1
xevious_sr3:A512 ??                          .ds 1
xevious_sr3:A513 ??                          .ds 1
xevious_sr3:A514 ??                          .ds 1
xevious_sr3:A515 ??                          .ds 1
xevious_sr3:A516 ??                          .ds 1
xevious_sr3:A517 ??                          .ds 1
xevious_sr3:A518 ??                          .ds 1
xevious_sr3:A519 ??                          .ds 1
xevious_sr3:A51A ??                          .ds 1
xevious_sr3:A51B ??                          .ds 1
xevious_sr3:A51C ??                          .ds 1
xevious_sr3:A51D ??                          .ds 1
xevious_sr3:A51E ??                          .ds 1
xevious_sr3:A51F ??                          .ds 1
xevious_sr3:A520 ??                          .ds 1
xevious_sr3:A521 ??                          .ds 1
xevious_sr3:A522 ??                          .ds 1
xevious_sr3:A523 ??                          .ds 1
xevious_sr3:A524 ??                          .ds 1
xevious_sr3:A525 ??                          .ds 1
xevious_sr3:A526 ??                          .ds 1
xevious_sr3:A527 ??                          .ds 1
xevious_sr3:A528 ??                          .ds 1
xevious_sr3:A529 ??                          .ds 1
xevious_sr3:A52A ??                          .ds 1
xevious_sr3:A52B ??                          .ds 1
xevious_sr3:A52C ??                          .ds 1
xevious_sr3:A52D ??                          .ds 1
xevious_sr3:A52E ??                          .ds 1
xevious_sr3:A52F ??                          .ds 1
xevious_sr3:A530 ??                          .ds 1
xevious_sr3:A531 ??                          .ds 1
xevious_sr3:A532 ??                          .ds 1
xevious_sr3:A533 ??                          .ds 1
xevious_sr3:A534 ??                          .ds 1
xevious_sr3:A535 ??                          .ds 1
xevious_sr3:A536 ??                          .ds 1
xevious_sr3:A537 ??                          .ds 1
xevious_sr3:A538 ??                          .ds 1
xevious_sr3:A539 ??                          .ds 1
xevious_sr3:A53A ??                          .ds 1
xevious_sr3:A53B ??                          .ds 1
xevious_sr3:A53C ??                          .ds 1
xevious_sr3:A53D ??                          .ds 1
xevious_sr3:A53E ??                          .ds 1
xevious_sr3:A53F ??                          .ds 1
xevious_sr3:A540 ??                          .ds 1
xevious_sr3:A541 ??                          .ds 1
xevious_sr3:A542 ??                          .ds 1
xevious_sr3:A543 ??                          .ds 1
xevious_sr3:A544 ??                          .ds 1
xevious_sr3:A545 ??                          .ds 1
xevious_sr3:A546 ??                          .ds 1
xevious_sr3:A547 ??                          .ds 1
xevious_sr3:A548 ??                          .ds 1
xevious_sr3:A549 ??                          .ds 1
xevious_sr3:A54A ??                          .ds 1
xevious_sr3:A54B ??                          .ds 1
xevious_sr3:A54C ??                          .ds 1
xevious_sr3:A54D ??                          .ds 1
xevious_sr3:A54E ??                          .ds 1
xevious_sr3:A54F ??                          .ds 1
xevious_sr3:A550 ??                          .ds 1
xevious_sr3:A551 ??                          .ds 1
xevious_sr3:A552 ??                          .ds 1
xevious_sr3:A553 ??                          .ds 1
xevious_sr3:A554 ??                          .ds 1
xevious_sr3:A555 ??                          .ds 1
xevious_sr3:A556 ??                          .ds 1
xevious_sr3:A557 ??                          .ds 1
xevious_sr3:A558 ??                          .ds 1
xevious_sr3:A559 ??                          .ds 1
xevious_sr3:A55A ??                          .ds 1
xevious_sr3:A55B ??                          .ds 1
xevious_sr3:A55C ??                          .ds 1
xevious_sr3:A55D ??                          .ds 1
xevious_sr3:A55E ??                          .ds 1
xevious_sr3:A55F ??                          .ds 1
xevious_sr3:A560 ??                          .ds 1
xevious_sr3:A561 ??                          .ds 1
xevious_sr3:A562 ??                          .ds 1
xevious_sr3:A563 ??                          .ds 1
xevious_sr3:A564 ??                          .ds 1
xevious_sr3:A565 ??                          .ds 1
xevious_sr3:A566 ??                          .ds 1
xevious_sr3:A567 ??                          .ds 1
xevious_sr3:A568 ??                          .ds 1
xevious_sr3:A569 ??                          .ds 1
xevious_sr3:A56A ??                          .ds 1
xevious_sr3:A56B ??                          .ds 1
xevious_sr3:A56C ??                          .ds 1
xevious_sr3:A56D ??                          .ds 1
xevious_sr3:A56E ??                          .ds 1
xevious_sr3:A56F ??                          .ds 1
xevious_sr3:A570 ??                          .ds 1
xevious_sr3:A571 ??                          .ds 1
xevious_sr3:A572 ??                          .ds 1
xevious_sr3:A573 ??                          .ds 1
xevious_sr3:A574 ??                          .ds 1
xevious_sr3:A575 ??                          .ds 1
xevious_sr3:A576 ??                          .ds 1
xevious_sr3:A577 ??                          .ds 1
xevious_sr3:A578 ??                          .ds 1
xevious_sr3:A579 ??                          .ds 1
xevious_sr3:A57A ??                          .ds 1
xevious_sr3:A57B ??                          .ds 1
xevious_sr3:A57C ??                          .ds 1
xevious_sr3:A57D ??                          .ds 1
xevious_sr3:A57E ??                          .ds 1
xevious_sr3:A57F ??                          .ds 1
xevious_sr3:A580 ??                          .ds 1
xevious_sr3:A581 ??                          .ds 1
xevious_sr3:A582 ??                          .ds 1
xevious_sr3:A583 ??                          .ds 1
xevious_sr3:A584 ??                          .ds 1
xevious_sr3:A585 ??                          .ds 1
xevious_sr3:A586 ??                          .ds 1
xevious_sr3:A587 ??                          .ds 1
xevious_sr3:A588 ??                          .ds 1
xevious_sr3:A589 ??                          .ds 1
xevious_sr3:A58A ??                          .ds 1
xevious_sr3:A58B ??                          .ds 1
xevious_sr3:A58C ??                          .ds 1
xevious_sr3:A58D ??                          .ds 1
xevious_sr3:A58E ??                          .ds 1
xevious_sr3:A58F ??                          .ds 1
xevious_sr3:A590 ??                          .ds 1
xevious_sr3:A591 ??                          .ds 1
xevious_sr3:A592 ??                          .ds 1
xevious_sr3:A593 ??                          .ds 1
xevious_sr3:A594 ??                          .ds 1
xevious_sr3:A595 ??                          .ds 1
xevious_sr3:A596 ??                          .ds 1
xevious_sr3:A597 ??                          .ds 1
xevious_sr3:A598 ??                          .ds 1
xevious_sr3:A599 ??                          .ds 1
xevious_sr3:A59A ??                          .ds 1
xevious_sr3:A59B ??                          .ds 1
xevious_sr3:A59C ??                          .ds 1
xevious_sr3:A59D ??                          .ds 1
xevious_sr3:A59E ??                          .ds 1
xevious_sr3:A59F ??                          .ds 1
xevious_sr3:A5A0 ??                          .ds 1
xevious_sr3:A5A1 ??                          .ds 1
xevious_sr3:A5A2 ??                          .ds 1
xevious_sr3:A5A3 ??                          .ds 1
xevious_sr3:A5A4 ??                          .ds 1
xevious_sr3:A5A5 ??                          .ds 1
xevious_sr3:A5A6 ??                          .ds 1
xevious_sr3:A5A7 ??                          .ds 1
xevious_sr3:A5A8 ??                          .ds 1
xevious_sr3:A5A9 ??                          .ds 1
xevious_sr3:A5AA ??                          .ds 1
xevious_sr3:A5AB ??                          .ds 1
xevious_sr3:A5AC ??                          .ds 1
xevious_sr3:A5AD ??                          .ds 1
xevious_sr3:A5AE ??                          .ds 1
xevious_sr3:A5AF ??                          .ds 1
xevious_sr3:A5B0 ??                          .ds 1
xevious_sr3:A5B1 ??                          .ds 1
xevious_sr3:A5B2 ??                          .ds 1
xevious_sr3:A5B3 ??                          .ds 1
xevious_sr3:A5B4 ??                          .ds 1
xevious_sr3:A5B5 ??                          .ds 1
xevious_sr3:A5B6 ??                          .ds 1
xevious_sr3:A5B7 ??                          .ds 1
xevious_sr3:A5B8 ??                          .ds 1
xevious_sr3:A5B9 ??                          .ds 1
xevious_sr3:A5BA ??                          .ds 1
xevious_sr3:A5BB ??                          .ds 1
xevious_sr3:A5BC ??                          .ds 1
xevious_sr3:A5BD ??                          .ds 1
xevious_sr3:A5BE ??                          .ds 1
xevious_sr3:A5BF ??                          .ds 1
xevious_sr3:A5C0 ??                          .ds 1
xevious_sr3:A5C1 ??                          .ds 1
xevious_sr3:A5C2 ??                          .ds 1
xevious_sr3:A5C3 ??                          .ds 1
xevious_sr3:A5C4 ??                          .ds 1
xevious_sr3:A5C5 ??                          .ds 1
xevious_sr3:A5C6 ??                          .ds 1
xevious_sr3:A5C7 ??                          .ds 1
xevious_sr3:A5C8 ??                          .ds 1
xevious_sr3:A5C9 ??                          .ds 1
xevious_sr3:A5CA ??                          .ds 1
xevious_sr3:A5CB ??                          .ds 1
xevious_sr3:A5CC ??                          .ds 1
xevious_sr3:A5CD ??                          .ds 1
xevious_sr3:A5CE ??                          .ds 1
xevious_sr3:A5CF ??                          .ds 1
xevious_sr3:A5D0 ??                          .ds 1
xevious_sr3:A5D1 ??                          .ds 1
xevious_sr3:A5D2 ??                          .ds 1
xevious_sr3:A5D3 ??                          .ds 1
xevious_sr3:A5D4 ??                          .ds 1
xevious_sr3:A5D5 ??                          .ds 1
xevious_sr3:A5D6 ??                          .ds 1
xevious_sr3:A5D7 ??                          .ds 1
xevious_sr3:A5D8 ??                          .ds 1
xevious_sr3:A5D9 ??                          .ds 1
xevious_sr3:A5DA ??                          .ds 1
xevious_sr3:A5DB ??                          .ds 1
xevious_sr3:A5DC ??                          .ds 1
xevious_sr3:A5DD ??                          .ds 1
xevious_sr3:A5DE ??                          .ds 1
xevious_sr3:A5DF ??                          .ds 1
xevious_sr3:A5E0 ??                          .ds 1
xevious_sr3:A5E1 ??                          .ds 1
xevious_sr3:A5E2 ??                          .ds 1
xevious_sr3:A5E3 ??                          .ds 1
xevious_sr3:A5E4 ??                          .ds 1
xevious_sr3:A5E5 ??                          .ds 1
xevious_sr3:A5E6 ??                          .ds 1
xevious_sr3:A5E7 ??                          .ds 1
xevious_sr3:A5E8 ??                          .ds 1
xevious_sr3:A5E9 ??                          .ds 1
xevious_sr3:A5EA ??                          .ds 1
xevious_sr3:A5EB ??                          .ds 1
xevious_sr3:A5EC ??                          .ds 1
xevious_sr3:A5ED ??                          .ds 1
xevious_sr3:A5EE ??                          .ds 1
xevious_sr3:A5EF ??                          .ds 1
xevious_sr3:A5F0 ??                          .ds 1
xevious_sr3:A5F1 ??                          .ds 1
xevious_sr3:A5F2 ??                          .ds 1
xevious_sr3:A5F3 ??                          .ds 1
xevious_sr3:A5F4 ??                          .ds 1
xevious_sr3:A5F5 ??                          .ds 1
xevious_sr3:A5F6 ??                          .ds 1
xevious_sr3:A5F7 ??                          .ds 1
xevious_sr3:A5F8 ??                          .ds 1
xevious_sr3:A5F9 ??                          .ds 1
xevious_sr3:A5FA ??                          .ds 1
xevious_sr3:A5FB ??                          .ds 1
xevious_sr3:A5FC ??                          .ds 1
xevious_sr3:A5FD ??                          .ds 1
xevious_sr3:A5FE ??                          .ds 1
xevious_sr3:A5FF ??                          .ds 1
xevious_sr3:A600 ??                          .ds 1
xevious_sr3:A601 ??                          .ds 1
xevious_sr3:A602 ??                          .ds 1
xevious_sr3:A603 ??                          .ds 1
xevious_sr3:A604 ??                          .ds 1
xevious_sr3:A605 ??                          .ds 1
xevious_sr3:A606 ??                          .ds 1
xevious_sr3:A607 ??                          .ds 1
xevious_sr3:A608 ??                          .ds 1
xevious_sr3:A609 ??                          .ds 1
xevious_sr3:A60A ??                          .ds 1
xevious_sr3:A60B ??                          .ds 1
xevious_sr3:A60C ??                          .ds 1
xevious_sr3:A60D ??                          .ds 1
xevious_sr3:A60E ??                          .ds 1
xevious_sr3:A60F ??                          .ds 1
xevious_sr3:A610 ??                          .ds 1
xevious_sr3:A611 ??                          .ds 1
xevious_sr3:A612 ??                          .ds 1
xevious_sr3:A613 ??                          .ds 1
xevious_sr3:A614 ??                          .ds 1
xevious_sr3:A615 ??                          .ds 1
xevious_sr3:A616 ??                          .ds 1
xevious_sr3:A617 ??                          .ds 1
xevious_sr3:A618 ??                          .ds 1
xevious_sr3:A619 ??                          .ds 1
xevious_sr3:A61A ??                          .ds 1
xevious_sr3:A61B ??                          .ds 1
xevious_sr3:A61C ??                          .ds 1
xevious_sr3:A61D ??                          .ds 1
xevious_sr3:A61E ??                          .ds 1
xevious_sr3:A61F ??                          .ds 1
xevious_sr3:A620 ??                          .ds 1
xevious_sr3:A621 ??                          .ds 1
xevious_sr3:A622 ??                          .ds 1
xevious_sr3:A623 ??                          .ds 1
xevious_sr3:A624 ??                          .ds 1
xevious_sr3:A625 ??                          .ds 1
xevious_sr3:A626 ??                          .ds 1
xevious_sr3:A627 ??                          .ds 1
xevious_sr3:A628 ??                          .ds 1
xevious_sr3:A629 ??                          .ds 1
xevious_sr3:A62A ??                          .ds 1
xevious_sr3:A62B ??                          .ds 1
xevious_sr3:A62C ??                          .ds 1
xevious_sr3:A62D ??                          .ds 1
xevious_sr3:A62E ??                          .ds 1
xevious_sr3:A62F ??                          .ds 1
xevious_sr3:A630 ??                          .ds 1
xevious_sr3:A631 ??                          .ds 1
xevious_sr3:A632 ??                          .ds 1
xevious_sr3:A633 ??                          .ds 1
xevious_sr3:A634 ??                          .ds 1
xevious_sr3:A635 ??                          .ds 1
xevious_sr3:A636 ??                          .ds 1
xevious_sr3:A637 ??                          .ds 1
xevious_sr3:A638 ??                          .ds 1
xevious_sr3:A639 ??                          .ds 1
xevious_sr3:A63A ??                          .ds 1
xevious_sr3:A63B ??                          .ds 1
xevious_sr3:A63C ??                          .ds 1
xevious_sr3:A63D ??                          .ds 1
xevious_sr3:A63E ??                          .ds 1
xevious_sr3:A63F ??                          .ds 1
xevious_sr3:A640 ??                          .ds 1
xevious_sr3:A641 ??                          .ds 1
xevious_sr3:A642 ??                          .ds 1
xevious_sr3:A643 ??                          .ds 1
xevious_sr3:A644 ??                          .ds 1
xevious_sr3:A645 ??                          .ds 1
xevious_sr3:A646 ??                          .ds 1
xevious_sr3:A647 ??                          .ds 1
xevious_sr3:A648 ??                          .ds 1
xevious_sr3:A649 ??                          .ds 1
xevious_sr3:A64A ??                          .ds 1
xevious_sr3:A64B ??                          .ds 1
xevious_sr3:A64C ??                          .ds 1
xevious_sr3:A64D ??                          .ds 1
xevious_sr3:A64E ??                          .ds 1
xevious_sr3:A64F ??                          .ds 1
xevious_sr3:A650 ??                          .ds 1
xevious_sr3:A651 ??                          .ds 1
xevious_sr3:A652 ??                          .ds 1
xevious_sr3:A653 ??                          .ds 1
xevious_sr3:A654 ??                          .ds 1
xevious_sr3:A655 ??                          .ds 1
xevious_sr3:A656 ??                          .ds 1
xevious_sr3:A657 ??                          .ds 1
xevious_sr3:A658 ??                          .ds 1
xevious_sr3:A659 ??                          .ds 1
xevious_sr3:A65A ??                          .ds 1
xevious_sr3:A65B ??                          .ds 1
xevious_sr3:A65C ??                          .ds 1
xevious_sr3:A65D ??                          .ds 1
xevious_sr3:A65E ??                          .ds 1
xevious_sr3:A65F ??                          .ds 1
xevious_sr3:A660 ??                          .ds 1
xevious_sr3:A661 ??                          .ds 1
xevious_sr3:A662 ??                          .ds 1
xevious_sr3:A663 ??                          .ds 1
xevious_sr3:A664 ??                          .ds 1
xevious_sr3:A665 ??                          .ds 1
xevious_sr3:A666 ??                          .ds 1
xevious_sr3:A667 ??                          .ds 1
xevious_sr3:A668 ??                          .ds 1
xevious_sr3:A669 ??                          .ds 1
xevious_sr3:A66A ??                          .ds 1
xevious_sr3:A66B ??                          .ds 1
xevious_sr3:A66C ??                          .ds 1
xevious_sr3:A66D ??                          .ds 1
xevious_sr3:A66E ??                          .ds 1
xevious_sr3:A66F ??                          .ds 1
xevious_sr3:A670 ??                          .ds 1
xevious_sr3:A671 ??                          .ds 1
xevious_sr3:A672 ??                          .ds 1
xevious_sr3:A673 ??                          .ds 1
xevious_sr3:A674 ??                          .ds 1
xevious_sr3:A675 ??                          .ds 1
xevious_sr3:A676 ??                          .ds 1
xevious_sr3:A677 ??                          .ds 1
xevious_sr3:A678 ??                          .ds 1
xevious_sr3:A679 ??                          .ds 1
xevious_sr3:A67A ??                          .ds 1
xevious_sr3:A67B ??                          .ds 1
xevious_sr3:A67C ??                          .ds 1
xevious_sr3:A67D ??                          .ds 1
xevious_sr3:A67E ??                          .ds 1
xevious_sr3:A67F ??                          .ds 1
xevious_sr3:A680 ??                          .ds 1
xevious_sr3:A681 ??                          .ds 1
xevious_sr3:A682 ??                          .ds 1
xevious_sr3:A683 ??                          .ds 1
xevious_sr3:A684 ??                          .ds 1
xevious_sr3:A685 ??                          .ds 1
xevious_sr3:A686 ??                          .ds 1
xevious_sr3:A687 ??                          .ds 1
xevious_sr3:A688 ??                          .ds 1
xevious_sr3:A689 ??                          .ds 1
xevious_sr3:A68A ??                          .ds 1
xevious_sr3:A68B ??                          .ds 1
xevious_sr3:A68C ??                          .ds 1
xevious_sr3:A68D ??                          .ds 1
xevious_sr3:A68E ??                          .ds 1
xevious_sr3:A68F ??                          .ds 1
xevious_sr3:A690 ??                          .ds 1
xevious_sr3:A691 ??                          .ds 1
xevious_sr3:A692 ??                          .ds 1
xevious_sr3:A693 ??                          .ds 1
xevious_sr3:A694 ??                          .ds 1
xevious_sr3:A695 ??                          .ds 1
xevious_sr3:A696 ??                          .ds 1
xevious_sr3:A697 ??                          .ds 1
xevious_sr3:A698 ??                          .ds 1
xevious_sr3:A699 ??                          .ds 1
xevious_sr3:A69A ??                          .ds 1
xevious_sr3:A69B ??                          .ds 1
xevious_sr3:A69C ??                          .ds 1
xevious_sr3:A69D ??                          .ds 1
xevious_sr3:A69E ??                          .ds 1
xevious_sr3:A69F ??                          .ds 1
xevious_sr3:A6A0 ??                          .ds 1
xevious_sr3:A6A1 ??                          .ds 1
xevious_sr3:A6A2 ??                          .ds 1
xevious_sr3:A6A3 ??                          .ds 1
xevious_sr3:A6A4 ??                          .ds 1
xevious_sr3:A6A5 ??                          .ds 1
xevious_sr3:A6A6 ??                          .ds 1
xevious_sr3:A6A7 ??                          .ds 1
xevious_sr3:A6A8 ??                          .ds 1
xevious_sr3:A6A9 ??                          .ds 1
xevious_sr3:A6AA ??                          .ds 1
xevious_sr3:A6AB ??                          .ds 1
xevious_sr3:A6AC ??                          .ds 1
xevious_sr3:A6AD ??                          .ds 1
xevious_sr3:A6AE ??                          .ds 1
xevious_sr3:A6AF ??                          .ds 1
xevious_sr3:A6B0 ??                          .ds 1
xevious_sr3:A6B1 ??                          .ds 1
xevious_sr3:A6B2 ??                          .ds 1
xevious_sr3:A6B3 ??                          .ds 1
xevious_sr3:A6B4 ??                          .ds 1
xevious_sr3:A6B5 ??                          .ds 1
xevious_sr3:A6B6 ??                          .ds 1
xevious_sr3:A6B7 ??                          .ds 1
xevious_sr3:A6B8 ??                          .ds 1
xevious_sr3:A6B9 ??                          .ds 1
xevious_sr3:A6BA ??                          .ds 1
xevious_sr3:A6BB ??                          .ds 1
xevious_sr3:A6BC ??                          .ds 1
xevious_sr3:A6BD ??                          .ds 1
xevious_sr3:A6BE ??                          .ds 1
xevious_sr3:A6BF ??                          .ds 1
xevious_sr3:A6C0 ??                          .ds 1
xevious_sr3:A6C1 ??                          .ds 1
xevious_sr3:A6C2 ??                          .ds 1
xevious_sr3:A6C3 ??                          .ds 1
xevious_sr3:A6C4 ??                          .ds 1
xevious_sr3:A6C5 ??                          .ds 1
xevious_sr3:A6C6 ??                          .ds 1
xevious_sr3:A6C7 ??                          .ds 1
xevious_sr3:A6C8 ??                          .ds 1
xevious_sr3:A6C9 ??                          .ds 1
xevious_sr3:A6CA ??                          .ds 1
xevious_sr3:A6CB ??                          .ds 1
xevious_sr3:A6CC ??                          .ds 1
xevious_sr3:A6CD ??                          .ds 1
xevious_sr3:A6CE ??                          .ds 1
xevious_sr3:A6CF ??                          .ds 1
xevious_sr3:A6D0 ??                          .ds 1
xevious_sr3:A6D1 ??                          .ds 1
xevious_sr3:A6D2 ??                          .ds 1
xevious_sr3:A6D3 ??                          .ds 1
xevious_sr3:A6D4 ??                          .ds 1
xevious_sr3:A6D5 ??                          .ds 1
xevious_sr3:A6D6 ??                          .ds 1
xevious_sr3:A6D7 ??                          .ds 1
xevious_sr3:A6D8 ??                          .ds 1
xevious_sr3:A6D9 ??                          .ds 1
xevious_sr3:A6DA ??                          .ds 1
xevious_sr3:A6DB ??                          .ds 1
xevious_sr3:A6DC ??                          .ds 1
xevious_sr3:A6DD ??                          .ds 1
xevious_sr3:A6DE ??                          .ds 1
xevious_sr3:A6DF ??                          .ds 1
xevious_sr3:A6E0 ??                          .ds 1
xevious_sr3:A6E1 ??                          .ds 1
xevious_sr3:A6E2 ??                          .ds 1
xevious_sr3:A6E3 ??                          .ds 1
xevious_sr3:A6E4 ??                          .ds 1
xevious_sr3:A6E5 ??                          .ds 1
xevious_sr3:A6E6 ??                          .ds 1
xevious_sr3:A6E7 ??                          .ds 1
xevious_sr3:A6E8 ??                          .ds 1
xevious_sr3:A6E9 ??                          .ds 1
xevious_sr3:A6EA ??                          .ds 1
xevious_sr3:A6EB ??                          .ds 1
xevious_sr3:A6EC ??                          .ds 1
xevious_sr3:A6ED ??                          .ds 1
xevious_sr3:A6EE ??                          .ds 1
xevious_sr3:A6EF ??                          .ds 1
xevious_sr3:A6F0 ??                          .ds 1
xevious_sr3:A6F1 ??                          .ds 1
xevious_sr3:A6F2 ??                          .ds 1
xevious_sr3:A6F3 ??                          .ds 1
xevious_sr3:A6F4 ??                          .ds 1
xevious_sr3:A6F5 ??                          .ds 1
xevious_sr3:A6F6 ??                          .ds 1
xevious_sr3:A6F7 ??                          .ds 1
xevious_sr3:A6F8 ??                          .ds 1
xevious_sr3:A6F9 ??                          .ds 1
xevious_sr3:A6FA ??                          .ds 1
xevious_sr3:A6FB ??                          .ds 1
xevious_sr3:A6FC ??                          .ds 1
xevious_sr3:A6FD ??                          .ds 1
xevious_sr3:A6FE ??                          .ds 1
xevious_sr3:A6FF ??                          .ds 1
xevious_sr3:A700 ??                          .ds 1
xevious_sr3:A701 ??                          .ds 1
xevious_sr3:A702 ??                          .ds 1
xevious_sr3:A703 ??                          .ds 1
xevious_sr3:A704 ??                          .ds 1
xevious_sr3:A705 ??                          .ds 1
xevious_sr3:A706 ??                          .ds 1
xevious_sr3:A707 ??                          .ds 1
xevious_sr3:A708 ??                          .ds 1
xevious_sr3:A709 ??                          .ds 1
xevious_sr3:A70A ??                          .ds 1
xevious_sr3:A70B ??                          .ds 1
xevious_sr3:A70C ??                          .ds 1
xevious_sr3:A70D ??                          .ds 1
xevious_sr3:A70E ??                          .ds 1
xevious_sr3:A70F ??                          .ds 1
xevious_sr3:A710 ??                          .ds 1
xevious_sr3:A711 ??                          .ds 1
xevious_sr3:A712 ??                          .ds 1
xevious_sr3:A713 ??                          .ds 1
xevious_sr3:A714 ??                          .ds 1
xevious_sr3:A715 ??                          .ds 1
xevious_sr3:A716 ??                          .ds 1
xevious_sr3:A717 ??                          .ds 1
xevious_sr3:A718 ??                          .ds 1
xevious_sr3:A719 ??                          .ds 1
xevious_sr3:A71A ??                          .ds 1
xevious_sr3:A71B ??                          .ds 1
xevious_sr3:A71C ??                          .ds 1
xevious_sr3:A71D ??                          .ds 1
xevious_sr3:A71E ??                          .ds 1
xevious_sr3:A71F ??                          .ds 1
xevious_sr3:A720 ??                          .ds 1
xevious_sr3:A721 ??                          .ds 1
xevious_sr3:A722 ??                          .ds 1
xevious_sr3:A723 ??                          .ds 1
xevious_sr3:A724 ??                          .ds 1
xevious_sr3:A725 ??                          .ds 1
xevious_sr3:A726 ??                          .ds 1
xevious_sr3:A727 ??                          .ds 1
xevious_sr3:A728 ??                          .ds 1
xevious_sr3:A729 ??                          .ds 1
xevious_sr3:A72A ??                          .ds 1
xevious_sr3:A72B ??                          .ds 1
xevious_sr3:A72C ??                          .ds 1
xevious_sr3:A72D ??                          .ds 1
xevious_sr3:A72E ??                          .ds 1
xevious_sr3:A72F ??                          .ds 1
xevious_sr3:A730 ??                          .ds 1
xevious_sr3:A731 ??                          .ds 1
xevious_sr3:A732 ??                          .ds 1
xevious_sr3:A733 ??                          .ds 1
xevious_sr3:A734 ??                          .ds 1
xevious_sr3:A735 ??                          .ds 1
xevious_sr3:A736 ??                          .ds 1
xevious_sr3:A737 ??                          .ds 1
xevious_sr3:A738 ??                          .ds 1
xevious_sr3:A739 ??                          .ds 1
xevious_sr3:A73A ??                          .ds 1
xevious_sr3:A73B ??                          .ds 1
xevious_sr3:A73C ??                          .ds 1
xevious_sr3:A73D ??                          .ds 1
xevious_sr3:A73E ??                          .ds 1
xevious_sr3:A73F ??                          .ds 1
xevious_sr3:A740 ??                          .ds 1
xevious_sr3:A741 ??                          .ds 1
xevious_sr3:A742 ??                          .ds 1
xevious_sr3:A743 ??                          .ds 1
xevious_sr3:A744 ??                          .ds 1
xevious_sr3:A745 ??                          .ds 1
xevious_sr3:A746 ??                          .ds 1
xevious_sr3:A747 ??                          .ds 1
xevious_sr3:A748 ??                          .ds 1
xevious_sr3:A749 ??                          .ds 1
xevious_sr3:A74A ??                          .ds 1
xevious_sr3:A74B ??                          .ds 1
xevious_sr3:A74C ??                          .ds 1
xevious_sr3:A74D ??                          .ds 1
xevious_sr3:A74E ??                          .ds 1
xevious_sr3:A74F ??                          .ds 1
xevious_sr3:A750 ??                          .ds 1
xevious_sr3:A751 ??                          .ds 1
xevious_sr3:A752 ??                          .ds 1
xevious_sr3:A753 ??                          .ds 1
xevious_sr3:A754 ??                          .ds 1
xevious_sr3:A755 ??                          .ds 1
xevious_sr3:A756 ??                          .ds 1
xevious_sr3:A757 ??                          .ds 1
xevious_sr3:A758 ??                          .ds 1
xevious_sr3:A759 ??                          .ds 1
xevious_sr3:A75A ??                          .ds 1
xevious_sr3:A75B ??                          .ds 1
xevious_sr3:A75C ??                          .ds 1
xevious_sr3:A75D ??                          .ds 1
xevious_sr3:A75E ??                          .ds 1
xevious_sr3:A75F ??                          .ds 1
xevious_sr3:A760 ??                          .ds 1
xevious_sr3:A761 ??                          .ds 1
xevious_sr3:A762 ??                          .ds 1
xevious_sr3:A763 ??                          .ds 1
xevious_sr3:A764 ??                          .ds 1
xevious_sr3:A765 ??                          .ds 1
xevious_sr3:A766 ??                          .ds 1
xevious_sr3:A767 ??                          .ds 1
xevious_sr3:A768 ??                          .ds 1
xevious_sr3:A769 ??                          .ds 1
xevious_sr3:A76A ??                          .ds 1
xevious_sr3:A76B ??                          .ds 1
xevious_sr3:A76C ??                          .ds 1
xevious_sr3:A76D ??                          .ds 1
xevious_sr3:A76E ??                          .ds 1
xevious_sr3:A76F ??                          .ds 1
xevious_sr3:A770 ??                          .ds 1
xevious_sr3:A771 ??                          .ds 1
xevious_sr3:A772 ??                          .ds 1
xevious_sr3:A773 ??                          .ds 1
xevious_sr3:A774 ??                          .ds 1
xevious_sr3:A775 ??                          .ds 1
xevious_sr3:A776 ??                          .ds 1
xevious_sr3:A777 ??                          .ds 1
xevious_sr3:A778 ??                          .ds 1
xevious_sr3:A779 ??                          .ds 1
xevious_sr3:A77A ??                          .ds 1
xevious_sr3:A77B ??                          .ds 1
xevious_sr3:A77C ??                          .ds 1
xevious_sr3:A77D ??                          .ds 1
xevious_sr3:A77E ??                          .ds 1
xevious_sr3:A77F ??                          .ds 1
xevious_sr3:A780 ??                          .ds 1
xevious_sr3:A781 ??                          .ds 1
xevious_sr3:A782 ??                          .ds 1
xevious_sr3:A783 ??                          .ds 1
xevious_sr3:A784 ??                          .ds 1
xevious_sr3:A785 ??                          .ds 1
xevious_sr3:A786 ??                          .ds 1
xevious_sr3:A787 ??                          .ds 1
xevious_sr3:A788 ??                          .ds 1
xevious_sr3:A789 ??                          .ds 1
xevious_sr3:A78A ??                          .ds 1
xevious_sr3:A78B ??                          .ds 1
xevious_sr3:A78C ??                          .ds 1
xevious_sr3:A78D ??                          .ds 1
xevious_sr3:A78E ??                          .ds 1
xevious_sr3:A78F ??                          .ds 1
xevious_sr3:A790 ??                          .ds 1
xevious_sr3:A791 ??                          .ds 1
xevious_sr3:A792 ??                          .ds 1
xevious_sr3:A793 ??                          .ds 1
xevious_sr3:A794 ??                          .ds 1
xevious_sr3:A795 ??                          .ds 1
xevious_sr3:A796 ??                          .ds 1
xevious_sr3:A797 ??                          .ds 1
xevious_sr3:A798 ??                          .ds 1
xevious_sr3:A799 ??                          .ds 1
xevious_sr3:A79A ??                          .ds 1
xevious_sr3:A79B ??                          .ds 1
xevious_sr3:A79C ??                          .ds 1
xevious_sr3:A79D ??                          .ds 1
xevious_sr3:A79E ??                          .ds 1
xevious_sr3:A79F ??                          .ds 1
xevious_sr3:A7A0 ??                          .ds 1
xevious_sr3:A7A1 ??                          .ds 1
xevious_sr3:A7A2 ??                          .ds 1
xevious_sr3:A7A3 ??                          .ds 1
xevious_sr3:A7A4 ??                          .ds 1
xevious_sr3:A7A5 ??                          .ds 1
xevious_sr3:A7A6 ??                          .ds 1
xevious_sr3:A7A7 ??                          .ds 1
xevious_sr3:A7A8 ??                          .ds 1
xevious_sr3:A7A9 ??                          .ds 1
xevious_sr3:A7AA ??                          .ds 1
xevious_sr3:A7AB ??                          .ds 1
xevious_sr3:A7AC ??                          .ds 1
xevious_sr3:A7AD ??                          .ds 1
xevious_sr3:A7AE ??                          .ds 1
xevious_sr3:A7AF ??                          .ds 1
xevious_sr3:A7B0 ??                          .ds 1
xevious_sr3:A7B1 ??                          .ds 1
xevious_sr3:A7B2 ??                          .ds 1
xevious_sr3:A7B3 ??                          .ds 1
xevious_sr3:A7B4 ??                          .ds 1
xevious_sr3:A7B5 ??                          .ds 1
xevious_sr3:A7B6 ??                          .ds 1
xevious_sr3:A7B7 ??                          .ds 1
xevious_sr3:A7B8 ??                          .ds 1
xevious_sr3:A7B9 ??                          .ds 1
xevious_sr3:A7BA ??                          .ds 1
xevious_sr3:A7BB ??                          .ds 1
xevious_sr3:A7BC ??                          .ds 1
xevious_sr3:A7BD ??                          .ds 1
xevious_sr3:A7BE ??                          .ds 1
xevious_sr3:A7BF ??                          .ds 1
xevious_sr3:A7C0 ?? ?? ?? ??+spriteram_upper:.ds 0x40                ; DATA XREF: ROM:03DEo
xevious_sr3:A7C0 ?? ?? ?? ??+; end of 'xevious_sr3'
xevious_sr3:A7C0 ?? ?? ?? ??+
fg_colorram:B000             ; ===========================================================================
fg_colorram:B000
fg_colorram:B000             ; Segment type: Regular
fg_colorram:B000                             .org 0xB000
fg_colorram:B000 ?? ?? ?? ??+fg_colorram:    .ds 0x800
fg_colorram:B000 ?? ?? ?? ??+; end of 'fg_colorram'
fg_colorram:B000 ?? ?? ?? ??+
fg_videoram:C000             ; ===========================================================================
fg_videoram:C000
fg_videoram:C000             ; Segment type: Regular
fg_videoram:C000                             .org 0xC000
fg_videoram:C000 ?? ?? ?? ??+fg_videoram:    .ds 0x800
fg_videoram:C000 ?? ?? ?? ??+; end of 'fg_videoram'
fg_videoram:C000 ?? ?? ?? ??+
vh_latch_w:D000             ; ===========================================================================
vh_latch_w:D000
vh_latch_w:D000             ; Segment type: Regular
vh_latch_w:D000                             .org 0xD000
vh_latch_w:D000 ?? ?? ?? ??+bg_scoll_x:     .ds 0x10
vh_latch_w:D010 ?? ?? ?? ??+fg_scroll_x:    .ds 0x10
vh_latch_w:D020 ?? ?? ?? ??+bg_scroll_y:    .ds 0x10
vh_latch_w:D030 ?? ?? ?? ??+fg_scroll_y:    .ds 0x10
vh_latch_w:D040 ?? ?? ?? ??+                .ds 0x30
vh_latch_w:D070 ?? ?? ?? ??+flip_screen_hw: .ds 0x10
vh_latch_w:D070 ?? ?? ?? ??+; end of 'vh_latch_w'
vh_latch_w:D070 ?? ?? ?? ??+
bb_r_bs_w:F000             ; ===========================================================================
bb_r_bs_w:F000
bb_r_bs_w:F000             ; Segment type: Regular
bb_r_bs_w:F000                             .org 0xF000
bb_r_bs_w:F000 ??          bs_0:           .ds 1
bb_r_bs_w:F001 ??          bs_1:           .ds 1
bb_r_bs_w:F002 ?? ?? ?? ??+                .ds 0xFFE
bb_r_bs_w:F002 ?? ?? ?? ??+; end of 'bb_r_bs_w'
bb_r_bs_w:F002 ?? ?? ?? ??+
bb_r_bs_w:F002 ?? ?? ?? ??+; end of file
